ARM GAS  C:\Users\huawei\AppData\Local\Temp\ccwYaMVL.s 			page 1


   1              		.cpu cortex-m4
   2              		.arch armv7e-m
   3              		.fpu fpv4-sp-d16
   4              		.eabi_attribute 27, 1
   5              		.eabi_attribute 28, 1
   6              		.eabi_attribute 20, 1
   7              		.eabi_attribute 21, 1
   8              		.eabi_attribute 23, 3
   9              		.eabi_attribute 24, 1
  10              		.eabi_attribute 25, 1
  11              		.eabi_attribute 26, 1
  12              		.eabi_attribute 30, 1
  13              		.eabi_attribute 34, 1
  14              		.eabi_attribute 18, 4
  15              		.file	"adBms6830ParseCreate.cpp"
  16              		.text
  17              	.Ltext0:
  18              		.cfi_sections	.debug_frame
  19              		.file 1 "Core/Src/adBms6830ParseCreate.cpp"
  20              		.global	__aeabi_f2d
  21              		.global	__aeabi_ddiv
  22              		.global	__aeabi_d2f
  23              		.section	.text._Z23SetOverVoltageThresholdf,"ax",%progbits
  24              		.align	1
  25              		.global	_Z23SetOverVoltageThresholdf
  26              		.syntax unified
  27              		.thumb
  28              		.thumb_func
  30              	_Z23SetOverVoltageThresholdf:
  31              		.fnstart
  32              	.LVL0:
  33              	.LFB245:
   1:Core/Src/adBms6830ParseCreate.cpp **** /*******************************************************************************
   2:Core/Src/adBms6830ParseCreate.cpp **** Copyright (c) 2020 - Analog Devices Inc. All Rights Reserved.
   3:Core/Src/adBms6830ParseCreate.cpp **** This software is proprietary & confidential to Analog Devices, Inc.
   4:Core/Src/adBms6830ParseCreate.cpp **** and its licensor.
   5:Core/Src/adBms6830ParseCreate.cpp **** ******************************************************************************
   6:Core/Src/adBms6830ParseCreate.cpp **** * @file:    adBms6830ParseCreate.c
   7:Core/Src/adBms6830ParseCreate.cpp **** * @brief:   adBms6830 ParseCreate data helper functions
   8:Core/Src/adBms6830ParseCreate.cpp **** * @version: $Revision$
   9:Core/Src/adBms6830ParseCreate.cpp **** * @date:    $Date$
  10:Core/Src/adBms6830ParseCreate.cpp **** * Developed by: ADIBMS Software team, Bangalore, India
  11:Core/Src/adBms6830ParseCreate.cpp **** *****************************************************************************/
  12:Core/Src/adBms6830ParseCreate.cpp **** 
  13:Core/Src/adBms6830ParseCreate.cpp **** /*! \addtogroup BMS DRIVER
  14:Core/Src/adBms6830ParseCreate.cpp **** */
  15:Core/Src/adBms6830ParseCreate.cpp **** 
  16:Core/Src/adBms6830ParseCreate.cpp **** /*! @addtogroup PARSE_CREATE PARSE CREATE DATA
  17:Core/Src/adBms6830ParseCreate.cpp **** *  @{
  18:Core/Src/adBms6830ParseCreate.cpp **** */
  19:Core/Src/adBms6830ParseCreate.cpp **** #include "adBms6830ParseCreate.h"
  20:Core/Src/adBms6830ParseCreate.cpp **** 
  21:Core/Src/adBms6830ParseCreate.cpp **** /**
  22:Core/Src/adBms6830ParseCreate.cpp ****  *******************************************************************************
  23:Core/Src/adBms6830ParseCreate.cpp ****  * Function: SetOverVoltageThreshold
  24:Core/Src/adBms6830ParseCreate.cpp ****  * @brief Set Over Voltage Threshold.
  25:Core/Src/adBms6830ParseCreate.cpp ****  *
ARM GAS  C:\Users\huawei\AppData\Local\Temp\ccwYaMVL.s 			page 2


  26:Core/Src/adBms6830ParseCreate.cpp ****  * @details This function Set Over Voltage Threshold.
  27:Core/Src/adBms6830ParseCreate.cpp ****  *
  28:Core/Src/adBms6830ParseCreate.cpp ****  * Parameters:
  29:Core/Src/adBms6830ParseCreate.cpp ****  *
  30:Core/Src/adBms6830ParseCreate.cpp ****  * @param [in]  voltage      Over voltage
  31:Core/Src/adBms6830ParseCreate.cpp ****  *
  32:Core/Src/adBms6830ParseCreate.cpp ****  * @return OverVoltage_value
  33:Core/Src/adBms6830ParseCreate.cpp ****  *
  34:Core/Src/adBms6830ParseCreate.cpp ****  *******************************************************************************
  35:Core/Src/adBms6830ParseCreate.cpp **** */
  36:Core/Src/adBms6830ParseCreate.cpp **** uint16_t SetOverVoltageThreshold(float voltage)
  37:Core/Src/adBms6830ParseCreate.cpp **** {
  34              		.loc 1 37 1 view -0
  35              		.cfi_startproc
  36              		@ args = 0, pretend = 0, frame = 0
  37              		@ frame_needed = 0, uses_anonymous_args = 0
  38              		.loc 1 37 1 is_stmt 0 view .LVU1
  39 0000 08B5     		push	{r3, lr}
  40              	.LCFI0:
  41              		.cfi_def_cfa_offset 8
  42              		.cfi_offset 3, -8
  43              		.cfi_offset 14, -4
  38:Core/Src/adBms6830ParseCreate.cpp ****   uint16_t vov_value;
  44              		.loc 1 38 3 is_stmt 1 view .LVU2
  39:Core/Src/adBms6830ParseCreate.cpp ****   uint8_t rbits = 12;
  45              		.loc 1 39 3 view .LVU3
  46              	.LVL1:
  40:Core/Src/adBms6830ParseCreate.cpp ****   voltage = (voltage - 1.5);
  47              		.loc 1 40 3 view .LVU4
  41:Core/Src/adBms6830ParseCreate.cpp ****   voltage = voltage / (16 * 0.000150);
  48              		.loc 1 41 3 view .LVU5
  49              		.loc 1 41 13 is_stmt 0 view .LVU6
  50 0002 F7EE087A 		vmov.f32	s15, #1.5e+0
  51 0006 70EE677A 		vsub.f32	s15, s0, s15
  52              	.LVL2:
  53              		.loc 1 41 13 view .LVU7
  54 000a 17EE900A 		vmov	r0, s15
  55 000e FFF7FEFF 		bl	__aeabi_f2d
  56              	.LVL3:
  57              		.loc 1 41 21 view .LVU8
  58 0012 0CA3     		adr	r3, .L3+4
  59 0014 D3E90023 		ldrd	r2, [r3]
  60 0018 FFF7FEFF 		bl	__aeabi_ddiv
  61              	.LVL4:
  62              		.loc 1 41 11 view .LVU9
  63 001c FFF7FEFF 		bl	__aeabi_d2f
  64              	.LVL5:
  65 0020 07EE900A 		vmov	s15, r0
  66              	.LVL6:
  42:Core/Src/adBms6830ParseCreate.cpp ****   vov_value = (uint16_t )(voltage + 2 * (1 << (rbits - 1)));
  67              		.loc 1 42 3 is_stmt 1 view .LVU10
  68              		.loc 1 42 35 is_stmt 0 view .LVU11
  69 0024 9FED067A 		vldr.32	s14, .L3
  70 0028 77EE877A 		vadd.f32	s15, s15, s14
  71              		.loc 1 42 13 view .LVU12
  72 002c FCEEE77A 		vcvt.u32.f32	s15, s15
  73 0030 17EE900A 		vmov	r0, s15	@ int
ARM GAS  C:\Users\huawei\AppData\Local\Temp\ccwYaMVL.s 			page 3


  74              	.LVL7:
  43:Core/Src/adBms6830ParseCreate.cpp ****   vov_value &= 0xFFF;
  75              		.loc 1 43 3 is_stmt 1 view .LVU13
  44:Core/Src/adBms6830ParseCreate.cpp ****   return vov_value;
  76              		.loc 1 44 3 view .LVU14
  45:Core/Src/adBms6830ParseCreate.cpp **** }
  77              		.loc 1 45 1 is_stmt 0 view .LVU15
  78 0034 C0F30B00 		ubfx	r0, r0, #0, #12
  79              	.LVL8:
  80              		.loc 1 45 1 view .LVU16
  81 0038 08BD     		pop	{r3, pc}
  82              	.L4:
  83 003a 00BFAFF3 		.align	3
  83      0080
  84              	.L3:
  85 0040 00008045 		.word	1166016512
  86 0044 61325530 		.word	810889825
  87 0048 2AA9633F 		.word	1063495978
  88              		.cfi_endproc
  89              	.LFE245:
  90              		.cantunwind
  91              		.fnend
  93              		.section	.text._Z24SetUnderVoltageThresholdf,"ax",%progbits
  94              		.align	1
  95              		.global	_Z24SetUnderVoltageThresholdf
  96              		.syntax unified
  97              		.thumb
  98              		.thumb_func
 100              	_Z24SetUnderVoltageThresholdf:
 101              		.fnstart
 102              	.LVL9:
 103              	.LFB246:
  46:Core/Src/adBms6830ParseCreate.cpp **** 
  47:Core/Src/adBms6830ParseCreate.cpp **** /**
  48:Core/Src/adBms6830ParseCreate.cpp ****  *******************************************************************************
  49:Core/Src/adBms6830ParseCreate.cpp ****  * Function: SetUnderVoltageThreshold
  50:Core/Src/adBms6830ParseCreate.cpp ****  * @brief Set Under Voltage Threshold.
  51:Core/Src/adBms6830ParseCreate.cpp ****  *
  52:Core/Src/adBms6830ParseCreate.cpp ****  * @details This function Set Under Voltage Threshold.
  53:Core/Src/adBms6830ParseCreate.cpp ****  *
  54:Core/Src/adBms6830ParseCreate.cpp ****  * Parameters:
  55:Core/Src/adBms6830ParseCreate.cpp ****  *
  56:Core/Src/adBms6830ParseCreate.cpp ****  * @param [in]  voltage      Under voltage
  57:Core/Src/adBms6830ParseCreate.cpp ****  *
  58:Core/Src/adBms6830ParseCreate.cpp ****  * @return UnderVoltage_value
  59:Core/Src/adBms6830ParseCreate.cpp ****  *
  60:Core/Src/adBms6830ParseCreate.cpp ****  *******************************************************************************
  61:Core/Src/adBms6830ParseCreate.cpp **** */
  62:Core/Src/adBms6830ParseCreate.cpp **** uint16_t SetUnderVoltageThreshold(float voltage)
  63:Core/Src/adBms6830ParseCreate.cpp **** {
 104              		.loc 1 63 1 is_stmt 1 view -0
 105              		.cfi_startproc
 106              		@ args = 0, pretend = 0, frame = 0
 107              		@ frame_needed = 0, uses_anonymous_args = 0
 108              		.loc 1 63 1 is_stmt 0 view .LVU18
 109 0000 08B5     		push	{r3, lr}
 110              	.LCFI1:
ARM GAS  C:\Users\huawei\AppData\Local\Temp\ccwYaMVL.s 			page 4


 111              		.cfi_def_cfa_offset 8
 112              		.cfi_offset 3, -8
 113              		.cfi_offset 14, -4
  64:Core/Src/adBms6830ParseCreate.cpp ****   uint16_t vuv_value;
 114              		.loc 1 64 3 is_stmt 1 view .LVU19
  65:Core/Src/adBms6830ParseCreate.cpp ****   uint8_t rbits = 12;
 115              		.loc 1 65 3 view .LVU20
 116              	.LVL10:
  66:Core/Src/adBms6830ParseCreate.cpp ****   voltage = (voltage - 1.5);
 117              		.loc 1 66 3 view .LVU21
  67:Core/Src/adBms6830ParseCreate.cpp ****   voltage = voltage / (16 * 0.000150);
 118              		.loc 1 67 3 view .LVU22
 119              		.loc 1 67 13 is_stmt 0 view .LVU23
 120 0002 F7EE087A 		vmov.f32	s15, #1.5e+0
 121 0006 70EE677A 		vsub.f32	s15, s0, s15
 122              	.LVL11:
 123              		.loc 1 67 13 view .LVU24
 124 000a 17EE900A 		vmov	r0, s15
 125 000e FFF7FEFF 		bl	__aeabi_f2d
 126              	.LVL12:
 127              		.loc 1 67 21 view .LVU25
 128 0012 0CA3     		adr	r3, .L7+4
 129 0014 D3E90023 		ldrd	r2, [r3]
 130 0018 FFF7FEFF 		bl	__aeabi_ddiv
 131              	.LVL13:
 132              		.loc 1 67 11 view .LVU26
 133 001c FFF7FEFF 		bl	__aeabi_d2f
 134              	.LVL14:
 135 0020 07EE900A 		vmov	s15, r0
 136              	.LVL15:
  68:Core/Src/adBms6830ParseCreate.cpp ****   vuv_value = (uint16_t )(voltage + 2 * (1 << (rbits - 1)));
 137              		.loc 1 68 3 is_stmt 1 view .LVU27
 138              		.loc 1 68 35 is_stmt 0 view .LVU28
 139 0024 9FED067A 		vldr.32	s14, .L7
 140 0028 77EE877A 		vadd.f32	s15, s15, s14
 141              		.loc 1 68 13 view .LVU29
 142 002c FCEEE77A 		vcvt.u32.f32	s15, s15
 143 0030 17EE900A 		vmov	r0, s15	@ int
 144              	.LVL16:
  69:Core/Src/adBms6830ParseCreate.cpp ****   vuv_value &= 0xFFF;
 145              		.loc 1 69 3 is_stmt 1 view .LVU30
  70:Core/Src/adBms6830ParseCreate.cpp ****   return vuv_value;
 146              		.loc 1 70 3 view .LVU31
  71:Core/Src/adBms6830ParseCreate.cpp **** }
 147              		.loc 1 71 1 is_stmt 0 view .LVU32
 148 0034 C0F30B00 		ubfx	r0, r0, #0, #12
 149              	.LVL17:
 150              		.loc 1 71 1 view .LVU33
 151 0038 08BD     		pop	{r3, pc}
 152              	.L8:
 153 003a 00BFAFF3 		.align	3
 153      0080
 154              	.L7:
 155 0040 00008045 		.word	1166016512
 156 0044 61325530 		.word	810889825
 157 0048 2AA9633F 		.word	1063495978
 158              		.cfi_endproc
ARM GAS  C:\Users\huawei\AppData\Local\Temp\ccwYaMVL.s 			page 5


 159              	.LFE246:
 160              		.cantunwind
 161              		.fnend
 163              		.section	.text._Z12ConfigA_Flag6FLAG_D9CFGA_FLAG,"ax",%progbits
 164              		.align	1
 165              		.global	_Z12ConfigA_Flag6FLAG_D9CFGA_FLAG
 166              		.syntax unified
 167              		.thumb
 168              		.thumb_func
 170              	_Z12ConfigA_Flag6FLAG_D9CFGA_FLAG:
 171              		.fnstart
 172              	.LVL18:
 173              	.LFB247:
  72:Core/Src/adBms6830ParseCreate.cpp **** 
  73:Core/Src/adBms6830ParseCreate.cpp **** /**
  74:Core/Src/adBms6830ParseCreate.cpp ****  *******************************************************************************
  75:Core/Src/adBms6830ParseCreate.cpp ****  * Function: ConfigA_Flag
  76:Core/Src/adBms6830ParseCreate.cpp ****  * @brief Config A Flag bit.
  77:Core/Src/adBms6830ParseCreate.cpp ****  *
  78:Core/Src/adBms6830ParseCreate.cpp ****  * @details This function Set configuration A flag bit.
  79:Core/Src/adBms6830ParseCreate.cpp ****  *
  80:Core/Src/adBms6830ParseCreate.cpp ****  * Parameters:
  81:Core/Src/adBms6830ParseCreate.cpp ****  *
  82:Core/Src/adBms6830ParseCreate.cpp ****  * @param [in]  flag_d      Enum type flag bit
  83:Core/Src/adBms6830ParseCreate.cpp ****  *
  84:Core/Src/adBms6830ParseCreate.cpp ****  * @param [in]  flag       Enum type set or clr flag
  85:Core/Src/adBms6830ParseCreate.cpp ****  *
  86:Core/Src/adBms6830ParseCreate.cpp ****  * @return Flagbit_Value
  87:Core/Src/adBms6830ParseCreate.cpp ****  *
  88:Core/Src/adBms6830ParseCreate.cpp ****  *******************************************************************************
  89:Core/Src/adBms6830ParseCreate.cpp **** */
  90:Core/Src/adBms6830ParseCreate.cpp **** uint8_t ConfigA_Flag(FLAG_D flag_d, CFGA_FLAG flag)
  91:Core/Src/adBms6830ParseCreate.cpp **** {
 174              		.loc 1 91 1 is_stmt 1 view -0
 175              		.cfi_startproc
 176              		@ args = 0, pretend = 0, frame = 0
 177              		@ frame_needed = 0, uses_anonymous_args = 0
 178              		@ link register save eliminated.
  92:Core/Src/adBms6830ParseCreate.cpp ****   uint8_t flag_value;
 179              		.loc 1 92 3 view .LVU35
  93:Core/Src/adBms6830ParseCreate.cpp ****   if(flag == FLAG_SET)
 180              		.loc 1 93 3 view .LVU36
 181 0000 0129     		cmp	r1, #1
 182 0002 01D0     		beq	.L12
  94:Core/Src/adBms6830ParseCreate.cpp ****   {
  95:Core/Src/adBms6830ParseCreate.cpp ****     flag_value = (1 << flag_d);
  96:Core/Src/adBms6830ParseCreate.cpp ****   }
  97:Core/Src/adBms6830ParseCreate.cpp ****   else
  98:Core/Src/adBms6830ParseCreate.cpp ****   {
  99:Core/Src/adBms6830ParseCreate.cpp ****     flag_value = (0 << flag_d);
 183              		.loc 1 99 16 is_stmt 0 view .LVU37
 184 0004 0020     		movs	r0, #0
 185              	.LVL19:
 100:Core/Src/adBms6830ParseCreate.cpp ****   }
 101:Core/Src/adBms6830ParseCreate.cpp ****   return(flag_value);
 186              		.loc 1 101 3 is_stmt 1 view .LVU38
 102:Core/Src/adBms6830ParseCreate.cpp **** }
ARM GAS  C:\Users\huawei\AppData\Local\Temp\ccwYaMVL.s 			page 6


 187              		.loc 1 102 1 is_stmt 0 view .LVU39
 188 0006 7047     		bx	lr
 189              	.LVL20:
 190              	.L12:
  95:Core/Src/adBms6830ParseCreate.cpp ****   }
 191              		.loc 1 95 5 is_stmt 1 view .LVU40
  95:Core/Src/adBms6830ParseCreate.cpp ****   }
 192              		.loc 1 95 21 is_stmt 0 view .LVU41
 193 0008 0123     		movs	r3, #1
 194 000a 03FA00F0 		lsl	r0, r3, r0
 195              	.LVL21:
  95:Core/Src/adBms6830ParseCreate.cpp ****   }
 196              		.loc 1 95 16 view .LVU42
 197 000e C0B2     		uxtb	r0, r0
 198              	.LVL22:
  95:Core/Src/adBms6830ParseCreate.cpp ****   }
 199              		.loc 1 95 16 view .LVU43
 200 0010 7047     		bx	lr
 201              		.cfi_endproc
 202              	.LFE247:
 203              		.cantunwind
 204              		.fnend
 206              		.section	.text._Z11ConfigA_Gpo3GPO8CFGA_GPO,"ax",%progbits
 207              		.align	1
 208              		.global	_Z11ConfigA_Gpo3GPO8CFGA_GPO
 209              		.syntax unified
 210              		.thumb
 211              		.thumb_func
 213              	_Z11ConfigA_Gpo3GPO8CFGA_GPO:
 214              		.fnstart
 215              	.LVL23:
 216              	.LFB248:
 103:Core/Src/adBms6830ParseCreate.cpp **** 
 104:Core/Src/adBms6830ParseCreate.cpp **** /**
 105:Core/Src/adBms6830ParseCreate.cpp ****  *******************************************************************************
 106:Core/Src/adBms6830ParseCreate.cpp ****  * Function: ConfigA_Gpo
 107:Core/Src/adBms6830ParseCreate.cpp ****  * @brief Config A Gpio Pull High/Low.
 108:Core/Src/adBms6830ParseCreate.cpp ****  *
 109:Core/Src/adBms6830ParseCreate.cpp ****  * @details This function Set configuration A gpio as pull high/Low.
 110:Core/Src/adBms6830ParseCreate.cpp ****  *
 111:Core/Src/adBms6830ParseCreate.cpp ****  * Parameters:
 112:Core/Src/adBms6830ParseCreate.cpp ****  *
 113:Core/Src/adBms6830ParseCreate.cpp ****  * @param [in]  gpo      Enum type GPO Pin
 114:Core/Src/adBms6830ParseCreate.cpp ****  *
 115:Core/Src/adBms6830ParseCreate.cpp ****  * @param [in]  stat     Enum type CFGAGPO set Low or High
 116:Core/Src/adBms6830ParseCreate.cpp ****  *
 117:Core/Src/adBms6830ParseCreate.cpp ****  * @return Gpio_value
 118:Core/Src/adBms6830ParseCreate.cpp ****  *
 119:Core/Src/adBms6830ParseCreate.cpp ****  *******************************************************************************
 120:Core/Src/adBms6830ParseCreate.cpp **** */
 121:Core/Src/adBms6830ParseCreate.cpp **** uint16_t ConfigA_Gpo(GPO gpo, CFGA_GPO stat)
 122:Core/Src/adBms6830ParseCreate.cpp **** {
 217              		.loc 1 122 1 is_stmt 1 view -0
 218              		.cfi_startproc
 219              		@ args = 0, pretend = 0, frame = 0
 220              		@ frame_needed = 0, uses_anonymous_args = 0
 221              		@ link register save eliminated.
ARM GAS  C:\Users\huawei\AppData\Local\Temp\ccwYaMVL.s 			page 7


 123:Core/Src/adBms6830ParseCreate.cpp ****   uint16_t gpovalue;
 222              		.loc 1 123 3 view .LVU45
 124:Core/Src/adBms6830ParseCreate.cpp ****   if(stat == GPO_SET)
 223              		.loc 1 124 3 view .LVU46
 224 0000 0129     		cmp	r1, #1
 225 0002 01D0     		beq	.L16
 125:Core/Src/adBms6830ParseCreate.cpp ****   {
 126:Core/Src/adBms6830ParseCreate.cpp ****     gpovalue = (1 << gpo);
 127:Core/Src/adBms6830ParseCreate.cpp ****   }
 128:Core/Src/adBms6830ParseCreate.cpp ****   else
 129:Core/Src/adBms6830ParseCreate.cpp ****   {
 130:Core/Src/adBms6830ParseCreate.cpp ****     gpovalue = (0 << gpo);
 226              		.loc 1 130 14 is_stmt 0 view .LVU47
 227 0004 0020     		movs	r0, #0
 228              	.LVL24:
 131:Core/Src/adBms6830ParseCreate.cpp ****   }
 132:Core/Src/adBms6830ParseCreate.cpp ****   return(gpovalue);
 229              		.loc 1 132 3 is_stmt 1 view .LVU48
 133:Core/Src/adBms6830ParseCreate.cpp **** }
 230              		.loc 1 133 1 is_stmt 0 view .LVU49
 231 0006 7047     		bx	lr
 232              	.LVL25:
 233              	.L16:
 126:Core/Src/adBms6830ParseCreate.cpp ****   }
 234              		.loc 1 126 5 is_stmt 1 view .LVU50
 126:Core/Src/adBms6830ParseCreate.cpp ****   }
 235              		.loc 1 126 19 is_stmt 0 view .LVU51
 236 0008 0123     		movs	r3, #1
 237 000a 03FA00F0 		lsl	r0, r3, r0
 238              	.LVL26:
 126:Core/Src/adBms6830ParseCreate.cpp ****   }
 239              		.loc 1 126 14 view .LVU52
 240 000e 80B2     		uxth	r0, r0
 241              	.LVL27:
 126:Core/Src/adBms6830ParseCreate.cpp ****   }
 242              		.loc 1 126 14 view .LVU53
 243 0010 7047     		bx	lr
 244              		.cfi_endproc
 245              	.LFE248:
 246              		.cantunwind
 247              		.fnend
 249              		.section	.text._Z14ConfigB_DccBit3DCC7DCC_BIT,"ax",%progbits
 250              		.align	1
 251              		.global	_Z14ConfigB_DccBit3DCC7DCC_BIT
 252              		.syntax unified
 253              		.thumb
 254              		.thumb_func
 256              	_Z14ConfigB_DccBit3DCC7DCC_BIT:
 257              		.fnstart
 258              	.LVL28:
 259              	.LFB249:
 134:Core/Src/adBms6830ParseCreate.cpp **** 
 135:Core/Src/adBms6830ParseCreate.cpp **** /**
 136:Core/Src/adBms6830ParseCreate.cpp ****  *******************************************************************************
 137:Core/Src/adBms6830ParseCreate.cpp ****  * Function: ConfigB_DccBit
 138:Core/Src/adBms6830ParseCreate.cpp ****  * @brief Config B DCC bit.
 139:Core/Src/adBms6830ParseCreate.cpp ****  *
ARM GAS  C:\Users\huawei\AppData\Local\Temp\ccwYaMVL.s 			page 8


 140:Core/Src/adBms6830ParseCreate.cpp ****  * @details This function configure config B DCC bit.
 141:Core/Src/adBms6830ParseCreate.cpp ****  *
 142:Core/Src/adBms6830ParseCreate.cpp ****  * Parameters:
 143:Core/Src/adBms6830ParseCreate.cpp ****  *
 144:Core/Src/adBms6830ParseCreate.cpp ****  * @param [in]  dcc      Enum type DCC bit
 145:Core/Src/adBms6830ParseCreate.cpp ****  *
 146:Core/Src/adBms6830ParseCreate.cpp ****  * @param [in]  dccbit   Enum type DCC bit set or clr.
 147:Core/Src/adBms6830ParseCreate.cpp ****  *
 148:Core/Src/adBms6830ParseCreate.cpp ****  * @return DccBit_value
 149:Core/Src/adBms6830ParseCreate.cpp ****  *
 150:Core/Src/adBms6830ParseCreate.cpp ****  *******************************************************************************
 151:Core/Src/adBms6830ParseCreate.cpp **** */
 152:Core/Src/adBms6830ParseCreate.cpp **** uint16_t ConfigB_DccBit(DCC dcc, DCC_BIT dccbit)
 153:Core/Src/adBms6830ParseCreate.cpp **** {
 260              		.loc 1 153 1 is_stmt 1 view -0
 261              		.cfi_startproc
 262              		@ args = 0, pretend = 0, frame = 0
 263              		@ frame_needed = 0, uses_anonymous_args = 0
 264              		@ link register save eliminated.
 154:Core/Src/adBms6830ParseCreate.cpp ****   uint16_t dccvalue;
 265              		.loc 1 154 3 view .LVU55
 155:Core/Src/adBms6830ParseCreate.cpp ****   if(dccbit == DCC_BIT_SET)
 266              		.loc 1 155 3 view .LVU56
 267 0000 0129     		cmp	r1, #1
 268 0002 01D0     		beq	.L20
 156:Core/Src/adBms6830ParseCreate.cpp ****   {
 157:Core/Src/adBms6830ParseCreate.cpp ****     dccvalue = (1 << dcc);
 158:Core/Src/adBms6830ParseCreate.cpp ****   }
 159:Core/Src/adBms6830ParseCreate.cpp ****   else
 160:Core/Src/adBms6830ParseCreate.cpp ****   {
 161:Core/Src/adBms6830ParseCreate.cpp ****     dccvalue = (0 << dcc);
 269              		.loc 1 161 14 is_stmt 0 view .LVU57
 270 0004 0020     		movs	r0, #0
 271              	.LVL29:
 162:Core/Src/adBms6830ParseCreate.cpp ****   }
 163:Core/Src/adBms6830ParseCreate.cpp ****   return(dccvalue);
 272              		.loc 1 163 3 is_stmt 1 view .LVU58
 164:Core/Src/adBms6830ParseCreate.cpp **** }
 273              		.loc 1 164 1 is_stmt 0 view .LVU59
 274 0006 7047     		bx	lr
 275              	.LVL30:
 276              	.L20:
 157:Core/Src/adBms6830ParseCreate.cpp ****   }
 277              		.loc 1 157 5 is_stmt 1 view .LVU60
 157:Core/Src/adBms6830ParseCreate.cpp ****   }
 278              		.loc 1 157 19 is_stmt 0 view .LVU61
 279 0008 0123     		movs	r3, #1
 280 000a 03FA00F0 		lsl	r0, r3, r0
 281              	.LVL31:
 157:Core/Src/adBms6830ParseCreate.cpp ****   }
 282              		.loc 1 157 14 view .LVU62
 283 000e 80B2     		uxth	r0, r0
 284              	.LVL32:
 157:Core/Src/adBms6830ParseCreate.cpp ****   }
 285              		.loc 1 157 14 view .LVU63
 286 0010 7047     		bx	lr
 287              		.cfi_endproc
ARM GAS  C:\Users\huawei\AppData\Local\Temp\ccwYaMVL.s 			page 9


 288              	.LFE249:
 289              		.cantunwind
 290              		.fnend
 292              		.section	.text._Z32SetConfigB_DischargeTimeOutValuehP9cell_asic5DTRNG4DCTO,"ax",%progbits
 293              		.align	1
 294              		.global	_Z32SetConfigB_DischargeTimeOutValuehP9cell_asic5DTRNG4DCTO
 295              		.syntax unified
 296              		.thumb
 297              		.thumb_func
 299              	_Z32SetConfigB_DischargeTimeOutValuehP9cell_asic5DTRNG4DCTO:
 300              		.fnstart
 301              	.LVL33:
 302              	.LFB250:
 165:Core/Src/adBms6830ParseCreate.cpp **** 
 166:Core/Src/adBms6830ParseCreate.cpp **** /**
 167:Core/Src/adBms6830ParseCreate.cpp ****  *******************************************************************************
 168:Core/Src/adBms6830ParseCreate.cpp ****  * Function: SetConfig_B_DischargeTimeOutValue
 169:Core/Src/adBms6830ParseCreate.cpp ****  * @brief Set Config B Discharge Time Out Value.
 170:Core/Src/adBms6830ParseCreate.cpp ****  *
 171:Core/Src/adBms6830ParseCreate.cpp ****  * @details This function Set configuration B Discharge Time Out Value with short or long range.
 172:Core/Src/adBms6830ParseCreate.cpp ****  *
 173:Core/Src/adBms6830ParseCreate.cpp ****  * Parameters:
 174:Core/Src/adBms6830ParseCreate.cpp ****  *
 175:Core/Src/adBms6830ParseCreate.cpp ****  * @param [in]  tIC                     Total IC
 176:Core/Src/adBms6830ParseCreate.cpp ****  *
 177:Core/Src/adBms6830ParseCreate.cpp ****  * @param [in]  *ic                      cell_asic ic structure pointer
 178:Core/Src/adBms6830ParseCreate.cpp ****  *
 179:Core/Src/adBms6830ParseCreate.cpp ****  * @param [in]  timer_rang              Enum type time range
 180:Core/Src/adBms6830ParseCreate.cpp ****  *
 181:Core/Src/adBms6830ParseCreate.cpp ****  * @param [in]  timeout_value           Enum type time out value
 182:Core/Src/adBms6830ParseCreate.cpp ****  *
 183:Core/Src/adBms6830ParseCreate.cpp ****  * @return None
 184:Core/Src/adBms6830ParseCreate.cpp ****  *
 185:Core/Src/adBms6830ParseCreate.cpp ****  *******************************************************************************
 186:Core/Src/adBms6830ParseCreate.cpp **** */
 187:Core/Src/adBms6830ParseCreate.cpp **** void SetConfigB_DischargeTimeOutValue(uint8_t tIC, cell_asic *ic, DTRNG timer_rang, DCTO timeout_va
 188:Core/Src/adBms6830ParseCreate.cpp **** {
 303              		.loc 1 188 1 is_stmt 1 view -0
 304              		.cfi_startproc
 305              		@ args = 0, pretend = 0, frame = 0
 306              		@ frame_needed = 0, uses_anonymous_args = 0
 307              		.loc 1 188 1 is_stmt 0 view .LVU65
 308 0000 10B5     		push	{r4, lr}
 309              	.LCFI2:
 310              		.cfi_def_cfa_offset 8
 311              		.cfi_offset 4, -8
 312              		.cfi_offset 14, -4
 189:Core/Src/adBms6830ParseCreate.cpp ****   for(uint8_t curr_ic = 0; curr_ic < tIC; curr_ic++)
 313              		.loc 1 189 3 is_stmt 1 view .LVU66
 314              	.LVL34:
 315              	.LBB2:
 316              		.loc 1 189 15 is_stmt 0 view .LVU67
 317 0002 4FF0000E 		mov	lr, #0
 318              		.loc 1 189 3 view .LVU68
 319 0006 05E0     		b	.L22
 320              	.LVL35:
 321              	.L23:
ARM GAS  C:\Users\huawei\AppData\Local\Temp\ccwYaMVL.s 			page 10


 190:Core/Src/adBms6830ParseCreate.cpp ****   {
 191:Core/Src/adBms6830ParseCreate.cpp ****     ic[curr_ic].tx_cfgb.dtrng = timer_rang;
 192:Core/Src/adBms6830ParseCreate.cpp ****     if(timer_rang == RANG_0_TO_63_MIN)
 193:Core/Src/adBms6830ParseCreate.cpp ****     {
 194:Core/Src/adBms6830ParseCreate.cpp ****       ic[curr_ic].tx_cfgb.dcto = timeout_value;
 195:Core/Src/adBms6830ParseCreate.cpp ****     }
 196:Core/Src/adBms6830ParseCreate.cpp ****     else if(timer_rang == RANG_0_TO_16_8_HR)
 322              		.loc 1 196 10 is_stmt 1 view .LVU69
 323 0008 012A     		cmp	r2, #1
 324 000a 17D0     		beq	.L27
 325              	.L24:
 189:Core/Src/adBms6830ParseCreate.cpp ****   for(uint8_t curr_ic = 0; curr_ic < tIC; curr_ic++)
 326              		.loc 1 189 3 discriminator 2 view .LVU70
 327 000c 0EF1010E 		add	lr, lr, #1
 328              	.LVL36:
 189:Core/Src/adBms6830ParseCreate.cpp ****   for(uint8_t curr_ic = 0; curr_ic < tIC; curr_ic++)
 329              		.loc 1 189 3 is_stmt 0 discriminator 2 view .LVU71
 330 0010 5FFA8EFE 		uxtb	lr, lr
 331              	.LVL37:
 332              	.L22:
 189:Core/Src/adBms6830ParseCreate.cpp ****   for(uint8_t curr_ic = 0; curr_ic < tIC; curr_ic++)
 333              		.loc 1 189 36 is_stmt 1 discriminator 1 view .LVU72
 334 0014 8645     		cmp	lr, r0
 335 0016 18D2     		bcs	.L28
 191:Core/Src/adBms6830ParseCreate.cpp ****     if(timer_rang == RANG_0_TO_63_MIN)
 336              		.loc 1 191 5 view .LVU73
 191:Core/Src/adBms6830ParseCreate.cpp ****     if(timer_rang == RANG_0_TO_63_MIN)
 337              		.loc 1 191 15 is_stmt 0 view .LVU74
 338 0018 4FF4287C 		mov	ip, #672
 339 001c 0CFB0E1C 		mla	ip, ip, lr, r1
 191:Core/Src/adBms6830ParseCreate.cpp ****     if(timer_rang == RANG_0_TO_63_MIN)
 340              		.loc 1 191 31 view .LVU75
 341 0020 9CF81040 		ldrb	r4, [ip, #16]	@ zero_extendqisi2
 342 0024 62F34104 		bfi	r4, r2, #1, #1
 343 0028 8CF81040 		strb	r4, [ip, #16]
 192:Core/Src/adBms6830ParseCreate.cpp ****     {
 344              		.loc 1 192 5 is_stmt 1 view .LVU76
 345 002c 002A     		cmp	r2, #0
 346 002e EBD1     		bne	.L23
 194:Core/Src/adBms6830ParseCreate.cpp ****     }
 347              		.loc 1 194 7 view .LVU77
 194:Core/Src/adBms6830ParseCreate.cpp ****     }
 348              		.loc 1 194 32 is_stmt 0 view .LVU78
 349 0030 E4B2     		uxtb	r4, r4
 350 0032 63F38704 		bfi	r4, r3, #2, #6
 351 0036 8CF81040 		strb	r4, [ip, #16]
 352 003a E7E7     		b	.L24
 353              	.L27:
 197:Core/Src/adBms6830ParseCreate.cpp ****     {
 198:Core/Src/adBms6830ParseCreate.cpp ****       ic[curr_ic].tx_cfgb.dcto = timeout_value;
 354              		.loc 1 198 7 is_stmt 1 view .LVU79
 355              		.loc 1 198 32 is_stmt 0 view .LVU80
 356 003c 9CF81040 		ldrb	r4, [ip, #16]	@ zero_extendqisi2
 357 0040 63F38704 		bfi	r4, r3, #2, #6
 358 0044 8CF81040 		strb	r4, [ip, #16]
 359 0048 E0E7     		b	.L24
 360              	.L28:
ARM GAS  C:\Users\huawei\AppData\Local\Temp\ccwYaMVL.s 			page 11


 361              		.loc 1 198 32 view .LVU81
 362              	.LBE2:
 199:Core/Src/adBms6830ParseCreate.cpp ****     }
 200:Core/Src/adBms6830ParseCreate.cpp ****   }
 201:Core/Src/adBms6830ParseCreate.cpp **** }
 363              		.loc 1 201 1 view .LVU82
 364 004a 10BD     		pop	{r4, pc}
 365              		.cfi_endproc
 366              	.LFE250:
 367              		.cantunwind
 368              		.fnend
 370              		.section	.text._Z15SetPwmDutyCyclehP9cell_asic8PWM_DUTY,"ax",%progbits
 371              		.align	1
 372              		.global	_Z15SetPwmDutyCyclehP9cell_asic8PWM_DUTY
 373              		.syntax unified
 374              		.thumb
 375              		.thumb_func
 377              	_Z15SetPwmDutyCyclehP9cell_asic8PWM_DUTY:
 378              		.fnstart
 379              	.LVL38:
 380              	.LFB251:
 202:Core/Src/adBms6830ParseCreate.cpp **** 
 203:Core/Src/adBms6830ParseCreate.cpp **** /**
 204:Core/Src/adBms6830ParseCreate.cpp ****  *******************************************************************************
 205:Core/Src/adBms6830ParseCreate.cpp ****  * Function: SetPwmDutyCycle
 206:Core/Src/adBms6830ParseCreate.cpp ****  * @brief Set PWM discharges duty cycle.
 207:Core/Src/adBms6830ParseCreate.cpp ****  *
 208:Core/Src/adBms6830ParseCreate.cpp ****  * @details This function Set PWM discharges duty cycle.
 209:Core/Src/adBms6830ParseCreate.cpp ****  *
 210:Core/Src/adBms6830ParseCreate.cpp ****  * Parameters:
 211:Core/Src/adBms6830ParseCreate.cpp ****  *
 212:Core/Src/adBms6830ParseCreate.cpp ****  * @param [in]  tIC                     Total IC
 213:Core/Src/adBms6830ParseCreate.cpp ****  *
 214:Core/Src/adBms6830ParseCreate.cpp ****  * @param [in]  *ic                     cell_asic ic structure pointer
 215:Core/Src/adBms6830ParseCreate.cpp ****  *
 216:Core/Src/adBms6830ParseCreate.cpp ****  * @param [in]  duty_cycle              Enum type PWM duty cycle value
 217:Core/Src/adBms6830ParseCreate.cpp ****  *
 218:Core/Src/adBms6830ParseCreate.cpp ****  * @return None
 219:Core/Src/adBms6830ParseCreate.cpp ****  *
 220:Core/Src/adBms6830ParseCreate.cpp ****  *******************************************************************************
 221:Core/Src/adBms6830ParseCreate.cpp **** */
 222:Core/Src/adBms6830ParseCreate.cpp **** void SetPwmDutyCycle(uint8_t tIC, cell_asic *ic, PWM_DUTY duty_cycle)
 223:Core/Src/adBms6830ParseCreate.cpp **** {
 381              		.loc 1 223 1 is_stmt 1 view -0
 382              		.cfi_startproc
 383              		@ args = 0, pretend = 0, frame = 0
 384              		@ frame_needed = 0, uses_anonymous_args = 0
 385              		.loc 1 223 1 is_stmt 0 view .LVU84
 386 0000 00B5     		push	{lr}
 387              	.LCFI3:
 388              		.cfi_def_cfa_offset 4
 389              		.cfi_offset 14, -4
 224:Core/Src/adBms6830ParseCreate.cpp ****   for(uint8_t curr_ic = 0; curr_ic < tIC; curr_ic++)
 390              		.loc 1 224 3 is_stmt 1 view .LVU85
 391              	.LVL39:
 392              	.LBB3:
 393              		.loc 1 224 15 is_stmt 0 view .LVU86
ARM GAS  C:\Users\huawei\AppData\Local\Temp\ccwYaMVL.s 			page 12


 394 0002 4FF0000E 		mov	lr, #0
 395              		.loc 1 224 3 view .LVU87
 396 0006 1BE0     		b	.L30
 397              	.LVL40:
 398              	.L31:
 399              	.LBB4:
 225:Core/Src/adBms6830ParseCreate.cpp ****   {
 226:Core/Src/adBms6830ParseCreate.cpp ****     for(uint8_t pwmc = 0; pwmc < PWMA; pwmc++)
 227:Core/Src/adBms6830ParseCreate.cpp ****     {
 228:Core/Src/adBms6830ParseCreate.cpp ****      ic[curr_ic].PwmA.pwma[pwmc] = duty_cycle;
 400              		.loc 1 228 6 is_stmt 1 discriminator 3 view .LVU88
 401              		.loc 1 228 16 is_stmt 0 discriminator 3 view .LVU89
 402 0008 4FF4287C 		mov	ip, #672
 403 000c 0CFB0E1C 		mla	ip, ip, lr, r1
 404              		.loc 1 228 34 discriminator 3 view .LVU90
 405 0010 9C44     		add	ip, ip, r3
 406 0012 8CF80921 		strb	r2, [ip, #265]
 226:Core/Src/adBms6830ParseCreate.cpp ****     {
 407              		.loc 1 226 5 is_stmt 1 discriminator 3 view .LVU91
 408 0016 0133     		adds	r3, r3, #1
 409              	.LVL41:
 226:Core/Src/adBms6830ParseCreate.cpp ****     {
 410              		.loc 1 226 5 is_stmt 0 discriminator 3 view .LVU92
 411 0018 DBB2     		uxtb	r3, r3
 412              	.LVL42:
 413              	.L34:
 226:Core/Src/adBms6830ParseCreate.cpp ****     {
 414              		.loc 1 226 32 is_stmt 1 discriminator 1 view .LVU93
 415 001a 0B2B     		cmp	r3, #11
 416 001c F4D9     		bls	.L31
 417              	.LBE4:
 418              	.LBB5:
 229:Core/Src/adBms6830ParseCreate.cpp ****     }
 230:Core/Src/adBms6830ParseCreate.cpp **** 
 231:Core/Src/adBms6830ParseCreate.cpp ****     for(uint8_t pwmc = 0; pwmc < PWMB; pwmc++)
 419              		.loc 1 231 17 is_stmt 0 view .LVU94
 420 001e 0023     		movs	r3, #0
 421              	.LVL43:
 422              		.loc 1 231 17 view .LVU95
 423 0020 08E0     		b	.L32
 424              	.LVL44:
 425              	.L33:
 232:Core/Src/adBms6830ParseCreate.cpp ****     {
 233:Core/Src/adBms6830ParseCreate.cpp ****      ic[curr_ic].PwmB.pwmb[pwmc] = duty_cycle;
 426              		.loc 1 233 6 is_stmt 1 discriminator 3 view .LVU96
 427              		.loc 1 233 16 is_stmt 0 discriminator 3 view .LVU97
 428 0022 4FF4287C 		mov	ip, #672
 429 0026 0CFB0E1C 		mla	ip, ip, lr, r1
 430              		.loc 1 233 34 discriminator 3 view .LVU98
 431 002a 9C44     		add	ip, ip, r3
 432 002c 8CF81521 		strb	r2, [ip, #277]
 231:Core/Src/adBms6830ParseCreate.cpp ****     {
 433              		.loc 1 231 5 is_stmt 1 discriminator 3 view .LVU99
 434 0030 0133     		adds	r3, r3, #1
 435              	.LVL45:
 231:Core/Src/adBms6830ParseCreate.cpp ****     {
 436              		.loc 1 231 5 is_stmt 0 discriminator 3 view .LVU100
ARM GAS  C:\Users\huawei\AppData\Local\Temp\ccwYaMVL.s 			page 13


 437 0032 DBB2     		uxtb	r3, r3
 438              	.LVL46:
 439              	.L32:
 231:Core/Src/adBms6830ParseCreate.cpp ****     {
 440              		.loc 1 231 32 is_stmt 1 discriminator 1 view .LVU101
 441 0034 032B     		cmp	r3, #3
 442 0036 F4D9     		bls	.L33
 443              	.LBE5:
 224:Core/Src/adBms6830ParseCreate.cpp ****   {
 444              		.loc 1 224 3 discriminator 2 view .LVU102
 445 0038 0EF1010E 		add	lr, lr, #1
 446              	.LVL47:
 224:Core/Src/adBms6830ParseCreate.cpp ****   {
 447              		.loc 1 224 3 is_stmt 0 discriminator 2 view .LVU103
 448 003c 5FFA8EFE 		uxtb	lr, lr
 449              	.LVL48:
 450              	.L30:
 224:Core/Src/adBms6830ParseCreate.cpp ****   {
 451              		.loc 1 224 36 is_stmt 1 discriminator 1 view .LVU104
 452 0040 8645     		cmp	lr, r0
 453 0042 01D2     		bcs	.L37
 454              	.LBB6:
 226:Core/Src/adBms6830ParseCreate.cpp ****     {
 455              		.loc 1 226 17 is_stmt 0 view .LVU105
 456 0044 0023     		movs	r3, #0
 457 0046 E8E7     		b	.L34
 458              	.L37:
 459              	.LBE6:
 460              	.LBE3:
 234:Core/Src/adBms6830ParseCreate.cpp ****     }
 235:Core/Src/adBms6830ParseCreate.cpp ****   }
 236:Core/Src/adBms6830ParseCreate.cpp **** }
 461              		.loc 1 236 1 view .LVU106
 462 0048 5DF804FB 		ldr	pc, [sp], #4
 463              		.cfi_endproc
 464              	.LFE251:
 465              		.cantunwind
 466              		.fnend
 468              		.section	.text._Z21adBms6830ParseConfigahP9cell_asicPh,"ax",%progbits
 469              		.align	1
 470              		.global	_Z21adBms6830ParseConfigahP9cell_asicPh
 471              		.syntax unified
 472              		.thumb
 473              		.thumb_func
 475              	_Z21adBms6830ParseConfigahP9cell_asicPh:
 476              		.fnstart
 477              	.LVL49:
 478              	.LFB252:
 237:Core/Src/adBms6830ParseCreate.cpp **** 
 238:Core/Src/adBms6830ParseCreate.cpp **** /**
 239:Core/Src/adBms6830ParseCreate.cpp ****  *******************************************************************************
 240:Core/Src/adBms6830ParseCreate.cpp ****  * Function: adBms6830ParseConfiga
 241:Core/Src/adBms6830ParseCreate.cpp ****  * @brief Parse the recived Configuration register A data
 242:Core/Src/adBms6830ParseCreate.cpp ****  *
 243:Core/Src/adBms6830ParseCreate.cpp ****  * @details This function Parse the recived Configuration register A data.
 244:Core/Src/adBms6830ParseCreate.cpp ****  *
 245:Core/Src/adBms6830ParseCreate.cpp ****  * Parameters:
ARM GAS  C:\Users\huawei\AppData\Local\Temp\ccwYaMVL.s 			page 14


 246:Core/Src/adBms6830ParseCreate.cpp ****  *
 247:Core/Src/adBms6830ParseCreate.cpp ****  * @param [in]  tIC                     Total IC
 248:Core/Src/adBms6830ParseCreate.cpp ****  *
 249:Core/Src/adBms6830ParseCreate.cpp ****  * @param [in]  *ic                      cell_asic ic structure pointer
 250:Core/Src/adBms6830ParseCreate.cpp ****  *
 251:Core/Src/adBms6830ParseCreate.cpp ****  * @param [in]  *data                    Data pointer
 252:Core/Src/adBms6830ParseCreate.cpp ****  *
 253:Core/Src/adBms6830ParseCreate.cpp ****  * @return None
 254:Core/Src/adBms6830ParseCreate.cpp ****  *
 255:Core/Src/adBms6830ParseCreate.cpp ****  *******************************************************************************
 256:Core/Src/adBms6830ParseCreate.cpp **** */
 257:Core/Src/adBms6830ParseCreate.cpp **** void adBms6830ParseConfiga(uint8_t tIC, cell_asic *ic, uint8_t *data)
 258:Core/Src/adBms6830ParseCreate.cpp **** {
 479              		.loc 1 258 1 is_stmt 1 view -0
 480              		.cfi_startproc
 481              		@ args = 0, pretend = 0, frame = 0
 482              		@ frame_needed = 0, uses_anonymous_args = 0
 483              		.loc 1 258 1 is_stmt 0 view .LVU108
 484 0000 70B5     		push	{r4, r5, r6, lr}
 485              	.LCFI4:
 486              		.cfi_def_cfa_offset 16
 487              		.cfi_offset 4, -16
 488              		.cfi_offset 5, -12
 489              		.cfi_offset 6, -8
 490              		.cfi_offset 14, -4
 259:Core/Src/adBms6830ParseCreate.cpp ****   uint8_t address = 0;
 491              		.loc 1 259 3 is_stmt 1 view .LVU109
 492              	.LVL50:
 260:Core/Src/adBms6830ParseCreate.cpp ****   for(uint8_t curr_ic = 0; curr_ic < tIC; curr_ic++)
 493              		.loc 1 260 3 view .LVU110
 494              	.LBB7:
 495              		.loc 1 260 15 is_stmt 0 view .LVU111
 496 0002 4FF0000C 		mov	ip, #0
 497              	.LBE7:
 259:Core/Src/adBms6830ParseCreate.cpp ****   uint8_t address = 0;
 498              		.loc 1 259 11 view .LVU112
 499 0006 6446     		mov	r4, ip
 500              	.LBB8:
 501              		.loc 1 260 3 view .LVU113
 502 0008 5AE0     		b	.L39
 503              	.LVL51:
 504              	.L40:
 261:Core/Src/adBms6830ParseCreate.cpp ****   {
 262:Core/Src/adBms6830ParseCreate.cpp ****     memcpy(&ic[curr_ic].configa.rx_data[0], &data[address], RX_DATA); /* dst , src , size */
 505              		.loc 1 262 5 is_stmt 1 discriminator 3 view .LVU114
 506              		.loc 1 262 23 is_stmt 0 discriminator 3 view .LVU115
 507 000a 4FF42873 		mov	r3, #672
 508 000e 03FB0C13 		mla	r3, r3, ip, r1
 509              		.loc 1 262 45 discriminator 3 view .LVU116
 510 0012 1619     		adds	r6, r2, r4
 511              		.loc 1 262 11 discriminator 3 view .LVU117
 512 0014 1559     		ldr	r5, [r2, r4]	@ unaligned
 513 0016 7468     		ldr	r4, [r6, #4]	@ unaligned
 514              	.LVL52:
 515              		.loc 1 262 11 discriminator 3 view .LVU118
 516 0018 C3F82551 		str	r5, [r3, #293]	@ unaligned
 517 001c C3F82941 		str	r4, [r3, #297]	@ unaligned
ARM GAS  C:\Users\huawei\AppData\Local\Temp\ccwYaMVL.s 			page 15


 263:Core/Src/adBms6830ParseCreate.cpp ****     address = ((curr_ic+1) * (RX_DATA));
 518              		.loc 1 263 5 is_stmt 1 discriminator 3 view .LVU119
 519              		.loc 1 263 13 is_stmt 0 discriminator 3 view .LVU120
 520 0020 0CF1010C 		add	ip, ip, #1
 521              	.LVL53:
 522              		.loc 1 263 13 discriminator 3 view .LVU121
 523 0024 5FFA8CFC 		uxtb	ip, ip
 524 0028 4FEACC04 		lsl	r4, ip, #3
 525 002c E4B2     		uxtb	r4, r4
 526              	.LVL54:
 264:Core/Src/adBms6830ParseCreate.cpp **** 
 265:Core/Src/adBms6830ParseCreate.cpp ****     ic[curr_ic].rx_cfga.cth = (ic[curr_ic].configa.rx_data[0] & 0x07);
 527              		.loc 1 265 5 is_stmt 1 discriminator 3 view .LVU122
 528              		.loc 1 265 61 is_stmt 0 discriminator 3 view .LVU123
 529 002e 93F825E1 		ldrb	lr, [r3, #293]	@ zero_extendqisi2
 530              		.loc 1 265 29 discriminator 3 view .LVU124
 531 0032 9D79     		ldrb	r5, [r3, #6]	@ zero_extendqisi2
 532 0034 6EF34305 		bfi	r5, lr, #1, #3
 533 0038 9D71     		strb	r5, [r3, #6]
 266:Core/Src/adBms6830ParseCreate.cpp ****     ic[curr_ic].rx_cfga.refon   = (ic[curr_ic].configa.rx_data[0] & 0x80) >> 7;
 534              		.loc 1 266 5 is_stmt 1 discriminator 3 view .LVU125
 535              		.loc 1 266 75 is_stmt 0 discriminator 3 view .LVU126
 536 003a 4FEADE1E 		lsr	lr, lr, #7
 537              		.loc 1 266 33 discriminator 3 view .LVU127
 538 003e EDB2     		uxtb	r5, r5
 539 0040 6EF30005 		bfi	r5, lr, #0, #1
 540 0044 9D71     		strb	r5, [r3, #6]
 267:Core/Src/adBms6830ParseCreate.cpp **** 
 268:Core/Src/adBms6830ParseCreate.cpp ****     ic[curr_ic].rx_cfga.flag_d  = (ic[curr_ic].configa.rx_data[1] & 0xFF);
 541              		.loc 1 268 5 is_stmt 1 discriminator 3 view .LVU128
 542              		.loc 1 268 65 is_stmt 0 discriminator 3 view .LVU129
 543 0046 93F82651 		ldrb	r5, [r3, #294]	@ zero_extendqisi2
 544              		.loc 1 268 33 discriminator 3 view .LVU130
 545 004a DD71     		strb	r5, [r3, #7]
 269:Core/Src/adBms6830ParseCreate.cpp **** 
 270:Core/Src/adBms6830ParseCreate.cpp ****     ic[curr_ic].rx_cfga.soakon   = (ic[curr_ic].configa.rx_data[2] & 0x80) >> 7;
 546              		.loc 1 270 5 is_stmt 1 discriminator 3 view .LVU131
 547              		.loc 1 270 66 is_stmt 0 discriminator 3 view .LVU132
 548 004c 93F827E1 		ldrb	lr, [r3, #295]	@ zero_extendqisi2
 549              		.loc 1 270 76 discriminator 3 view .LVU133
 550 0050 4FEADE16 		lsr	r6, lr, #7
 551              		.loc 1 270 34 discriminator 3 view .LVU134
 552 0054 1D7A     		ldrb	r5, [r3, #8]	@ zero_extendqisi2
 553 0056 66F30005 		bfi	r5, r6, #0, #1
 554 005a 1D72     		strb	r5, [r3, #8]
 271:Core/Src/adBms6830ParseCreate.cpp ****     ic[curr_ic].rx_cfga.owrng    = (((ic[curr_ic].configa.rx_data[2] & 0x40) >> 6));
 555              		.loc 1 271 5 is_stmt 1 discriminator 3 view .LVU135
 556              		.loc 1 271 78 is_stmt 0 discriminator 3 view .LVU136
 557 005c 4FEA9E16 		lsr	r6, lr, #6
 558              		.loc 1 271 34 discriminator 3 view .LVU137
 559 0060 EDB2     		uxtb	r5, r5
 560 0062 66F34105 		bfi	r5, r6, #1, #1
 561 0066 1D72     		strb	r5, [r3, #8]
 272:Core/Src/adBms6830ParseCreate.cpp ****     ic[curr_ic].rx_cfga.owa    = ( (ic[curr_ic].configa.rx_data[2] & 0x38) >> 3);
 562              		.loc 1 272 5 is_stmt 1 discriminator 3 view .LVU138
 563              		.loc 1 272 76 is_stmt 0 discriminator 3 view .LVU139
 564 0068 4FEADE0E 		lsr	lr, lr, #3
ARM GAS  C:\Users\huawei\AppData\Local\Temp\ccwYaMVL.s 			page 16


 565              		.loc 1 272 32 discriminator 3 view .LVU140
 566 006c EDB2     		uxtb	r5, r5
 567 006e 6EF38405 		bfi	r5, lr, #2, #3
 568 0072 1D72     		strb	r5, [r3, #8]
 273:Core/Src/adBms6830ParseCreate.cpp **** 
 274:Core/Src/adBms6830ParseCreate.cpp ****     ic[curr_ic].rx_cfga.gpo        = ( (ic[curr_ic].configa.rx_data[3] & 0xFF)| ((ic[curr_ic].confi
 569              		.loc 1 274 5 is_stmt 1 discriminator 3 view .LVU141
 570              		.loc 1 274 72 is_stmt 0 discriminator 3 view .LVU142
 571 0074 93F82851 		ldrb	r5, [r3, #296]	@ zero_extendqisi2
 572              		.loc 1 274 112 discriminator 3 view .LVU143
 573 0078 93F829E1 		ldrb	lr, [r3, #297]	@ zero_extendqisi2
 574              		.loc 1 274 122 discriminator 3 view .LVU144
 575 007c 4FEA0E2E 		lsl	lr, lr, #8
 576 0080 0EF4407E 		and	lr, lr, #768
 577              		.loc 1 274 79 discriminator 3 view .LVU145
 578 0084 45EA0E0E 		orr	lr, r5, lr
 579              		.loc 1 274 36 discriminator 3 view .LVU146
 580 0088 1D89     		ldrh	r5, [r3, #8]
 581 008a 6EF34E15 		bfi	r5, lr, #5, #10
 582 008e 1D81     		strh	r5, [r3, #8]	@ movhi
 275:Core/Src/adBms6830ParseCreate.cpp **** 
 276:Core/Src/adBms6830ParseCreate.cpp ****     ic[curr_ic].rx_cfga.snap   = ((ic[curr_ic].configa.rx_data[5] & 0x20) >> 5);
 583              		.loc 1 276 5 is_stmt 1 discriminator 3 view .LVU147
 584              		.loc 1 276 65 is_stmt 0 discriminator 3 view .LVU148
 585 0090 93F82AE1 		ldrb	lr, [r3, #298]	@ zero_extendqisi2
 586              		.loc 1 276 75 discriminator 3 view .LVU149
 587 0094 4FEA5E16 		lsr	r6, lr, #5
 588              		.loc 1 276 32 discriminator 3 view .LVU150
 589 0098 5D7A     		ldrb	r5, [r3, #9]	@ zero_extendqisi2
 590 009a 66F3C715 		bfi	r5, r6, #7, #1
 591 009e 5D72     		strb	r5, [r3, #9]
 277:Core/Src/adBms6830ParseCreate.cpp ****     ic[curr_ic].rx_cfga.mute_st   = ((ic[curr_ic].configa.rx_data[5] & 0x10) >> 4);
 592              		.loc 1 277 5 is_stmt 1 discriminator 3 view .LVU151
 593              		.loc 1 277 78 is_stmt 0 discriminator 3 view .LVU152
 594 00a0 4FEA1E16 		lsr	r6, lr, #4
 595              		.loc 1 277 35 discriminator 3 view .LVU153
 596 00a4 9D7A     		ldrb	r5, [r3, #10]	@ zero_extendqisi2
 597 00a6 66F30005 		bfi	r5, r6, #0, #1
 598 00aa 9D72     		strb	r5, [r3, #10]
 278:Core/Src/adBms6830ParseCreate.cpp ****     ic[curr_ic].rx_cfga.comm_bk   = ((ic[curr_ic].configa.rx_data[5] & 0x08) >> 3);
 599              		.loc 1 278 5 is_stmt 1 discriminator 3 view .LVU154
 600              		.loc 1 278 78 is_stmt 0 discriminator 3 view .LVU155
 601 00ac 4FEADE06 		lsr	r6, lr, #3
 602              		.loc 1 278 35 discriminator 3 view .LVU156
 603 00b0 EDB2     		uxtb	r5, r5
 604 00b2 66F34105 		bfi	r5, r6, #1, #1
 605 00b6 9D72     		strb	r5, [r3, #10]
 279:Core/Src/adBms6830ParseCreate.cpp ****     ic[curr_ic].rx_cfga.fc   = ((ic[curr_ic].configa.rx_data[5] & 0x07) >> 0);
 606              		.loc 1 279 5 is_stmt 1 discriminator 3 view .LVU157
 607              		.loc 1 279 30 is_stmt 0 discriminator 3 view .LVU158
 608 00b8 EDB2     		uxtb	r5, r5
 609 00ba 6EF38405 		bfi	r5, lr, #2, #3
 610 00be 9D72     		strb	r5, [r3, #10]
 260:Core/Src/adBms6830ParseCreate.cpp ****   {
 611              		.loc 1 260 3 is_stmt 1 discriminator 3 view .LVU159
 612              	.LVL55:
 613              	.L39:
ARM GAS  C:\Users\huawei\AppData\Local\Temp\ccwYaMVL.s 			page 17


 260:Core/Src/adBms6830ParseCreate.cpp ****   {
 614              		.loc 1 260 36 discriminator 1 view .LVU160
 615 00c0 8445     		cmp	ip, r0
 616 00c2 A2D3     		bcc	.L40
 617              	.LBE8:
 280:Core/Src/adBms6830ParseCreate.cpp ****   }
 281:Core/Src/adBms6830ParseCreate.cpp **** }
 618              		.loc 1 281 1 is_stmt 0 view .LVU161
 619 00c4 70BD     		pop	{r4, r5, r6, pc}
 620              		.loc 1 281 1 view .LVU162
 621              		.cfi_endproc
 622              	.LFE252:
 623              		.cantunwind
 624              		.fnend
 626              		.section	.text._Z21adBms6830ParseConfigbhP9cell_asicPh,"ax",%progbits
 627              		.align	1
 628              		.global	_Z21adBms6830ParseConfigbhP9cell_asicPh
 629              		.syntax unified
 630              		.thumb
 631              		.thumb_func
 633              	_Z21adBms6830ParseConfigbhP9cell_asicPh:
 634              		.fnstart
 635              	.LVL56:
 636              	.LFB253:
 282:Core/Src/adBms6830ParseCreate.cpp **** 
 283:Core/Src/adBms6830ParseCreate.cpp **** /**
 284:Core/Src/adBms6830ParseCreate.cpp ****  *******************************************************************************
 285:Core/Src/adBms6830ParseCreate.cpp ****  * Function: adBms6830ParseConfigb
 286:Core/Src/adBms6830ParseCreate.cpp ****  * @brief Parse the recived Configuration register B data
 287:Core/Src/adBms6830ParseCreate.cpp ****  *
 288:Core/Src/adBms6830ParseCreate.cpp ****  * @details This function Parse the recived Configuration register B data.
 289:Core/Src/adBms6830ParseCreate.cpp ****  *
 290:Core/Src/adBms6830ParseCreate.cpp ****  * Parameters:
 291:Core/Src/adBms6830ParseCreate.cpp ****  *
 292:Core/Src/adBms6830ParseCreate.cpp ****  * @param [in]  tIC                     Total IC
 293:Core/Src/adBms6830ParseCreate.cpp ****  *
 294:Core/Src/adBms6830ParseCreate.cpp ****  * @param [in]  *ic                     cell_asic ic structure pointer
 295:Core/Src/adBms6830ParseCreate.cpp ****  *
 296:Core/Src/adBms6830ParseCreate.cpp ****  * @param [in]  *data                   Data pointer
 297:Core/Src/adBms6830ParseCreate.cpp ****  *
 298:Core/Src/adBms6830ParseCreate.cpp ****  * @return None
 299:Core/Src/adBms6830ParseCreate.cpp ****  *
 300:Core/Src/adBms6830ParseCreate.cpp ****  *******************************************************************************
 301:Core/Src/adBms6830ParseCreate.cpp **** */
 302:Core/Src/adBms6830ParseCreate.cpp **** void adBms6830ParseConfigb(uint8_t tIC, cell_asic *ic, uint8_t *data)
 303:Core/Src/adBms6830ParseCreate.cpp **** {
 637              		.loc 1 303 1 is_stmt 1 view -0
 638              		.cfi_startproc
 639              		@ args = 0, pretend = 0, frame = 0
 640              		@ frame_needed = 0, uses_anonymous_args = 0
 641              		.loc 1 303 1 is_stmt 0 view .LVU164
 642 0000 70B5     		push	{r4, r5, r6, lr}
 643              	.LCFI5:
 644              		.cfi_def_cfa_offset 16
 645              		.cfi_offset 4, -16
 646              		.cfi_offset 5, -12
 647              		.cfi_offset 6, -8
ARM GAS  C:\Users\huawei\AppData\Local\Temp\ccwYaMVL.s 			page 18


 648              		.cfi_offset 14, -4
 304:Core/Src/adBms6830ParseCreate.cpp ****   uint8_t address = 0;
 649              		.loc 1 304 3 is_stmt 1 view .LVU165
 650              	.LVL57:
 305:Core/Src/adBms6830ParseCreate.cpp ****   for(uint8_t curr_ic = 0; curr_ic < tIC; curr_ic++)
 651              		.loc 1 305 3 view .LVU166
 652              	.LBB9:
 653              		.loc 1 305 15 is_stmt 0 view .LVU167
 654 0002 4FF0000C 		mov	ip, #0
 655              	.LBE9:
 304:Core/Src/adBms6830ParseCreate.cpp ****   uint8_t address = 0;
 656              		.loc 1 304 11 view .LVU168
 657 0006 6446     		mov	r4, ip
 658              	.LBB10:
 659              		.loc 1 305 3 view .LVU169
 660 0008 3DE0     		b	.L43
 661              	.LVL58:
 662              	.L44:
 306:Core/Src/adBms6830ParseCreate.cpp ****   {
 307:Core/Src/adBms6830ParseCreate.cpp ****     memcpy(&ic[curr_ic].configb.rx_data[0], &data[address], RX_DATA); /* dst , src , size */
 663              		.loc 1 307 5 is_stmt 1 discriminator 3 view .LVU170
 664              		.loc 1 307 23 is_stmt 0 discriminator 3 view .LVU171
 665 000a 4FF42873 		mov	r3, #672
 666 000e 03FB0C13 		mla	r3, r3, ip, r1
 667              		.loc 1 307 45 discriminator 3 view .LVU172
 668 0012 1619     		adds	r6, r2, r4
 669              		.loc 1 307 11 discriminator 3 view .LVU173
 670 0014 1559     		ldr	r5, [r2, r4]	@ unaligned
 671 0016 7468     		ldr	r4, [r6, #4]	@ unaligned
 672              	.LVL59:
 673              		.loc 1 307 11 discriminator 3 view .LVU174
 674 0018 C3F83351 		str	r5, [r3, #307]	@ unaligned
 675 001c C3F83741 		str	r4, [r3, #311]	@ unaligned
 308:Core/Src/adBms6830ParseCreate.cpp ****     address = ((curr_ic+1) * (RX_DATA));
 676              		.loc 1 308 5 is_stmt 1 discriminator 3 view .LVU175
 677              		.loc 1 308 13 is_stmt 0 discriminator 3 view .LVU176
 678 0020 0CF1010C 		add	ip, ip, #1
 679              	.LVL60:
 680              		.loc 1 308 13 discriminator 3 view .LVU177
 681 0024 5FFA8CFC 		uxtb	ip, ip
 682 0028 4FEACC04 		lsl	r4, ip, #3
 683 002c E4B2     		uxtb	r4, r4
 684              	.LVL61:
 309:Core/Src/adBms6830ParseCreate.cpp **** 
 310:Core/Src/adBms6830ParseCreate.cpp ****     ic[curr_ic].rx_cfgb.vuv = ((ic[curr_ic].configb.rx_data[0])  | ((ic[curr_ic].configb.rx_data[1]
 685              		.loc 1 310 5 is_stmt 1 discriminator 3 view .LVU178
 686              		.loc 1 310 62 is_stmt 0 discriminator 3 view .LVU179
 687 002e 93F83351 		ldrb	r5, [r3, #307]	@ zero_extendqisi2
 688              		.loc 1 310 99 discriminator 3 view .LVU180
 689 0032 93F834E1 		ldrb	lr, [r3, #308]	@ zero_extendqisi2
 690              		.loc 1 310 109 discriminator 3 view .LVU181
 691 0036 4FEA0E26 		lsl	r6, lr, #8
 692 003a 06F47066 		and	r6, r6, #3840
 693              		.loc 1 310 66 discriminator 3 view .LVU182
 694 003e 3543     		orrs	r5, r5, r6
 695              		.loc 1 310 29 discriminator 3 view .LVU183
 696 0040 9D82     		strh	r5, [r3, #20]	@ movhi
ARM GAS  C:\Users\huawei\AppData\Local\Temp\ccwYaMVL.s 			page 19


 311:Core/Src/adBms6830ParseCreate.cpp ****     ic[curr_ic].rx_cfgb.vov  = (ic[curr_ic].configb.rx_data[2]<<4)+((ic[curr_ic].configb.rx_data[1]
 697              		.loc 1 311 5 is_stmt 1 discriminator 3 view .LVU184
 698              		.loc 1 311 62 is_stmt 0 discriminator 3 view .LVU185
 699 0042 93F83551 		ldrb	r5, [r3, #309]	@ zero_extendqisi2
 700              		.loc 1 311 107 discriminator 3 view .LVU186
 701 0046 4FEA1E1E 		lsr	lr, lr, #4
 702              		.loc 1 311 67 discriminator 3 view .LVU187
 703 004a 0EEB051E 		add	lr, lr, r5, lsl #4
 704              		.loc 1 311 30 discriminator 3 view .LVU188
 705 004e A3F816E0 		strh	lr, [r3, #22]	@ movhi
 312:Core/Src/adBms6830ParseCreate.cpp ****     ic[curr_ic].rx_cfgb.dtmen = (((ic[curr_ic].configb.rx_data[3] & 0x80) >> 7));
 706              		.loc 1 312 5 is_stmt 1 discriminator 3 view .LVU189
 707              		.loc 1 312 65 is_stmt 0 discriminator 3 view .LVU190
 708 0052 93F836E1 		ldrb	lr, [r3, #310]	@ zero_extendqisi2
 709              		.loc 1 312 75 discriminator 3 view .LVU191
 710 0056 4FEADE16 		lsr	r6, lr, #7
 711              		.loc 1 312 31 discriminator 3 view .LVU192
 712 005a 1D7E     		ldrb	r5, [r3, #24]	@ zero_extendqisi2
 713 005c 66F30005 		bfi	r5, r6, #0, #1
 714 0060 1D76     		strb	r5, [r3, #24]
 313:Core/Src/adBms6830ParseCreate.cpp ****     ic[curr_ic].rx_cfgb.dtrng= ((ic[curr_ic].configb.rx_data[3] & 0x40) >> 6);
 715              		.loc 1 313 5 is_stmt 1 discriminator 3 view .LVU193
 716              		.loc 1 313 73 is_stmt 0 discriminator 3 view .LVU194
 717 0062 4FEA9E16 		lsr	r6, lr, #6
 718              		.loc 1 313 30 discriminator 3 view .LVU195
 719 0066 EDB2     		uxtb	r5, r5
 720 0068 66F34105 		bfi	r5, r6, #1, #1
 721 006c 1D76     		strb	r5, [r3, #24]
 314:Core/Src/adBms6830ParseCreate.cpp ****     ic[curr_ic].rx_cfgb.dcto   = ((ic[curr_ic].configb.rx_data[3] & 0x3F));
 722              		.loc 1 314 5 is_stmt 1 discriminator 3 view .LVU196
 723              		.loc 1 314 32 is_stmt 0 discriminator 3 view .LVU197
 724 006e EDB2     		uxtb	r5, r5
 725 0070 6EF38705 		bfi	r5, lr, #2, #6
 726 0074 1D76     		strb	r5, [r3, #24]
 315:Core/Src/adBms6830ParseCreate.cpp ****     ic[curr_ic].rx_cfgb.dcc = ((ic[curr_ic].configb.rx_data[4]) | ((ic[curr_ic].configb.rx_data[5] 
 727              		.loc 1 315 5 is_stmt 1 discriminator 3 view .LVU198
 728              		.loc 1 315 62 is_stmt 0 discriminator 3 view .LVU199
 729 0076 93F837E1 		ldrb	lr, [r3, #311]	@ zero_extendqisi2
 730              		.loc 1 315 98 discriminator 3 view .LVU200
 731 007a 93F83851 		ldrb	r5, [r3, #312]	@ zero_extendqisi2
 732              		.loc 1 315 65 discriminator 3 view .LVU201
 733 007e 4EEA052E 		orr	lr, lr, r5, lsl #8
 734              		.loc 1 315 29 discriminator 3 view .LVU202
 735 0082 A3F81AE0 		strh	lr, [r3, #26]	@ movhi
 305:Core/Src/adBms6830ParseCreate.cpp ****   {
 736              		.loc 1 305 3 is_stmt 1 discriminator 3 view .LVU203
 737              	.LVL62:
 738              	.L43:
 305:Core/Src/adBms6830ParseCreate.cpp ****   {
 739              		.loc 1 305 36 discriminator 1 view .LVU204
 740 0086 8445     		cmp	ip, r0
 741 0088 BFD3     		bcc	.L44
 742              	.LBE10:
 316:Core/Src/adBms6830ParseCreate.cpp ****   }
 317:Core/Src/adBms6830ParseCreate.cpp **** }
 743              		.loc 1 317 1 is_stmt 0 view .LVU205
 744 008a 70BD     		pop	{r4, r5, r6, pc}
ARM GAS  C:\Users\huawei\AppData\Local\Temp\ccwYaMVL.s 			page 20


 745              		.loc 1 317 1 view .LVU206
 746              		.cfi_endproc
 747              	.LFE253:
 748              		.cantunwind
 749              		.fnend
 751              		.section	.text._Z20adBms6830ParseConfighP9cell_asic3GRPPh,"ax",%progbits
 752              		.align	1
 753              		.global	_Z20adBms6830ParseConfighP9cell_asic3GRPPh
 754              		.syntax unified
 755              		.thumb
 756              		.thumb_func
 758              	_Z20adBms6830ParseConfighP9cell_asic3GRPPh:
 759              		.fnstart
 760              	.LVL63:
 761              	.LFB254:
 318:Core/Src/adBms6830ParseCreate.cpp **** 
 319:Core/Src/adBms6830ParseCreate.cpp **** /**
 320:Core/Src/adBms6830ParseCreate.cpp ****  *******************************************************************************
 321:Core/Src/adBms6830ParseCreate.cpp ****  * Function: adBms6830ParseConfig
 322:Core/Src/adBms6830ParseCreate.cpp ****  * @brief Parse the recived Configuration register A & B data
 323:Core/Src/adBms6830ParseCreate.cpp ****  *
 324:Core/Src/adBms6830ParseCreate.cpp ****  * @details This function Parse the recived Configuration register A & B data.
 325:Core/Src/adBms6830ParseCreate.cpp ****  *
 326:Core/Src/adBms6830ParseCreate.cpp ****  * Parameters:
 327:Core/Src/adBms6830ParseCreate.cpp ****  *
 328:Core/Src/adBms6830ParseCreate.cpp ****  * @param [in]  tIC                     Total IC
 329:Core/Src/adBms6830ParseCreate.cpp ****  *
 330:Core/Src/adBms6830ParseCreate.cpp ****  * @param [in]  *ic                     cell_asic ic structure pointer
 331:Core/Src/adBms6830ParseCreate.cpp ****  *
 332:Core/Src/adBms6830ParseCreate.cpp ****  * @param [in]  grp                     Enum type register group
 333:Core/Src/adBms6830ParseCreate.cpp ****  *
 334:Core/Src/adBms6830ParseCreate.cpp ****  * @param [in]  *data                   Data pointer
 335:Core/Src/adBms6830ParseCreate.cpp ****  *
 336:Core/Src/adBms6830ParseCreate.cpp ****  * @return None
 337:Core/Src/adBms6830ParseCreate.cpp ****  *
 338:Core/Src/adBms6830ParseCreate.cpp ****  *******************************************************************************
 339:Core/Src/adBms6830ParseCreate.cpp **** */
 340:Core/Src/adBms6830ParseCreate.cpp **** void adBms6830ParseConfig(uint8_t tIC, cell_asic *ic, GRP grp, uint8_t *data)
 341:Core/Src/adBms6830ParseCreate.cpp **** {
 762              		.loc 1 341 1 is_stmt 1 view -0
 763              		.cfi_startproc
 764              		@ args = 0, pretend = 0, frame = 0
 765              		@ frame_needed = 0, uses_anonymous_args = 0
 766              		.loc 1 341 1 is_stmt 0 view .LVU208
 767 0000 08B5     		push	{r3, lr}
 768              	.LCFI6:
 769              		.cfi_def_cfa_offset 8
 770              		.cfi_offset 3, -8
 771              		.cfi_offset 14, -4
 772 0002 9446     		mov	ip, r2
 773 0004 1A46     		mov	r2, r3
 774              	.LVL64:
 342:Core/Src/adBms6830ParseCreate.cpp ****   switch (grp)
 775              		.loc 1 342 3 is_stmt 1 view .LVU209
 776 0006 BCF1010F 		cmp	ip, #1
 777 000a 03D0     		beq	.L47
 778 000c BCF1020F 		cmp	ip, #2
ARM GAS  C:\Users\huawei\AppData\Local\Temp\ccwYaMVL.s 			page 21


 779 0010 03D0     		beq	.L48
 780              	.LVL65:
 781              	.L46:
 343:Core/Src/adBms6830ParseCreate.cpp ****   {
 344:Core/Src/adBms6830ParseCreate.cpp ****   case A:
 345:Core/Src/adBms6830ParseCreate.cpp ****     adBms6830ParseConfiga(tIC, &ic[0], &data[0]);
 346:Core/Src/adBms6830ParseCreate.cpp ****     break;
 347:Core/Src/adBms6830ParseCreate.cpp **** 
 348:Core/Src/adBms6830ParseCreate.cpp ****   case B:
 349:Core/Src/adBms6830ParseCreate.cpp ****     adBms6830ParseConfigb(tIC, &ic[0], &data[0]);
 350:Core/Src/adBms6830ParseCreate.cpp ****     break;
 351:Core/Src/adBms6830ParseCreate.cpp **** 
 352:Core/Src/adBms6830ParseCreate.cpp ****   default:
 353:Core/Src/adBms6830ParseCreate.cpp ****     break;
 354:Core/Src/adBms6830ParseCreate.cpp ****   }
 355:Core/Src/adBms6830ParseCreate.cpp **** }
 782              		.loc 1 355 1 is_stmt 0 view .LVU210
 783 0012 08BD     		pop	{r3, pc}
 784              	.LVL66:
 785              	.L47:
 344:Core/Src/adBms6830ParseCreate.cpp ****     adBms6830ParseConfiga(tIC, &ic[0], &data[0]);
 786              		.loc 1 344 3 is_stmt 1 view .LVU211
 345:Core/Src/adBms6830ParseCreate.cpp ****     break;
 787              		.loc 1 345 5 view .LVU212
 345:Core/Src/adBms6830ParseCreate.cpp ****     break;
 788              		.loc 1 345 26 is_stmt 0 view .LVU213
 789 0014 FFF7FEFF 		bl	_Z21adBms6830ParseConfigahP9cell_asicPh
 790              	.LVL67:
 346:Core/Src/adBms6830ParseCreate.cpp **** 
 791              		.loc 1 346 5 is_stmt 1 view .LVU214
 792 0018 FBE7     		b	.L46
 793              	.LVL68:
 794              	.L48:
 348:Core/Src/adBms6830ParseCreate.cpp ****     adBms6830ParseConfigb(tIC, &ic[0], &data[0]);
 795              		.loc 1 348 3 view .LVU215
 349:Core/Src/adBms6830ParseCreate.cpp ****     break;
 796              		.loc 1 349 5 view .LVU216
 349:Core/Src/adBms6830ParseCreate.cpp ****     break;
 797              		.loc 1 349 26 is_stmt 0 view .LVU217
 798 001a FFF7FEFF 		bl	_Z21adBms6830ParseConfigbhP9cell_asicPh
 799              	.LVL69:
 350:Core/Src/adBms6830ParseCreate.cpp **** 
 800              		.loc 1 350 5 is_stmt 1 view .LVU218
 801              		.loc 1 355 1 is_stmt 0 view .LVU219
 802 001e F8E7     		b	.L46
 803              		.cfi_endproc
 804              	.LFE254:
 805              		.cantunwind
 806              		.fnend
 808              		.section	.rodata._Z18adBms6830ParseCellhP9cell_asic3GRPPh.str1.4,"aMS",%progbits,1
 809              		.align	2
 810              	.LC0:
 811 0000 20466169 		.ascii	" Failed to allocate parse cell memory \000"
 811      6C656420 
 811      746F2061 
 811      6C6C6F63 
 811      61746520 
ARM GAS  C:\Users\huawei\AppData\Local\Temp\ccwYaMVL.s 			page 22


 812              		.section	.text._Z18adBms6830ParseCellhP9cell_asic3GRPPh,"ax",%progbits
 813              		.align	1
 814              		.global	_Z18adBms6830ParseCellhP9cell_asic3GRPPh
 815              		.syntax unified
 816              		.thumb
 817              		.thumb_func
 819              	_Z18adBms6830ParseCellhP9cell_asic3GRPPh:
 820              		.fnstart
 821              	.LVL70:
 822              	.LFB255:
 356:Core/Src/adBms6830ParseCreate.cpp **** 
 357:Core/Src/adBms6830ParseCreate.cpp **** /**
 358:Core/Src/adBms6830ParseCreate.cpp ****  *******************************************************************************
 359:Core/Src/adBms6830ParseCreate.cpp ****  * Function: adBms6830ParseCell
 360:Core/Src/adBms6830ParseCreate.cpp ****  * @brief Parse cell voltages
 361:Core/Src/adBms6830ParseCreate.cpp ****  *
 362:Core/Src/adBms6830ParseCreate.cpp ****  * @details This function Parse the recived cell register A,B,C,D,E and F data.
 363:Core/Src/adBms6830ParseCreate.cpp ****  *
 364:Core/Src/adBms6830ParseCreate.cpp ****  * Parameters:
 365:Core/Src/adBms6830ParseCreate.cpp ****  *
 366:Core/Src/adBms6830ParseCreate.cpp ****  * @param [in]  tIC                     Total IC
 367:Core/Src/adBms6830ParseCreate.cpp ****  *
 368:Core/Src/adBms6830ParseCreate.cpp ****  * @param [in]  *ic                     cell_asic ic structure pointer
 369:Core/Src/adBms6830ParseCreate.cpp ****  *
 370:Core/Src/adBms6830ParseCreate.cpp ****  * @param [in]  grp                     Enum type register group
 371:Core/Src/adBms6830ParseCreate.cpp ****  *
 372:Core/Src/adBms6830ParseCreate.cpp ****  * @param [in]  *cv_data                Cell voltage data pointer
 373:Core/Src/adBms6830ParseCreate.cpp ****  *
 374:Core/Src/adBms6830ParseCreate.cpp ****  * @return None
 375:Core/Src/adBms6830ParseCreate.cpp ****  *
 376:Core/Src/adBms6830ParseCreate.cpp ****  *******************************************************************************
 377:Core/Src/adBms6830ParseCreate.cpp **** */
 378:Core/Src/adBms6830ParseCreate.cpp **** /* Parse cell voltages */
 379:Core/Src/adBms6830ParseCreate.cpp **** void adBms6830ParseCell(uint8_t tIC, cell_asic *ic, GRP grp, uint8_t *cv_data)
 380:Core/Src/adBms6830ParseCreate.cpp **** {
 823              		.loc 1 380 1 is_stmt 1 view -0
 824              		.cfi_startproc
 825              		@ args = 0, pretend = 0, frame = 0
 826              		@ frame_needed = 0, uses_anonymous_args = 0
 827              		.loc 1 380 1 is_stmt 0 view .LVU221
 828 0000 2DE9F84F 		push	{r3, r4, r5, r6, r7, r8, r9, r10, fp, lr}
 829              		.save {r3, r4, r5, r6, r7, r8, r9, r10, fp, lr}
 830              	.LCFI7:
 831              		.cfi_def_cfa_offset 40
 832              		.cfi_offset 3, -40
 833              		.cfi_offset 4, -36
 834              		.cfi_offset 5, -32
 835              		.cfi_offset 6, -28
 836              		.cfi_offset 7, -24
 837              		.cfi_offset 8, -20
 838              		.cfi_offset 9, -16
 839              		.cfi_offset 10, -12
 840              		.cfi_offset 11, -8
 841              		.cfi_offset 14, -4
 842 0004 0746     		mov	r7, r0
 843 0006 8A46     		mov	r10, r1
 844 0008 9946     		mov	r9, r3
ARM GAS  C:\Users\huawei\AppData\Local\Temp\ccwYaMVL.s 			page 23


 381:Core/Src/adBms6830ParseCreate.cpp ****   uint8_t *data, data_size, address = 0;
 845              		.loc 1 381 3 is_stmt 1 view .LVU222
 846              	.LVL71:
 382:Core/Src/adBms6830ParseCreate.cpp ****   if(grp == ALL_GRP){data_size = RDCVALL_SIZE;}
 847              		.loc 1 382 3 view .LVU223
 848 000a 1646     		mov	r6, r2
 849 000c 5AB9     		cbnz	r2, .L64
 850              		.loc 1 382 32 is_stmt 0 view .LVU224
 851 000e 4FF02208 		mov	r8, #34
 852              	.L52:
 853              	.LVL72:
 383:Core/Src/adBms6830ParseCreate.cpp ****   else {data_size = RX_DATA;}
 384:Core/Src/adBms6830ParseCreate.cpp ****   data = (uint8_t *)calloc(data_size, sizeof(uint8_t));
 854              		.loc 1 384 3 is_stmt 1 view .LVU225
 855              		.loc 1 384 27 is_stmt 0 view .LVU226
 856 0012 C346     		mov	fp, r8
 857 0014 0121     		movs	r1, #1
 858              	.LVL73:
 859              		.loc 1 384 27 view .LVU227
 860 0016 4046     		mov	r0, r8
 861              	.LVL74:
 862              		.loc 1 384 27 view .LVU228
 863 0018 FFF7FEFF 		bl	calloc
 864              	.LVL75:
 385:Core/Src/adBms6830ParseCreate.cpp ****   if(data == NULL)
 865              		.loc 1 385 3 is_stmt 1 view .LVU229
 866 001c 0446     		mov	r4, r0
 867 001e 28B1     		cbz	r0, .L68
 868              	.LBB11:
 386:Core/Src/adBms6830ParseCreate.cpp ****   {
 387:Core/Src/adBms6830ParseCreate.cpp ****     #ifdef MBED
 388:Core/Src/adBms6830ParseCreate.cpp ****     pc.printf(" Failed to allocate parse cell memory \n");
 389:Core/Src/adBms6830ParseCreate.cpp ****     #else
 390:Core/Src/adBms6830ParseCreate.cpp ****     printf(" Failed to allocate parse cell memory \n");
 391:Core/Src/adBms6830ParseCreate.cpp ****     #endif
 392:Core/Src/adBms6830ParseCreate.cpp ****     exit(0);
 393:Core/Src/adBms6830ParseCreate.cpp ****   }
 394:Core/Src/adBms6830ParseCreate.cpp ****   for(uint8_t curr_ic = 0; curr_ic < tIC; curr_ic++)
 869              		.loc 1 394 15 is_stmt 0 view .LVU230
 870 0020 0025     		movs	r5, #0
 871              	.LBE11:
 381:Core/Src/adBms6830ParseCreate.cpp ****   if(grp == ALL_GRP){data_size = RDCVALL_SIZE;}
 872              		.loc 1 381 29 view .LVU231
 873 0022 2946     		mov	r1, r5
 874 0024 1DE0     		b	.L53
 875              	.LVL76:
 876              	.L64:
 383:Core/Src/adBms6830ParseCreate.cpp ****   data = (uint8_t *)calloc(data_size, sizeof(uint8_t));
 877              		.loc 1 383 19 view .LVU232
 878 0026 4FF00808 		mov	r8, #8
 879 002a F2E7     		b	.L52
 880              	.LVL77:
 881              	.L68:
 390:Core/Src/adBms6830ParseCreate.cpp ****     #endif
 882              		.loc 1 390 5 is_stmt 1 view .LVU233
 390:Core/Src/adBms6830ParseCreate.cpp ****     #endif
 883              		.loc 1 390 11 is_stmt 0 view .LVU234
ARM GAS  C:\Users\huawei\AppData\Local\Temp\ccwYaMVL.s 			page 24


 884 002c 7A48     		ldr	r0, .L70
 885              	.LVL78:
 390:Core/Src/adBms6830ParseCreate.cpp ****     #endif
 886              		.loc 1 390 11 view .LVU235
 887 002e FFF7FEFF 		bl	puts
 888              	.LVL79:
 392:Core/Src/adBms6830ParseCreate.cpp ****   }
 889              		.loc 1 392 5 is_stmt 1 view .LVU236
 392:Core/Src/adBms6830ParseCreate.cpp ****   }
 890              		.loc 1 392 9 is_stmt 0 view .LVU237
 891 0032 0020     		movs	r0, #0
 892 0034 FFF7FEFF 		bl	exit
 893              	.LVL80:
 894              	.L61:
 895              	.LBB12:
 395:Core/Src/adBms6830ParseCreate.cpp ****   {
 396:Core/Src/adBms6830ParseCreate.cpp ****     memcpy(&data[0], &cv_data[address], data_size); /* dst , src , size */
 397:Core/Src/adBms6830ParseCreate.cpp ****     address = ((curr_ic+1) * (data_size));
 398:Core/Src/adBms6830ParseCreate.cpp ****     switch (grp)
 399:Core/Src/adBms6830ParseCreate.cpp ****     {
 400:Core/Src/adBms6830ParseCreate.cpp ****     case A: /* Cell Register group A */
 896              		.loc 1 400 5 is_stmt 1 view .LVU238
 401:Core/Src/adBms6830ParseCreate.cpp ****       ic[curr_ic].cell.c_codes[0] = (data[0] + (data[1] << 8));
 897              		.loc 1 401 7 view .LVU239
 898              		.loc 1 401 44 is_stmt 0 view .LVU240
 899 0038 2078     		ldrb	r0, [r4]	@ zero_extendqisi2
 900              		.loc 1 401 55 view .LVU241
 901 003a 94F801C0 		ldrb	ip, [r4, #1]	@ zero_extendqisi2
 902              		.loc 1 401 17 view .LVU242
 903 003e 4FF42872 		mov	r2, #672
 904 0042 02FB05A2 		mla	r2, r2, r5, r10
 905              		.loc 1 401 46 view .LVU243
 906 0046 00EB0C20 		add	r0, r0, ip, lsl #8
 907              		.loc 1 401 35 view .LVU244
 908 004a 1084     		strh	r0, [r2, #32]	@ movhi
 402:Core/Src/adBms6830ParseCreate.cpp ****       ic[curr_ic].cell.c_codes[1] = (data[2] + (data[3] << 8));
 909              		.loc 1 402 7 is_stmt 1 view .LVU245
 910              		.loc 1 402 44 is_stmt 0 view .LVU246
 911 004c A078     		ldrb	r0, [r4, #2]	@ zero_extendqisi2
 912              		.loc 1 402 55 view .LVU247
 913 004e E578     		ldrb	r5, [r4, #3]	@ zero_extendqisi2
 914              	.LVL81:
 915              		.loc 1 402 46 view .LVU248
 916 0050 00EB0520 		add	r0, r0, r5, lsl #8
 917              		.loc 1 402 35 view .LVU249
 918 0054 5084     		strh	r0, [r2, #34]	@ movhi
 403:Core/Src/adBms6830ParseCreate.cpp ****       ic[curr_ic].cell.c_codes[2] = (data[4] + (data[5] << 8));
 919              		.loc 1 403 7 is_stmt 1 view .LVU250
 920              		.loc 1 403 44 is_stmt 0 view .LVU251
 921 0056 2079     		ldrb	r0, [r4, #4]	@ zero_extendqisi2
 922              		.loc 1 403 55 view .LVU252
 923 0058 6579     		ldrb	r5, [r4, #5]	@ zero_extendqisi2
 924              		.loc 1 403 46 view .LVU253
 925 005a 00EB0520 		add	r0, r0, r5, lsl #8
 926              		.loc 1 403 35 view .LVU254
 927 005e 9084     		strh	r0, [r2, #36]	@ movhi
 404:Core/Src/adBms6830ParseCreate.cpp ****       break;
ARM GAS  C:\Users\huawei\AppData\Local\Temp\ccwYaMVL.s 			page 25


 928              		.loc 1 404 7 is_stmt 1 view .LVU255
 929              	.L54:
 930              		.loc 1 404 7 is_stmt 0 view .LVU256
 931              	.LBE12:
 383:Core/Src/adBms6830ParseCreate.cpp ****   data = (uint8_t *)calloc(data_size, sizeof(uint8_t));
 932              		.loc 1 383 19 discriminator 1 view .LVU257
 933 0060 1D46     		mov	r5, r3
 934              	.LVL82:
 935              	.L53:
 936              	.LBB13:
 394:Core/Src/adBms6830ParseCreate.cpp ****   {
 937              		.loc 1 394 36 is_stmt 1 discriminator 1 view .LVU258
 938 0062 BD42     		cmp	r5, r7
 939 0064 80F0D380 		bcs	.L69
 396:Core/Src/adBms6830ParseCreate.cpp ****     address = ((curr_ic+1) * (data_size));
 940              		.loc 1 396 5 view .LVU259
 396:Core/Src/adBms6830ParseCreate.cpp ****     address = ((curr_ic+1) * (data_size));
 941              		.loc 1 396 11 is_stmt 0 view .LVU260
 942 0068 5A46     		mov	r2, fp
 943 006a 4944     		add	r1, r1, r9
 944              	.LVL83:
 396:Core/Src/adBms6830ParseCreate.cpp ****     address = ((curr_ic+1) * (data_size));
 945              		.loc 1 396 11 view .LVU261
 946 006c 2046     		mov	r0, r4
 947 006e FFF7FEFF 		bl	memcpy
 948              	.LVL84:
 397:Core/Src/adBms6830ParseCreate.cpp ****     switch (grp)
 949              		.loc 1 397 5 is_stmt 1 view .LVU262
 397:Core/Src/adBms6830ParseCreate.cpp ****     switch (grp)
 950              		.loc 1 397 13 is_stmt 0 view .LVU263
 951 0072 6B1C     		adds	r3, r5, #1
 952 0074 DBB2     		uxtb	r3, r3
 953 0076 13FB08F1 		smulbb	r1, r3, r8
 954 007a C9B2     		uxtb	r1, r1
 955              	.LVL85:
 398:Core/Src/adBms6830ParseCreate.cpp ****     {
 956              		.loc 1 398 5 is_stmt 1 view .LVU264
 957 007c 062E     		cmp	r6, #6
 958 007e EFD8     		bhi	.L54
 959 0080 01A2     		adr	r2, .L56
 960 0082 52F826F0 		ldr	pc, [r2, r6, lsl #2]
 961 0086 00BF     		.p2align 2
 962              	.L56:
 963 0088 63010000 		.word	.L62+1
 964 008c 39000000 		.word	.L61+1
 965 0090 A5000000 		.word	.L60+1
 966 0094 CF000000 		.word	.L59+1
 967 0098 F9000000 		.word	.L58+1
 968 009c 23010000 		.word	.L57+1
 969 00a0 4D010000 		.word	.L55+1
 970              		.p2align 1
 971              	.L60:
 405:Core/Src/adBms6830ParseCreate.cpp **** 
 406:Core/Src/adBms6830ParseCreate.cpp ****     case B: /* Cell Register group B */
 972              		.loc 1 406 5 view .LVU265
 407:Core/Src/adBms6830ParseCreate.cpp ****       ic[curr_ic].cell.c_codes[3] = (data[0] + (data[1] << 8));
 973              		.loc 1 407 7 view .LVU266
ARM GAS  C:\Users\huawei\AppData\Local\Temp\ccwYaMVL.s 			page 26


 974              		.loc 1 407 44 is_stmt 0 view .LVU267
 975 00a4 2078     		ldrb	r0, [r4]	@ zero_extendqisi2
 976              		.loc 1 407 55 view .LVU268
 977 00a6 94F801C0 		ldrb	ip, [r4, #1]	@ zero_extendqisi2
 978              		.loc 1 407 17 view .LVU269
 979 00aa 4FF42872 		mov	r2, #672
 980 00ae 02FB05A2 		mla	r2, r2, r5, r10
 981              		.loc 1 407 46 view .LVU270
 982 00b2 00EB0C20 		add	r0, r0, ip, lsl #8
 983              		.loc 1 407 35 view .LVU271
 984 00b6 D084     		strh	r0, [r2, #38]	@ movhi
 408:Core/Src/adBms6830ParseCreate.cpp ****       ic[curr_ic].cell.c_codes[4] = (data[2] + (data[3] << 8));
 985              		.loc 1 408 7 is_stmt 1 view .LVU272
 986              		.loc 1 408 44 is_stmt 0 view .LVU273
 987 00b8 A078     		ldrb	r0, [r4, #2]	@ zero_extendqisi2
 988              		.loc 1 408 55 view .LVU274
 989 00ba E578     		ldrb	r5, [r4, #3]	@ zero_extendqisi2
 990              	.LVL86:
 991              		.loc 1 408 46 view .LVU275
 992 00bc 00EB0520 		add	r0, r0, r5, lsl #8
 993              		.loc 1 408 35 view .LVU276
 994 00c0 1085     		strh	r0, [r2, #40]	@ movhi
 409:Core/Src/adBms6830ParseCreate.cpp ****       ic[curr_ic].cell.c_codes[5] = (data[4] + (data[5] << 8));
 995              		.loc 1 409 7 is_stmt 1 view .LVU277
 996              		.loc 1 409 44 is_stmt 0 view .LVU278
 997 00c2 2079     		ldrb	r0, [r4, #4]	@ zero_extendqisi2
 998              		.loc 1 409 55 view .LVU279
 999 00c4 6579     		ldrb	r5, [r4, #5]	@ zero_extendqisi2
 1000              		.loc 1 409 46 view .LVU280
 1001 00c6 00EB0520 		add	r0, r0, r5, lsl #8
 1002              		.loc 1 409 35 view .LVU281
 1003 00ca 5085     		strh	r0, [r2, #42]	@ movhi
 410:Core/Src/adBms6830ParseCreate.cpp ****       break;
 1004              		.loc 1 410 7 is_stmt 1 view .LVU282
 1005 00cc C8E7     		b	.L54
 1006              	.LVL87:
 1007              	.L59:
 411:Core/Src/adBms6830ParseCreate.cpp **** 
 412:Core/Src/adBms6830ParseCreate.cpp ****     case C: /* Cell Register group C */
 1008              		.loc 1 412 5 view .LVU283
 413:Core/Src/adBms6830ParseCreate.cpp ****       ic[curr_ic].cell.c_codes[6] = (data[0] + (data[1] << 8));
 1009              		.loc 1 413 7 view .LVU284
 1010              		.loc 1 413 44 is_stmt 0 view .LVU285
 1011 00ce 2078     		ldrb	r0, [r4]	@ zero_extendqisi2
 1012              		.loc 1 413 55 view .LVU286
 1013 00d0 94F801C0 		ldrb	ip, [r4, #1]	@ zero_extendqisi2
 1014              		.loc 1 413 17 view .LVU287
 1015 00d4 4FF42872 		mov	r2, #672
 1016 00d8 02FB05A2 		mla	r2, r2, r5, r10
 1017              		.loc 1 413 46 view .LVU288
 1018 00dc 00EB0C20 		add	r0, r0, ip, lsl #8
 1019              		.loc 1 413 35 view .LVU289
 1020 00e0 9085     		strh	r0, [r2, #44]	@ movhi
 414:Core/Src/adBms6830ParseCreate.cpp ****       ic[curr_ic].cell.c_codes[7] = (data[2] + (data[3] << 8));
 1021              		.loc 1 414 7 is_stmt 1 view .LVU290
 1022              		.loc 1 414 44 is_stmt 0 view .LVU291
 1023 00e2 A078     		ldrb	r0, [r4, #2]	@ zero_extendqisi2
ARM GAS  C:\Users\huawei\AppData\Local\Temp\ccwYaMVL.s 			page 27


 1024              		.loc 1 414 55 view .LVU292
 1025 00e4 E578     		ldrb	r5, [r4, #3]	@ zero_extendqisi2
 1026              	.LVL88:
 1027              		.loc 1 414 46 view .LVU293
 1028 00e6 00EB0520 		add	r0, r0, r5, lsl #8
 1029              		.loc 1 414 35 view .LVU294
 1030 00ea D085     		strh	r0, [r2, #46]	@ movhi
 415:Core/Src/adBms6830ParseCreate.cpp ****       ic[curr_ic].cell.c_codes[8] = (data[4] + (data[5] << 8));
 1031              		.loc 1 415 7 is_stmt 1 view .LVU295
 1032              		.loc 1 415 44 is_stmt 0 view .LVU296
 1033 00ec 2079     		ldrb	r0, [r4, #4]	@ zero_extendqisi2
 1034              		.loc 1 415 55 view .LVU297
 1035 00ee 6579     		ldrb	r5, [r4, #5]	@ zero_extendqisi2
 1036              		.loc 1 415 46 view .LVU298
 1037 00f0 00EB0520 		add	r0, r0, r5, lsl #8
 1038              		.loc 1 415 35 view .LVU299
 1039 00f4 1086     		strh	r0, [r2, #48]	@ movhi
 416:Core/Src/adBms6830ParseCreate.cpp ****       break;
 1040              		.loc 1 416 7 is_stmt 1 view .LVU300
 1041 00f6 B3E7     		b	.L54
 1042              	.LVL89:
 1043              	.L58:
 417:Core/Src/adBms6830ParseCreate.cpp **** 
 418:Core/Src/adBms6830ParseCreate.cpp ****     case D: /* Cell Register group D */
 1044              		.loc 1 418 5 view .LVU301
 419:Core/Src/adBms6830ParseCreate.cpp ****       ic[curr_ic].cell.c_codes[9] =  (data[0] + (data[1] << 8));
 1045              		.loc 1 419 7 view .LVU302
 1046              		.loc 1 419 45 is_stmt 0 view .LVU303
 1047 00f8 2078     		ldrb	r0, [r4]	@ zero_extendqisi2
 1048              		.loc 1 419 56 view .LVU304
 1049 00fa 94F801C0 		ldrb	ip, [r4, #1]	@ zero_extendqisi2
 1050              		.loc 1 419 17 view .LVU305
 1051 00fe 4FF42872 		mov	r2, #672
 1052 0102 02FB05A2 		mla	r2, r2, r5, r10
 1053              		.loc 1 419 47 view .LVU306
 1054 0106 00EB0C20 		add	r0, r0, ip, lsl #8
 1055              		.loc 1 419 35 view .LVU307
 1056 010a 5086     		strh	r0, [r2, #50]	@ movhi
 420:Core/Src/adBms6830ParseCreate.cpp ****       ic[curr_ic].cell.c_codes[10] = (data[2] + (data[3] << 8));
 1057              		.loc 1 420 7 is_stmt 1 view .LVU308
 1058              		.loc 1 420 45 is_stmt 0 view .LVU309
 1059 010c A078     		ldrb	r0, [r4, #2]	@ zero_extendqisi2
 1060              		.loc 1 420 56 view .LVU310
 1061 010e E578     		ldrb	r5, [r4, #3]	@ zero_extendqisi2
 1062              	.LVL90:
 1063              		.loc 1 420 47 view .LVU311
 1064 0110 00EB0520 		add	r0, r0, r5, lsl #8
 1065              		.loc 1 420 36 view .LVU312
 1066 0114 9086     		strh	r0, [r2, #52]	@ movhi
 421:Core/Src/adBms6830ParseCreate.cpp ****       ic[curr_ic].cell.c_codes[11] = (data[4] + (data[5] << 8));
 1067              		.loc 1 421 7 is_stmt 1 view .LVU313
 1068              		.loc 1 421 45 is_stmt 0 view .LVU314
 1069 0116 2079     		ldrb	r0, [r4, #4]	@ zero_extendqisi2
 1070              		.loc 1 421 56 view .LVU315
 1071 0118 6579     		ldrb	r5, [r4, #5]	@ zero_extendqisi2
 1072              		.loc 1 421 47 view .LVU316
 1073 011a 00EB0520 		add	r0, r0, r5, lsl #8
ARM GAS  C:\Users\huawei\AppData\Local\Temp\ccwYaMVL.s 			page 28


 1074              		.loc 1 421 36 view .LVU317
 1075 011e D086     		strh	r0, [r2, #54]	@ movhi
 422:Core/Src/adBms6830ParseCreate.cpp ****       break;
 1076              		.loc 1 422 7 is_stmt 1 view .LVU318
 1077 0120 9EE7     		b	.L54
 1078              	.LVL91:
 1079              	.L57:
 423:Core/Src/adBms6830ParseCreate.cpp **** 
 424:Core/Src/adBms6830ParseCreate.cpp ****     case E: /* Cell Register group E */
 1080              		.loc 1 424 5 view .LVU319
 425:Core/Src/adBms6830ParseCreate.cpp ****       ic[curr_ic].cell.c_codes[12] = (data[0] + (data[1] << 8));
 1081              		.loc 1 425 7 view .LVU320
 1082              		.loc 1 425 45 is_stmt 0 view .LVU321
 1083 0122 2078     		ldrb	r0, [r4]	@ zero_extendqisi2
 1084              		.loc 1 425 56 view .LVU322
 1085 0124 94F801C0 		ldrb	ip, [r4, #1]	@ zero_extendqisi2
 1086              		.loc 1 425 17 view .LVU323
 1087 0128 4FF42872 		mov	r2, #672
 1088 012c 02FB05A2 		mla	r2, r2, r5, r10
 1089              		.loc 1 425 47 view .LVU324
 1090 0130 00EB0C20 		add	r0, r0, ip, lsl #8
 1091              		.loc 1 425 36 view .LVU325
 1092 0134 1087     		strh	r0, [r2, #56]	@ movhi
 426:Core/Src/adBms6830ParseCreate.cpp ****       ic[curr_ic].cell.c_codes[13] = (data[2] + (data[3] << 8));
 1093              		.loc 1 426 7 is_stmt 1 view .LVU326
 1094              		.loc 1 426 45 is_stmt 0 view .LVU327
 1095 0136 A078     		ldrb	r0, [r4, #2]	@ zero_extendqisi2
 1096              		.loc 1 426 56 view .LVU328
 1097 0138 E578     		ldrb	r5, [r4, #3]	@ zero_extendqisi2
 1098              	.LVL92:
 1099              		.loc 1 426 47 view .LVU329
 1100 013a 00EB0520 		add	r0, r0, r5, lsl #8
 1101              		.loc 1 426 36 view .LVU330
 1102 013e 5087     		strh	r0, [r2, #58]	@ movhi
 427:Core/Src/adBms6830ParseCreate.cpp ****       ic[curr_ic].cell.c_codes[14] = (data[4] + (data[5] << 8));
 1103              		.loc 1 427 7 is_stmt 1 view .LVU331
 1104              		.loc 1 427 45 is_stmt 0 view .LVU332
 1105 0140 2079     		ldrb	r0, [r4, #4]	@ zero_extendqisi2
 1106              		.loc 1 427 56 view .LVU333
 1107 0142 6579     		ldrb	r5, [r4, #5]	@ zero_extendqisi2
 1108              		.loc 1 427 47 view .LVU334
 1109 0144 00EB0520 		add	r0, r0, r5, lsl #8
 1110              		.loc 1 427 36 view .LVU335
 1111 0148 9087     		strh	r0, [r2, #60]	@ movhi
 428:Core/Src/adBms6830ParseCreate.cpp ****       break;
 1112              		.loc 1 428 7 is_stmt 1 view .LVU336
 1113 014a 89E7     		b	.L54
 1114              	.LVL93:
 1115              	.L55:
 429:Core/Src/adBms6830ParseCreate.cpp **** 
 430:Core/Src/adBms6830ParseCreate.cpp ****     case F: /* Cell Register group F */
 1116              		.loc 1 430 5 view .LVU337
 431:Core/Src/adBms6830ParseCreate.cpp ****       ic[curr_ic].cell.c_codes[15] = (data[0] + (data[1] << 8));
 1117              		.loc 1 431 7 view .LVU338
 1118              		.loc 1 431 45 is_stmt 0 view .LVU339
 1119 014c 2078     		ldrb	r0, [r4]	@ zero_extendqisi2
 1120              		.loc 1 431 56 view .LVU340
ARM GAS  C:\Users\huawei\AppData\Local\Temp\ccwYaMVL.s 			page 29


 1121 014e 94F801C0 		ldrb	ip, [r4, #1]	@ zero_extendqisi2
 1122              		.loc 1 431 17 view .LVU341
 1123 0152 4FF42872 		mov	r2, #672
 1124 0156 02FB05A2 		mla	r2, r2, r5, r10
 1125              		.loc 1 431 47 view .LVU342
 1126 015a 00EB0C20 		add	r0, r0, ip, lsl #8
 1127              		.loc 1 431 36 view .LVU343
 1128 015e D087     		strh	r0, [r2, #62]	@ movhi
 432:Core/Src/adBms6830ParseCreate.cpp ****       break;
 1129              		.loc 1 432 7 is_stmt 1 view .LVU344
 1130 0160 7EE7     		b	.L54
 1131              	.L62:
 433:Core/Src/adBms6830ParseCreate.cpp **** 
 434:Core/Src/adBms6830ParseCreate.cpp ****     case ALL_GRP: /* Cell Register group ALL */
 1132              		.loc 1 434 5 view .LVU345
 435:Core/Src/adBms6830ParseCreate.cpp ****       ic[curr_ic].cell.c_codes[0] = (data[0] + (data[1] << 8));
 1133              		.loc 1 435 7 view .LVU346
 1134              		.loc 1 435 44 is_stmt 0 view .LVU347
 1135 0162 2078     		ldrb	r0, [r4]	@ zero_extendqisi2
 1136              		.loc 1 435 55 view .LVU348
 1137 0164 94F801C0 		ldrb	ip, [r4, #1]	@ zero_extendqisi2
 1138              		.loc 1 435 17 view .LVU349
 1139 0168 4FF42872 		mov	r2, #672
 1140 016c 02FB05A2 		mla	r2, r2, r5, r10
 1141              		.loc 1 435 46 view .LVU350
 1142 0170 00EB0C20 		add	r0, r0, ip, lsl #8
 1143              		.loc 1 435 35 view .LVU351
 1144 0174 1084     		strh	r0, [r2, #32]	@ movhi
 436:Core/Src/adBms6830ParseCreate.cpp ****       ic[curr_ic].cell.c_codes[1] = (data[2] + (data[3] << 8));
 1145              		.loc 1 436 7 is_stmt 1 view .LVU352
 1146              		.loc 1 436 44 is_stmt 0 view .LVU353
 1147 0176 A078     		ldrb	r0, [r4, #2]	@ zero_extendqisi2
 1148              		.loc 1 436 55 view .LVU354
 1149 0178 E578     		ldrb	r5, [r4, #3]	@ zero_extendqisi2
 1150              	.LVL94:
 1151              		.loc 1 436 46 view .LVU355
 1152 017a 00EB0520 		add	r0, r0, r5, lsl #8
 1153              		.loc 1 436 35 view .LVU356
 1154 017e 5084     		strh	r0, [r2, #34]	@ movhi
 437:Core/Src/adBms6830ParseCreate.cpp ****       ic[curr_ic].cell.c_codes[2] = (data[4] + (data[5] << 8));
 1155              		.loc 1 437 7 is_stmt 1 view .LVU357
 1156              		.loc 1 437 44 is_stmt 0 view .LVU358
 1157 0180 2079     		ldrb	r0, [r4, #4]	@ zero_extendqisi2
 1158              		.loc 1 437 55 view .LVU359
 1159 0182 6579     		ldrb	r5, [r4, #5]	@ zero_extendqisi2
 1160              		.loc 1 437 46 view .LVU360
 1161 0184 00EB0520 		add	r0, r0, r5, lsl #8
 1162              		.loc 1 437 35 view .LVU361
 1163 0188 9084     		strh	r0, [r2, #36]	@ movhi
 438:Core/Src/adBms6830ParseCreate.cpp ****       ic[curr_ic].cell.c_codes[3] = (data[6] + (data[7] << 8));
 1164              		.loc 1 438 7 is_stmt 1 view .LVU362
 1165              		.loc 1 438 44 is_stmt 0 view .LVU363
 1166 018a A079     		ldrb	r0, [r4, #6]	@ zero_extendqisi2
 1167              		.loc 1 438 55 view .LVU364
 1168 018c E579     		ldrb	r5, [r4, #7]	@ zero_extendqisi2
 1169              		.loc 1 438 46 view .LVU365
 1170 018e 00EB0520 		add	r0, r0, r5, lsl #8
ARM GAS  C:\Users\huawei\AppData\Local\Temp\ccwYaMVL.s 			page 30


 1171              		.loc 1 438 35 view .LVU366
 1172 0192 D084     		strh	r0, [r2, #38]	@ movhi
 439:Core/Src/adBms6830ParseCreate.cpp ****       ic[curr_ic].cell.c_codes[4] = (data[8] + (data[9] << 8));
 1173              		.loc 1 439 7 is_stmt 1 view .LVU367
 1174              		.loc 1 439 44 is_stmt 0 view .LVU368
 1175 0194 207A     		ldrb	r0, [r4, #8]	@ zero_extendqisi2
 1176              		.loc 1 439 55 view .LVU369
 1177 0196 657A     		ldrb	r5, [r4, #9]	@ zero_extendqisi2
 1178              		.loc 1 439 46 view .LVU370
 1179 0198 00EB0520 		add	r0, r0, r5, lsl #8
 1180              		.loc 1 439 35 view .LVU371
 1181 019c 1085     		strh	r0, [r2, #40]	@ movhi
 440:Core/Src/adBms6830ParseCreate.cpp ****       ic[curr_ic].cell.c_codes[5] = (data[10] + (data[11] << 8));
 1182              		.loc 1 440 7 is_stmt 1 view .LVU372
 1183              		.loc 1 440 45 is_stmt 0 view .LVU373
 1184 019e A07A     		ldrb	r0, [r4, #10]	@ zero_extendqisi2
 1185              		.loc 1 440 57 view .LVU374
 1186 01a0 E57A     		ldrb	r5, [r4, #11]	@ zero_extendqisi2
 1187              		.loc 1 440 47 view .LVU375
 1188 01a2 00EB0520 		add	r0, r0, r5, lsl #8
 1189              		.loc 1 440 35 view .LVU376
 1190 01a6 5085     		strh	r0, [r2, #42]	@ movhi
 441:Core/Src/adBms6830ParseCreate.cpp ****       ic[curr_ic].cell.c_codes[6] = (data[12] + (data[13] << 8));
 1191              		.loc 1 441 7 is_stmt 1 view .LVU377
 1192              		.loc 1 441 45 is_stmt 0 view .LVU378
 1193 01a8 207B     		ldrb	r0, [r4, #12]	@ zero_extendqisi2
 1194              		.loc 1 441 57 view .LVU379
 1195 01aa 657B     		ldrb	r5, [r4, #13]	@ zero_extendqisi2
 1196              		.loc 1 441 47 view .LVU380
 1197 01ac 00EB0520 		add	r0, r0, r5, lsl #8
 1198              		.loc 1 441 35 view .LVU381
 1199 01b0 9085     		strh	r0, [r2, #44]	@ movhi
 442:Core/Src/adBms6830ParseCreate.cpp ****       ic[curr_ic].cell.c_codes[7] = (data[14] + (data[15] << 8));
 1200              		.loc 1 442 7 is_stmt 1 view .LVU382
 1201              		.loc 1 442 45 is_stmt 0 view .LVU383
 1202 01b2 A07B     		ldrb	r0, [r4, #14]	@ zero_extendqisi2
 1203              		.loc 1 442 57 view .LVU384
 1204 01b4 E57B     		ldrb	r5, [r4, #15]	@ zero_extendqisi2
 1205              		.loc 1 442 47 view .LVU385
 1206 01b6 00EB0520 		add	r0, r0, r5, lsl #8
 1207              		.loc 1 442 35 view .LVU386
 1208 01ba D085     		strh	r0, [r2, #46]	@ movhi
 443:Core/Src/adBms6830ParseCreate.cpp ****       ic[curr_ic].cell.c_codes[8] = (data[16] + (data[17] << 8));
 1209              		.loc 1 443 7 is_stmt 1 view .LVU387
 1210              		.loc 1 443 45 is_stmt 0 view .LVU388
 1211 01bc 207C     		ldrb	r0, [r4, #16]	@ zero_extendqisi2
 1212              		.loc 1 443 57 view .LVU389
 1213 01be 657C     		ldrb	r5, [r4, #17]	@ zero_extendqisi2
 1214              		.loc 1 443 47 view .LVU390
 1215 01c0 00EB0520 		add	r0, r0, r5, lsl #8
 1216              		.loc 1 443 35 view .LVU391
 1217 01c4 1086     		strh	r0, [r2, #48]	@ movhi
 444:Core/Src/adBms6830ParseCreate.cpp ****       ic[curr_ic].cell.c_codes[9] =  (data[18] + (data[19] << 8));
 1218              		.loc 1 444 7 is_stmt 1 view .LVU392
 1219              		.loc 1 444 46 is_stmt 0 view .LVU393
 1220 01c6 A07C     		ldrb	r0, [r4, #18]	@ zero_extendqisi2
 1221              		.loc 1 444 58 view .LVU394
ARM GAS  C:\Users\huawei\AppData\Local\Temp\ccwYaMVL.s 			page 31


 1222 01c8 E57C     		ldrb	r5, [r4, #19]	@ zero_extendqisi2
 1223              		.loc 1 444 48 view .LVU395
 1224 01ca 00EB0520 		add	r0, r0, r5, lsl #8
 1225              		.loc 1 444 35 view .LVU396
 1226 01ce 5086     		strh	r0, [r2, #50]	@ movhi
 445:Core/Src/adBms6830ParseCreate.cpp ****       ic[curr_ic].cell.c_codes[10] = (data[20] + (data[21] << 8));
 1227              		.loc 1 445 7 is_stmt 1 view .LVU397
 1228              		.loc 1 445 46 is_stmt 0 view .LVU398
 1229 01d0 207D     		ldrb	r0, [r4, #20]	@ zero_extendqisi2
 1230              		.loc 1 445 58 view .LVU399
 1231 01d2 657D     		ldrb	r5, [r4, #21]	@ zero_extendqisi2
 1232              		.loc 1 445 48 view .LVU400
 1233 01d4 00EB0520 		add	r0, r0, r5, lsl #8
 1234              		.loc 1 445 36 view .LVU401
 1235 01d8 9086     		strh	r0, [r2, #52]	@ movhi
 446:Core/Src/adBms6830ParseCreate.cpp ****       ic[curr_ic].cell.c_codes[11] = (data[22] + (data[23] << 8));
 1236              		.loc 1 446 7 is_stmt 1 view .LVU402
 1237              		.loc 1 446 46 is_stmt 0 view .LVU403
 1238 01da A07D     		ldrb	r0, [r4, #22]	@ zero_extendqisi2
 1239              		.loc 1 446 58 view .LVU404
 1240 01dc E57D     		ldrb	r5, [r4, #23]	@ zero_extendqisi2
 1241              		.loc 1 446 48 view .LVU405
 1242 01de 00EB0520 		add	r0, r0, r5, lsl #8
 1243              		.loc 1 446 36 view .LVU406
 1244 01e2 D086     		strh	r0, [r2, #54]	@ movhi
 447:Core/Src/adBms6830ParseCreate.cpp ****       ic[curr_ic].cell.c_codes[12] = (data[24] + (data[25] << 8));
 1245              		.loc 1 447 7 is_stmt 1 view .LVU407
 1246              		.loc 1 447 46 is_stmt 0 view .LVU408
 1247 01e4 207E     		ldrb	r0, [r4, #24]	@ zero_extendqisi2
 1248              		.loc 1 447 58 view .LVU409
 1249 01e6 657E     		ldrb	r5, [r4, #25]	@ zero_extendqisi2
 1250              		.loc 1 447 48 view .LVU410
 1251 01e8 00EB0520 		add	r0, r0, r5, lsl #8
 1252              		.loc 1 447 36 view .LVU411
 1253 01ec 1087     		strh	r0, [r2, #56]	@ movhi
 448:Core/Src/adBms6830ParseCreate.cpp ****       ic[curr_ic].cell.c_codes[13] = (data[26] + (data[27] << 8));
 1254              		.loc 1 448 7 is_stmt 1 view .LVU412
 1255              		.loc 1 448 46 is_stmt 0 view .LVU413
 1256 01ee A07E     		ldrb	r0, [r4, #26]	@ zero_extendqisi2
 1257              		.loc 1 448 58 view .LVU414
 1258 01f0 E57E     		ldrb	r5, [r4, #27]	@ zero_extendqisi2
 1259              		.loc 1 448 48 view .LVU415
 1260 01f2 00EB0520 		add	r0, r0, r5, lsl #8
 1261              		.loc 1 448 36 view .LVU416
 1262 01f6 5087     		strh	r0, [r2, #58]	@ movhi
 449:Core/Src/adBms6830ParseCreate.cpp ****       ic[curr_ic].cell.c_codes[14] = (data[28] + (data[29] << 8));
 1263              		.loc 1 449 7 is_stmt 1 view .LVU417
 1264              		.loc 1 449 46 is_stmt 0 view .LVU418
 1265 01f8 207F     		ldrb	r0, [r4, #28]	@ zero_extendqisi2
 1266              		.loc 1 449 58 view .LVU419
 1267 01fa 657F     		ldrb	r5, [r4, #29]	@ zero_extendqisi2
 1268              		.loc 1 449 48 view .LVU420
 1269 01fc 00EB0520 		add	r0, r0, r5, lsl #8
 1270              		.loc 1 449 36 view .LVU421
 1271 0200 9087     		strh	r0, [r2, #60]	@ movhi
 450:Core/Src/adBms6830ParseCreate.cpp ****       ic[curr_ic].cell.c_codes[15] = (data[30] + (data[31] << 8));
 1272              		.loc 1 450 7 is_stmt 1 view .LVU422
ARM GAS  C:\Users\huawei\AppData\Local\Temp\ccwYaMVL.s 			page 32


 1273              		.loc 1 450 46 is_stmt 0 view .LVU423
 1274 0202 A07F     		ldrb	r0, [r4, #30]	@ zero_extendqisi2
 1275              		.loc 1 450 58 view .LVU424
 1276 0204 E57F     		ldrb	r5, [r4, #31]	@ zero_extendqisi2
 1277              		.loc 1 450 48 view .LVU425
 1278 0206 00EB0520 		add	r0, r0, r5, lsl #8
 1279              		.loc 1 450 36 view .LVU426
 1280 020a D087     		strh	r0, [r2, #62]	@ movhi
 451:Core/Src/adBms6830ParseCreate.cpp ****       break;
 1281              		.loc 1 451 7 is_stmt 1 view .LVU427
 1282 020c 28E7     		b	.L54
 1283              	.LVL95:
 1284              	.L69:
 1285              		.loc 1 451 7 is_stmt 0 view .LVU428
 1286              	.LBE13:
 452:Core/Src/adBms6830ParseCreate.cpp **** 
 453:Core/Src/adBms6830ParseCreate.cpp ****     default:
 454:Core/Src/adBms6830ParseCreate.cpp ****       break;
 455:Core/Src/adBms6830ParseCreate.cpp ****     }
 456:Core/Src/adBms6830ParseCreate.cpp ****   }
 457:Core/Src/adBms6830ParseCreate.cpp ****   free(data);
 1287              		.loc 1 457 3 is_stmt 1 view .LVU429
 1288              		.loc 1 457 7 is_stmt 0 view .LVU430
 1289 020e 2046     		mov	r0, r4
 1290 0210 FFF7FEFF 		bl	free
 1291              	.LVL96:
 458:Core/Src/adBms6830ParseCreate.cpp **** }
 1292              		.loc 1 458 1 view .LVU431
 1293 0214 BDE8F88F 		pop	{r3, r4, r5, r6, r7, r8, r9, r10, fp, pc}
 1294              	.LVL97:
 1295              	.L71:
 1296              		.loc 1 458 1 view .LVU432
 1297              		.align	2
 1298              	.L70:
 1299 0218 00000000 		.word	.LC0
 1300              		.cfi_endproc
 1301              	.LFE255:
 1302              		.fnend
 1304              		.section	.rodata._Z25adBms6830ParseAverageCellhP9cell_asic3GRPPh.str1.4,"aMS",%progbits,1
 1305              		.align	2
 1306              	.LC1:
 1307 0000 20466169 		.ascii	" Failed to allocate parse avg cell memory \000"
 1307      6C656420 
 1307      746F2061 
 1307      6C6C6F63 
 1307      61746520 
 1308              		.section	.text._Z25adBms6830ParseAverageCellhP9cell_asic3GRPPh,"ax",%progbits
 1309              		.align	1
 1310              		.global	_Z25adBms6830ParseAverageCellhP9cell_asic3GRPPh
 1311              		.syntax unified
 1312              		.thumb
 1313              		.thumb_func
 1315              	_Z25adBms6830ParseAverageCellhP9cell_asic3GRPPh:
 1316              		.fnstart
 1317              	.LVL98:
 1318              	.LFB256:
 459:Core/Src/adBms6830ParseCreate.cpp **** 
ARM GAS  C:\Users\huawei\AppData\Local\Temp\ccwYaMVL.s 			page 33


 460:Core/Src/adBms6830ParseCreate.cpp **** /**
 461:Core/Src/adBms6830ParseCreate.cpp ****  *******************************************************************************
 462:Core/Src/adBms6830ParseCreate.cpp ****  * Function: adBms6830ParseAverageCell
 463:Core/Src/adBms6830ParseCreate.cpp ****  * @brief Parse average cell voltages
 464:Core/Src/adBms6830ParseCreate.cpp ****  *
 465:Core/Src/adBms6830ParseCreate.cpp ****  * @details This function Parse the recived average cell register A,B,C,D,E and F data.
 466:Core/Src/adBms6830ParseCreate.cpp ****  *
 467:Core/Src/adBms6830ParseCreate.cpp ****  * Parameters:
 468:Core/Src/adBms6830ParseCreate.cpp ****  *
 469:Core/Src/adBms6830ParseCreate.cpp ****  * @param [in]  tIC                     Total IC
 470:Core/Src/adBms6830ParseCreate.cpp ****  *
 471:Core/Src/adBms6830ParseCreate.cpp ****  * @param [in]  *ic                     cell_asic ic structure pointer
 472:Core/Src/adBms6830ParseCreate.cpp ****  *
 473:Core/Src/adBms6830ParseCreate.cpp ****  * @param [in]  grp                     Enum type register group
 474:Core/Src/adBms6830ParseCreate.cpp ****  *
 475:Core/Src/adBms6830ParseCreate.cpp ****  * @param [in]  *acv_data               Average cell voltage data pointer
 476:Core/Src/adBms6830ParseCreate.cpp ****  *
 477:Core/Src/adBms6830ParseCreate.cpp ****  * @return None
 478:Core/Src/adBms6830ParseCreate.cpp ****  *
 479:Core/Src/adBms6830ParseCreate.cpp ****  *******************************************************************************
 480:Core/Src/adBms6830ParseCreate.cpp **** */
 481:Core/Src/adBms6830ParseCreate.cpp **** void adBms6830ParseAverageCell(uint8_t tIC, cell_asic *ic, GRP grp, uint8_t *acv_data)
 482:Core/Src/adBms6830ParseCreate.cpp **** {
 1319              		.loc 1 482 1 is_stmt 1 view -0
 1320              		.cfi_startproc
 1321              		@ args = 0, pretend = 0, frame = 0
 1322              		@ frame_needed = 0, uses_anonymous_args = 0
 1323              		.loc 1 482 1 is_stmt 0 view .LVU434
 1324 0000 2DE9F84F 		push	{r3, r4, r5, r6, r7, r8, r9, r10, fp, lr}
 1325              		.save {r3, r4, r5, r6, r7, r8, r9, r10, fp, lr}
 1326              	.LCFI8:
 1327              		.cfi_def_cfa_offset 40
 1328              		.cfi_offset 3, -40
 1329              		.cfi_offset 4, -36
 1330              		.cfi_offset 5, -32
 1331              		.cfi_offset 6, -28
 1332              		.cfi_offset 7, -24
 1333              		.cfi_offset 8, -20
 1334              		.cfi_offset 9, -16
 1335              		.cfi_offset 10, -12
 1336              		.cfi_offset 11, -8
 1337              		.cfi_offset 14, -4
 1338 0004 0746     		mov	r7, r0
 1339 0006 8A46     		mov	r10, r1
 1340 0008 9946     		mov	r9, r3
 483:Core/Src/adBms6830ParseCreate.cpp ****   uint8_t *data, data_size, address = 0;
 1341              		.loc 1 483 3 is_stmt 1 view .LVU435
 1342              	.LVL99:
 484:Core/Src/adBms6830ParseCreate.cpp ****   if(grp == ALL_GRP){data_size = RDACALL_SIZE;}
 1343              		.loc 1 484 3 view .LVU436
 1344 000a 1646     		mov	r6, r2
 1345 000c 5AB9     		cbnz	r2, .L85
 1346              		.loc 1 484 32 is_stmt 0 view .LVU437
 1347 000e 4FF02208 		mov	r8, #34
 1348              	.L73:
 1349              	.LVL100:
 485:Core/Src/adBms6830ParseCreate.cpp ****   else {data_size = RX_DATA;}
ARM GAS  C:\Users\huawei\AppData\Local\Temp\ccwYaMVL.s 			page 34


 486:Core/Src/adBms6830ParseCreate.cpp ****   data = (uint8_t *)calloc(data_size, sizeof(uint8_t));
 1350              		.loc 1 486 3 is_stmt 1 view .LVU438
 1351              		.loc 1 486 27 is_stmt 0 view .LVU439
 1352 0012 C346     		mov	fp, r8
 1353 0014 0121     		movs	r1, #1
 1354              	.LVL101:
 1355              		.loc 1 486 27 view .LVU440
 1356 0016 4046     		mov	r0, r8
 1357              	.LVL102:
 1358              		.loc 1 486 27 view .LVU441
 1359 0018 FFF7FEFF 		bl	calloc
 1360              	.LVL103:
 487:Core/Src/adBms6830ParseCreate.cpp ****   if(data == NULL)
 1361              		.loc 1 487 3 is_stmt 1 view .LVU442
 1362 001c 0446     		mov	r4, r0
 1363 001e 28B1     		cbz	r0, .L89
 1364              	.LBB14:
 488:Core/Src/adBms6830ParseCreate.cpp ****   {
 489:Core/Src/adBms6830ParseCreate.cpp ****     #ifdef MBED
 490:Core/Src/adBms6830ParseCreate.cpp ****     pc.printf(" Failed to allocate parse avg cell memory \n");
 491:Core/Src/adBms6830ParseCreate.cpp ****     #else
 492:Core/Src/adBms6830ParseCreate.cpp ****     printf(" Failed to allocate parse avg cell memory \n");
 493:Core/Src/adBms6830ParseCreate.cpp ****     #endif
 494:Core/Src/adBms6830ParseCreate.cpp ****     exit(0);
 495:Core/Src/adBms6830ParseCreate.cpp ****   }
 496:Core/Src/adBms6830ParseCreate.cpp ****   for(uint8_t curr_ic = 0; curr_ic < tIC; curr_ic++)
 1365              		.loc 1 496 15 is_stmt 0 view .LVU443
 1366 0020 0025     		movs	r5, #0
 1367              	.LBE14:
 483:Core/Src/adBms6830ParseCreate.cpp ****   if(grp == ALL_GRP){data_size = RDACALL_SIZE;}
 1368              		.loc 1 483 29 view .LVU444
 1369 0022 2946     		mov	r1, r5
 1370 0024 20E0     		b	.L74
 1371              	.LVL104:
 1372              	.L85:
 485:Core/Src/adBms6830ParseCreate.cpp ****   data = (uint8_t *)calloc(data_size, sizeof(uint8_t));
 1373              		.loc 1 485 19 view .LVU445
 1374 0026 4FF00808 		mov	r8, #8
 1375 002a F2E7     		b	.L73
 1376              	.LVL105:
 1377              	.L89:
 492:Core/Src/adBms6830ParseCreate.cpp ****     #endif
 1378              		.loc 1 492 5 is_stmt 1 view .LVU446
 492:Core/Src/adBms6830ParseCreate.cpp ****     #endif
 1379              		.loc 1 492 11 is_stmt 0 view .LVU447
 1380 002c 8A48     		ldr	r0, .L91
 1381              	.LVL106:
 492:Core/Src/adBms6830ParseCreate.cpp ****     #endif
 1382              		.loc 1 492 11 view .LVU448
 1383 002e FFF7FEFF 		bl	puts
 1384              	.LVL107:
 494:Core/Src/adBms6830ParseCreate.cpp ****   }
 1385              		.loc 1 494 5 is_stmt 1 view .LVU449
 494:Core/Src/adBms6830ParseCreate.cpp ****   }
 1386              		.loc 1 494 9 is_stmt 0 view .LVU450
 1387 0032 0020     		movs	r0, #0
 1388 0034 FFF7FEFF 		bl	exit
ARM GAS  C:\Users\huawei\AppData\Local\Temp\ccwYaMVL.s 			page 35


 1389              	.LVL108:
 1390              	.L82:
 1391              	.LBB15:
 497:Core/Src/adBms6830ParseCreate.cpp ****   {
 498:Core/Src/adBms6830ParseCreate.cpp ****     memcpy(&data[0], &acv_data[address], data_size); /* dst , src , size */
 499:Core/Src/adBms6830ParseCreate.cpp ****     address = ((curr_ic+1) * (data_size));
 500:Core/Src/adBms6830ParseCreate.cpp ****     switch (grp)
 501:Core/Src/adBms6830ParseCreate.cpp ****     {
 502:Core/Src/adBms6830ParseCreate.cpp ****     case A: /* Cell Register group A */
 1392              		.loc 1 502 5 is_stmt 1 view .LVU451
 503:Core/Src/adBms6830ParseCreate.cpp ****       ic[curr_ic].acell.ac_codes[0] = (data[0] + (data[1] << 8));
 1393              		.loc 1 503 7 view .LVU452
 1394              		.loc 1 503 46 is_stmt 0 view .LVU453
 1395 0038 2078     		ldrb	r0, [r4]	@ zero_extendqisi2
 1396              		.loc 1 503 57 view .LVU454
 1397 003a 94F801C0 		ldrb	ip, [r4, #1]	@ zero_extendqisi2
 1398              		.loc 1 503 17 view .LVU455
 1399 003e 4FF42872 		mov	r2, #672
 1400 0042 02FB05A2 		mla	r2, r2, r5, r10
 1401              		.loc 1 503 48 view .LVU456
 1402 0046 00EB0C20 		add	r0, r0, ip, lsl #8
 1403              		.loc 1 503 37 view .LVU457
 1404 004a A2F84000 		strh	r0, [r2, #64]	@ movhi
 504:Core/Src/adBms6830ParseCreate.cpp ****       ic[curr_ic].acell.ac_codes[1] = (data[2] + (data[3] << 8));
 1405              		.loc 1 504 7 is_stmt 1 view .LVU458
 1406              		.loc 1 504 46 is_stmt 0 view .LVU459
 1407 004e A078     		ldrb	r0, [r4, #2]	@ zero_extendqisi2
 1408              		.loc 1 504 57 view .LVU460
 1409 0050 E578     		ldrb	r5, [r4, #3]	@ zero_extendqisi2
 1410              	.LVL109:
 1411              		.loc 1 504 48 view .LVU461
 1412 0052 00EB0520 		add	r0, r0, r5, lsl #8
 1413              		.loc 1 504 37 view .LVU462
 1414 0056 A2F84200 		strh	r0, [r2, #66]	@ movhi
 505:Core/Src/adBms6830ParseCreate.cpp ****       ic[curr_ic].acell.ac_codes[2] = (data[4] + (data[5] << 8));
 1415              		.loc 1 505 7 is_stmt 1 view .LVU463
 1416              		.loc 1 505 46 is_stmt 0 view .LVU464
 1417 005a 2079     		ldrb	r0, [r4, #4]	@ zero_extendqisi2
 1418              		.loc 1 505 57 view .LVU465
 1419 005c 6579     		ldrb	r5, [r4, #5]	@ zero_extendqisi2
 1420              		.loc 1 505 48 view .LVU466
 1421 005e 00EB0520 		add	r0, r0, r5, lsl #8
 1422              		.loc 1 505 37 view .LVU467
 1423 0062 A2F84400 		strh	r0, [r2, #68]	@ movhi
 506:Core/Src/adBms6830ParseCreate.cpp ****       break;
 1424              		.loc 1 506 7 is_stmt 1 view .LVU468
 1425              	.L75:
 1426              		.loc 1 506 7 is_stmt 0 view .LVU469
 1427              	.LBE15:
 485:Core/Src/adBms6830ParseCreate.cpp ****   data = (uint8_t *)calloc(data_size, sizeof(uint8_t));
 1428              		.loc 1 485 19 discriminator 1 view .LVU470
 1429 0066 1D46     		mov	r5, r3
 1430              	.LVL110:
 1431              	.L74:
 1432              	.LBB16:
 496:Core/Src/adBms6830ParseCreate.cpp ****   {
 1433              		.loc 1 496 36 is_stmt 1 discriminator 1 view .LVU471
ARM GAS  C:\Users\huawei\AppData\Local\Temp\ccwYaMVL.s 			page 36


 1434 0068 BD42     		cmp	r5, r7
 1435 006a 80F0EF80 		bcs	.L90
 498:Core/Src/adBms6830ParseCreate.cpp ****     address = ((curr_ic+1) * (data_size));
 1436              		.loc 1 498 5 view .LVU472
 498:Core/Src/adBms6830ParseCreate.cpp ****     address = ((curr_ic+1) * (data_size));
 1437              		.loc 1 498 11 is_stmt 0 view .LVU473
 1438 006e 5A46     		mov	r2, fp
 1439 0070 4944     		add	r1, r1, r9
 1440              	.LVL111:
 498:Core/Src/adBms6830ParseCreate.cpp ****     address = ((curr_ic+1) * (data_size));
 1441              		.loc 1 498 11 view .LVU474
 1442 0072 2046     		mov	r0, r4
 1443 0074 FFF7FEFF 		bl	memcpy
 1444              	.LVL112:
 499:Core/Src/adBms6830ParseCreate.cpp ****     switch (grp)
 1445              		.loc 1 499 5 is_stmt 1 view .LVU475
 499:Core/Src/adBms6830ParseCreate.cpp ****     switch (grp)
 1446              		.loc 1 499 13 is_stmt 0 view .LVU476
 1447 0078 6B1C     		adds	r3, r5, #1
 1448 007a DBB2     		uxtb	r3, r3
 1449 007c 13FB08F1 		smulbb	r1, r3, r8
 1450 0080 C9B2     		uxtb	r1, r1
 1451              	.LVL113:
 500:Core/Src/adBms6830ParseCreate.cpp ****     {
 1452              		.loc 1 500 5 is_stmt 1 view .LVU477
 1453 0082 062E     		cmp	r6, #6
 1454 0084 EFD8     		bhi	.L75
 1455 0086 01A2     		adr	r2, .L77
 1456 0088 52F826F0 		ldr	pc, [r2, r6, lsl #2]
 1457              		.p2align 2
 1458              	.L77:
 1459 008c 81010000 		.word	.L83+1
 1460 0090 39000000 		.word	.L82+1
 1461 0094 A9000000 		.word	.L81+1
 1462 0098 D9000000 		.word	.L80+1
 1463 009c 09010000 		.word	.L79+1
 1464 00a0 39010000 		.word	.L78+1
 1465 00a4 69010000 		.word	.L76+1
 1466              		.p2align 1
 1467              	.L81:
 507:Core/Src/adBms6830ParseCreate.cpp **** 
 508:Core/Src/adBms6830ParseCreate.cpp ****     case B: /* Cell Register group B */
 1468              		.loc 1 508 5 view .LVU478
 509:Core/Src/adBms6830ParseCreate.cpp ****       ic[curr_ic].acell.ac_codes[3] = (data[0] + (data[1] << 8));
 1469              		.loc 1 509 7 view .LVU479
 1470              		.loc 1 509 46 is_stmt 0 view .LVU480
 1471 00a8 2078     		ldrb	r0, [r4]	@ zero_extendqisi2
 1472              		.loc 1 509 57 view .LVU481
 1473 00aa 94F801C0 		ldrb	ip, [r4, #1]	@ zero_extendqisi2
 1474              		.loc 1 509 17 view .LVU482
 1475 00ae 4FF42872 		mov	r2, #672
 1476 00b2 02FB05A2 		mla	r2, r2, r5, r10
 1477              		.loc 1 509 48 view .LVU483
 1478 00b6 00EB0C20 		add	r0, r0, ip, lsl #8
 1479              		.loc 1 509 37 view .LVU484
 1480 00ba A2F84600 		strh	r0, [r2, #70]	@ movhi
 510:Core/Src/adBms6830ParseCreate.cpp ****       ic[curr_ic].acell.ac_codes[4] = (data[2] + (data[3] << 8));
ARM GAS  C:\Users\huawei\AppData\Local\Temp\ccwYaMVL.s 			page 37


 1481              		.loc 1 510 7 is_stmt 1 view .LVU485
 1482              		.loc 1 510 46 is_stmt 0 view .LVU486
 1483 00be A078     		ldrb	r0, [r4, #2]	@ zero_extendqisi2
 1484              		.loc 1 510 57 view .LVU487
 1485 00c0 E578     		ldrb	r5, [r4, #3]	@ zero_extendqisi2
 1486              	.LVL114:
 1487              		.loc 1 510 48 view .LVU488
 1488 00c2 00EB0520 		add	r0, r0, r5, lsl #8
 1489              		.loc 1 510 37 view .LVU489
 1490 00c6 A2F84800 		strh	r0, [r2, #72]	@ movhi
 511:Core/Src/adBms6830ParseCreate.cpp ****       ic[curr_ic].acell.ac_codes[5] = (data[4] + (data[5] << 8));
 1491              		.loc 1 511 7 is_stmt 1 view .LVU490
 1492              		.loc 1 511 46 is_stmt 0 view .LVU491
 1493 00ca 2079     		ldrb	r0, [r4, #4]	@ zero_extendqisi2
 1494              		.loc 1 511 57 view .LVU492
 1495 00cc 6579     		ldrb	r5, [r4, #5]	@ zero_extendqisi2
 1496              		.loc 1 511 48 view .LVU493
 1497 00ce 00EB0520 		add	r0, r0, r5, lsl #8
 1498              		.loc 1 511 37 view .LVU494
 1499 00d2 A2F84A00 		strh	r0, [r2, #74]	@ movhi
 512:Core/Src/adBms6830ParseCreate.cpp ****       break;
 1500              		.loc 1 512 7 is_stmt 1 view .LVU495
 1501 00d6 C6E7     		b	.L75
 1502              	.LVL115:
 1503              	.L80:
 513:Core/Src/adBms6830ParseCreate.cpp **** 
 514:Core/Src/adBms6830ParseCreate.cpp ****     case C: /* Cell Register group C */
 1504              		.loc 1 514 5 view .LVU496
 515:Core/Src/adBms6830ParseCreate.cpp ****       ic[curr_ic].acell.ac_codes[6] = (data[0] + (data[1] << 8));
 1505              		.loc 1 515 7 view .LVU497
 1506              		.loc 1 515 46 is_stmt 0 view .LVU498
 1507 00d8 2078     		ldrb	r0, [r4]	@ zero_extendqisi2
 1508              		.loc 1 515 57 view .LVU499
 1509 00da 94F801C0 		ldrb	ip, [r4, #1]	@ zero_extendqisi2
 1510              		.loc 1 515 17 view .LVU500
 1511 00de 4FF42872 		mov	r2, #672
 1512 00e2 02FB05A2 		mla	r2, r2, r5, r10
 1513              		.loc 1 515 48 view .LVU501
 1514 00e6 00EB0C20 		add	r0, r0, ip, lsl #8
 1515              		.loc 1 515 37 view .LVU502
 1516 00ea A2F84C00 		strh	r0, [r2, #76]	@ movhi
 516:Core/Src/adBms6830ParseCreate.cpp ****       ic[curr_ic].acell.ac_codes[7] = (data[2] + (data[3] << 8));
 1517              		.loc 1 516 7 is_stmt 1 view .LVU503
 1518              		.loc 1 516 46 is_stmt 0 view .LVU504
 1519 00ee A078     		ldrb	r0, [r4, #2]	@ zero_extendqisi2
 1520              		.loc 1 516 57 view .LVU505
 1521 00f0 E578     		ldrb	r5, [r4, #3]	@ zero_extendqisi2
 1522              	.LVL116:
 1523              		.loc 1 516 48 view .LVU506
 1524 00f2 00EB0520 		add	r0, r0, r5, lsl #8
 1525              		.loc 1 516 37 view .LVU507
 1526 00f6 A2F84E00 		strh	r0, [r2, #78]	@ movhi
 517:Core/Src/adBms6830ParseCreate.cpp ****       ic[curr_ic].acell.ac_codes[8] = (data[4] + (data[5] << 8));
 1527              		.loc 1 517 7 is_stmt 1 view .LVU508
 1528              		.loc 1 517 46 is_stmt 0 view .LVU509
 1529 00fa 2079     		ldrb	r0, [r4, #4]	@ zero_extendqisi2
 1530              		.loc 1 517 57 view .LVU510
ARM GAS  C:\Users\huawei\AppData\Local\Temp\ccwYaMVL.s 			page 38


 1531 00fc 6579     		ldrb	r5, [r4, #5]	@ zero_extendqisi2
 1532              		.loc 1 517 48 view .LVU511
 1533 00fe 00EB0520 		add	r0, r0, r5, lsl #8
 1534              		.loc 1 517 37 view .LVU512
 1535 0102 A2F85000 		strh	r0, [r2, #80]	@ movhi
 518:Core/Src/adBms6830ParseCreate.cpp ****       break;
 1536              		.loc 1 518 7 is_stmt 1 view .LVU513
 1537 0106 AEE7     		b	.L75
 1538              	.LVL117:
 1539              	.L79:
 519:Core/Src/adBms6830ParseCreate.cpp **** 
 520:Core/Src/adBms6830ParseCreate.cpp ****     case D: /* Cell Register group D */
 1540              		.loc 1 520 5 view .LVU514
 521:Core/Src/adBms6830ParseCreate.cpp ****       ic[curr_ic].acell.ac_codes[9] =  (data[0] + (data[1] << 8));
 1541              		.loc 1 521 7 view .LVU515
 1542              		.loc 1 521 47 is_stmt 0 view .LVU516
 1543 0108 2078     		ldrb	r0, [r4]	@ zero_extendqisi2
 1544              		.loc 1 521 58 view .LVU517
 1545 010a 94F801C0 		ldrb	ip, [r4, #1]	@ zero_extendqisi2
 1546              		.loc 1 521 17 view .LVU518
 1547 010e 4FF42872 		mov	r2, #672
 1548 0112 02FB05A2 		mla	r2, r2, r5, r10
 1549              		.loc 1 521 49 view .LVU519
 1550 0116 00EB0C20 		add	r0, r0, ip, lsl #8
 1551              		.loc 1 521 37 view .LVU520
 1552 011a A2F85200 		strh	r0, [r2, #82]	@ movhi
 522:Core/Src/adBms6830ParseCreate.cpp ****       ic[curr_ic].acell.ac_codes[10] = (data[2] + (data[3] << 8));
 1553              		.loc 1 522 7 is_stmt 1 view .LVU521
 1554              		.loc 1 522 47 is_stmt 0 view .LVU522
 1555 011e A078     		ldrb	r0, [r4, #2]	@ zero_extendqisi2
 1556              		.loc 1 522 58 view .LVU523
 1557 0120 E578     		ldrb	r5, [r4, #3]	@ zero_extendqisi2
 1558              	.LVL118:
 1559              		.loc 1 522 49 view .LVU524
 1560 0122 00EB0520 		add	r0, r0, r5, lsl #8
 1561              		.loc 1 522 38 view .LVU525
 1562 0126 A2F85400 		strh	r0, [r2, #84]	@ movhi
 523:Core/Src/adBms6830ParseCreate.cpp ****       ic[curr_ic].acell.ac_codes[11] = (data[4] + (data[5] << 8));
 1563              		.loc 1 523 7 is_stmt 1 view .LVU526
 1564              		.loc 1 523 47 is_stmt 0 view .LVU527
 1565 012a 2079     		ldrb	r0, [r4, #4]	@ zero_extendqisi2
 1566              		.loc 1 523 58 view .LVU528
 1567 012c 6579     		ldrb	r5, [r4, #5]	@ zero_extendqisi2
 1568              		.loc 1 523 49 view .LVU529
 1569 012e 00EB0520 		add	r0, r0, r5, lsl #8
 1570              		.loc 1 523 38 view .LVU530
 1571 0132 A2F85600 		strh	r0, [r2, #86]	@ movhi
 524:Core/Src/adBms6830ParseCreate.cpp ****       break;
 1572              		.loc 1 524 7 is_stmt 1 view .LVU531
 1573 0136 96E7     		b	.L75
 1574              	.LVL119:
 1575              	.L78:
 525:Core/Src/adBms6830ParseCreate.cpp **** 
 526:Core/Src/adBms6830ParseCreate.cpp ****     case E: /* Cell Register group E */
 1576              		.loc 1 526 5 view .LVU532
 527:Core/Src/adBms6830ParseCreate.cpp ****       ic[curr_ic].acell.ac_codes[12] = (data[0] + (data[1] << 8));
 1577              		.loc 1 527 7 view .LVU533
ARM GAS  C:\Users\huawei\AppData\Local\Temp\ccwYaMVL.s 			page 39


 1578              		.loc 1 527 47 is_stmt 0 view .LVU534
 1579 0138 2078     		ldrb	r0, [r4]	@ zero_extendqisi2
 1580              		.loc 1 527 58 view .LVU535
 1581 013a 94F801C0 		ldrb	ip, [r4, #1]	@ zero_extendqisi2
 1582              		.loc 1 527 17 view .LVU536
 1583 013e 4FF42872 		mov	r2, #672
 1584 0142 02FB05A2 		mla	r2, r2, r5, r10
 1585              		.loc 1 527 49 view .LVU537
 1586 0146 00EB0C20 		add	r0, r0, ip, lsl #8
 1587              		.loc 1 527 38 view .LVU538
 1588 014a A2F85800 		strh	r0, [r2, #88]	@ movhi
 528:Core/Src/adBms6830ParseCreate.cpp ****       ic[curr_ic].acell.ac_codes[13] = (data[2] + (data[3] << 8));
 1589              		.loc 1 528 7 is_stmt 1 view .LVU539
 1590              		.loc 1 528 47 is_stmt 0 view .LVU540
 1591 014e A078     		ldrb	r0, [r4, #2]	@ zero_extendqisi2
 1592              		.loc 1 528 58 view .LVU541
 1593 0150 E578     		ldrb	r5, [r4, #3]	@ zero_extendqisi2
 1594              	.LVL120:
 1595              		.loc 1 528 49 view .LVU542
 1596 0152 00EB0520 		add	r0, r0, r5, lsl #8
 1597              		.loc 1 528 38 view .LVU543
 1598 0156 A2F85A00 		strh	r0, [r2, #90]	@ movhi
 529:Core/Src/adBms6830ParseCreate.cpp ****       ic[curr_ic].acell.ac_codes[14] = (data[4] + (data[5] << 8));
 1599              		.loc 1 529 7 is_stmt 1 view .LVU544
 1600              		.loc 1 529 47 is_stmt 0 view .LVU545
 1601 015a 2079     		ldrb	r0, [r4, #4]	@ zero_extendqisi2
 1602              		.loc 1 529 58 view .LVU546
 1603 015c 6579     		ldrb	r5, [r4, #5]	@ zero_extendqisi2
 1604              		.loc 1 529 49 view .LVU547
 1605 015e 00EB0520 		add	r0, r0, r5, lsl #8
 1606              		.loc 1 529 38 view .LVU548
 1607 0162 A2F85C00 		strh	r0, [r2, #92]	@ movhi
 530:Core/Src/adBms6830ParseCreate.cpp ****       break;
 1608              		.loc 1 530 7 is_stmt 1 view .LVU549
 1609 0166 7EE7     		b	.L75
 1610              	.LVL121:
 1611              	.L76:
 531:Core/Src/adBms6830ParseCreate.cpp **** 
 532:Core/Src/adBms6830ParseCreate.cpp ****     case F: /* Cell Register group F */
 1612              		.loc 1 532 5 view .LVU550
 533:Core/Src/adBms6830ParseCreate.cpp ****       ic[curr_ic].acell.ac_codes[15] = (data[0] + (data[1] << 8));
 1613              		.loc 1 533 7 view .LVU551
 1614              		.loc 1 533 47 is_stmt 0 view .LVU552
 1615 0168 2078     		ldrb	r0, [r4]	@ zero_extendqisi2
 1616              		.loc 1 533 58 view .LVU553
 1617 016a 94F801C0 		ldrb	ip, [r4, #1]	@ zero_extendqisi2
 1618              		.loc 1 533 17 view .LVU554
 1619 016e 4FF42872 		mov	r2, #672
 1620 0172 02FB05A2 		mla	r2, r2, r5, r10
 1621              		.loc 1 533 49 view .LVU555
 1622 0176 00EB0C20 		add	r0, r0, ip, lsl #8
 1623              		.loc 1 533 38 view .LVU556
 1624 017a A2F85E00 		strh	r0, [r2, #94]	@ movhi
 534:Core/Src/adBms6830ParseCreate.cpp ****       break;
 1625              		.loc 1 534 7 is_stmt 1 view .LVU557
 1626 017e 72E7     		b	.L75
 1627              	.L83:
ARM GAS  C:\Users\huawei\AppData\Local\Temp\ccwYaMVL.s 			page 40


 535:Core/Src/adBms6830ParseCreate.cpp **** 
 536:Core/Src/adBms6830ParseCreate.cpp ****     case ALL_GRP: /* Cell Register group ALL */
 1628              		.loc 1 536 5 view .LVU558
 537:Core/Src/adBms6830ParseCreate.cpp ****       ic[curr_ic].acell.ac_codes[0] = (data[0] + (data[1] << 8));
 1629              		.loc 1 537 7 view .LVU559
 1630              		.loc 1 537 46 is_stmt 0 view .LVU560
 1631 0180 2078     		ldrb	r0, [r4]	@ zero_extendqisi2
 1632              		.loc 1 537 57 view .LVU561
 1633 0182 94F801C0 		ldrb	ip, [r4, #1]	@ zero_extendqisi2
 1634              		.loc 1 537 17 view .LVU562
 1635 0186 4FF42872 		mov	r2, #672
 1636 018a 02FB05A2 		mla	r2, r2, r5, r10
 1637              		.loc 1 537 48 view .LVU563
 1638 018e 00EB0C20 		add	r0, r0, ip, lsl #8
 1639              		.loc 1 537 37 view .LVU564
 1640 0192 A2F84000 		strh	r0, [r2, #64]	@ movhi
 538:Core/Src/adBms6830ParseCreate.cpp ****       ic[curr_ic].acell.ac_codes[1] = (data[2] + (data[3] << 8));
 1641              		.loc 1 538 7 is_stmt 1 view .LVU565
 1642              		.loc 1 538 46 is_stmt 0 view .LVU566
 1643 0196 A078     		ldrb	r0, [r4, #2]	@ zero_extendqisi2
 1644              		.loc 1 538 57 view .LVU567
 1645 0198 E578     		ldrb	r5, [r4, #3]	@ zero_extendqisi2
 1646              	.LVL122:
 1647              		.loc 1 538 48 view .LVU568
 1648 019a 00EB0520 		add	r0, r0, r5, lsl #8
 1649              		.loc 1 538 37 view .LVU569
 1650 019e A2F84200 		strh	r0, [r2, #66]	@ movhi
 539:Core/Src/adBms6830ParseCreate.cpp ****       ic[curr_ic].acell.ac_codes[2] = (data[4] + (data[5] << 8));
 1651              		.loc 1 539 7 is_stmt 1 view .LVU570
 1652              		.loc 1 539 46 is_stmt 0 view .LVU571
 1653 01a2 2079     		ldrb	r0, [r4, #4]	@ zero_extendqisi2
 1654              		.loc 1 539 57 view .LVU572
 1655 01a4 6579     		ldrb	r5, [r4, #5]	@ zero_extendqisi2
 1656              		.loc 1 539 48 view .LVU573
 1657 01a6 00EB0520 		add	r0, r0, r5, lsl #8
 1658              		.loc 1 539 37 view .LVU574
 1659 01aa A2F84400 		strh	r0, [r2, #68]	@ movhi
 540:Core/Src/adBms6830ParseCreate.cpp ****       ic[curr_ic].acell.ac_codes[3] = (data[6] + (data[7] << 8));
 1660              		.loc 1 540 7 is_stmt 1 view .LVU575
 1661              		.loc 1 540 46 is_stmt 0 view .LVU576
 1662 01ae A079     		ldrb	r0, [r4, #6]	@ zero_extendqisi2
 1663              		.loc 1 540 57 view .LVU577
 1664 01b0 E579     		ldrb	r5, [r4, #7]	@ zero_extendqisi2
 1665              		.loc 1 540 48 view .LVU578
 1666 01b2 00EB0520 		add	r0, r0, r5, lsl #8
 1667              		.loc 1 540 37 view .LVU579
 1668 01b6 A2F84600 		strh	r0, [r2, #70]	@ movhi
 541:Core/Src/adBms6830ParseCreate.cpp ****       ic[curr_ic].acell.ac_codes[4] = (data[8] + (data[9] << 8));
 1669              		.loc 1 541 7 is_stmt 1 view .LVU580
 1670              		.loc 1 541 46 is_stmt 0 view .LVU581
 1671 01ba 207A     		ldrb	r0, [r4, #8]	@ zero_extendqisi2
 1672              		.loc 1 541 57 view .LVU582
 1673 01bc 657A     		ldrb	r5, [r4, #9]	@ zero_extendqisi2
 1674              		.loc 1 541 48 view .LVU583
 1675 01be 00EB0520 		add	r0, r0, r5, lsl #8
 1676              		.loc 1 541 37 view .LVU584
 1677 01c2 A2F84800 		strh	r0, [r2, #72]	@ movhi
ARM GAS  C:\Users\huawei\AppData\Local\Temp\ccwYaMVL.s 			page 41


 542:Core/Src/adBms6830ParseCreate.cpp ****       ic[curr_ic].acell.ac_codes[5] = (data[10] + (data[11] << 8));
 1678              		.loc 1 542 7 is_stmt 1 view .LVU585
 1679              		.loc 1 542 47 is_stmt 0 view .LVU586
 1680 01c6 A07A     		ldrb	r0, [r4, #10]	@ zero_extendqisi2
 1681              		.loc 1 542 59 view .LVU587
 1682 01c8 E57A     		ldrb	r5, [r4, #11]	@ zero_extendqisi2
 1683              		.loc 1 542 49 view .LVU588
 1684 01ca 00EB0520 		add	r0, r0, r5, lsl #8
 1685              		.loc 1 542 37 view .LVU589
 1686 01ce A2F84A00 		strh	r0, [r2, #74]	@ movhi
 543:Core/Src/adBms6830ParseCreate.cpp ****       ic[curr_ic].acell.ac_codes[6] = (data[12] + (data[13] << 8));
 1687              		.loc 1 543 7 is_stmt 1 view .LVU590
 1688              		.loc 1 543 47 is_stmt 0 view .LVU591
 1689 01d2 207B     		ldrb	r0, [r4, #12]	@ zero_extendqisi2
 1690              		.loc 1 543 59 view .LVU592
 1691 01d4 657B     		ldrb	r5, [r4, #13]	@ zero_extendqisi2
 1692              		.loc 1 543 49 view .LVU593
 1693 01d6 00EB0520 		add	r0, r0, r5, lsl #8
 1694              		.loc 1 543 37 view .LVU594
 1695 01da A2F84C00 		strh	r0, [r2, #76]	@ movhi
 544:Core/Src/adBms6830ParseCreate.cpp ****       ic[curr_ic].acell.ac_codes[7] = (data[14] + (data[15] << 8));
 1696              		.loc 1 544 7 is_stmt 1 view .LVU595
 1697              		.loc 1 544 47 is_stmt 0 view .LVU596
 1698 01de A07B     		ldrb	r0, [r4, #14]	@ zero_extendqisi2
 1699              		.loc 1 544 59 view .LVU597
 1700 01e0 E57B     		ldrb	r5, [r4, #15]	@ zero_extendqisi2
 1701              		.loc 1 544 49 view .LVU598
 1702 01e2 00EB0520 		add	r0, r0, r5, lsl #8
 1703              		.loc 1 544 37 view .LVU599
 1704 01e6 A2F84E00 		strh	r0, [r2, #78]	@ movhi
 545:Core/Src/adBms6830ParseCreate.cpp ****       ic[curr_ic].acell.ac_codes[8] = (data[16] + (data[17] << 8));
 1705              		.loc 1 545 7 is_stmt 1 view .LVU600
 1706              		.loc 1 545 47 is_stmt 0 view .LVU601
 1707 01ea 207C     		ldrb	r0, [r4, #16]	@ zero_extendqisi2
 1708              		.loc 1 545 59 view .LVU602
 1709 01ec 657C     		ldrb	r5, [r4, #17]	@ zero_extendqisi2
 1710              		.loc 1 545 49 view .LVU603
 1711 01ee 00EB0520 		add	r0, r0, r5, lsl #8
 1712              		.loc 1 545 37 view .LVU604
 1713 01f2 A2F85000 		strh	r0, [r2, #80]	@ movhi
 546:Core/Src/adBms6830ParseCreate.cpp ****       ic[curr_ic].acell.ac_codes[9] =  (data[18] + (data[19] << 8));
 1714              		.loc 1 546 7 is_stmt 1 view .LVU605
 1715              		.loc 1 546 48 is_stmt 0 view .LVU606
 1716 01f6 A07C     		ldrb	r0, [r4, #18]	@ zero_extendqisi2
 1717              		.loc 1 546 60 view .LVU607
 1718 01f8 E57C     		ldrb	r5, [r4, #19]	@ zero_extendqisi2
 1719              		.loc 1 546 50 view .LVU608
 1720 01fa 00EB0520 		add	r0, r0, r5, lsl #8
 1721              		.loc 1 546 37 view .LVU609
 1722 01fe A2F85200 		strh	r0, [r2, #82]	@ movhi
 547:Core/Src/adBms6830ParseCreate.cpp ****       ic[curr_ic].acell.ac_codes[10] = (data[20] + (data[21] << 8));
 1723              		.loc 1 547 7 is_stmt 1 view .LVU610
 1724              		.loc 1 547 48 is_stmt 0 view .LVU611
 1725 0202 207D     		ldrb	r0, [r4, #20]	@ zero_extendqisi2
 1726              		.loc 1 547 60 view .LVU612
 1727 0204 657D     		ldrb	r5, [r4, #21]	@ zero_extendqisi2
 1728              		.loc 1 547 50 view .LVU613
ARM GAS  C:\Users\huawei\AppData\Local\Temp\ccwYaMVL.s 			page 42


 1729 0206 00EB0520 		add	r0, r0, r5, lsl #8
 1730              		.loc 1 547 38 view .LVU614
 1731 020a A2F85400 		strh	r0, [r2, #84]	@ movhi
 548:Core/Src/adBms6830ParseCreate.cpp ****       ic[curr_ic].acell.ac_codes[11] = (data[22] + (data[23] << 8));
 1732              		.loc 1 548 7 is_stmt 1 view .LVU615
 1733              		.loc 1 548 48 is_stmt 0 view .LVU616
 1734 020e A07D     		ldrb	r0, [r4, #22]	@ zero_extendqisi2
 1735              		.loc 1 548 60 view .LVU617
 1736 0210 E57D     		ldrb	r5, [r4, #23]	@ zero_extendqisi2
 1737              		.loc 1 548 50 view .LVU618
 1738 0212 00EB0520 		add	r0, r0, r5, lsl #8
 1739              		.loc 1 548 38 view .LVU619
 1740 0216 A2F85600 		strh	r0, [r2, #86]	@ movhi
 549:Core/Src/adBms6830ParseCreate.cpp ****       ic[curr_ic].acell.ac_codes[12] = (data[24] + (data[25] << 8));
 1741              		.loc 1 549 7 is_stmt 1 view .LVU620
 1742              		.loc 1 549 48 is_stmt 0 view .LVU621
 1743 021a 207E     		ldrb	r0, [r4, #24]	@ zero_extendqisi2
 1744              		.loc 1 549 60 view .LVU622
 1745 021c 657E     		ldrb	r5, [r4, #25]	@ zero_extendqisi2
 1746              		.loc 1 549 50 view .LVU623
 1747 021e 00EB0520 		add	r0, r0, r5, lsl #8
 1748              		.loc 1 549 38 view .LVU624
 1749 0222 A2F85800 		strh	r0, [r2, #88]	@ movhi
 550:Core/Src/adBms6830ParseCreate.cpp ****       ic[curr_ic].acell.ac_codes[13] = (data[26] + (data[27] << 8));
 1750              		.loc 1 550 7 is_stmt 1 view .LVU625
 1751              		.loc 1 550 48 is_stmt 0 view .LVU626
 1752 0226 A07E     		ldrb	r0, [r4, #26]	@ zero_extendqisi2
 1753              		.loc 1 550 60 view .LVU627
 1754 0228 E57E     		ldrb	r5, [r4, #27]	@ zero_extendqisi2
 1755              		.loc 1 550 50 view .LVU628
 1756 022a 00EB0520 		add	r0, r0, r5, lsl #8
 1757              		.loc 1 550 38 view .LVU629
 1758 022e A2F85A00 		strh	r0, [r2, #90]	@ movhi
 551:Core/Src/adBms6830ParseCreate.cpp ****       ic[curr_ic].acell.ac_codes[14] = (data[28] + (data[29] << 8));
 1759              		.loc 1 551 7 is_stmt 1 view .LVU630
 1760              		.loc 1 551 48 is_stmt 0 view .LVU631
 1761 0232 207F     		ldrb	r0, [r4, #28]	@ zero_extendqisi2
 1762              		.loc 1 551 60 view .LVU632
 1763 0234 657F     		ldrb	r5, [r4, #29]	@ zero_extendqisi2
 1764              		.loc 1 551 50 view .LVU633
 1765 0236 00EB0520 		add	r0, r0, r5, lsl #8
 1766              		.loc 1 551 38 view .LVU634
 1767 023a A2F85C00 		strh	r0, [r2, #92]	@ movhi
 552:Core/Src/adBms6830ParseCreate.cpp ****       ic[curr_ic].acell.ac_codes[15] = (data[30] + (data[31] << 8));
 1768              		.loc 1 552 7 is_stmt 1 view .LVU635
 1769              		.loc 1 552 48 is_stmt 0 view .LVU636
 1770 023e A07F     		ldrb	r0, [r4, #30]	@ zero_extendqisi2
 1771              		.loc 1 552 60 view .LVU637
 1772 0240 E57F     		ldrb	r5, [r4, #31]	@ zero_extendqisi2
 1773              		.loc 1 552 50 view .LVU638
 1774 0242 00EB0520 		add	r0, r0, r5, lsl #8
 1775              		.loc 1 552 38 view .LVU639
 1776 0246 A2F85E00 		strh	r0, [r2, #94]	@ movhi
 553:Core/Src/adBms6830ParseCreate.cpp ****       break;
 1777              		.loc 1 553 7 is_stmt 1 view .LVU640
 1778 024a 0CE7     		b	.L75
 1779              	.LVL123:
ARM GAS  C:\Users\huawei\AppData\Local\Temp\ccwYaMVL.s 			page 43


 1780              	.L90:
 1781              		.loc 1 553 7 is_stmt 0 view .LVU641
 1782              	.LBE16:
 554:Core/Src/adBms6830ParseCreate.cpp **** 
 555:Core/Src/adBms6830ParseCreate.cpp ****     default:
 556:Core/Src/adBms6830ParseCreate.cpp ****       break;
 557:Core/Src/adBms6830ParseCreate.cpp ****     }
 558:Core/Src/adBms6830ParseCreate.cpp ****   }
 559:Core/Src/adBms6830ParseCreate.cpp ****   free(data);
 1783              		.loc 1 559 3 is_stmt 1 view .LVU642
 1784              		.loc 1 559 7 is_stmt 0 view .LVU643
 1785 024c 2046     		mov	r0, r4
 1786 024e FFF7FEFF 		bl	free
 1787              	.LVL124:
 560:Core/Src/adBms6830ParseCreate.cpp **** }
 1788              		.loc 1 560 1 view .LVU644
 1789 0252 BDE8F88F 		pop	{r3, r4, r5, r6, r7, r8, r9, r10, fp, pc}
 1790              	.LVL125:
 1791              	.L92:
 1792              		.loc 1 560 1 view .LVU645
 1793 0256 00BF     		.align	2
 1794              	.L91:
 1795 0258 00000000 		.word	.LC1
 1796              		.cfi_endproc
 1797              	.LFE256:
 1798              		.fnend
 1800              		.section	.rodata._Z19adBms6830ParseSCellhP9cell_asic3GRPPh.str1.4,"aMS",%progbits,1
 1801              		.align	2
 1802              	.LC2:
 1803 0000 20466169 		.ascii	" Failed to allocate parse scv memory \000"
 1803      6C656420 
 1803      746F2061 
 1803      6C6C6F63 
 1803      61746520 
 1804              		.section	.text._Z19adBms6830ParseSCellhP9cell_asic3GRPPh,"ax",%progbits
 1805              		.align	1
 1806              		.global	_Z19adBms6830ParseSCellhP9cell_asic3GRPPh
 1807              		.syntax unified
 1808              		.thumb
 1809              		.thumb_func
 1811              	_Z19adBms6830ParseSCellhP9cell_asic3GRPPh:
 1812              		.fnstart
 1813              	.LVL126:
 1814              	.LFB257:
 561:Core/Src/adBms6830ParseCreate.cpp **** 
 562:Core/Src/adBms6830ParseCreate.cpp **** /**
 563:Core/Src/adBms6830ParseCreate.cpp ****  *******************************************************************************
 564:Core/Src/adBms6830ParseCreate.cpp ****  * Function: adBms6830ParseSCell
 565:Core/Src/adBms6830ParseCreate.cpp ****  * @brief Parse S cell voltages
 566:Core/Src/adBms6830ParseCreate.cpp ****  *
 567:Core/Src/adBms6830ParseCreate.cpp ****  * @details This function Parse the recived S cell register A,B,C,D,E and F data.
 568:Core/Src/adBms6830ParseCreate.cpp ****  *
 569:Core/Src/adBms6830ParseCreate.cpp ****  * Parameters:
 570:Core/Src/adBms6830ParseCreate.cpp ****  *
 571:Core/Src/adBms6830ParseCreate.cpp ****  * @param [in]  tIC                     Total IC
 572:Core/Src/adBms6830ParseCreate.cpp ****  *
 573:Core/Src/adBms6830ParseCreate.cpp ****  * @param [in]  *ic                     cell_asic ic structure pointer
ARM GAS  C:\Users\huawei\AppData\Local\Temp\ccwYaMVL.s 			page 44


 574:Core/Src/adBms6830ParseCreate.cpp ****  *
 575:Core/Src/adBms6830ParseCreate.cpp ****  * @param [in]  grp                     Enum type register group
 576:Core/Src/adBms6830ParseCreate.cpp ****  *
 577:Core/Src/adBms6830ParseCreate.cpp ****  * @param [in]  *scv_data               S cell voltage data pointer
 578:Core/Src/adBms6830ParseCreate.cpp ****  *
 579:Core/Src/adBms6830ParseCreate.cpp ****  * @return None
 580:Core/Src/adBms6830ParseCreate.cpp ****  *
 581:Core/Src/adBms6830ParseCreate.cpp ****  *******************************************************************************
 582:Core/Src/adBms6830ParseCreate.cpp **** */
 583:Core/Src/adBms6830ParseCreate.cpp **** /* Parse S cell voltages */
 584:Core/Src/adBms6830ParseCreate.cpp **** void adBms6830ParseSCell(uint8_t tIC, cell_asic *ic, GRP grp, uint8_t *scv_data)
 585:Core/Src/adBms6830ParseCreate.cpp **** {
 1815              		.loc 1 585 1 is_stmt 1 view -0
 1816              		.cfi_startproc
 1817              		@ args = 0, pretend = 0, frame = 0
 1818              		@ frame_needed = 0, uses_anonymous_args = 0
 1819              		.loc 1 585 1 is_stmt 0 view .LVU647
 1820 0000 2DE9F84F 		push	{r3, r4, r5, r6, r7, r8, r9, r10, fp, lr}
 1821              		.save {r3, r4, r5, r6, r7, r8, r9, r10, fp, lr}
 1822              	.LCFI9:
 1823              		.cfi_def_cfa_offset 40
 1824              		.cfi_offset 3, -40
 1825              		.cfi_offset 4, -36
 1826              		.cfi_offset 5, -32
 1827              		.cfi_offset 6, -28
 1828              		.cfi_offset 7, -24
 1829              		.cfi_offset 8, -20
 1830              		.cfi_offset 9, -16
 1831              		.cfi_offset 10, -12
 1832              		.cfi_offset 11, -8
 1833              		.cfi_offset 14, -4
 1834 0004 0746     		mov	r7, r0
 1835 0006 8A46     		mov	r10, r1
 1836 0008 9946     		mov	r9, r3
 586:Core/Src/adBms6830ParseCreate.cpp ****   uint8_t *data, data_size, address = 0;
 1837              		.loc 1 586 3 is_stmt 1 view .LVU648
 1838              	.LVL127:
 587:Core/Src/adBms6830ParseCreate.cpp ****   if(grp == ALL_GRP){data_size = RDSALL_SIZE;}
 1839              		.loc 1 587 3 view .LVU649
 1840 000a 1646     		mov	r6, r2
 1841 000c 5AB9     		cbnz	r2, .L106
 1842              		.loc 1 587 32 is_stmt 0 view .LVU650
 1843 000e 4FF02208 		mov	r8, #34
 1844              	.L94:
 1845              	.LVL128:
 588:Core/Src/adBms6830ParseCreate.cpp ****   else {data_size = RX_DATA;}
 589:Core/Src/adBms6830ParseCreate.cpp ****   data = (uint8_t *)calloc(data_size, sizeof(uint8_t));
 1846              		.loc 1 589 3 is_stmt 1 view .LVU651
 1847              		.loc 1 589 27 is_stmt 0 view .LVU652
 1848 0012 C346     		mov	fp, r8
 1849 0014 0121     		movs	r1, #1
 1850              	.LVL129:
 1851              		.loc 1 589 27 view .LVU653
 1852 0016 4046     		mov	r0, r8
 1853              	.LVL130:
 1854              		.loc 1 589 27 view .LVU654
 1855 0018 FFF7FEFF 		bl	calloc
ARM GAS  C:\Users\huawei\AppData\Local\Temp\ccwYaMVL.s 			page 45


 1856              	.LVL131:
 590:Core/Src/adBms6830ParseCreate.cpp ****   if(data == NULL)
 1857              		.loc 1 590 3 is_stmt 1 view .LVU655
 1858 001c 0446     		mov	r4, r0
 1859 001e 28B1     		cbz	r0, .L110
 1860              	.LBB17:
 591:Core/Src/adBms6830ParseCreate.cpp ****   {
 592:Core/Src/adBms6830ParseCreate.cpp ****     #ifdef MBED
 593:Core/Src/adBms6830ParseCreate.cpp ****     pc.printf(" Failed to allocate parse scv memory \n");
 594:Core/Src/adBms6830ParseCreate.cpp ****     #else
 595:Core/Src/adBms6830ParseCreate.cpp ****     printf(" Failed to allocate parse scv memory \n");
 596:Core/Src/adBms6830ParseCreate.cpp ****     #endif
 597:Core/Src/adBms6830ParseCreate.cpp ****     exit(0);
 598:Core/Src/adBms6830ParseCreate.cpp ****   }
 599:Core/Src/adBms6830ParseCreate.cpp ****   for(uint8_t curr_ic = 0; curr_ic < tIC; curr_ic++)
 1861              		.loc 1 599 15 is_stmt 0 view .LVU656
 1862 0020 0025     		movs	r5, #0
 1863              	.LBE17:
 586:Core/Src/adBms6830ParseCreate.cpp ****   if(grp == ALL_GRP){data_size = RDSALL_SIZE;}
 1864              		.loc 1 586 29 view .LVU657
 1865 0022 2946     		mov	r1, r5
 1866 0024 20E0     		b	.L95
 1867              	.LVL132:
 1868              	.L106:
 588:Core/Src/adBms6830ParseCreate.cpp ****   data = (uint8_t *)calloc(data_size, sizeof(uint8_t));
 1869              		.loc 1 588 19 view .LVU658
 1870 0026 4FF00808 		mov	r8, #8
 1871 002a F2E7     		b	.L94
 1872              	.LVL133:
 1873              	.L110:
 595:Core/Src/adBms6830ParseCreate.cpp ****     #endif
 1874              		.loc 1 595 5 is_stmt 1 view .LVU659
 595:Core/Src/adBms6830ParseCreate.cpp ****     #endif
 1875              		.loc 1 595 11 is_stmt 0 view .LVU660
 1876 002c 8A48     		ldr	r0, .L112
 1877              	.LVL134:
 595:Core/Src/adBms6830ParseCreate.cpp ****     #endif
 1878              		.loc 1 595 11 view .LVU661
 1879 002e FFF7FEFF 		bl	puts
 1880              	.LVL135:
 597:Core/Src/adBms6830ParseCreate.cpp ****   }
 1881              		.loc 1 597 5 is_stmt 1 view .LVU662
 597:Core/Src/adBms6830ParseCreate.cpp ****   }
 1882              		.loc 1 597 9 is_stmt 0 view .LVU663
 1883 0032 0020     		movs	r0, #0
 1884 0034 FFF7FEFF 		bl	exit
 1885              	.LVL136:
 1886              	.L103:
 1887              	.LBB18:
 600:Core/Src/adBms6830ParseCreate.cpp ****   {
 601:Core/Src/adBms6830ParseCreate.cpp ****     memcpy(&data[0], &scv_data[address], data_size); /* dst , src , size */
 602:Core/Src/adBms6830ParseCreate.cpp ****     address = ((curr_ic+1) * (data_size));
 603:Core/Src/adBms6830ParseCreate.cpp ****     switch (grp)
 604:Core/Src/adBms6830ParseCreate.cpp ****     {
 605:Core/Src/adBms6830ParseCreate.cpp ****     case A: /* Cell Register group A */
 1888              		.loc 1 605 5 is_stmt 1 view .LVU664
 606:Core/Src/adBms6830ParseCreate.cpp ****       ic[curr_ic].scell.sc_codes[0] = (data[0] + (data[1] << 8));
ARM GAS  C:\Users\huawei\AppData\Local\Temp\ccwYaMVL.s 			page 46


 1889              		.loc 1 606 7 view .LVU665
 1890              		.loc 1 606 46 is_stmt 0 view .LVU666
 1891 0038 2078     		ldrb	r0, [r4]	@ zero_extendqisi2
 1892              		.loc 1 606 57 view .LVU667
 1893 003a 94F801C0 		ldrb	ip, [r4, #1]	@ zero_extendqisi2
 1894              		.loc 1 606 17 view .LVU668
 1895 003e 4FF42872 		mov	r2, #672
 1896 0042 02FB05A2 		mla	r2, r2, r5, r10
 1897              		.loc 1 606 48 view .LVU669
 1898 0046 00EB0C20 		add	r0, r0, ip, lsl #8
 1899              		.loc 1 606 37 view .LVU670
 1900 004a A2F86000 		strh	r0, [r2, #96]	@ movhi
 607:Core/Src/adBms6830ParseCreate.cpp ****       ic[curr_ic].scell.sc_codes[1] = (data[2] + (data[3] << 8));
 1901              		.loc 1 607 7 is_stmt 1 view .LVU671
 1902              		.loc 1 607 46 is_stmt 0 view .LVU672
 1903 004e A078     		ldrb	r0, [r4, #2]	@ zero_extendqisi2
 1904              		.loc 1 607 57 view .LVU673
 1905 0050 E578     		ldrb	r5, [r4, #3]	@ zero_extendqisi2
 1906              	.LVL137:
 1907              		.loc 1 607 48 view .LVU674
 1908 0052 00EB0520 		add	r0, r0, r5, lsl #8
 1909              		.loc 1 607 37 view .LVU675
 1910 0056 A2F86200 		strh	r0, [r2, #98]	@ movhi
 608:Core/Src/adBms6830ParseCreate.cpp ****       ic[curr_ic].scell.sc_codes[2] = (data[4] + (data[5] << 8));
 1911              		.loc 1 608 7 is_stmt 1 view .LVU676
 1912              		.loc 1 608 46 is_stmt 0 view .LVU677
 1913 005a 2079     		ldrb	r0, [r4, #4]	@ zero_extendqisi2
 1914              		.loc 1 608 57 view .LVU678
 1915 005c 6579     		ldrb	r5, [r4, #5]	@ zero_extendqisi2
 1916              		.loc 1 608 48 view .LVU679
 1917 005e 00EB0520 		add	r0, r0, r5, lsl #8
 1918              		.loc 1 608 37 view .LVU680
 1919 0062 A2F86400 		strh	r0, [r2, #100]	@ movhi
 609:Core/Src/adBms6830ParseCreate.cpp ****       break;
 1920              		.loc 1 609 7 is_stmt 1 view .LVU681
 1921              	.L96:
 1922              		.loc 1 609 7 is_stmt 0 view .LVU682
 1923              	.LBE18:
 588:Core/Src/adBms6830ParseCreate.cpp ****   data = (uint8_t *)calloc(data_size, sizeof(uint8_t));
 1924              		.loc 1 588 19 discriminator 1 view .LVU683
 1925 0066 1D46     		mov	r5, r3
 1926              	.LVL138:
 1927              	.L95:
 1928              	.LBB19:
 599:Core/Src/adBms6830ParseCreate.cpp ****   {
 1929              		.loc 1 599 36 is_stmt 1 discriminator 1 view .LVU684
 1930 0068 BD42     		cmp	r5, r7
 1931 006a 80F0EF80 		bcs	.L111
 601:Core/Src/adBms6830ParseCreate.cpp ****     address = ((curr_ic+1) * (data_size));
 1932              		.loc 1 601 5 view .LVU685
 601:Core/Src/adBms6830ParseCreate.cpp ****     address = ((curr_ic+1) * (data_size));
 1933              		.loc 1 601 11 is_stmt 0 view .LVU686
 1934 006e 5A46     		mov	r2, fp
 1935 0070 4944     		add	r1, r1, r9
 1936              	.LVL139:
 601:Core/Src/adBms6830ParseCreate.cpp ****     address = ((curr_ic+1) * (data_size));
 1937              		.loc 1 601 11 view .LVU687
ARM GAS  C:\Users\huawei\AppData\Local\Temp\ccwYaMVL.s 			page 47


 1938 0072 2046     		mov	r0, r4
 1939 0074 FFF7FEFF 		bl	memcpy
 1940              	.LVL140:
 602:Core/Src/adBms6830ParseCreate.cpp ****     switch (grp)
 1941              		.loc 1 602 5 is_stmt 1 view .LVU688
 602:Core/Src/adBms6830ParseCreate.cpp ****     switch (grp)
 1942              		.loc 1 602 13 is_stmt 0 view .LVU689
 1943 0078 6B1C     		adds	r3, r5, #1
 1944 007a DBB2     		uxtb	r3, r3
 1945 007c 13FB08F1 		smulbb	r1, r3, r8
 1946 0080 C9B2     		uxtb	r1, r1
 1947              	.LVL141:
 603:Core/Src/adBms6830ParseCreate.cpp ****     {
 1948              		.loc 1 603 5 is_stmt 1 view .LVU690
 1949 0082 062E     		cmp	r6, #6
 1950 0084 EFD8     		bhi	.L96
 1951 0086 01A2     		adr	r2, .L98
 1952 0088 52F826F0 		ldr	pc, [r2, r6, lsl #2]
 1953              		.p2align 2
 1954              	.L98:
 1955 008c 81010000 		.word	.L104+1
 1956 0090 39000000 		.word	.L103+1
 1957 0094 A9000000 		.word	.L102+1
 1958 0098 D9000000 		.word	.L101+1
 1959 009c 09010000 		.word	.L100+1
 1960 00a0 39010000 		.word	.L99+1
 1961 00a4 69010000 		.word	.L97+1
 1962              		.p2align 1
 1963              	.L102:
 610:Core/Src/adBms6830ParseCreate.cpp **** 
 611:Core/Src/adBms6830ParseCreate.cpp ****     case B: /* Cell Register group B */
 1964              		.loc 1 611 5 view .LVU691
 612:Core/Src/adBms6830ParseCreate.cpp ****       ic[curr_ic].scell.sc_codes[3] = (data[0] + (data[1] << 8));
 1965              		.loc 1 612 7 view .LVU692
 1966              		.loc 1 612 46 is_stmt 0 view .LVU693
 1967 00a8 2078     		ldrb	r0, [r4]	@ zero_extendqisi2
 1968              		.loc 1 612 57 view .LVU694
 1969 00aa 94F801C0 		ldrb	ip, [r4, #1]	@ zero_extendqisi2
 1970              		.loc 1 612 17 view .LVU695
 1971 00ae 4FF42872 		mov	r2, #672
 1972 00b2 02FB05A2 		mla	r2, r2, r5, r10
 1973              		.loc 1 612 48 view .LVU696
 1974 00b6 00EB0C20 		add	r0, r0, ip, lsl #8
 1975              		.loc 1 612 37 view .LVU697
 1976 00ba A2F86600 		strh	r0, [r2, #102]	@ movhi
 613:Core/Src/adBms6830ParseCreate.cpp ****       ic[curr_ic].scell.sc_codes[4] = (data[2] + (data[3] << 8));
 1977              		.loc 1 613 7 is_stmt 1 view .LVU698
 1978              		.loc 1 613 46 is_stmt 0 view .LVU699
 1979 00be A078     		ldrb	r0, [r4, #2]	@ zero_extendqisi2
 1980              		.loc 1 613 57 view .LVU700
 1981 00c0 E578     		ldrb	r5, [r4, #3]	@ zero_extendqisi2
 1982              	.LVL142:
 1983              		.loc 1 613 48 view .LVU701
 1984 00c2 00EB0520 		add	r0, r0, r5, lsl #8
 1985              		.loc 1 613 37 view .LVU702
 1986 00c6 A2F86800 		strh	r0, [r2, #104]	@ movhi
 614:Core/Src/adBms6830ParseCreate.cpp ****       ic[curr_ic].scell.sc_codes[5] = (data[4] + (data[5] << 8));
ARM GAS  C:\Users\huawei\AppData\Local\Temp\ccwYaMVL.s 			page 48


 1987              		.loc 1 614 7 is_stmt 1 view .LVU703
 1988              		.loc 1 614 46 is_stmt 0 view .LVU704
 1989 00ca 2079     		ldrb	r0, [r4, #4]	@ zero_extendqisi2
 1990              		.loc 1 614 57 view .LVU705
 1991 00cc 6579     		ldrb	r5, [r4, #5]	@ zero_extendqisi2
 1992              		.loc 1 614 48 view .LVU706
 1993 00ce 00EB0520 		add	r0, r0, r5, lsl #8
 1994              		.loc 1 614 37 view .LVU707
 1995 00d2 A2F86A00 		strh	r0, [r2, #106]	@ movhi
 615:Core/Src/adBms6830ParseCreate.cpp ****       break;
 1996              		.loc 1 615 7 is_stmt 1 view .LVU708
 1997 00d6 C6E7     		b	.L96
 1998              	.LVL143:
 1999              	.L101:
 616:Core/Src/adBms6830ParseCreate.cpp **** 
 617:Core/Src/adBms6830ParseCreate.cpp ****     case C: /* Cell Register group C */
 2000              		.loc 1 617 5 view .LVU709
 618:Core/Src/adBms6830ParseCreate.cpp ****       ic[curr_ic].scell.sc_codes[6] = (data[0] + (data[1] << 8));
 2001              		.loc 1 618 7 view .LVU710
 2002              		.loc 1 618 46 is_stmt 0 view .LVU711
 2003 00d8 2078     		ldrb	r0, [r4]	@ zero_extendqisi2
 2004              		.loc 1 618 57 view .LVU712
 2005 00da 94F801C0 		ldrb	ip, [r4, #1]	@ zero_extendqisi2
 2006              		.loc 1 618 17 view .LVU713
 2007 00de 4FF42872 		mov	r2, #672
 2008 00e2 02FB05A2 		mla	r2, r2, r5, r10
 2009              		.loc 1 618 48 view .LVU714
 2010 00e6 00EB0C20 		add	r0, r0, ip, lsl #8
 2011              		.loc 1 618 37 view .LVU715
 2012 00ea A2F86C00 		strh	r0, [r2, #108]	@ movhi
 619:Core/Src/adBms6830ParseCreate.cpp ****       ic[curr_ic].scell.sc_codes[7] = (data[2] + (data[3] << 8));
 2013              		.loc 1 619 7 is_stmt 1 view .LVU716
 2014              		.loc 1 619 46 is_stmt 0 view .LVU717
 2015 00ee A078     		ldrb	r0, [r4, #2]	@ zero_extendqisi2
 2016              		.loc 1 619 57 view .LVU718
 2017 00f0 E578     		ldrb	r5, [r4, #3]	@ zero_extendqisi2
 2018              	.LVL144:
 2019              		.loc 1 619 48 view .LVU719
 2020 00f2 00EB0520 		add	r0, r0, r5, lsl #8
 2021              		.loc 1 619 37 view .LVU720
 2022 00f6 A2F86E00 		strh	r0, [r2, #110]	@ movhi
 620:Core/Src/adBms6830ParseCreate.cpp ****       ic[curr_ic].scell.sc_codes[8] = (data[4] + (data[5] << 8));
 2023              		.loc 1 620 7 is_stmt 1 view .LVU721
 2024              		.loc 1 620 46 is_stmt 0 view .LVU722
 2025 00fa 2079     		ldrb	r0, [r4, #4]	@ zero_extendqisi2
 2026              		.loc 1 620 57 view .LVU723
 2027 00fc 6579     		ldrb	r5, [r4, #5]	@ zero_extendqisi2
 2028              		.loc 1 620 48 view .LVU724
 2029 00fe 00EB0520 		add	r0, r0, r5, lsl #8
 2030              		.loc 1 620 37 view .LVU725
 2031 0102 A2F87000 		strh	r0, [r2, #112]	@ movhi
 621:Core/Src/adBms6830ParseCreate.cpp ****       break;
 2032              		.loc 1 621 7 is_stmt 1 view .LVU726
 2033 0106 AEE7     		b	.L96
 2034              	.LVL145:
 2035              	.L100:
 622:Core/Src/adBms6830ParseCreate.cpp **** 
ARM GAS  C:\Users\huawei\AppData\Local\Temp\ccwYaMVL.s 			page 49


 623:Core/Src/adBms6830ParseCreate.cpp ****     case D: /* Cell Register group D */
 2036              		.loc 1 623 5 view .LVU727
 624:Core/Src/adBms6830ParseCreate.cpp ****       ic[curr_ic].scell.sc_codes[9] =  (data[0] + (data[1] << 8));
 2037              		.loc 1 624 7 view .LVU728
 2038              		.loc 1 624 47 is_stmt 0 view .LVU729
 2039 0108 2078     		ldrb	r0, [r4]	@ zero_extendqisi2
 2040              		.loc 1 624 58 view .LVU730
 2041 010a 94F801C0 		ldrb	ip, [r4, #1]	@ zero_extendqisi2
 2042              		.loc 1 624 17 view .LVU731
 2043 010e 4FF42872 		mov	r2, #672
 2044 0112 02FB05A2 		mla	r2, r2, r5, r10
 2045              		.loc 1 624 49 view .LVU732
 2046 0116 00EB0C20 		add	r0, r0, ip, lsl #8
 2047              		.loc 1 624 37 view .LVU733
 2048 011a A2F87200 		strh	r0, [r2, #114]	@ movhi
 625:Core/Src/adBms6830ParseCreate.cpp ****       ic[curr_ic].scell.sc_codes[10] = (data[2] + (data[3] << 8));
 2049              		.loc 1 625 7 is_stmt 1 view .LVU734
 2050              		.loc 1 625 47 is_stmt 0 view .LVU735
 2051 011e A078     		ldrb	r0, [r4, #2]	@ zero_extendqisi2
 2052              		.loc 1 625 58 view .LVU736
 2053 0120 E578     		ldrb	r5, [r4, #3]	@ zero_extendqisi2
 2054              	.LVL146:
 2055              		.loc 1 625 49 view .LVU737
 2056 0122 00EB0520 		add	r0, r0, r5, lsl #8
 2057              		.loc 1 625 38 view .LVU738
 2058 0126 A2F87400 		strh	r0, [r2, #116]	@ movhi
 626:Core/Src/adBms6830ParseCreate.cpp ****       ic[curr_ic].scell.sc_codes[11] = (data[4] + (data[5] << 8));
 2059              		.loc 1 626 7 is_stmt 1 view .LVU739
 2060              		.loc 1 626 47 is_stmt 0 view .LVU740
 2061 012a 2079     		ldrb	r0, [r4, #4]	@ zero_extendqisi2
 2062              		.loc 1 626 58 view .LVU741
 2063 012c 6579     		ldrb	r5, [r4, #5]	@ zero_extendqisi2
 2064              		.loc 1 626 49 view .LVU742
 2065 012e 00EB0520 		add	r0, r0, r5, lsl #8
 2066              		.loc 1 626 38 view .LVU743
 2067 0132 A2F87600 		strh	r0, [r2, #118]	@ movhi
 627:Core/Src/adBms6830ParseCreate.cpp ****       break;
 2068              		.loc 1 627 7 is_stmt 1 view .LVU744
 2069 0136 96E7     		b	.L96
 2070              	.LVL147:
 2071              	.L99:
 628:Core/Src/adBms6830ParseCreate.cpp **** 
 629:Core/Src/adBms6830ParseCreate.cpp ****     case E: /* Cell Register group E */
 2072              		.loc 1 629 5 view .LVU745
 630:Core/Src/adBms6830ParseCreate.cpp ****       ic[curr_ic].scell.sc_codes[12] = (data[0] + (data[1] << 8));
 2073              		.loc 1 630 7 view .LVU746
 2074              		.loc 1 630 47 is_stmt 0 view .LVU747
 2075 0138 2078     		ldrb	r0, [r4]	@ zero_extendqisi2
 2076              		.loc 1 630 58 view .LVU748
 2077 013a 94F801C0 		ldrb	ip, [r4, #1]	@ zero_extendqisi2
 2078              		.loc 1 630 17 view .LVU749
 2079 013e 4FF42872 		mov	r2, #672
 2080 0142 02FB05A2 		mla	r2, r2, r5, r10
 2081              		.loc 1 630 49 view .LVU750
 2082 0146 00EB0C20 		add	r0, r0, ip, lsl #8
 2083              		.loc 1 630 38 view .LVU751
 2084 014a A2F87800 		strh	r0, [r2, #120]	@ movhi
ARM GAS  C:\Users\huawei\AppData\Local\Temp\ccwYaMVL.s 			page 50


 631:Core/Src/adBms6830ParseCreate.cpp ****       ic[curr_ic].scell.sc_codes[13] = (data[2] + (data[3] << 8));
 2085              		.loc 1 631 7 is_stmt 1 view .LVU752
 2086              		.loc 1 631 47 is_stmt 0 view .LVU753
 2087 014e A078     		ldrb	r0, [r4, #2]	@ zero_extendqisi2
 2088              		.loc 1 631 58 view .LVU754
 2089 0150 E578     		ldrb	r5, [r4, #3]	@ zero_extendqisi2
 2090              	.LVL148:
 2091              		.loc 1 631 49 view .LVU755
 2092 0152 00EB0520 		add	r0, r0, r5, lsl #8
 2093              		.loc 1 631 38 view .LVU756
 2094 0156 A2F87A00 		strh	r0, [r2, #122]	@ movhi
 632:Core/Src/adBms6830ParseCreate.cpp ****       ic[curr_ic].scell.sc_codes[14] = (data[4] + (data[5] << 8));
 2095              		.loc 1 632 7 is_stmt 1 view .LVU757
 2096              		.loc 1 632 47 is_stmt 0 view .LVU758
 2097 015a 2079     		ldrb	r0, [r4, #4]	@ zero_extendqisi2
 2098              		.loc 1 632 58 view .LVU759
 2099 015c 6579     		ldrb	r5, [r4, #5]	@ zero_extendqisi2
 2100              		.loc 1 632 49 view .LVU760
 2101 015e 00EB0520 		add	r0, r0, r5, lsl #8
 2102              		.loc 1 632 38 view .LVU761
 2103 0162 A2F87C00 		strh	r0, [r2, #124]	@ movhi
 633:Core/Src/adBms6830ParseCreate.cpp ****       break;
 2104              		.loc 1 633 7 is_stmt 1 view .LVU762
 2105 0166 7EE7     		b	.L96
 2106              	.LVL149:
 2107              	.L97:
 634:Core/Src/adBms6830ParseCreate.cpp **** 
 635:Core/Src/adBms6830ParseCreate.cpp ****     case F: /* Cell Register group F */
 2108              		.loc 1 635 5 view .LVU763
 636:Core/Src/adBms6830ParseCreate.cpp ****       ic[curr_ic].scell.sc_codes[15] = (data[0] + (data[1] << 8));
 2109              		.loc 1 636 7 view .LVU764
 2110              		.loc 1 636 47 is_stmt 0 view .LVU765
 2111 0168 2078     		ldrb	r0, [r4]	@ zero_extendqisi2
 2112              		.loc 1 636 58 view .LVU766
 2113 016a 94F801C0 		ldrb	ip, [r4, #1]	@ zero_extendqisi2
 2114              		.loc 1 636 17 view .LVU767
 2115 016e 4FF42872 		mov	r2, #672
 2116 0172 02FB05A2 		mla	r2, r2, r5, r10
 2117              		.loc 1 636 49 view .LVU768
 2118 0176 00EB0C20 		add	r0, r0, ip, lsl #8
 2119              		.loc 1 636 38 view .LVU769
 2120 017a A2F87E00 		strh	r0, [r2, #126]	@ movhi
 637:Core/Src/adBms6830ParseCreate.cpp ****       break;
 2121              		.loc 1 637 7 is_stmt 1 view .LVU770
 2122 017e 72E7     		b	.L96
 2123              	.L104:
 638:Core/Src/adBms6830ParseCreate.cpp **** 
 639:Core/Src/adBms6830ParseCreate.cpp ****     case ALL_GRP: /* Cell Register group ALL */
 2124              		.loc 1 639 5 view .LVU771
 640:Core/Src/adBms6830ParseCreate.cpp ****       ic[curr_ic].scell.sc_codes[0] = (data[0] + (data[1] << 8));
 2125              		.loc 1 640 7 view .LVU772
 2126              		.loc 1 640 46 is_stmt 0 view .LVU773
 2127 0180 2078     		ldrb	r0, [r4]	@ zero_extendqisi2
 2128              		.loc 1 640 57 view .LVU774
 2129 0182 94F801C0 		ldrb	ip, [r4, #1]	@ zero_extendqisi2
 2130              		.loc 1 640 17 view .LVU775
 2131 0186 4FF42872 		mov	r2, #672
ARM GAS  C:\Users\huawei\AppData\Local\Temp\ccwYaMVL.s 			page 51


 2132 018a 02FB05A2 		mla	r2, r2, r5, r10
 2133              		.loc 1 640 48 view .LVU776
 2134 018e 00EB0C20 		add	r0, r0, ip, lsl #8
 2135              		.loc 1 640 37 view .LVU777
 2136 0192 A2F86000 		strh	r0, [r2, #96]	@ movhi
 641:Core/Src/adBms6830ParseCreate.cpp ****       ic[curr_ic].scell.sc_codes[1] = (data[2] + (data[3] << 8));
 2137              		.loc 1 641 7 is_stmt 1 view .LVU778
 2138              		.loc 1 641 46 is_stmt 0 view .LVU779
 2139 0196 A078     		ldrb	r0, [r4, #2]	@ zero_extendqisi2
 2140              		.loc 1 641 57 view .LVU780
 2141 0198 E578     		ldrb	r5, [r4, #3]	@ zero_extendqisi2
 2142              	.LVL150:
 2143              		.loc 1 641 48 view .LVU781
 2144 019a 00EB0520 		add	r0, r0, r5, lsl #8
 2145              		.loc 1 641 37 view .LVU782
 2146 019e A2F86200 		strh	r0, [r2, #98]	@ movhi
 642:Core/Src/adBms6830ParseCreate.cpp ****       ic[curr_ic].scell.sc_codes[2] = (data[4] + (data[5] << 8));
 2147              		.loc 1 642 7 is_stmt 1 view .LVU783
 2148              		.loc 1 642 46 is_stmt 0 view .LVU784
 2149 01a2 2079     		ldrb	r0, [r4, #4]	@ zero_extendqisi2
 2150              		.loc 1 642 57 view .LVU785
 2151 01a4 6579     		ldrb	r5, [r4, #5]	@ zero_extendqisi2
 2152              		.loc 1 642 48 view .LVU786
 2153 01a6 00EB0520 		add	r0, r0, r5, lsl #8
 2154              		.loc 1 642 37 view .LVU787
 2155 01aa A2F86400 		strh	r0, [r2, #100]	@ movhi
 643:Core/Src/adBms6830ParseCreate.cpp ****       ic[curr_ic].scell.sc_codes[3] = (data[6] + (data[7] << 8));
 2156              		.loc 1 643 7 is_stmt 1 view .LVU788
 2157              		.loc 1 643 46 is_stmt 0 view .LVU789
 2158 01ae A079     		ldrb	r0, [r4, #6]	@ zero_extendqisi2
 2159              		.loc 1 643 57 view .LVU790
 2160 01b0 E579     		ldrb	r5, [r4, #7]	@ zero_extendqisi2
 2161              		.loc 1 643 48 view .LVU791
 2162 01b2 00EB0520 		add	r0, r0, r5, lsl #8
 2163              		.loc 1 643 37 view .LVU792
 2164 01b6 A2F86600 		strh	r0, [r2, #102]	@ movhi
 644:Core/Src/adBms6830ParseCreate.cpp ****       ic[curr_ic].scell.sc_codes[4] = (data[8] + (data[9] << 8));
 2165              		.loc 1 644 7 is_stmt 1 view .LVU793
 2166              		.loc 1 644 46 is_stmt 0 view .LVU794
 2167 01ba 207A     		ldrb	r0, [r4, #8]	@ zero_extendqisi2
 2168              		.loc 1 644 57 view .LVU795
 2169 01bc 657A     		ldrb	r5, [r4, #9]	@ zero_extendqisi2
 2170              		.loc 1 644 48 view .LVU796
 2171 01be 00EB0520 		add	r0, r0, r5, lsl #8
 2172              		.loc 1 644 37 view .LVU797
 2173 01c2 A2F86800 		strh	r0, [r2, #104]	@ movhi
 645:Core/Src/adBms6830ParseCreate.cpp ****       ic[curr_ic].scell.sc_codes[5] = (data[10] + (data[11] << 8));
 2174              		.loc 1 645 7 is_stmt 1 view .LVU798
 2175              		.loc 1 645 47 is_stmt 0 view .LVU799
 2176 01c6 A07A     		ldrb	r0, [r4, #10]	@ zero_extendqisi2
 2177              		.loc 1 645 59 view .LVU800
 2178 01c8 E57A     		ldrb	r5, [r4, #11]	@ zero_extendqisi2
 2179              		.loc 1 645 49 view .LVU801
 2180 01ca 00EB0520 		add	r0, r0, r5, lsl #8
 2181              		.loc 1 645 37 view .LVU802
 2182 01ce A2F86A00 		strh	r0, [r2, #106]	@ movhi
 646:Core/Src/adBms6830ParseCreate.cpp ****       ic[curr_ic].scell.sc_codes[6] = (data[12] + (data[13] << 8));
ARM GAS  C:\Users\huawei\AppData\Local\Temp\ccwYaMVL.s 			page 52


 2183              		.loc 1 646 7 is_stmt 1 view .LVU803
 2184              		.loc 1 646 47 is_stmt 0 view .LVU804
 2185 01d2 207B     		ldrb	r0, [r4, #12]	@ zero_extendqisi2
 2186              		.loc 1 646 59 view .LVU805
 2187 01d4 657B     		ldrb	r5, [r4, #13]	@ zero_extendqisi2
 2188              		.loc 1 646 49 view .LVU806
 2189 01d6 00EB0520 		add	r0, r0, r5, lsl #8
 2190              		.loc 1 646 37 view .LVU807
 2191 01da A2F86C00 		strh	r0, [r2, #108]	@ movhi
 647:Core/Src/adBms6830ParseCreate.cpp ****       ic[curr_ic].scell.sc_codes[7] = (data[14] + (data[15] << 8));
 2192              		.loc 1 647 7 is_stmt 1 view .LVU808
 2193              		.loc 1 647 47 is_stmt 0 view .LVU809
 2194 01de A07B     		ldrb	r0, [r4, #14]	@ zero_extendqisi2
 2195              		.loc 1 647 59 view .LVU810
 2196 01e0 E57B     		ldrb	r5, [r4, #15]	@ zero_extendqisi2
 2197              		.loc 1 647 49 view .LVU811
 2198 01e2 00EB0520 		add	r0, r0, r5, lsl #8
 2199              		.loc 1 647 37 view .LVU812
 2200 01e6 A2F86E00 		strh	r0, [r2, #110]	@ movhi
 648:Core/Src/adBms6830ParseCreate.cpp ****       ic[curr_ic].scell.sc_codes[8] = (data[16] + (data[17] << 8));
 2201              		.loc 1 648 7 is_stmt 1 view .LVU813
 2202              		.loc 1 648 47 is_stmt 0 view .LVU814
 2203 01ea 207C     		ldrb	r0, [r4, #16]	@ zero_extendqisi2
 2204              		.loc 1 648 59 view .LVU815
 2205 01ec 657C     		ldrb	r5, [r4, #17]	@ zero_extendqisi2
 2206              		.loc 1 648 49 view .LVU816
 2207 01ee 00EB0520 		add	r0, r0, r5, lsl #8
 2208              		.loc 1 648 37 view .LVU817
 2209 01f2 A2F87000 		strh	r0, [r2, #112]	@ movhi
 649:Core/Src/adBms6830ParseCreate.cpp ****       ic[curr_ic].scell.sc_codes[9] = (data[18] + (data[19] << 8));
 2210              		.loc 1 649 7 is_stmt 1 view .LVU818
 2211              		.loc 1 649 47 is_stmt 0 view .LVU819
 2212 01f6 A07C     		ldrb	r0, [r4, #18]	@ zero_extendqisi2
 2213              		.loc 1 649 59 view .LVU820
 2214 01f8 E57C     		ldrb	r5, [r4, #19]	@ zero_extendqisi2
 2215              		.loc 1 649 49 view .LVU821
 2216 01fa 00EB0520 		add	r0, r0, r5, lsl #8
 2217              		.loc 1 649 37 view .LVU822
 2218 01fe A2F87200 		strh	r0, [r2, #114]	@ movhi
 650:Core/Src/adBms6830ParseCreate.cpp ****       ic[curr_ic].scell.sc_codes[10] = (data[20] + (data[21] << 8));
 2219              		.loc 1 650 7 is_stmt 1 view .LVU823
 2220              		.loc 1 650 48 is_stmt 0 view .LVU824
 2221 0202 207D     		ldrb	r0, [r4, #20]	@ zero_extendqisi2
 2222              		.loc 1 650 60 view .LVU825
 2223 0204 657D     		ldrb	r5, [r4, #21]	@ zero_extendqisi2
 2224              		.loc 1 650 50 view .LVU826
 2225 0206 00EB0520 		add	r0, r0, r5, lsl #8
 2226              		.loc 1 650 38 view .LVU827
 2227 020a A2F87400 		strh	r0, [r2, #116]	@ movhi
 651:Core/Src/adBms6830ParseCreate.cpp ****       ic[curr_ic].scell.sc_codes[11] = (data[22] + (data[23] << 8));
 2228              		.loc 1 651 7 is_stmt 1 view .LVU828
 2229              		.loc 1 651 48 is_stmt 0 view .LVU829
 2230 020e A07D     		ldrb	r0, [r4, #22]	@ zero_extendqisi2
 2231              		.loc 1 651 60 view .LVU830
 2232 0210 E57D     		ldrb	r5, [r4, #23]	@ zero_extendqisi2
 2233              		.loc 1 651 50 view .LVU831
 2234 0212 00EB0520 		add	r0, r0, r5, lsl #8
ARM GAS  C:\Users\huawei\AppData\Local\Temp\ccwYaMVL.s 			page 53


 2235              		.loc 1 651 38 view .LVU832
 2236 0216 A2F87600 		strh	r0, [r2, #118]	@ movhi
 652:Core/Src/adBms6830ParseCreate.cpp ****       ic[curr_ic].scell.sc_codes[12] = (data[24] + (data[25] << 8));
 2237              		.loc 1 652 7 is_stmt 1 view .LVU833
 2238              		.loc 1 652 48 is_stmt 0 view .LVU834
 2239 021a 207E     		ldrb	r0, [r4, #24]	@ zero_extendqisi2
 2240              		.loc 1 652 60 view .LVU835
 2241 021c 657E     		ldrb	r5, [r4, #25]	@ zero_extendqisi2
 2242              		.loc 1 652 50 view .LVU836
 2243 021e 00EB0520 		add	r0, r0, r5, lsl #8
 2244              		.loc 1 652 38 view .LVU837
 2245 0222 A2F87800 		strh	r0, [r2, #120]	@ movhi
 653:Core/Src/adBms6830ParseCreate.cpp ****       ic[curr_ic].scell.sc_codes[13] = (data[26] + (data[27] << 8));
 2246              		.loc 1 653 7 is_stmt 1 view .LVU838
 2247              		.loc 1 653 48 is_stmt 0 view .LVU839
 2248 0226 A07E     		ldrb	r0, [r4, #26]	@ zero_extendqisi2
 2249              		.loc 1 653 60 view .LVU840
 2250 0228 E57E     		ldrb	r5, [r4, #27]	@ zero_extendqisi2
 2251              		.loc 1 653 50 view .LVU841
 2252 022a 00EB0520 		add	r0, r0, r5, lsl #8
 2253              		.loc 1 653 38 view .LVU842
 2254 022e A2F87A00 		strh	r0, [r2, #122]	@ movhi
 654:Core/Src/adBms6830ParseCreate.cpp ****       ic[curr_ic].scell.sc_codes[14] = (data[28] + (data[29] << 8));
 2255              		.loc 1 654 7 is_stmt 1 view .LVU843
 2256              		.loc 1 654 48 is_stmt 0 view .LVU844
 2257 0232 207F     		ldrb	r0, [r4, #28]	@ zero_extendqisi2
 2258              		.loc 1 654 60 view .LVU845
 2259 0234 657F     		ldrb	r5, [r4, #29]	@ zero_extendqisi2
 2260              		.loc 1 654 50 view .LVU846
 2261 0236 00EB0520 		add	r0, r0, r5, lsl #8
 2262              		.loc 1 654 38 view .LVU847
 2263 023a A2F87C00 		strh	r0, [r2, #124]	@ movhi
 655:Core/Src/adBms6830ParseCreate.cpp ****       ic[curr_ic].scell.sc_codes[15] = (data[30] + (data[31] << 8));
 2264              		.loc 1 655 7 is_stmt 1 view .LVU848
 2265              		.loc 1 655 48 is_stmt 0 view .LVU849
 2266 023e A07F     		ldrb	r0, [r4, #30]	@ zero_extendqisi2
 2267              		.loc 1 655 60 view .LVU850
 2268 0240 E57F     		ldrb	r5, [r4, #31]	@ zero_extendqisi2
 2269              		.loc 1 655 50 view .LVU851
 2270 0242 00EB0520 		add	r0, r0, r5, lsl #8
 2271              		.loc 1 655 38 view .LVU852
 2272 0246 A2F87E00 		strh	r0, [r2, #126]	@ movhi
 656:Core/Src/adBms6830ParseCreate.cpp ****       break;
 2273              		.loc 1 656 7 is_stmt 1 view .LVU853
 2274 024a 0CE7     		b	.L96
 2275              	.LVL151:
 2276              	.L111:
 2277              		.loc 1 656 7 is_stmt 0 view .LVU854
 2278              	.LBE19:
 657:Core/Src/adBms6830ParseCreate.cpp **** 
 658:Core/Src/adBms6830ParseCreate.cpp ****     default:
 659:Core/Src/adBms6830ParseCreate.cpp ****       break;
 660:Core/Src/adBms6830ParseCreate.cpp ****     }
 661:Core/Src/adBms6830ParseCreate.cpp ****   }
 662:Core/Src/adBms6830ParseCreate.cpp ****   free(data);
 2279              		.loc 1 662 3 is_stmt 1 view .LVU855
 2280              		.loc 1 662 7 is_stmt 0 view .LVU856
ARM GAS  C:\Users\huawei\AppData\Local\Temp\ccwYaMVL.s 			page 54


 2281 024c 2046     		mov	r0, r4
 2282 024e FFF7FEFF 		bl	free
 2283              	.LVL152:
 663:Core/Src/adBms6830ParseCreate.cpp **** }
 2284              		.loc 1 663 1 view .LVU857
 2285 0252 BDE8F88F 		pop	{r3, r4, r5, r6, r7, r8, r9, r10, fp, pc}
 2286              	.LVL153:
 2287              	.L113:
 2288              		.loc 1 663 1 view .LVU858
 2289 0256 00BF     		.align	2
 2290              	.L112:
 2291 0258 00000000 		.word	.LC2
 2292              		.cfi_endproc
 2293              	.LFE257:
 2294              		.fnend
 2296              		.section	.rodata._Z19adBms6830ParseFCellhP9cell_asic3GRPPh.str1.4,"aMS",%progbits,1
 2297              		.align	2
 2298              	.LC3:
 2299 0000 20466169 		.ascii	" Failed to allocate parse fcell memory \000"
 2299      6C656420 
 2299      746F2061 
 2299      6C6C6F63 
 2299      61746520 
 2300              		.section	.text._Z19adBms6830ParseFCellhP9cell_asic3GRPPh,"ax",%progbits
 2301              		.align	1
 2302              		.global	_Z19adBms6830ParseFCellhP9cell_asic3GRPPh
 2303              		.syntax unified
 2304              		.thumb
 2305              		.thumb_func
 2307              	_Z19adBms6830ParseFCellhP9cell_asic3GRPPh:
 2308              		.fnstart
 2309              	.LVL154:
 2310              	.LFB258:
 664:Core/Src/adBms6830ParseCreate.cpp **** 
 665:Core/Src/adBms6830ParseCreate.cpp **** /**
 666:Core/Src/adBms6830ParseCreate.cpp ****  *******************************************************************************
 667:Core/Src/adBms6830ParseCreate.cpp ****  * Function: adBms6830ParseFCell
 668:Core/Src/adBms6830ParseCreate.cpp ****  * @brief Parse Filtered cell voltages
 669:Core/Src/adBms6830ParseCreate.cpp ****  *
 670:Core/Src/adBms6830ParseCreate.cpp ****  * @details This function Parse the recived filtered cell register A,B,C,D,E and F data.
 671:Core/Src/adBms6830ParseCreate.cpp ****  *
 672:Core/Src/adBms6830ParseCreate.cpp ****  * Parameters:
 673:Core/Src/adBms6830ParseCreate.cpp ****  *
 674:Core/Src/adBms6830ParseCreate.cpp ****  * @param [in]  tIC                     Total IC
 675:Core/Src/adBms6830ParseCreate.cpp ****  *
 676:Core/Src/adBms6830ParseCreate.cpp ****  * @param [in]  *ic                     cell_asic ic structure pointer
 677:Core/Src/adBms6830ParseCreate.cpp ****  *
 678:Core/Src/adBms6830ParseCreate.cpp ****  * @param [in]  grp                     Enum type register group
 679:Core/Src/adBms6830ParseCreate.cpp ****  *
 680:Core/Src/adBms6830ParseCreate.cpp ****  * @param [in]  *fcv_data               Filtered cell voltage data pointer
 681:Core/Src/adBms6830ParseCreate.cpp ****  *
 682:Core/Src/adBms6830ParseCreate.cpp ****  * @return None
 683:Core/Src/adBms6830ParseCreate.cpp ****  *
 684:Core/Src/adBms6830ParseCreate.cpp ****  *******************************************************************************
 685:Core/Src/adBms6830ParseCreate.cpp **** */
 686:Core/Src/adBms6830ParseCreate.cpp **** void adBms6830ParseFCell(uint8_t tIC, cell_asic *ic, GRP grp, uint8_t *fcv_data)
 687:Core/Src/adBms6830ParseCreate.cpp **** {
ARM GAS  C:\Users\huawei\AppData\Local\Temp\ccwYaMVL.s 			page 55


 2311              		.loc 1 687 1 is_stmt 1 view -0
 2312              		.cfi_startproc
 2313              		@ args = 0, pretend = 0, frame = 0
 2314              		@ frame_needed = 0, uses_anonymous_args = 0
 2315              		.loc 1 687 1 is_stmt 0 view .LVU860
 2316 0000 2DE9F84F 		push	{r3, r4, r5, r6, r7, r8, r9, r10, fp, lr}
 2317              		.save {r3, r4, r5, r6, r7, r8, r9, r10, fp, lr}
 2318              	.LCFI10:
 2319              		.cfi_def_cfa_offset 40
 2320              		.cfi_offset 3, -40
 2321              		.cfi_offset 4, -36
 2322              		.cfi_offset 5, -32
 2323              		.cfi_offset 6, -28
 2324              		.cfi_offset 7, -24
 2325              		.cfi_offset 8, -20
 2326              		.cfi_offset 9, -16
 2327              		.cfi_offset 10, -12
 2328              		.cfi_offset 11, -8
 2329              		.cfi_offset 14, -4
 2330 0004 0746     		mov	r7, r0
 2331 0006 8A46     		mov	r10, r1
 2332 0008 9946     		mov	r9, r3
 688:Core/Src/adBms6830ParseCreate.cpp ****   uint8_t *data, data_size, address = 0;
 2333              		.loc 1 688 3 is_stmt 1 view .LVU861
 2334              	.LVL155:
 689:Core/Src/adBms6830ParseCreate.cpp ****   if(grp == ALL_GRP){data_size = RDFCALL_SIZE;}
 2335              		.loc 1 689 3 view .LVU862
 2336 000a 1646     		mov	r6, r2
 2337 000c 5AB9     		cbnz	r2, .L127
 2338              		.loc 1 689 32 is_stmt 0 view .LVU863
 2339 000e 4FF02208 		mov	r8, #34
 2340              	.L115:
 2341              	.LVL156:
 690:Core/Src/adBms6830ParseCreate.cpp ****   else {data_size = RX_DATA;}
 691:Core/Src/adBms6830ParseCreate.cpp ****   data = (uint8_t *)calloc(data_size, sizeof(uint8_t));
 2342              		.loc 1 691 3 is_stmt 1 view .LVU864
 2343              		.loc 1 691 27 is_stmt 0 view .LVU865
 2344 0012 C346     		mov	fp, r8
 2345 0014 0121     		movs	r1, #1
 2346              	.LVL157:
 2347              		.loc 1 691 27 view .LVU866
 2348 0016 4046     		mov	r0, r8
 2349              	.LVL158:
 2350              		.loc 1 691 27 view .LVU867
 2351 0018 FFF7FEFF 		bl	calloc
 2352              	.LVL159:
 692:Core/Src/adBms6830ParseCreate.cpp ****   if(data == NULL)
 2353              		.loc 1 692 3 is_stmt 1 view .LVU868
 2354 001c 0446     		mov	r4, r0
 2355 001e 28B1     		cbz	r0, .L131
 2356              	.LBB20:
 693:Core/Src/adBms6830ParseCreate.cpp ****   {
 694:Core/Src/adBms6830ParseCreate.cpp ****     #ifdef MBED
 695:Core/Src/adBms6830ParseCreate.cpp ****     pc.printf(" Failed to allocate parse fcell memory \n");
 696:Core/Src/adBms6830ParseCreate.cpp ****     #else
 697:Core/Src/adBms6830ParseCreate.cpp ****     printf(" Failed to allocate parse fcell memory \n");
 698:Core/Src/adBms6830ParseCreate.cpp ****     #endif
ARM GAS  C:\Users\huawei\AppData\Local\Temp\ccwYaMVL.s 			page 56


 699:Core/Src/adBms6830ParseCreate.cpp ****     exit(0);
 700:Core/Src/adBms6830ParseCreate.cpp ****   }
 701:Core/Src/adBms6830ParseCreate.cpp ****   for(uint8_t curr_ic = 0; curr_ic < tIC; curr_ic++)
 2357              		.loc 1 701 15 is_stmt 0 view .LVU869
 2358 0020 0025     		movs	r5, #0
 2359              	.LBE20:
 688:Core/Src/adBms6830ParseCreate.cpp ****   if(grp == ALL_GRP){data_size = RDFCALL_SIZE;}
 2360              		.loc 1 688 29 view .LVU870
 2361 0022 2946     		mov	r1, r5
 2362 0024 20E0     		b	.L116
 2363              	.LVL160:
 2364              	.L127:
 690:Core/Src/adBms6830ParseCreate.cpp ****   data = (uint8_t *)calloc(data_size, sizeof(uint8_t));
 2365              		.loc 1 690 19 view .LVU871
 2366 0026 4FF00808 		mov	r8, #8
 2367 002a F2E7     		b	.L115
 2368              	.LVL161:
 2369              	.L131:
 697:Core/Src/adBms6830ParseCreate.cpp ****     #endif
 2370              		.loc 1 697 5 is_stmt 1 view .LVU872
 697:Core/Src/adBms6830ParseCreate.cpp ****     #endif
 2371              		.loc 1 697 11 is_stmt 0 view .LVU873
 2372 002c 8A48     		ldr	r0, .L133
 2373              	.LVL162:
 697:Core/Src/adBms6830ParseCreate.cpp ****     #endif
 2374              		.loc 1 697 11 view .LVU874
 2375 002e FFF7FEFF 		bl	puts
 2376              	.LVL163:
 699:Core/Src/adBms6830ParseCreate.cpp ****   }
 2377              		.loc 1 699 5 is_stmt 1 view .LVU875
 699:Core/Src/adBms6830ParseCreate.cpp ****   }
 2378              		.loc 1 699 9 is_stmt 0 view .LVU876
 2379 0032 0020     		movs	r0, #0
 2380 0034 FFF7FEFF 		bl	exit
 2381              	.LVL164:
 2382              	.L124:
 2383              	.LBB21:
 702:Core/Src/adBms6830ParseCreate.cpp ****   {
 703:Core/Src/adBms6830ParseCreate.cpp ****     memcpy(&data[0], &fcv_data[address], data_size); /* dst , src , size */
 704:Core/Src/adBms6830ParseCreate.cpp ****     address = ((curr_ic+1) * (data_size));
 705:Core/Src/adBms6830ParseCreate.cpp ****     switch (grp)
 706:Core/Src/adBms6830ParseCreate.cpp ****     {
 707:Core/Src/adBms6830ParseCreate.cpp ****     case A: /* Cell Register group A */
 2384              		.loc 1 707 5 is_stmt 1 view .LVU877
 708:Core/Src/adBms6830ParseCreate.cpp ****       ic[curr_ic].fcell.fc_codes[0] = (data[0] + (data[1] << 8));
 2385              		.loc 1 708 7 view .LVU878
 2386              		.loc 1 708 46 is_stmt 0 view .LVU879
 2387 0038 2078     		ldrb	r0, [r4]	@ zero_extendqisi2
 2388              		.loc 1 708 57 view .LVU880
 2389 003a 94F801C0 		ldrb	ip, [r4, #1]	@ zero_extendqisi2
 2390              		.loc 1 708 17 view .LVU881
 2391 003e 4FF42872 		mov	r2, #672
 2392 0042 02FB05A2 		mla	r2, r2, r5, r10
 2393              		.loc 1 708 48 view .LVU882
 2394 0046 00EB0C20 		add	r0, r0, ip, lsl #8
 2395              		.loc 1 708 37 view .LVU883
 2396 004a A2F88000 		strh	r0, [r2, #128]	@ movhi
ARM GAS  C:\Users\huawei\AppData\Local\Temp\ccwYaMVL.s 			page 57


 709:Core/Src/adBms6830ParseCreate.cpp ****       ic[curr_ic].fcell.fc_codes[1] = (data[2] + (data[3] << 8));
 2397              		.loc 1 709 7 is_stmt 1 view .LVU884
 2398              		.loc 1 709 46 is_stmt 0 view .LVU885
 2399 004e A078     		ldrb	r0, [r4, #2]	@ zero_extendqisi2
 2400              		.loc 1 709 57 view .LVU886
 2401 0050 E578     		ldrb	r5, [r4, #3]	@ zero_extendqisi2
 2402              	.LVL165:
 2403              		.loc 1 709 48 view .LVU887
 2404 0052 00EB0520 		add	r0, r0, r5, lsl #8
 2405              		.loc 1 709 37 view .LVU888
 2406 0056 A2F88200 		strh	r0, [r2, #130]	@ movhi
 710:Core/Src/adBms6830ParseCreate.cpp ****       ic[curr_ic].fcell.fc_codes[2] = (data[4] + (data[5] << 8));
 2407              		.loc 1 710 7 is_stmt 1 view .LVU889
 2408              		.loc 1 710 46 is_stmt 0 view .LVU890
 2409 005a 2079     		ldrb	r0, [r4, #4]	@ zero_extendqisi2
 2410              		.loc 1 710 57 view .LVU891
 2411 005c 6579     		ldrb	r5, [r4, #5]	@ zero_extendqisi2
 2412              		.loc 1 710 48 view .LVU892
 2413 005e 00EB0520 		add	r0, r0, r5, lsl #8
 2414              		.loc 1 710 37 view .LVU893
 2415 0062 A2F88400 		strh	r0, [r2, #132]	@ movhi
 711:Core/Src/adBms6830ParseCreate.cpp ****       break;
 2416              		.loc 1 711 7 is_stmt 1 view .LVU894
 2417              	.L117:
 2418              		.loc 1 711 7 is_stmt 0 view .LVU895
 2419              	.LBE21:
 690:Core/Src/adBms6830ParseCreate.cpp ****   data = (uint8_t *)calloc(data_size, sizeof(uint8_t));
 2420              		.loc 1 690 19 discriminator 1 view .LVU896
 2421 0066 1D46     		mov	r5, r3
 2422              	.LVL166:
 2423              	.L116:
 2424              	.LBB22:
 701:Core/Src/adBms6830ParseCreate.cpp ****   {
 2425              		.loc 1 701 36 is_stmt 1 discriminator 1 view .LVU897
 2426 0068 BD42     		cmp	r5, r7
 2427 006a 80F0EF80 		bcs	.L132
 703:Core/Src/adBms6830ParseCreate.cpp ****     address = ((curr_ic+1) * (data_size));
 2428              		.loc 1 703 5 view .LVU898
 703:Core/Src/adBms6830ParseCreate.cpp ****     address = ((curr_ic+1) * (data_size));
 2429              		.loc 1 703 11 is_stmt 0 view .LVU899
 2430 006e 5A46     		mov	r2, fp
 2431 0070 4944     		add	r1, r1, r9
 2432              	.LVL167:
 703:Core/Src/adBms6830ParseCreate.cpp ****     address = ((curr_ic+1) * (data_size));
 2433              		.loc 1 703 11 view .LVU900
 2434 0072 2046     		mov	r0, r4
 2435 0074 FFF7FEFF 		bl	memcpy
 2436              	.LVL168:
 704:Core/Src/adBms6830ParseCreate.cpp ****     switch (grp)
 2437              		.loc 1 704 5 is_stmt 1 view .LVU901
 704:Core/Src/adBms6830ParseCreate.cpp ****     switch (grp)
 2438              		.loc 1 704 13 is_stmt 0 view .LVU902
 2439 0078 6B1C     		adds	r3, r5, #1
 2440 007a DBB2     		uxtb	r3, r3
 2441 007c 13FB08F1 		smulbb	r1, r3, r8
 2442 0080 C9B2     		uxtb	r1, r1
 2443              	.LVL169:
ARM GAS  C:\Users\huawei\AppData\Local\Temp\ccwYaMVL.s 			page 58


 705:Core/Src/adBms6830ParseCreate.cpp ****     {
 2444              		.loc 1 705 5 is_stmt 1 view .LVU903
 2445 0082 062E     		cmp	r6, #6
 2446 0084 EFD8     		bhi	.L117
 2447 0086 01A2     		adr	r2, .L119
 2448 0088 52F826F0 		ldr	pc, [r2, r6, lsl #2]
 2449              		.p2align 2
 2450              	.L119:
 2451 008c 81010000 		.word	.L125+1
 2452 0090 39000000 		.word	.L124+1
 2453 0094 A9000000 		.word	.L123+1
 2454 0098 D9000000 		.word	.L122+1
 2455 009c 09010000 		.word	.L121+1
 2456 00a0 39010000 		.word	.L120+1
 2457 00a4 69010000 		.word	.L118+1
 2458              		.p2align 1
 2459              	.L123:
 712:Core/Src/adBms6830ParseCreate.cpp **** 
 713:Core/Src/adBms6830ParseCreate.cpp ****     case B: /* Cell Register group B */
 2460              		.loc 1 713 5 view .LVU904
 714:Core/Src/adBms6830ParseCreate.cpp ****       ic[curr_ic].fcell.fc_codes[3] = (data[0] + (data[1] << 8));
 2461              		.loc 1 714 7 view .LVU905
 2462              		.loc 1 714 46 is_stmt 0 view .LVU906
 2463 00a8 2078     		ldrb	r0, [r4]	@ zero_extendqisi2
 2464              		.loc 1 714 57 view .LVU907
 2465 00aa 94F801C0 		ldrb	ip, [r4, #1]	@ zero_extendqisi2
 2466              		.loc 1 714 17 view .LVU908
 2467 00ae 4FF42872 		mov	r2, #672
 2468 00b2 02FB05A2 		mla	r2, r2, r5, r10
 2469              		.loc 1 714 48 view .LVU909
 2470 00b6 00EB0C20 		add	r0, r0, ip, lsl #8
 2471              		.loc 1 714 37 view .LVU910
 2472 00ba A2F88600 		strh	r0, [r2, #134]	@ movhi
 715:Core/Src/adBms6830ParseCreate.cpp ****       ic[curr_ic].fcell.fc_codes[4] = (data[2] + (data[3] << 8));
 2473              		.loc 1 715 7 is_stmt 1 view .LVU911
 2474              		.loc 1 715 46 is_stmt 0 view .LVU912
 2475 00be A078     		ldrb	r0, [r4, #2]	@ zero_extendqisi2
 2476              		.loc 1 715 57 view .LVU913
 2477 00c0 E578     		ldrb	r5, [r4, #3]	@ zero_extendqisi2
 2478              	.LVL170:
 2479              		.loc 1 715 48 view .LVU914
 2480 00c2 00EB0520 		add	r0, r0, r5, lsl #8
 2481              		.loc 1 715 37 view .LVU915
 2482 00c6 A2F88800 		strh	r0, [r2, #136]	@ movhi
 716:Core/Src/adBms6830ParseCreate.cpp ****       ic[curr_ic].fcell.fc_codes[5] = (data[4] + (data[5] << 8));
 2483              		.loc 1 716 7 is_stmt 1 view .LVU916
 2484              		.loc 1 716 46 is_stmt 0 view .LVU917
 2485 00ca 2079     		ldrb	r0, [r4, #4]	@ zero_extendqisi2
 2486              		.loc 1 716 57 view .LVU918
 2487 00cc 6579     		ldrb	r5, [r4, #5]	@ zero_extendqisi2
 2488              		.loc 1 716 48 view .LVU919
 2489 00ce 00EB0520 		add	r0, r0, r5, lsl #8
 2490              		.loc 1 716 37 view .LVU920
 2491 00d2 A2F88A00 		strh	r0, [r2, #138]	@ movhi
 717:Core/Src/adBms6830ParseCreate.cpp ****       break;
 2492              		.loc 1 717 7 is_stmt 1 view .LVU921
 2493 00d6 C6E7     		b	.L117
ARM GAS  C:\Users\huawei\AppData\Local\Temp\ccwYaMVL.s 			page 59


 2494              	.LVL171:
 2495              	.L122:
 718:Core/Src/adBms6830ParseCreate.cpp **** 
 719:Core/Src/adBms6830ParseCreate.cpp ****     case C: /* Cell Register group C */
 2496              		.loc 1 719 5 view .LVU922
 720:Core/Src/adBms6830ParseCreate.cpp ****       ic[curr_ic].fcell.fc_codes[6] = (data[0] + (data[1] << 8));
 2497              		.loc 1 720 7 view .LVU923
 2498              		.loc 1 720 46 is_stmt 0 view .LVU924
 2499 00d8 2078     		ldrb	r0, [r4]	@ zero_extendqisi2
 2500              		.loc 1 720 57 view .LVU925
 2501 00da 94F801C0 		ldrb	ip, [r4, #1]	@ zero_extendqisi2
 2502              		.loc 1 720 17 view .LVU926
 2503 00de 4FF42872 		mov	r2, #672
 2504 00e2 02FB05A2 		mla	r2, r2, r5, r10
 2505              		.loc 1 720 48 view .LVU927
 2506 00e6 00EB0C20 		add	r0, r0, ip, lsl #8
 2507              		.loc 1 720 37 view .LVU928
 2508 00ea A2F88C00 		strh	r0, [r2, #140]	@ movhi
 721:Core/Src/adBms6830ParseCreate.cpp ****       ic[curr_ic].fcell.fc_codes[7] = (data[2] + (data[3] << 8));
 2509              		.loc 1 721 7 is_stmt 1 view .LVU929
 2510              		.loc 1 721 46 is_stmt 0 view .LVU930
 2511 00ee A078     		ldrb	r0, [r4, #2]	@ zero_extendqisi2
 2512              		.loc 1 721 57 view .LVU931
 2513 00f0 E578     		ldrb	r5, [r4, #3]	@ zero_extendqisi2
 2514              	.LVL172:
 2515              		.loc 1 721 48 view .LVU932
 2516 00f2 00EB0520 		add	r0, r0, r5, lsl #8
 2517              		.loc 1 721 37 view .LVU933
 2518 00f6 A2F88E00 		strh	r0, [r2, #142]	@ movhi
 722:Core/Src/adBms6830ParseCreate.cpp ****       ic[curr_ic].fcell.fc_codes[8] = (data[4] + (data[5] << 8));
 2519              		.loc 1 722 7 is_stmt 1 view .LVU934
 2520              		.loc 1 722 46 is_stmt 0 view .LVU935
 2521 00fa 2079     		ldrb	r0, [r4, #4]	@ zero_extendqisi2
 2522              		.loc 1 722 57 view .LVU936
 2523 00fc 6579     		ldrb	r5, [r4, #5]	@ zero_extendqisi2
 2524              		.loc 1 722 48 view .LVU937
 2525 00fe 00EB0520 		add	r0, r0, r5, lsl #8
 2526              		.loc 1 722 37 view .LVU938
 2527 0102 A2F89000 		strh	r0, [r2, #144]	@ movhi
 723:Core/Src/adBms6830ParseCreate.cpp ****       break;
 2528              		.loc 1 723 7 is_stmt 1 view .LVU939
 2529 0106 AEE7     		b	.L117
 2530              	.LVL173:
 2531              	.L121:
 724:Core/Src/adBms6830ParseCreate.cpp **** 
 725:Core/Src/adBms6830ParseCreate.cpp ****     case D: /* Cell Register group D */
 2532              		.loc 1 725 5 view .LVU940
 726:Core/Src/adBms6830ParseCreate.cpp ****       ic[curr_ic].fcell.fc_codes[9] =  (data[0] + (data[1] << 8));
 2533              		.loc 1 726 7 view .LVU941
 2534              		.loc 1 726 47 is_stmt 0 view .LVU942
 2535 0108 2078     		ldrb	r0, [r4]	@ zero_extendqisi2
 2536              		.loc 1 726 58 view .LVU943
 2537 010a 94F801C0 		ldrb	ip, [r4, #1]	@ zero_extendqisi2
 2538              		.loc 1 726 17 view .LVU944
 2539 010e 4FF42872 		mov	r2, #672
 2540 0112 02FB05A2 		mla	r2, r2, r5, r10
 2541              		.loc 1 726 49 view .LVU945
ARM GAS  C:\Users\huawei\AppData\Local\Temp\ccwYaMVL.s 			page 60


 2542 0116 00EB0C20 		add	r0, r0, ip, lsl #8
 2543              		.loc 1 726 37 view .LVU946
 2544 011a A2F89200 		strh	r0, [r2, #146]	@ movhi
 727:Core/Src/adBms6830ParseCreate.cpp ****       ic[curr_ic].fcell.fc_codes[10] = (data[2] + (data[3] << 8));
 2545              		.loc 1 727 7 is_stmt 1 view .LVU947
 2546              		.loc 1 727 47 is_stmt 0 view .LVU948
 2547 011e A078     		ldrb	r0, [r4, #2]	@ zero_extendqisi2
 2548              		.loc 1 727 58 view .LVU949
 2549 0120 E578     		ldrb	r5, [r4, #3]	@ zero_extendqisi2
 2550              	.LVL174:
 2551              		.loc 1 727 49 view .LVU950
 2552 0122 00EB0520 		add	r0, r0, r5, lsl #8
 2553              		.loc 1 727 38 view .LVU951
 2554 0126 A2F89400 		strh	r0, [r2, #148]	@ movhi
 728:Core/Src/adBms6830ParseCreate.cpp ****       ic[curr_ic].fcell.fc_codes[11] = (data[4] + (data[5] << 8));
 2555              		.loc 1 728 7 is_stmt 1 view .LVU952
 2556              		.loc 1 728 47 is_stmt 0 view .LVU953
 2557 012a 2079     		ldrb	r0, [r4, #4]	@ zero_extendqisi2
 2558              		.loc 1 728 58 view .LVU954
 2559 012c 6579     		ldrb	r5, [r4, #5]	@ zero_extendqisi2
 2560              		.loc 1 728 49 view .LVU955
 2561 012e 00EB0520 		add	r0, r0, r5, lsl #8
 2562              		.loc 1 728 38 view .LVU956
 2563 0132 A2F89600 		strh	r0, [r2, #150]	@ movhi
 729:Core/Src/adBms6830ParseCreate.cpp ****       break;
 2564              		.loc 1 729 7 is_stmt 1 view .LVU957
 2565 0136 96E7     		b	.L117
 2566              	.LVL175:
 2567              	.L120:
 730:Core/Src/adBms6830ParseCreate.cpp **** 
 731:Core/Src/adBms6830ParseCreate.cpp ****     case E: /* Cell Register group E */
 2568              		.loc 1 731 5 view .LVU958
 732:Core/Src/adBms6830ParseCreate.cpp ****       ic[curr_ic].fcell.fc_codes[12] = (data[0] + (data[1] << 8));
 2569              		.loc 1 732 7 view .LVU959
 2570              		.loc 1 732 47 is_stmt 0 view .LVU960
 2571 0138 2078     		ldrb	r0, [r4]	@ zero_extendqisi2
 2572              		.loc 1 732 58 view .LVU961
 2573 013a 94F801C0 		ldrb	ip, [r4, #1]	@ zero_extendqisi2
 2574              		.loc 1 732 17 view .LVU962
 2575 013e 4FF42872 		mov	r2, #672
 2576 0142 02FB05A2 		mla	r2, r2, r5, r10
 2577              		.loc 1 732 49 view .LVU963
 2578 0146 00EB0C20 		add	r0, r0, ip, lsl #8
 2579              		.loc 1 732 38 view .LVU964
 2580 014a A2F89800 		strh	r0, [r2, #152]	@ movhi
 733:Core/Src/adBms6830ParseCreate.cpp ****       ic[curr_ic].fcell.fc_codes[13] = (data[2] + (data[3] << 8));
 2581              		.loc 1 733 7 is_stmt 1 view .LVU965
 2582              		.loc 1 733 47 is_stmt 0 view .LVU966
 2583 014e A078     		ldrb	r0, [r4, #2]	@ zero_extendqisi2
 2584              		.loc 1 733 58 view .LVU967
 2585 0150 E578     		ldrb	r5, [r4, #3]	@ zero_extendqisi2
 2586              	.LVL176:
 2587              		.loc 1 733 49 view .LVU968
 2588 0152 00EB0520 		add	r0, r0, r5, lsl #8
 2589              		.loc 1 733 38 view .LVU969
 2590 0156 A2F89A00 		strh	r0, [r2, #154]	@ movhi
 734:Core/Src/adBms6830ParseCreate.cpp ****       ic[curr_ic].fcell.fc_codes[14] = (data[4] + (data[5] << 8));
ARM GAS  C:\Users\huawei\AppData\Local\Temp\ccwYaMVL.s 			page 61


 2591              		.loc 1 734 7 is_stmt 1 view .LVU970
 2592              		.loc 1 734 47 is_stmt 0 view .LVU971
 2593 015a 2079     		ldrb	r0, [r4, #4]	@ zero_extendqisi2
 2594              		.loc 1 734 58 view .LVU972
 2595 015c 6579     		ldrb	r5, [r4, #5]	@ zero_extendqisi2
 2596              		.loc 1 734 49 view .LVU973
 2597 015e 00EB0520 		add	r0, r0, r5, lsl #8
 2598              		.loc 1 734 38 view .LVU974
 2599 0162 A2F89C00 		strh	r0, [r2, #156]	@ movhi
 735:Core/Src/adBms6830ParseCreate.cpp ****       break;
 2600              		.loc 1 735 7 is_stmt 1 view .LVU975
 2601 0166 7EE7     		b	.L117
 2602              	.LVL177:
 2603              	.L118:
 736:Core/Src/adBms6830ParseCreate.cpp **** 
 737:Core/Src/adBms6830ParseCreate.cpp ****     case F: /* Cell Register group F */
 2604              		.loc 1 737 5 view .LVU976
 738:Core/Src/adBms6830ParseCreate.cpp ****       ic[curr_ic].fcell.fc_codes[15] = (data[0] + (data[1] << 8));
 2605              		.loc 1 738 7 view .LVU977
 2606              		.loc 1 738 47 is_stmt 0 view .LVU978
 2607 0168 2078     		ldrb	r0, [r4]	@ zero_extendqisi2
 2608              		.loc 1 738 58 view .LVU979
 2609 016a 94F801C0 		ldrb	ip, [r4, #1]	@ zero_extendqisi2
 2610              		.loc 1 738 17 view .LVU980
 2611 016e 4FF42872 		mov	r2, #672
 2612 0172 02FB05A2 		mla	r2, r2, r5, r10
 2613              		.loc 1 738 49 view .LVU981
 2614 0176 00EB0C20 		add	r0, r0, ip, lsl #8
 2615              		.loc 1 738 38 view .LVU982
 2616 017a A2F89E00 		strh	r0, [r2, #158]	@ movhi
 739:Core/Src/adBms6830ParseCreate.cpp ****       break;
 2617              		.loc 1 739 7 is_stmt 1 view .LVU983
 2618 017e 72E7     		b	.L117
 2619              	.L125:
 740:Core/Src/adBms6830ParseCreate.cpp **** 
 741:Core/Src/adBms6830ParseCreate.cpp ****     case ALL_GRP: /* Cell Register group ALL */
 2620              		.loc 1 741 5 view .LVU984
 742:Core/Src/adBms6830ParseCreate.cpp ****       ic[curr_ic].fcell.fc_codes[0] = (data[0] + (data[1] << 8));
 2621              		.loc 1 742 7 view .LVU985
 2622              		.loc 1 742 46 is_stmt 0 view .LVU986
 2623 0180 2078     		ldrb	r0, [r4]	@ zero_extendqisi2
 2624              		.loc 1 742 57 view .LVU987
 2625 0182 94F801C0 		ldrb	ip, [r4, #1]	@ zero_extendqisi2
 2626              		.loc 1 742 17 view .LVU988
 2627 0186 4FF42872 		mov	r2, #672
 2628 018a 02FB05A2 		mla	r2, r2, r5, r10
 2629              		.loc 1 742 48 view .LVU989
 2630 018e 00EB0C20 		add	r0, r0, ip, lsl #8
 2631              		.loc 1 742 37 view .LVU990
 2632 0192 A2F88000 		strh	r0, [r2, #128]	@ movhi
 743:Core/Src/adBms6830ParseCreate.cpp ****       ic[curr_ic].fcell.fc_codes[1] = (data[2] + (data[3] << 8));
 2633              		.loc 1 743 7 is_stmt 1 view .LVU991
 2634              		.loc 1 743 46 is_stmt 0 view .LVU992
 2635 0196 A078     		ldrb	r0, [r4, #2]	@ zero_extendqisi2
 2636              		.loc 1 743 57 view .LVU993
 2637 0198 E578     		ldrb	r5, [r4, #3]	@ zero_extendqisi2
 2638              	.LVL178:
ARM GAS  C:\Users\huawei\AppData\Local\Temp\ccwYaMVL.s 			page 62


 2639              		.loc 1 743 48 view .LVU994
 2640 019a 00EB0520 		add	r0, r0, r5, lsl #8
 2641              		.loc 1 743 37 view .LVU995
 2642 019e A2F88200 		strh	r0, [r2, #130]	@ movhi
 744:Core/Src/adBms6830ParseCreate.cpp ****       ic[curr_ic].fcell.fc_codes[2] = (data[4] + (data[5] << 8));
 2643              		.loc 1 744 7 is_stmt 1 view .LVU996
 2644              		.loc 1 744 46 is_stmt 0 view .LVU997
 2645 01a2 2079     		ldrb	r0, [r4, #4]	@ zero_extendqisi2
 2646              		.loc 1 744 57 view .LVU998
 2647 01a4 6579     		ldrb	r5, [r4, #5]	@ zero_extendqisi2
 2648              		.loc 1 744 48 view .LVU999
 2649 01a6 00EB0520 		add	r0, r0, r5, lsl #8
 2650              		.loc 1 744 37 view .LVU1000
 2651 01aa A2F88400 		strh	r0, [r2, #132]	@ movhi
 745:Core/Src/adBms6830ParseCreate.cpp ****       ic[curr_ic].fcell.fc_codes[3] = (data[6] + (data[7] << 8));
 2652              		.loc 1 745 7 is_stmt 1 view .LVU1001
 2653              		.loc 1 745 46 is_stmt 0 view .LVU1002
 2654 01ae A079     		ldrb	r0, [r4, #6]	@ zero_extendqisi2
 2655              		.loc 1 745 57 view .LVU1003
 2656 01b0 E579     		ldrb	r5, [r4, #7]	@ zero_extendqisi2
 2657              		.loc 1 745 48 view .LVU1004
 2658 01b2 00EB0520 		add	r0, r0, r5, lsl #8
 2659              		.loc 1 745 37 view .LVU1005
 2660 01b6 A2F88600 		strh	r0, [r2, #134]	@ movhi
 746:Core/Src/adBms6830ParseCreate.cpp ****       ic[curr_ic].fcell.fc_codes[4] = (data[8] + (data[9] << 8));
 2661              		.loc 1 746 7 is_stmt 1 view .LVU1006
 2662              		.loc 1 746 46 is_stmt 0 view .LVU1007
 2663 01ba 207A     		ldrb	r0, [r4, #8]	@ zero_extendqisi2
 2664              		.loc 1 746 57 view .LVU1008
 2665 01bc 657A     		ldrb	r5, [r4, #9]	@ zero_extendqisi2
 2666              		.loc 1 746 48 view .LVU1009
 2667 01be 00EB0520 		add	r0, r0, r5, lsl #8
 2668              		.loc 1 746 37 view .LVU1010
 2669 01c2 A2F88800 		strh	r0, [r2, #136]	@ movhi
 747:Core/Src/adBms6830ParseCreate.cpp ****       ic[curr_ic].fcell.fc_codes[5] = (data[10] + (data[11] << 8));
 2670              		.loc 1 747 7 is_stmt 1 view .LVU1011
 2671              		.loc 1 747 47 is_stmt 0 view .LVU1012
 2672 01c6 A07A     		ldrb	r0, [r4, #10]	@ zero_extendqisi2
 2673              		.loc 1 747 59 view .LVU1013
 2674 01c8 E57A     		ldrb	r5, [r4, #11]	@ zero_extendqisi2
 2675              		.loc 1 747 49 view .LVU1014
 2676 01ca 00EB0520 		add	r0, r0, r5, lsl #8
 2677              		.loc 1 747 37 view .LVU1015
 2678 01ce A2F88A00 		strh	r0, [r2, #138]	@ movhi
 748:Core/Src/adBms6830ParseCreate.cpp ****       ic[curr_ic].fcell.fc_codes[6] = (data[12] + (data[13] << 8));
 2679              		.loc 1 748 7 is_stmt 1 view .LVU1016
 2680              		.loc 1 748 47 is_stmt 0 view .LVU1017
 2681 01d2 207B     		ldrb	r0, [r4, #12]	@ zero_extendqisi2
 2682              		.loc 1 748 59 view .LVU1018
 2683 01d4 657B     		ldrb	r5, [r4, #13]	@ zero_extendqisi2
 2684              		.loc 1 748 49 view .LVU1019
 2685 01d6 00EB0520 		add	r0, r0, r5, lsl #8
 2686              		.loc 1 748 37 view .LVU1020
 2687 01da A2F88C00 		strh	r0, [r2, #140]	@ movhi
 749:Core/Src/adBms6830ParseCreate.cpp ****       ic[curr_ic].fcell.fc_codes[7] = (data[14] + (data[15] << 8));
 2688              		.loc 1 749 7 is_stmt 1 view .LVU1021
 2689              		.loc 1 749 47 is_stmt 0 view .LVU1022
ARM GAS  C:\Users\huawei\AppData\Local\Temp\ccwYaMVL.s 			page 63


 2690 01de A07B     		ldrb	r0, [r4, #14]	@ zero_extendqisi2
 2691              		.loc 1 749 59 view .LVU1023
 2692 01e0 E57B     		ldrb	r5, [r4, #15]	@ zero_extendqisi2
 2693              		.loc 1 749 49 view .LVU1024
 2694 01e2 00EB0520 		add	r0, r0, r5, lsl #8
 2695              		.loc 1 749 37 view .LVU1025
 2696 01e6 A2F88E00 		strh	r0, [r2, #142]	@ movhi
 750:Core/Src/adBms6830ParseCreate.cpp ****       ic[curr_ic].fcell.fc_codes[8] = (data[16] + (data[17] << 8));
 2697              		.loc 1 750 7 is_stmt 1 view .LVU1026
 2698              		.loc 1 750 47 is_stmt 0 view .LVU1027
 2699 01ea 207C     		ldrb	r0, [r4, #16]	@ zero_extendqisi2
 2700              		.loc 1 750 59 view .LVU1028
 2701 01ec 657C     		ldrb	r5, [r4, #17]	@ zero_extendqisi2
 2702              		.loc 1 750 49 view .LVU1029
 2703 01ee 00EB0520 		add	r0, r0, r5, lsl #8
 2704              		.loc 1 750 37 view .LVU1030
 2705 01f2 A2F89000 		strh	r0, [r2, #144]	@ movhi
 751:Core/Src/adBms6830ParseCreate.cpp ****       ic[curr_ic].fcell.fc_codes[9] =  (data[18] + (data[19] << 8));
 2706              		.loc 1 751 7 is_stmt 1 view .LVU1031
 2707              		.loc 1 751 48 is_stmt 0 view .LVU1032
 2708 01f6 A07C     		ldrb	r0, [r4, #18]	@ zero_extendqisi2
 2709              		.loc 1 751 60 view .LVU1033
 2710 01f8 E57C     		ldrb	r5, [r4, #19]	@ zero_extendqisi2
 2711              		.loc 1 751 50 view .LVU1034
 2712 01fa 00EB0520 		add	r0, r0, r5, lsl #8
 2713              		.loc 1 751 37 view .LVU1035
 2714 01fe A2F89200 		strh	r0, [r2, #146]	@ movhi
 752:Core/Src/adBms6830ParseCreate.cpp ****       ic[curr_ic].fcell.fc_codes[10] = (data[20] + (data[21] << 8));
 2715              		.loc 1 752 7 is_stmt 1 view .LVU1036
 2716              		.loc 1 752 48 is_stmt 0 view .LVU1037
 2717 0202 207D     		ldrb	r0, [r4, #20]	@ zero_extendqisi2
 2718              		.loc 1 752 60 view .LVU1038
 2719 0204 657D     		ldrb	r5, [r4, #21]	@ zero_extendqisi2
 2720              		.loc 1 752 50 view .LVU1039
 2721 0206 00EB0520 		add	r0, r0, r5, lsl #8
 2722              		.loc 1 752 38 view .LVU1040
 2723 020a A2F89400 		strh	r0, [r2, #148]	@ movhi
 753:Core/Src/adBms6830ParseCreate.cpp ****       ic[curr_ic].fcell.fc_codes[11] = (data[22] + (data[23] << 8));
 2724              		.loc 1 753 7 is_stmt 1 view .LVU1041
 2725              		.loc 1 753 48 is_stmt 0 view .LVU1042
 2726 020e A07D     		ldrb	r0, [r4, #22]	@ zero_extendqisi2
 2727              		.loc 1 753 60 view .LVU1043
 2728 0210 E57D     		ldrb	r5, [r4, #23]	@ zero_extendqisi2
 2729              		.loc 1 753 50 view .LVU1044
 2730 0212 00EB0520 		add	r0, r0, r5, lsl #8
 2731              		.loc 1 753 38 view .LVU1045
 2732 0216 A2F89600 		strh	r0, [r2, #150]	@ movhi
 754:Core/Src/adBms6830ParseCreate.cpp ****       ic[curr_ic].fcell.fc_codes[12] = (data[24] + (data[25] << 8));
 2733              		.loc 1 754 7 is_stmt 1 view .LVU1046
 2734              		.loc 1 754 48 is_stmt 0 view .LVU1047
 2735 021a 207E     		ldrb	r0, [r4, #24]	@ zero_extendqisi2
 2736              		.loc 1 754 60 view .LVU1048
 2737 021c 657E     		ldrb	r5, [r4, #25]	@ zero_extendqisi2
 2738              		.loc 1 754 50 view .LVU1049
 2739 021e 00EB0520 		add	r0, r0, r5, lsl #8
 2740              		.loc 1 754 38 view .LVU1050
 2741 0222 A2F89800 		strh	r0, [r2, #152]	@ movhi
ARM GAS  C:\Users\huawei\AppData\Local\Temp\ccwYaMVL.s 			page 64


 755:Core/Src/adBms6830ParseCreate.cpp ****       ic[curr_ic].fcell.fc_codes[13] = (data[26] + (data[27] << 8));
 2742              		.loc 1 755 7 is_stmt 1 view .LVU1051
 2743              		.loc 1 755 48 is_stmt 0 view .LVU1052
 2744 0226 A07E     		ldrb	r0, [r4, #26]	@ zero_extendqisi2
 2745              		.loc 1 755 60 view .LVU1053
 2746 0228 E57E     		ldrb	r5, [r4, #27]	@ zero_extendqisi2
 2747              		.loc 1 755 50 view .LVU1054
 2748 022a 00EB0520 		add	r0, r0, r5, lsl #8
 2749              		.loc 1 755 38 view .LVU1055
 2750 022e A2F89A00 		strh	r0, [r2, #154]	@ movhi
 756:Core/Src/adBms6830ParseCreate.cpp ****       ic[curr_ic].fcell.fc_codes[14] = (data[28] + (data[29] << 8));
 2751              		.loc 1 756 7 is_stmt 1 view .LVU1056
 2752              		.loc 1 756 48 is_stmt 0 view .LVU1057
 2753 0232 207F     		ldrb	r0, [r4, #28]	@ zero_extendqisi2
 2754              		.loc 1 756 60 view .LVU1058
 2755 0234 657F     		ldrb	r5, [r4, #29]	@ zero_extendqisi2
 2756              		.loc 1 756 50 view .LVU1059
 2757 0236 00EB0520 		add	r0, r0, r5, lsl #8
 2758              		.loc 1 756 38 view .LVU1060
 2759 023a A2F89C00 		strh	r0, [r2, #156]	@ movhi
 757:Core/Src/adBms6830ParseCreate.cpp ****       ic[curr_ic].fcell.fc_codes[15] = (data[30] + (data[31] << 8));
 2760              		.loc 1 757 7 is_stmt 1 view .LVU1061
 2761              		.loc 1 757 48 is_stmt 0 view .LVU1062
 2762 023e A07F     		ldrb	r0, [r4, #30]	@ zero_extendqisi2
 2763              		.loc 1 757 60 view .LVU1063
 2764 0240 E57F     		ldrb	r5, [r4, #31]	@ zero_extendqisi2
 2765              		.loc 1 757 50 view .LVU1064
 2766 0242 00EB0520 		add	r0, r0, r5, lsl #8
 2767              		.loc 1 757 38 view .LVU1065
 2768 0246 A2F89E00 		strh	r0, [r2, #158]	@ movhi
 758:Core/Src/adBms6830ParseCreate.cpp ****       break;
 2769              		.loc 1 758 7 is_stmt 1 view .LVU1066
 2770 024a 0CE7     		b	.L117
 2771              	.LVL179:
 2772              	.L132:
 2773              		.loc 1 758 7 is_stmt 0 view .LVU1067
 2774              	.LBE22:
 759:Core/Src/adBms6830ParseCreate.cpp **** 
 760:Core/Src/adBms6830ParseCreate.cpp ****     default:
 761:Core/Src/adBms6830ParseCreate.cpp ****       break;
 762:Core/Src/adBms6830ParseCreate.cpp ****     }
 763:Core/Src/adBms6830ParseCreate.cpp ****   }
 764:Core/Src/adBms6830ParseCreate.cpp ****   free(data);
 2775              		.loc 1 764 3 is_stmt 1 view .LVU1068
 2776              		.loc 1 764 7 is_stmt 0 view .LVU1069
 2777 024c 2046     		mov	r0, r4
 2778 024e FFF7FEFF 		bl	free
 2779              	.LVL180:
 765:Core/Src/adBms6830ParseCreate.cpp **** }
 2780              		.loc 1 765 1 view .LVU1070
 2781 0252 BDE8F88F 		pop	{r3, r4, r5, r6, r7, r8, r9, r10, fp, pc}
 2782              	.LVL181:
 2783              	.L134:
 2784              		.loc 1 765 1 view .LVU1071
 2785 0256 00BF     		.align	2
 2786              	.L133:
 2787 0258 00000000 		.word	.LC3
ARM GAS  C:\Users\huawei\AppData\Local\Temp\ccwYaMVL.s 			page 65


 2788              		.cfi_endproc
 2789              	.LFE258:
 2790              		.fnend
 2792              		.section	.rodata._Z17adBms6830ParseAuxhP9cell_asic3GRPPh.str1.4,"aMS",%progbits,1
 2793              		.align	2
 2794              	.LC4:
 2795 0000 20466169 		.ascii	" Failed to allocate parse aux memory \000"
 2795      6C656420 
 2795      746F2061 
 2795      6C6C6F63 
 2795      61746520 
 2796              		.section	.text._Z17adBms6830ParseAuxhP9cell_asic3GRPPh,"ax",%progbits
 2797              		.align	1
 2798              		.global	_Z17adBms6830ParseAuxhP9cell_asic3GRPPh
 2799              		.syntax unified
 2800              		.thumb
 2801              		.thumb_func
 2803              	_Z17adBms6830ParseAuxhP9cell_asic3GRPPh:
 2804              		.fnstart
 2805              	.LVL182:
 2806              	.LFB259:
 766:Core/Src/adBms6830ParseCreate.cpp **** 
 767:Core/Src/adBms6830ParseCreate.cpp **** /**
 768:Core/Src/adBms6830ParseCreate.cpp ****  *******************************************************************************
 769:Core/Src/adBms6830ParseCreate.cpp ****  * Function: adBms6830ParseAux
 770:Core/Src/adBms6830ParseCreate.cpp ****  * @brief Parse aux voltages
 771:Core/Src/adBms6830ParseCreate.cpp ****  *
 772:Core/Src/adBms6830ParseCreate.cpp ****  * @details This function Parse the recived aux voltages register A,B,C and D data.
 773:Core/Src/adBms6830ParseCreate.cpp ****  *
 774:Core/Src/adBms6830ParseCreate.cpp ****  * Parameters:
 775:Core/Src/adBms6830ParseCreate.cpp ****  *
 776:Core/Src/adBms6830ParseCreate.cpp ****  * @param [in]  tIC                     Total IC
 777:Core/Src/adBms6830ParseCreate.cpp ****  *
 778:Core/Src/adBms6830ParseCreate.cpp ****  * @param [in]  *ic                     cell_asic ic structure pointer
 779:Core/Src/adBms6830ParseCreate.cpp ****  *
 780:Core/Src/adBms6830ParseCreate.cpp ****  * @param [in]  grp                     Enum type register group
 781:Core/Src/adBms6830ParseCreate.cpp ****  *
 782:Core/Src/adBms6830ParseCreate.cpp ****  * @param [in]  *aux_data               Aux voltages data pointer
 783:Core/Src/adBms6830ParseCreate.cpp ****  *
 784:Core/Src/adBms6830ParseCreate.cpp ****  * @return None
 785:Core/Src/adBms6830ParseCreate.cpp ****  *
 786:Core/Src/adBms6830ParseCreate.cpp ****  *******************************************************************************
 787:Core/Src/adBms6830ParseCreate.cpp **** */
 788:Core/Src/adBms6830ParseCreate.cpp **** void adBms6830ParseAux(uint8_t tIC, cell_asic *ic, GRP grp, uint8_t *aux_data)
 789:Core/Src/adBms6830ParseCreate.cpp **** {
 2807              		.loc 1 789 1 is_stmt 1 view -0
 2808              		.cfi_startproc
 2809              		@ args = 0, pretend = 0, frame = 0
 2810              		@ frame_needed = 0, uses_anonymous_args = 0
 2811              		.loc 1 789 1 is_stmt 0 view .LVU1073
 2812 0000 2DE9F84F 		push	{r3, r4, r5, r6, r7, r8, r9, r10, fp, lr}
 2813              		.save {r3, r4, r5, r6, r7, r8, r9, r10, fp, lr}
 2814              	.LCFI11:
 2815              		.cfi_def_cfa_offset 40
 2816              		.cfi_offset 3, -40
 2817              		.cfi_offset 4, -36
 2818              		.cfi_offset 5, -32
ARM GAS  C:\Users\huawei\AppData\Local\Temp\ccwYaMVL.s 			page 66


 2819              		.cfi_offset 6, -28
 2820              		.cfi_offset 7, -24
 2821              		.cfi_offset 8, -20
 2822              		.cfi_offset 9, -16
 2823              		.cfi_offset 10, -12
 2824              		.cfi_offset 11, -8
 2825              		.cfi_offset 14, -4
 2826 0004 0746     		mov	r7, r0
 2827 0006 8A46     		mov	r10, r1
 2828 0008 9946     		mov	r9, r3
 790:Core/Src/adBms6830ParseCreate.cpp ****   uint8_t *data, data_size, address = 0;
 2829              		.loc 1 790 3 is_stmt 1 view .LVU1074
 2830              	.LVL183:
 791:Core/Src/adBms6830ParseCreate.cpp ****   if(grp == ALL_GRP){data_size = (RDASALL_SIZE-44);}  /* RDASALL_SIZE 68 byte - (RAUX 20 byte + STA
 2831              		.loc 1 791 3 view .LVU1075
 2832 000a 1646     		mov	r6, r2
 2833 000c 5AB9     		cbnz	r2, .L146
 2834              		.loc 1 791 32 is_stmt 0 view .LVU1076
 2835 000e 4FF01A08 		mov	r8, #26
 2836              	.L136:
 2837              	.LVL184:
 792:Core/Src/adBms6830ParseCreate.cpp ****   else {data_size = RX_DATA;}
 793:Core/Src/adBms6830ParseCreate.cpp ****   data = (uint8_t *)calloc(data_size, sizeof(uint8_t));
 2838              		.loc 1 793 3 is_stmt 1 view .LVU1077
 2839              		.loc 1 793 27 is_stmt 0 view .LVU1078
 2840 0012 C346     		mov	fp, r8
 2841 0014 0121     		movs	r1, #1
 2842              	.LVL185:
 2843              		.loc 1 793 27 view .LVU1079
 2844 0016 4046     		mov	r0, r8
 2845              	.LVL186:
 2846              		.loc 1 793 27 view .LVU1080
 2847 0018 FFF7FEFF 		bl	calloc
 2848              	.LVL187:
 794:Core/Src/adBms6830ParseCreate.cpp ****   if(data == NULL)
 2849              		.loc 1 794 3 is_stmt 1 view .LVU1081
 2850 001c 0446     		mov	r4, r0
 2851 001e 28B1     		cbz	r0, .L150
 2852              	.LBB23:
 795:Core/Src/adBms6830ParseCreate.cpp ****   {
 796:Core/Src/adBms6830ParseCreate.cpp ****     #ifdef MBED
 797:Core/Src/adBms6830ParseCreate.cpp ****     pc.printf(" Failed to allocate parse aux memory \n");
 798:Core/Src/adBms6830ParseCreate.cpp ****     #else
 799:Core/Src/adBms6830ParseCreate.cpp ****     printf(" Failed to allocate parse aux memory \n");
 800:Core/Src/adBms6830ParseCreate.cpp ****     #endif
 801:Core/Src/adBms6830ParseCreate.cpp ****     exit(0);
 802:Core/Src/adBms6830ParseCreate.cpp ****   }
 803:Core/Src/adBms6830ParseCreate.cpp ****   for(uint8_t curr_ic = 0; curr_ic < tIC; curr_ic++)
 2853              		.loc 1 803 15 is_stmt 0 view .LVU1082
 2854 0020 0025     		movs	r5, #0
 2855              	.LBE23:
 790:Core/Src/adBms6830ParseCreate.cpp ****   if(grp == ALL_GRP){data_size = (RDASALL_SIZE-44);}  /* RDASALL_SIZE 68 byte - (RAUX 20 byte + STA
 2856              		.loc 1 790 29 view .LVU1083
 2857 0022 2946     		mov	r1, r5
 2858 0024 20E0     		b	.L137
 2859              	.LVL188:
 2860              	.L146:
ARM GAS  C:\Users\huawei\AppData\Local\Temp\ccwYaMVL.s 			page 67


 792:Core/Src/adBms6830ParseCreate.cpp ****   data = (uint8_t *)calloc(data_size, sizeof(uint8_t));
 2861              		.loc 1 792 19 view .LVU1084
 2862 0026 4FF00808 		mov	r8, #8
 2863 002a F2E7     		b	.L136
 2864              	.LVL189:
 2865              	.L150:
 799:Core/Src/adBms6830ParseCreate.cpp ****     #endif
 2866              		.loc 1 799 5 is_stmt 1 view .LVU1085
 799:Core/Src/adBms6830ParseCreate.cpp ****     #endif
 2867              		.loc 1 799 11 is_stmt 0 view .LVU1086
 2868 002c 6A48     		ldr	r0, .L152
 2869              	.LVL190:
 799:Core/Src/adBms6830ParseCreate.cpp ****     #endif
 2870              		.loc 1 799 11 view .LVU1087
 2871 002e FFF7FEFF 		bl	puts
 2872              	.LVL191:
 801:Core/Src/adBms6830ParseCreate.cpp ****   }
 2873              		.loc 1 801 5 is_stmt 1 view .LVU1088
 801:Core/Src/adBms6830ParseCreate.cpp ****   }
 2874              		.loc 1 801 9 is_stmt 0 view .LVU1089
 2875 0032 0020     		movs	r0, #0
 2876 0034 FFF7FEFF 		bl	exit
 2877              	.LVL192:
 2878              	.L143:
 2879              	.LBB24:
 804:Core/Src/adBms6830ParseCreate.cpp ****   {
 805:Core/Src/adBms6830ParseCreate.cpp ****     memcpy(&data[0], &aux_data[address], data_size); /* dst , src , size */
 806:Core/Src/adBms6830ParseCreate.cpp ****     address = ((curr_ic+1) * (data_size));
 807:Core/Src/adBms6830ParseCreate.cpp ****     switch (grp)
 808:Core/Src/adBms6830ParseCreate.cpp ****     {
 809:Core/Src/adBms6830ParseCreate.cpp ****     case A: /* Aux Register group A */
 2880              		.loc 1 809 5 is_stmt 1 view .LVU1090
 810:Core/Src/adBms6830ParseCreate.cpp ****       ic[curr_ic].aux.a_codes[0] = (data[0] + (data[1] << 8));
 2881              		.loc 1 810 7 view .LVU1091
 2882              		.loc 1 810 43 is_stmt 0 view .LVU1092
 2883 0038 2078     		ldrb	r0, [r4]	@ zero_extendqisi2
 2884              		.loc 1 810 54 view .LVU1093
 2885 003a 94F801C0 		ldrb	ip, [r4, #1]	@ zero_extendqisi2
 2886              		.loc 1 810 17 view .LVU1094
 2887 003e 4FF42872 		mov	r2, #672
 2888 0042 02FB05A2 		mla	r2, r2, r5, r10
 2889              		.loc 1 810 45 view .LVU1095
 2890 0046 00EB0C20 		add	r0, r0, ip, lsl #8
 2891              		.loc 1 810 34 view .LVU1096
 2892 004a A2F8A000 		strh	r0, [r2, #160]	@ movhi
 811:Core/Src/adBms6830ParseCreate.cpp ****       ic[curr_ic].aux.a_codes[1] = (data[2] + (data[3] << 8));
 2893              		.loc 1 811 7 is_stmt 1 view .LVU1097
 2894              		.loc 1 811 43 is_stmt 0 view .LVU1098
 2895 004e A078     		ldrb	r0, [r4, #2]	@ zero_extendqisi2
 2896              		.loc 1 811 54 view .LVU1099
 2897 0050 E578     		ldrb	r5, [r4, #3]	@ zero_extendqisi2
 2898              	.LVL193:
 2899              		.loc 1 811 45 view .LVU1100
 2900 0052 00EB0520 		add	r0, r0, r5, lsl #8
 2901              		.loc 1 811 34 view .LVU1101
 2902 0056 A2F8A200 		strh	r0, [r2, #162]	@ movhi
 812:Core/Src/adBms6830ParseCreate.cpp ****       ic[curr_ic].aux.a_codes[2] = (data[4] + (data[5] << 8));
ARM GAS  C:\Users\huawei\AppData\Local\Temp\ccwYaMVL.s 			page 68


 2903              		.loc 1 812 7 is_stmt 1 view .LVU1102
 2904              		.loc 1 812 43 is_stmt 0 view .LVU1103
 2905 005a 2079     		ldrb	r0, [r4, #4]	@ zero_extendqisi2
 2906              		.loc 1 812 54 view .LVU1104
 2907 005c 6579     		ldrb	r5, [r4, #5]	@ zero_extendqisi2
 2908              		.loc 1 812 45 view .LVU1105
 2909 005e 00EB0520 		add	r0, r0, r5, lsl #8
 2910              		.loc 1 812 34 view .LVU1106
 2911 0062 A2F8A400 		strh	r0, [r2, #164]	@ movhi
 813:Core/Src/adBms6830ParseCreate.cpp ****       break;
 2912              		.loc 1 813 7 is_stmt 1 view .LVU1107
 2913              	.L138:
 2914              		.loc 1 813 7 is_stmt 0 view .LVU1108
 2915              	.LBE24:
 792:Core/Src/adBms6830ParseCreate.cpp ****   data = (uint8_t *)calloc(data_size, sizeof(uint8_t));
 2916              		.loc 1 792 19 discriminator 1 view .LVU1109
 2917 0066 1D46     		mov	r5, r3
 2918              	.LVL194:
 2919              	.L137:
 2920              	.LBB25:
 803:Core/Src/adBms6830ParseCreate.cpp ****   {
 2921              		.loc 1 803 36 is_stmt 1 discriminator 1 view .LVU1110
 2922 0068 BD42     		cmp	r5, r7
 2923 006a 80F0AF80 		bcs	.L151
 805:Core/Src/adBms6830ParseCreate.cpp ****     address = ((curr_ic+1) * (data_size));
 2924              		.loc 1 805 5 view .LVU1111
 805:Core/Src/adBms6830ParseCreate.cpp ****     address = ((curr_ic+1) * (data_size));
 2925              		.loc 1 805 11 is_stmt 0 view .LVU1112
 2926 006e 5A46     		mov	r2, fp
 2927 0070 4944     		add	r1, r1, r9
 2928              	.LVL195:
 805:Core/Src/adBms6830ParseCreate.cpp ****     address = ((curr_ic+1) * (data_size));
 2929              		.loc 1 805 11 view .LVU1113
 2930 0072 2046     		mov	r0, r4
 2931 0074 FFF7FEFF 		bl	memcpy
 2932              	.LVL196:
 806:Core/Src/adBms6830ParseCreate.cpp ****     switch (grp)
 2933              		.loc 1 806 5 is_stmt 1 view .LVU1114
 806:Core/Src/adBms6830ParseCreate.cpp ****     switch (grp)
 2934              		.loc 1 806 13 is_stmt 0 view .LVU1115
 2935 0078 6B1C     		adds	r3, r5, #1
 2936 007a DBB2     		uxtb	r3, r3
 2937 007c 13FB08F1 		smulbb	r1, r3, r8
 2938 0080 C9B2     		uxtb	r1, r1
 2939              	.LVL197:
 807:Core/Src/adBms6830ParseCreate.cpp ****     {
 2940              		.loc 1 807 5 is_stmt 1 view .LVU1116
 2941 0082 042E     		cmp	r6, #4
 2942 0084 EFD8     		bhi	.L138
 2943 0086 01A2     		adr	r2, .L140
 2944 0088 52F826F0 		ldr	pc, [r2, r6, lsl #2]
 2945              		.p2align 2
 2946              	.L140:
 2947 008c 31010000 		.word	.L144+1
 2948 0090 39000000 		.word	.L143+1
 2949 0094 A1000000 		.word	.L142+1
 2950 0098 D1000000 		.word	.L141+1
ARM GAS  C:\Users\huawei\AppData\Local\Temp\ccwYaMVL.s 			page 69


 2951 009c 01010000 		.word	.L139+1
 2952              		.p2align 1
 2953              	.L142:
 814:Core/Src/adBms6830ParseCreate.cpp **** 
 815:Core/Src/adBms6830ParseCreate.cpp ****     case B: /* Aux Register group B */
 2954              		.loc 1 815 5 view .LVU1117
 816:Core/Src/adBms6830ParseCreate.cpp ****       ic[curr_ic].aux.a_codes[3] = (data[0] + (data[1] << 8));
 2955              		.loc 1 816 7 view .LVU1118
 2956              		.loc 1 816 43 is_stmt 0 view .LVU1119
 2957 00a0 2078     		ldrb	r0, [r4]	@ zero_extendqisi2
 2958              		.loc 1 816 54 view .LVU1120
 2959 00a2 94F801C0 		ldrb	ip, [r4, #1]	@ zero_extendqisi2
 2960              		.loc 1 816 17 view .LVU1121
 2961 00a6 4FF42872 		mov	r2, #672
 2962 00aa 02FB05A2 		mla	r2, r2, r5, r10
 2963              		.loc 1 816 45 view .LVU1122
 2964 00ae 00EB0C20 		add	r0, r0, ip, lsl #8
 2965              		.loc 1 816 34 view .LVU1123
 2966 00b2 A2F8A600 		strh	r0, [r2, #166]	@ movhi
 817:Core/Src/adBms6830ParseCreate.cpp ****       ic[curr_ic].aux.a_codes[4] = (data[2] + (data[3] << 8));
 2967              		.loc 1 817 7 is_stmt 1 view .LVU1124
 2968              		.loc 1 817 43 is_stmt 0 view .LVU1125
 2969 00b6 A078     		ldrb	r0, [r4, #2]	@ zero_extendqisi2
 2970              		.loc 1 817 54 view .LVU1126
 2971 00b8 E578     		ldrb	r5, [r4, #3]	@ zero_extendqisi2
 2972              	.LVL198:
 2973              		.loc 1 817 45 view .LVU1127
 2974 00ba 00EB0520 		add	r0, r0, r5, lsl #8
 2975              		.loc 1 817 34 view .LVU1128
 2976 00be A2F8A800 		strh	r0, [r2, #168]	@ movhi
 818:Core/Src/adBms6830ParseCreate.cpp ****       ic[curr_ic].aux.a_codes[5] = (data[4] + (data[5] << 8));
 2977              		.loc 1 818 7 is_stmt 1 view .LVU1129
 2978              		.loc 1 818 43 is_stmt 0 view .LVU1130
 2979 00c2 2079     		ldrb	r0, [r4, #4]	@ zero_extendqisi2
 2980              		.loc 1 818 54 view .LVU1131
 2981 00c4 6579     		ldrb	r5, [r4, #5]	@ zero_extendqisi2
 2982              		.loc 1 818 45 view .LVU1132
 2983 00c6 00EB0520 		add	r0, r0, r5, lsl #8
 2984              		.loc 1 818 34 view .LVU1133
 2985 00ca A2F8AA00 		strh	r0, [r2, #170]	@ movhi
 819:Core/Src/adBms6830ParseCreate.cpp ****       break;
 2986              		.loc 1 819 7 is_stmt 1 view .LVU1134
 2987 00ce CAE7     		b	.L138
 2988              	.LVL199:
 2989              	.L141:
 820:Core/Src/adBms6830ParseCreate.cpp **** 
 821:Core/Src/adBms6830ParseCreate.cpp ****     case C: /* Aux Register group C */
 2990              		.loc 1 821 5 view .LVU1135
 822:Core/Src/adBms6830ParseCreate.cpp ****       ic[curr_ic].aux.a_codes[6] = (data[0] + (data[1] << 8));
 2991              		.loc 1 822 7 view .LVU1136
 2992              		.loc 1 822 43 is_stmt 0 view .LVU1137
 2993 00d0 2078     		ldrb	r0, [r4]	@ zero_extendqisi2
 2994              		.loc 1 822 54 view .LVU1138
 2995 00d2 94F801C0 		ldrb	ip, [r4, #1]	@ zero_extendqisi2
 2996              		.loc 1 822 17 view .LVU1139
 2997 00d6 4FF42872 		mov	r2, #672
 2998 00da 02FB05A2 		mla	r2, r2, r5, r10
ARM GAS  C:\Users\huawei\AppData\Local\Temp\ccwYaMVL.s 			page 70


 2999              		.loc 1 822 45 view .LVU1140
 3000 00de 00EB0C20 		add	r0, r0, ip, lsl #8
 3001              		.loc 1 822 34 view .LVU1141
 3002 00e2 A2F8AC00 		strh	r0, [r2, #172]	@ movhi
 823:Core/Src/adBms6830ParseCreate.cpp ****       ic[curr_ic].aux.a_codes[7] = (data[2] + (data[3] << 8));
 3003              		.loc 1 823 7 is_stmt 1 view .LVU1142
 3004              		.loc 1 823 43 is_stmt 0 view .LVU1143
 3005 00e6 A078     		ldrb	r0, [r4, #2]	@ zero_extendqisi2
 3006              		.loc 1 823 54 view .LVU1144
 3007 00e8 E578     		ldrb	r5, [r4, #3]	@ zero_extendqisi2
 3008              	.LVL200:
 3009              		.loc 1 823 45 view .LVU1145
 3010 00ea 00EB0520 		add	r0, r0, r5, lsl #8
 3011              		.loc 1 823 34 view .LVU1146
 3012 00ee A2F8AE00 		strh	r0, [r2, #174]	@ movhi
 824:Core/Src/adBms6830ParseCreate.cpp ****       ic[curr_ic].aux.a_codes[8] = (data[4] + (data[5] << 8));
 3013              		.loc 1 824 7 is_stmt 1 view .LVU1147
 3014              		.loc 1 824 43 is_stmt 0 view .LVU1148
 3015 00f2 2079     		ldrb	r0, [r4, #4]	@ zero_extendqisi2
 3016              		.loc 1 824 54 view .LVU1149
 3017 00f4 6579     		ldrb	r5, [r4, #5]	@ zero_extendqisi2
 3018              		.loc 1 824 45 view .LVU1150
 3019 00f6 00EB0520 		add	r0, r0, r5, lsl #8
 3020              		.loc 1 824 34 view .LVU1151
 3021 00fa A2F8B000 		strh	r0, [r2, #176]	@ movhi
 825:Core/Src/adBms6830ParseCreate.cpp ****       break;
 3022              		.loc 1 825 7 is_stmt 1 view .LVU1152
 3023 00fe B2E7     		b	.L138
 3024              	.LVL201:
 3025              	.L139:
 826:Core/Src/adBms6830ParseCreate.cpp **** 
 827:Core/Src/adBms6830ParseCreate.cpp ****     case D: /* Aux Register group D */
 3026              		.loc 1 827 5 view .LVU1153
 828:Core/Src/adBms6830ParseCreate.cpp ****       ic[curr_ic].aux.a_codes[9] =  (data[0] + (data[1] << 8));
 3027              		.loc 1 828 7 view .LVU1154
 3028              		.loc 1 828 44 is_stmt 0 view .LVU1155
 3029 0100 2078     		ldrb	r0, [r4]	@ zero_extendqisi2
 3030              		.loc 1 828 55 view .LVU1156
 3031 0102 94F801C0 		ldrb	ip, [r4, #1]	@ zero_extendqisi2
 3032              		.loc 1 828 17 view .LVU1157
 3033 0106 4FF42872 		mov	r2, #672
 3034 010a 02FB05A2 		mla	r2, r2, r5, r10
 3035              		.loc 1 828 46 view .LVU1158
 3036 010e 00EB0C20 		add	r0, r0, ip, lsl #8
 3037              		.loc 1 828 34 view .LVU1159
 3038 0112 A2F8B200 		strh	r0, [r2, #178]	@ movhi
 829:Core/Src/adBms6830ParseCreate.cpp ****       ic[curr_ic].aux.a_codes[10] =  (data[2] + (data[3] << 8));
 3039              		.loc 1 829 7 is_stmt 1 view .LVU1160
 3040              		.loc 1 829 45 is_stmt 0 view .LVU1161
 3041 0116 A078     		ldrb	r0, [r4, #2]	@ zero_extendqisi2
 3042              		.loc 1 829 56 view .LVU1162
 3043 0118 E578     		ldrb	r5, [r4, #3]	@ zero_extendqisi2
 3044              	.LVL202:
 3045              		.loc 1 829 47 view .LVU1163
 3046 011a 00EB0520 		add	r0, r0, r5, lsl #8
 3047              		.loc 1 829 35 view .LVU1164
 3048 011e A2F8B400 		strh	r0, [r2, #180]	@ movhi
ARM GAS  C:\Users\huawei\AppData\Local\Temp\ccwYaMVL.s 			page 71


 830:Core/Src/adBms6830ParseCreate.cpp ****       ic[curr_ic].aux.a_codes[11] =  (data[4] + (data[5] << 8));
 3049              		.loc 1 830 7 is_stmt 1 view .LVU1165
 3050              		.loc 1 830 45 is_stmt 0 view .LVU1166
 3051 0122 2079     		ldrb	r0, [r4, #4]	@ zero_extendqisi2
 3052              		.loc 1 830 56 view .LVU1167
 3053 0124 6579     		ldrb	r5, [r4, #5]	@ zero_extendqisi2
 3054              		.loc 1 830 47 view .LVU1168
 3055 0126 00EB0520 		add	r0, r0, r5, lsl #8
 3056              		.loc 1 830 35 view .LVU1169
 3057 012a A2F8B600 		strh	r0, [r2, #182]	@ movhi
 831:Core/Src/adBms6830ParseCreate.cpp ****       break;
 3058              		.loc 1 831 7 is_stmt 1 view .LVU1170
 3059 012e 9AE7     		b	.L138
 3060              	.LVL203:
 3061              	.L144:
 832:Core/Src/adBms6830ParseCreate.cpp **** 
 833:Core/Src/adBms6830ParseCreate.cpp ****    case ALL_GRP: /* Aux Register group ALL */
 3062              		.loc 1 833 4 view .LVU1171
 834:Core/Src/adBms6830ParseCreate.cpp ****       ic[curr_ic].aux.a_codes[0]  = (data[0] + (data[1] << 8));
 3063              		.loc 1 834 7 view .LVU1172
 3064              		.loc 1 834 44 is_stmt 0 view .LVU1173
 3065 0130 2078     		ldrb	r0, [r4]	@ zero_extendqisi2
 3066              		.loc 1 834 55 view .LVU1174
 3067 0132 94F801C0 		ldrb	ip, [r4, #1]	@ zero_extendqisi2
 3068              		.loc 1 834 17 view .LVU1175
 3069 0136 4FF42872 		mov	r2, #672
 3070 013a 02FB05A2 		mla	r2, r2, r5, r10
 3071              		.loc 1 834 46 view .LVU1176
 3072 013e 00EB0C20 		add	r0, r0, ip, lsl #8
 3073              		.loc 1 834 35 view .LVU1177
 3074 0142 A2F8A000 		strh	r0, [r2, #160]	@ movhi
 835:Core/Src/adBms6830ParseCreate.cpp ****       ic[curr_ic].aux.a_codes[1]  = (data[2] + (data[3] << 8));
 3075              		.loc 1 835 7 is_stmt 1 view .LVU1178
 3076              		.loc 1 835 44 is_stmt 0 view .LVU1179
 3077 0146 A078     		ldrb	r0, [r4, #2]	@ zero_extendqisi2
 3078              		.loc 1 835 55 view .LVU1180
 3079 0148 E578     		ldrb	r5, [r4, #3]	@ zero_extendqisi2
 3080              	.LVL204:
 3081              		.loc 1 835 46 view .LVU1181
 3082 014a 00EB0520 		add	r0, r0, r5, lsl #8
 3083              		.loc 1 835 35 view .LVU1182
 3084 014e A2F8A200 		strh	r0, [r2, #162]	@ movhi
 836:Core/Src/adBms6830ParseCreate.cpp ****       ic[curr_ic].aux.a_codes[2]  = (data[4] + (data[5] << 8));
 3085              		.loc 1 836 7 is_stmt 1 view .LVU1183
 3086              		.loc 1 836 44 is_stmt 0 view .LVU1184
 3087 0152 2079     		ldrb	r0, [r4, #4]	@ zero_extendqisi2
 3088              		.loc 1 836 55 view .LVU1185
 3089 0154 6579     		ldrb	r5, [r4, #5]	@ zero_extendqisi2
 3090              		.loc 1 836 46 view .LVU1186
 3091 0156 00EB0520 		add	r0, r0, r5, lsl #8
 3092              		.loc 1 836 35 view .LVU1187
 3093 015a A2F8A400 		strh	r0, [r2, #164]	@ movhi
 837:Core/Src/adBms6830ParseCreate.cpp ****       ic[curr_ic].aux.a_codes[3]  = (data[6] + (data[7] << 8));
 3094              		.loc 1 837 7 is_stmt 1 view .LVU1188
 3095              		.loc 1 837 44 is_stmt 0 view .LVU1189
 3096 015e A079     		ldrb	r0, [r4, #6]	@ zero_extendqisi2
 3097              		.loc 1 837 55 view .LVU1190
ARM GAS  C:\Users\huawei\AppData\Local\Temp\ccwYaMVL.s 			page 72


 3098 0160 E579     		ldrb	r5, [r4, #7]	@ zero_extendqisi2
 3099              		.loc 1 837 46 view .LVU1191
 3100 0162 00EB0520 		add	r0, r0, r5, lsl #8
 3101              		.loc 1 837 35 view .LVU1192
 3102 0166 A2F8A600 		strh	r0, [r2, #166]	@ movhi
 838:Core/Src/adBms6830ParseCreate.cpp ****       ic[curr_ic].aux.a_codes[4]  = (data[8] + (data[9] << 8));
 3103              		.loc 1 838 7 is_stmt 1 view .LVU1193
 3104              		.loc 1 838 44 is_stmt 0 view .LVU1194
 3105 016a 207A     		ldrb	r0, [r4, #8]	@ zero_extendqisi2
 3106              		.loc 1 838 55 view .LVU1195
 3107 016c 657A     		ldrb	r5, [r4, #9]	@ zero_extendqisi2
 3108              		.loc 1 838 46 view .LVU1196
 3109 016e 00EB0520 		add	r0, r0, r5, lsl #8
 3110              		.loc 1 838 35 view .LVU1197
 3111 0172 A2F8A800 		strh	r0, [r2, #168]	@ movhi
 839:Core/Src/adBms6830ParseCreate.cpp ****       ic[curr_ic].aux.a_codes[5]  = (data[10] + (data[11] << 8));
 3112              		.loc 1 839 7 is_stmt 1 view .LVU1198
 3113              		.loc 1 839 45 is_stmt 0 view .LVU1199
 3114 0176 A07A     		ldrb	r0, [r4, #10]	@ zero_extendqisi2
 3115              		.loc 1 839 57 view .LVU1200
 3116 0178 E57A     		ldrb	r5, [r4, #11]	@ zero_extendqisi2
 3117              		.loc 1 839 47 view .LVU1201
 3118 017a 00EB0520 		add	r0, r0, r5, lsl #8
 3119              		.loc 1 839 35 view .LVU1202
 3120 017e A2F8AA00 		strh	r0, [r2, #170]	@ movhi
 840:Core/Src/adBms6830ParseCreate.cpp ****       ic[curr_ic].aux.a_codes[6]  = (data[12] + (data[13] << 8));
 3121              		.loc 1 840 7 is_stmt 1 view .LVU1203
 3122              		.loc 1 840 45 is_stmt 0 view .LVU1204
 3123 0182 207B     		ldrb	r0, [r4, #12]	@ zero_extendqisi2
 3124              		.loc 1 840 57 view .LVU1205
 3125 0184 657B     		ldrb	r5, [r4, #13]	@ zero_extendqisi2
 3126              		.loc 1 840 47 view .LVU1206
 3127 0186 00EB0520 		add	r0, r0, r5, lsl #8
 3128              		.loc 1 840 35 view .LVU1207
 3129 018a A2F8AC00 		strh	r0, [r2, #172]	@ movhi
 841:Core/Src/adBms6830ParseCreate.cpp ****       ic[curr_ic].aux.a_codes[7]  = (data[14] + (data[15] << 8));
 3130              		.loc 1 841 7 is_stmt 1 view .LVU1208
 3131              		.loc 1 841 45 is_stmt 0 view .LVU1209
 3132 018e A07B     		ldrb	r0, [r4, #14]	@ zero_extendqisi2
 3133              		.loc 1 841 57 view .LVU1210
 3134 0190 E57B     		ldrb	r5, [r4, #15]	@ zero_extendqisi2
 3135              		.loc 1 841 47 view .LVU1211
 3136 0192 00EB0520 		add	r0, r0, r5, lsl #8
 3137              		.loc 1 841 35 view .LVU1212
 3138 0196 A2F8AE00 		strh	r0, [r2, #174]	@ movhi
 842:Core/Src/adBms6830ParseCreate.cpp ****       ic[curr_ic].aux.a_codes[8]  = (data[16] + (data[17] << 8));
 3139              		.loc 1 842 7 is_stmt 1 view .LVU1213
 3140              		.loc 1 842 45 is_stmt 0 view .LVU1214
 3141 019a 207C     		ldrb	r0, [r4, #16]	@ zero_extendqisi2
 3142              		.loc 1 842 57 view .LVU1215
 3143 019c 657C     		ldrb	r5, [r4, #17]	@ zero_extendqisi2
 3144              		.loc 1 842 47 view .LVU1216
 3145 019e 00EB0520 		add	r0, r0, r5, lsl #8
 3146              		.loc 1 842 35 view .LVU1217
 3147 01a2 A2F8B000 		strh	r0, [r2, #176]	@ movhi
 843:Core/Src/adBms6830ParseCreate.cpp ****       ic[curr_ic].aux.a_codes[9]  = (data[18] + (data[19] << 8));
 3148              		.loc 1 843 7 is_stmt 1 view .LVU1218
ARM GAS  C:\Users\huawei\AppData\Local\Temp\ccwYaMVL.s 			page 73


 3149              		.loc 1 843 45 is_stmt 0 view .LVU1219
 3150 01a6 A07C     		ldrb	r0, [r4, #18]	@ zero_extendqisi2
 3151              		.loc 1 843 57 view .LVU1220
 3152 01a8 E57C     		ldrb	r5, [r4, #19]	@ zero_extendqisi2
 3153              		.loc 1 843 47 view .LVU1221
 3154 01aa 00EB0520 		add	r0, r0, r5, lsl #8
 3155              		.loc 1 843 35 view .LVU1222
 3156 01ae A2F8B200 		strh	r0, [r2, #178]	@ movhi
 844:Core/Src/adBms6830ParseCreate.cpp ****       ic[curr_ic].aux.a_codes[10] = (data[20] + (data[21] << 8));
 3157              		.loc 1 844 7 is_stmt 1 view .LVU1223
 3158              		.loc 1 844 45 is_stmt 0 view .LVU1224
 3159 01b2 207D     		ldrb	r0, [r4, #20]	@ zero_extendqisi2
 3160              		.loc 1 844 57 view .LVU1225
 3161 01b4 657D     		ldrb	r5, [r4, #21]	@ zero_extendqisi2
 3162              		.loc 1 844 47 view .LVU1226
 3163 01b6 00EB0520 		add	r0, r0, r5, lsl #8
 3164              		.loc 1 844 35 view .LVU1227
 3165 01ba A2F8B400 		strh	r0, [r2, #180]	@ movhi
 845:Core/Src/adBms6830ParseCreate.cpp ****       ic[curr_ic].aux.a_codes[11] = (data[22] + (data[23] << 8));
 3166              		.loc 1 845 7 is_stmt 1 view .LVU1228
 3167              		.loc 1 845 45 is_stmt 0 view .LVU1229
 3168 01be A07D     		ldrb	r0, [r4, #22]	@ zero_extendqisi2
 3169              		.loc 1 845 57 view .LVU1230
 3170 01c0 E57D     		ldrb	r5, [r4, #23]	@ zero_extendqisi2
 3171              		.loc 1 845 47 view .LVU1231
 3172 01c2 00EB0520 		add	r0, r0, r5, lsl #8
 3173              		.loc 1 845 35 view .LVU1232
 3174 01c6 A2F8B600 		strh	r0, [r2, #182]	@ movhi
 846:Core/Src/adBms6830ParseCreate.cpp ****      break;
 3175              		.loc 1 846 6 is_stmt 1 view .LVU1233
 3176 01ca 4CE7     		b	.L138
 3177              	.LVL205:
 3178              	.L151:
 3179              		.loc 1 846 6 is_stmt 0 view .LVU1234
 3180              	.LBE25:
 847:Core/Src/adBms6830ParseCreate.cpp **** 
 848:Core/Src/adBms6830ParseCreate.cpp ****     default:
 849:Core/Src/adBms6830ParseCreate.cpp ****       break;
 850:Core/Src/adBms6830ParseCreate.cpp ****     }
 851:Core/Src/adBms6830ParseCreate.cpp ****   }
 852:Core/Src/adBms6830ParseCreate.cpp ****   free(data);
 3181              		.loc 1 852 3 is_stmt 1 view .LVU1235
 3182              		.loc 1 852 7 is_stmt 0 view .LVU1236
 3183 01cc 2046     		mov	r0, r4
 3184 01ce FFF7FEFF 		bl	free
 3185              	.LVL206:
 853:Core/Src/adBms6830ParseCreate.cpp **** }
 3186              		.loc 1 853 1 view .LVU1237
 3187 01d2 BDE8F88F 		pop	{r3, r4, r5, r6, r7, r8, r9, r10, fp, pc}
 3188              	.LVL207:
 3189              	.L153:
 3190              		.loc 1 853 1 view .LVU1238
 3191 01d6 00BF     		.align	2
 3192              	.L152:
 3193 01d8 00000000 		.word	.LC4
 3194              		.cfi_endproc
 3195              	.LFE259:
ARM GAS  C:\Users\huawei\AppData\Local\Temp\ccwYaMVL.s 			page 74


 3196              		.fnend
 3198              		.section	.rodata._Z18adBms6830ParseRAuxhP9cell_asic3GRPPh.str1.4,"aMS",%progbits,1
 3199              		.align	2
 3200              	.LC5:
 3201 0000 20466169 		.ascii	" Failed to allocate parse raux memory \000"
 3201      6C656420 
 3201      746F2061 
 3201      6C6C6F63 
 3201      61746520 
 3202              		.section	.text._Z18adBms6830ParseRAuxhP9cell_asic3GRPPh,"ax",%progbits
 3203              		.align	1
 3204              		.global	_Z18adBms6830ParseRAuxhP9cell_asic3GRPPh
 3205              		.syntax unified
 3206              		.thumb
 3207              		.thumb_func
 3209              	_Z18adBms6830ParseRAuxhP9cell_asic3GRPPh:
 3210              		.fnstart
 3211              	.LVL208:
 3212              	.LFB260:
 854:Core/Src/adBms6830ParseCreate.cpp **** 
 855:Core/Src/adBms6830ParseCreate.cpp **** /**
 856:Core/Src/adBms6830ParseCreate.cpp ****  *******************************************************************************
 857:Core/Src/adBms6830ParseCreate.cpp ****  * Function: adBms6830ParseRAux
 858:Core/Src/adBms6830ParseCreate.cpp ****  * @brief Parse raux voltages
 859:Core/Src/adBms6830ParseCreate.cpp ****  *
 860:Core/Src/adBms6830ParseCreate.cpp ****  * @details This function Parse the recived raux voltages register A,B,C and D data.
 861:Core/Src/adBms6830ParseCreate.cpp ****  *
 862:Core/Src/adBms6830ParseCreate.cpp ****  * Parameters:
 863:Core/Src/adBms6830ParseCreate.cpp ****  *
 864:Core/Src/adBms6830ParseCreate.cpp ****  * @param [in]  tIC                     Total IC
 865:Core/Src/adBms6830ParseCreate.cpp ****  *
 866:Core/Src/adBms6830ParseCreate.cpp ****  * @param [in]  *ic                     cell_asic ic structure pointer
 867:Core/Src/adBms6830ParseCreate.cpp ****  *
 868:Core/Src/adBms6830ParseCreate.cpp ****  * @param [in]  grp                     Enum type register group
 869:Core/Src/adBms6830ParseCreate.cpp ****  *
 870:Core/Src/adBms6830ParseCreate.cpp ****  * @param [in]  *raux_data              Raux voltages data pointer
 871:Core/Src/adBms6830ParseCreate.cpp ****  *
 872:Core/Src/adBms6830ParseCreate.cpp ****  * @return None
 873:Core/Src/adBms6830ParseCreate.cpp ****  *
 874:Core/Src/adBms6830ParseCreate.cpp ****  *******************************************************************************
 875:Core/Src/adBms6830ParseCreate.cpp **** */
 876:Core/Src/adBms6830ParseCreate.cpp **** void adBms6830ParseRAux(uint8_t tIC, cell_asic *ic, GRP grp, uint8_t *raux_data)
 877:Core/Src/adBms6830ParseCreate.cpp **** {
 3213              		.loc 1 877 1 is_stmt 1 view -0
 3214              		.cfi_startproc
 3215              		@ args = 0, pretend = 0, frame = 0
 3216              		@ frame_needed = 0, uses_anonymous_args = 0
 3217              		.loc 1 877 1 is_stmt 0 view .LVU1240
 3218 0000 2DE9F84F 		push	{r3, r4, r5, r6, r7, r8, r9, r10, fp, lr}
 3219              		.save {r3, r4, r5, r6, r7, r8, r9, r10, fp, lr}
 3220              	.LCFI12:
 3221              		.cfi_def_cfa_offset 40
 3222              		.cfi_offset 3, -40
 3223              		.cfi_offset 4, -36
 3224              		.cfi_offset 5, -32
 3225              		.cfi_offset 6, -28
 3226              		.cfi_offset 7, -24
ARM GAS  C:\Users\huawei\AppData\Local\Temp\ccwYaMVL.s 			page 75


 3227              		.cfi_offset 8, -20
 3228              		.cfi_offset 9, -16
 3229              		.cfi_offset 10, -12
 3230              		.cfi_offset 11, -8
 3231              		.cfi_offset 14, -4
 3232 0004 0746     		mov	r7, r0
 3233 0006 8A46     		mov	r10, r1
 3234 0008 9946     		mov	r9, r3
 878:Core/Src/adBms6830ParseCreate.cpp ****   uint8_t *data, data_size, address = 0;
 3235              		.loc 1 878 3 is_stmt 1 view .LVU1241
 3236              	.LVL209:
 879:Core/Src/adBms6830ParseCreate.cpp ****   if(grp == ALL_GRP){data_size = (RDASALL_SIZE-48);}  /* RDASALL_SIZE 68 byte - (AUX 24 byte + STAT
 3237              		.loc 1 879 3 view .LVU1242
 3238 000a 1646     		mov	r6, r2
 3239 000c 5AB9     		cbnz	r2, .L165
 3240              		.loc 1 879 32 is_stmt 0 view .LVU1243
 3241 000e 4FF01608 		mov	r8, #22
 3242              	.L155:
 3243              	.LVL210:
 880:Core/Src/adBms6830ParseCreate.cpp ****   else {data_size = RX_DATA;}
 881:Core/Src/adBms6830ParseCreate.cpp ****   data = (uint8_t *)calloc(data_size, sizeof(uint8_t));
 3244              		.loc 1 881 3 is_stmt 1 view .LVU1244
 3245              		.loc 1 881 27 is_stmt 0 view .LVU1245
 3246 0012 C346     		mov	fp, r8
 3247 0014 0121     		movs	r1, #1
 3248              	.LVL211:
 3249              		.loc 1 881 27 view .LVU1246
 3250 0016 4046     		mov	r0, r8
 3251              	.LVL212:
 3252              		.loc 1 881 27 view .LVU1247
 3253 0018 FFF7FEFF 		bl	calloc
 3254              	.LVL213:
 882:Core/Src/adBms6830ParseCreate.cpp ****   if(data == NULL)
 3255              		.loc 1 882 3 is_stmt 1 view .LVU1248
 3256 001c 0446     		mov	r4, r0
 3257 001e 28B1     		cbz	r0, .L169
 3258              	.LBB26:
 883:Core/Src/adBms6830ParseCreate.cpp ****   {
 884:Core/Src/adBms6830ParseCreate.cpp ****     #ifdef MBED
 885:Core/Src/adBms6830ParseCreate.cpp ****     pc.printf(" Failed to allocate parse raux memory \n");
 886:Core/Src/adBms6830ParseCreate.cpp ****     #else
 887:Core/Src/adBms6830ParseCreate.cpp ****     printf(" Failed to allocate parse raux memory \n");
 888:Core/Src/adBms6830ParseCreate.cpp ****     #endif
 889:Core/Src/adBms6830ParseCreate.cpp ****     exit(0);
 890:Core/Src/adBms6830ParseCreate.cpp ****   }
 891:Core/Src/adBms6830ParseCreate.cpp ****   for(uint8_t curr_ic = 0; curr_ic < tIC; curr_ic++)
 3259              		.loc 1 891 15 is_stmt 0 view .LVU1249
 3260 0020 0025     		movs	r5, #0
 3261              	.LBE26:
 878:Core/Src/adBms6830ParseCreate.cpp ****   if(grp == ALL_GRP){data_size = (RDASALL_SIZE-48);}  /* RDASALL_SIZE 68 byte - (AUX 24 byte + STAT
 3262              		.loc 1 878 29 view .LVU1250
 3263 0022 2946     		mov	r1, r5
 3264 0024 20E0     		b	.L156
 3265              	.LVL214:
 3266              	.L165:
 880:Core/Src/adBms6830ParseCreate.cpp ****   data = (uint8_t *)calloc(data_size, sizeof(uint8_t));
 3267              		.loc 1 880 19 view .LVU1251
ARM GAS  C:\Users\huawei\AppData\Local\Temp\ccwYaMVL.s 			page 76


 3268 0026 4FF00808 		mov	r8, #8
 3269 002a F2E7     		b	.L155
 3270              	.LVL215:
 3271              	.L169:
 887:Core/Src/adBms6830ParseCreate.cpp ****     #endif
 3272              		.loc 1 887 5 is_stmt 1 view .LVU1252
 887:Core/Src/adBms6830ParseCreate.cpp ****     #endif
 3273              		.loc 1 887 11 is_stmt 0 view .LVU1253
 3274 002c 5E48     		ldr	r0, .L171
 3275              	.LVL216:
 887:Core/Src/adBms6830ParseCreate.cpp ****     #endif
 3276              		.loc 1 887 11 view .LVU1254
 3277 002e FFF7FEFF 		bl	puts
 3278              	.LVL217:
 889:Core/Src/adBms6830ParseCreate.cpp ****   }
 3279              		.loc 1 889 5 is_stmt 1 view .LVU1255
 889:Core/Src/adBms6830ParseCreate.cpp ****   }
 3280              		.loc 1 889 9 is_stmt 0 view .LVU1256
 3281 0032 0020     		movs	r0, #0
 3282 0034 FFF7FEFF 		bl	exit
 3283              	.LVL218:
 3284              	.L162:
 3285              	.LBB27:
 892:Core/Src/adBms6830ParseCreate.cpp ****   {
 893:Core/Src/adBms6830ParseCreate.cpp ****     memcpy(&data[0], &raux_data[address], data_size); /* dst , src , size */
 894:Core/Src/adBms6830ParseCreate.cpp ****     address = ((curr_ic+1) * (data_size));
 895:Core/Src/adBms6830ParseCreate.cpp ****     switch (grp)
 896:Core/Src/adBms6830ParseCreate.cpp ****     {
 897:Core/Src/adBms6830ParseCreate.cpp ****     case A: /* RAux Register group A */
 3286              		.loc 1 897 5 is_stmt 1 view .LVU1257
 898:Core/Src/adBms6830ParseCreate.cpp ****       ic[curr_ic].raux.ra_codes[0] = (data[0] + (data[1] << 8));
 3287              		.loc 1 898 7 view .LVU1258
 3288              		.loc 1 898 45 is_stmt 0 view .LVU1259
 3289 0038 2078     		ldrb	r0, [r4]	@ zero_extendqisi2
 3290              		.loc 1 898 56 view .LVU1260
 3291 003a 94F801C0 		ldrb	ip, [r4, #1]	@ zero_extendqisi2
 3292              		.loc 1 898 17 view .LVU1261
 3293 003e 4FF42872 		mov	r2, #672
 3294 0042 02FB05A2 		mla	r2, r2, r5, r10
 3295              		.loc 1 898 47 view .LVU1262
 3296 0046 00EB0C20 		add	r0, r0, ip, lsl #8
 3297              		.loc 1 898 36 view .LVU1263
 3298 004a A2F8B800 		strh	r0, [r2, #184]	@ movhi
 899:Core/Src/adBms6830ParseCreate.cpp ****       ic[curr_ic].raux.ra_codes[1] = (data[2] + (data[3] << 8));
 3299              		.loc 1 899 7 is_stmt 1 view .LVU1264
 3300              		.loc 1 899 45 is_stmt 0 view .LVU1265
 3301 004e A078     		ldrb	r0, [r4, #2]	@ zero_extendqisi2
 3302              		.loc 1 899 56 view .LVU1266
 3303 0050 E578     		ldrb	r5, [r4, #3]	@ zero_extendqisi2
 3304              	.LVL219:
 3305              		.loc 1 899 47 view .LVU1267
 3306 0052 00EB0520 		add	r0, r0, r5, lsl #8
 3307              		.loc 1 899 36 view .LVU1268
 3308 0056 A2F8BA00 		strh	r0, [r2, #186]	@ movhi
 900:Core/Src/adBms6830ParseCreate.cpp ****       ic[curr_ic].raux.ra_codes[2] = (data[4] + (data[5] << 8));
 3309              		.loc 1 900 7 is_stmt 1 view .LVU1269
 3310              		.loc 1 900 45 is_stmt 0 view .LVU1270
ARM GAS  C:\Users\huawei\AppData\Local\Temp\ccwYaMVL.s 			page 77


 3311 005a 2079     		ldrb	r0, [r4, #4]	@ zero_extendqisi2
 3312              		.loc 1 900 56 view .LVU1271
 3313 005c 6579     		ldrb	r5, [r4, #5]	@ zero_extendqisi2
 3314              		.loc 1 900 47 view .LVU1272
 3315 005e 00EB0520 		add	r0, r0, r5, lsl #8
 3316              		.loc 1 900 36 view .LVU1273
 3317 0062 A2F8BC00 		strh	r0, [r2, #188]	@ movhi
 901:Core/Src/adBms6830ParseCreate.cpp ****       break;
 3318              		.loc 1 901 7 is_stmt 1 view .LVU1274
 3319              	.L157:
 3320              		.loc 1 901 7 is_stmt 0 view .LVU1275
 3321              	.LBE27:
 880:Core/Src/adBms6830ParseCreate.cpp ****   data = (uint8_t *)calloc(data_size, sizeof(uint8_t));
 3322              		.loc 1 880 19 discriminator 1 view .LVU1276
 3323 0066 1D46     		mov	r5, r3
 3324              	.LVL220:
 3325              	.L156:
 3326              	.LBB28:
 891:Core/Src/adBms6830ParseCreate.cpp ****   {
 3327              		.loc 1 891 36 is_stmt 1 discriminator 1 view .LVU1277
 3328 0068 BD42     		cmp	r5, r7
 3329 006a 80F09780 		bcs	.L170
 893:Core/Src/adBms6830ParseCreate.cpp ****     address = ((curr_ic+1) * (data_size));
 3330              		.loc 1 893 5 view .LVU1278
 893:Core/Src/adBms6830ParseCreate.cpp ****     address = ((curr_ic+1) * (data_size));
 3331              		.loc 1 893 11 is_stmt 0 view .LVU1279
 3332 006e 5A46     		mov	r2, fp
 3333 0070 4944     		add	r1, r1, r9
 3334              	.LVL221:
 893:Core/Src/adBms6830ParseCreate.cpp ****     address = ((curr_ic+1) * (data_size));
 3335              		.loc 1 893 11 view .LVU1280
 3336 0072 2046     		mov	r0, r4
 3337 0074 FFF7FEFF 		bl	memcpy
 3338              	.LVL222:
 894:Core/Src/adBms6830ParseCreate.cpp ****     switch (grp)
 3339              		.loc 1 894 5 is_stmt 1 view .LVU1281
 894:Core/Src/adBms6830ParseCreate.cpp ****     switch (grp)
 3340              		.loc 1 894 13 is_stmt 0 view .LVU1282
 3341 0078 6B1C     		adds	r3, r5, #1
 3342 007a DBB2     		uxtb	r3, r3
 3343 007c 13FB08F1 		smulbb	r1, r3, r8
 3344 0080 C9B2     		uxtb	r1, r1
 3345              	.LVL223:
 895:Core/Src/adBms6830ParseCreate.cpp ****     {
 3346              		.loc 1 895 5 is_stmt 1 view .LVU1283
 3347 0082 042E     		cmp	r6, #4
 3348 0084 EFD8     		bhi	.L157
 3349 0086 01A2     		adr	r2, .L159
 3350 0088 52F826F0 		ldr	pc, [r2, r6, lsl #2]
 3351              		.p2align 2
 3352              	.L159:
 3353 008c 19010000 		.word	.L163+1
 3354 0090 39000000 		.word	.L162+1
 3355 0094 A1000000 		.word	.L161+1
 3356 0098 D1000000 		.word	.L160+1
 3357 009c 01010000 		.word	.L158+1
 3358              		.p2align 1
ARM GAS  C:\Users\huawei\AppData\Local\Temp\ccwYaMVL.s 			page 78


 3359              	.L161:
 902:Core/Src/adBms6830ParseCreate.cpp **** 
 903:Core/Src/adBms6830ParseCreate.cpp ****     case B: /* RAux Register group B */
 3360              		.loc 1 903 5 view .LVU1284
 904:Core/Src/adBms6830ParseCreate.cpp ****       ic[curr_ic].raux.ra_codes[3] = (data[0] + (data[1] << 8));
 3361              		.loc 1 904 7 view .LVU1285
 3362              		.loc 1 904 45 is_stmt 0 view .LVU1286
 3363 00a0 2078     		ldrb	r0, [r4]	@ zero_extendqisi2
 3364              		.loc 1 904 56 view .LVU1287
 3365 00a2 94F801C0 		ldrb	ip, [r4, #1]	@ zero_extendqisi2
 3366              		.loc 1 904 17 view .LVU1288
 3367 00a6 4FF42872 		mov	r2, #672
 3368 00aa 02FB05A2 		mla	r2, r2, r5, r10
 3369              		.loc 1 904 47 view .LVU1289
 3370 00ae 00EB0C20 		add	r0, r0, ip, lsl #8
 3371              		.loc 1 904 36 view .LVU1290
 3372 00b2 A2F8BE00 		strh	r0, [r2, #190]	@ movhi
 905:Core/Src/adBms6830ParseCreate.cpp ****       ic[curr_ic].raux.ra_codes[4] = (data[2] + (data[3] << 8));
 3373              		.loc 1 905 7 is_stmt 1 view .LVU1291
 3374              		.loc 1 905 45 is_stmt 0 view .LVU1292
 3375 00b6 A078     		ldrb	r0, [r4, #2]	@ zero_extendqisi2
 3376              		.loc 1 905 56 view .LVU1293
 3377 00b8 E578     		ldrb	r5, [r4, #3]	@ zero_extendqisi2
 3378              	.LVL224:
 3379              		.loc 1 905 47 view .LVU1294
 3380 00ba 00EB0520 		add	r0, r0, r5, lsl #8
 3381              		.loc 1 905 36 view .LVU1295
 3382 00be A2F8C000 		strh	r0, [r2, #192]	@ movhi
 906:Core/Src/adBms6830ParseCreate.cpp ****       ic[curr_ic].raux.ra_codes[5] = (data[4] + (data[5] << 8));
 3383              		.loc 1 906 7 is_stmt 1 view .LVU1296
 3384              		.loc 1 906 45 is_stmt 0 view .LVU1297
 3385 00c2 2079     		ldrb	r0, [r4, #4]	@ zero_extendqisi2
 3386              		.loc 1 906 56 view .LVU1298
 3387 00c4 6579     		ldrb	r5, [r4, #5]	@ zero_extendqisi2
 3388              		.loc 1 906 47 view .LVU1299
 3389 00c6 00EB0520 		add	r0, r0, r5, lsl #8
 3390              		.loc 1 906 36 view .LVU1300
 3391 00ca A2F8C200 		strh	r0, [r2, #194]	@ movhi
 907:Core/Src/adBms6830ParseCreate.cpp ****       break;
 3392              		.loc 1 907 7 is_stmt 1 view .LVU1301
 3393 00ce CAE7     		b	.L157
 3394              	.LVL225:
 3395              	.L160:
 908:Core/Src/adBms6830ParseCreate.cpp **** 
 909:Core/Src/adBms6830ParseCreate.cpp ****     case C: /* RAux Register group C */
 3396              		.loc 1 909 5 view .LVU1302
 910:Core/Src/adBms6830ParseCreate.cpp ****       ic[curr_ic].raux.ra_codes[6] = (data[0] + (data[1] << 8));
 3397              		.loc 1 910 7 view .LVU1303
 3398              		.loc 1 910 45 is_stmt 0 view .LVU1304
 3399 00d0 2078     		ldrb	r0, [r4]	@ zero_extendqisi2
 3400              		.loc 1 910 56 view .LVU1305
 3401 00d2 94F801C0 		ldrb	ip, [r4, #1]	@ zero_extendqisi2
 3402              		.loc 1 910 17 view .LVU1306
 3403 00d6 4FF42872 		mov	r2, #672
 3404 00da 02FB05A2 		mla	r2, r2, r5, r10
 3405              		.loc 1 910 47 view .LVU1307
 3406 00de 00EB0C20 		add	r0, r0, ip, lsl #8
ARM GAS  C:\Users\huawei\AppData\Local\Temp\ccwYaMVL.s 			page 79


 3407              		.loc 1 910 36 view .LVU1308
 3408 00e2 A2F8C400 		strh	r0, [r2, #196]	@ movhi
 911:Core/Src/adBms6830ParseCreate.cpp ****       ic[curr_ic].raux.ra_codes[7] = (data[2] + (data[3] << 8));
 3409              		.loc 1 911 7 is_stmt 1 view .LVU1309
 3410              		.loc 1 911 45 is_stmt 0 view .LVU1310
 3411 00e6 A078     		ldrb	r0, [r4, #2]	@ zero_extendqisi2
 3412              		.loc 1 911 56 view .LVU1311
 3413 00e8 E578     		ldrb	r5, [r4, #3]	@ zero_extendqisi2
 3414              	.LVL226:
 3415              		.loc 1 911 47 view .LVU1312
 3416 00ea 00EB0520 		add	r0, r0, r5, lsl #8
 3417              		.loc 1 911 36 view .LVU1313
 3418 00ee A2F8C600 		strh	r0, [r2, #198]	@ movhi
 912:Core/Src/adBms6830ParseCreate.cpp ****       ic[curr_ic].raux.ra_codes[8] = (data[4] + (data[5] << 8));
 3419              		.loc 1 912 7 is_stmt 1 view .LVU1314
 3420              		.loc 1 912 45 is_stmt 0 view .LVU1315
 3421 00f2 2079     		ldrb	r0, [r4, #4]	@ zero_extendqisi2
 3422              		.loc 1 912 56 view .LVU1316
 3423 00f4 6579     		ldrb	r5, [r4, #5]	@ zero_extendqisi2
 3424              		.loc 1 912 47 view .LVU1317
 3425 00f6 00EB0520 		add	r0, r0, r5, lsl #8
 3426              		.loc 1 912 36 view .LVU1318
 3427 00fa A2F8C800 		strh	r0, [r2, #200]	@ movhi
 913:Core/Src/adBms6830ParseCreate.cpp ****       break;
 3428              		.loc 1 913 7 is_stmt 1 view .LVU1319
 3429 00fe B2E7     		b	.L157
 3430              	.LVL227:
 3431              	.L158:
 914:Core/Src/adBms6830ParseCreate.cpp **** 
 915:Core/Src/adBms6830ParseCreate.cpp ****     case D: /* RAux Register group D */
 3432              		.loc 1 915 5 view .LVU1320
 916:Core/Src/adBms6830ParseCreate.cpp ****       ic[curr_ic].raux.ra_codes[9] =  (data[0] + (data[1] << 8));
 3433              		.loc 1 916 7 view .LVU1321
 3434              		.loc 1 916 46 is_stmt 0 view .LVU1322
 3435 0100 2078     		ldrb	r0, [r4]	@ zero_extendqisi2
 3436              		.loc 1 916 57 view .LVU1323
 3437 0102 94F801C0 		ldrb	ip, [r4, #1]	@ zero_extendqisi2
 3438              		.loc 1 916 17 view .LVU1324
 3439 0106 4FF42872 		mov	r2, #672
 3440 010a 02FB05A2 		mla	r2, r2, r5, r10
 3441              		.loc 1 916 48 view .LVU1325
 3442 010e 00EB0C20 		add	r0, r0, ip, lsl #8
 3443              		.loc 1 916 36 view .LVU1326
 3444 0112 A2F8CA00 		strh	r0, [r2, #202]	@ movhi
 917:Core/Src/adBms6830ParseCreate.cpp ****       break;
 3445              		.loc 1 917 7 is_stmt 1 view .LVU1327
 3446 0116 A6E7     		b	.L157
 3447              	.L163:
 918:Core/Src/adBms6830ParseCreate.cpp **** 
 919:Core/Src/adBms6830ParseCreate.cpp ****     case ALL_GRP: /* RAux Register group ALL */
 3448              		.loc 1 919 5 view .LVU1328
 920:Core/Src/adBms6830ParseCreate.cpp ****       ic[curr_ic].raux.ra_codes[0]  = (data[0] + (data[1] << 8));
 3449              		.loc 1 920 7 view .LVU1329
 3450              		.loc 1 920 46 is_stmt 0 view .LVU1330
 3451 0118 2078     		ldrb	r0, [r4]	@ zero_extendqisi2
 3452              		.loc 1 920 57 view .LVU1331
 3453 011a 94F801C0 		ldrb	ip, [r4, #1]	@ zero_extendqisi2
ARM GAS  C:\Users\huawei\AppData\Local\Temp\ccwYaMVL.s 			page 80


 3454              		.loc 1 920 17 view .LVU1332
 3455 011e 4FF42872 		mov	r2, #672
 3456 0122 02FB05A2 		mla	r2, r2, r5, r10
 3457              		.loc 1 920 48 view .LVU1333
 3458 0126 00EB0C20 		add	r0, r0, ip, lsl #8
 3459              		.loc 1 920 37 view .LVU1334
 3460 012a A2F8B800 		strh	r0, [r2, #184]	@ movhi
 921:Core/Src/adBms6830ParseCreate.cpp ****       ic[curr_ic].raux.ra_codes[1]  = (data[2] + (data[3] << 8));
 3461              		.loc 1 921 7 is_stmt 1 view .LVU1335
 3462              		.loc 1 921 46 is_stmt 0 view .LVU1336
 3463 012e A078     		ldrb	r0, [r4, #2]	@ zero_extendqisi2
 3464              		.loc 1 921 57 view .LVU1337
 3465 0130 E578     		ldrb	r5, [r4, #3]	@ zero_extendqisi2
 3466              	.LVL228:
 3467              		.loc 1 921 48 view .LVU1338
 3468 0132 00EB0520 		add	r0, r0, r5, lsl #8
 3469              		.loc 1 921 37 view .LVU1339
 3470 0136 A2F8BA00 		strh	r0, [r2, #186]	@ movhi
 922:Core/Src/adBms6830ParseCreate.cpp ****       ic[curr_ic].raux.ra_codes[2]  = (data[4] + (data[5] << 8));
 3471              		.loc 1 922 7 is_stmt 1 view .LVU1340
 3472              		.loc 1 922 46 is_stmt 0 view .LVU1341
 3473 013a 2079     		ldrb	r0, [r4, #4]	@ zero_extendqisi2
 3474              		.loc 1 922 57 view .LVU1342
 3475 013c 6579     		ldrb	r5, [r4, #5]	@ zero_extendqisi2
 3476              		.loc 1 922 48 view .LVU1343
 3477 013e 00EB0520 		add	r0, r0, r5, lsl #8
 3478              		.loc 1 922 37 view .LVU1344
 3479 0142 A2F8BC00 		strh	r0, [r2, #188]	@ movhi
 923:Core/Src/adBms6830ParseCreate.cpp ****       ic[curr_ic].raux.ra_codes[3]  = (data[6] + (data[7] << 8));
 3480              		.loc 1 923 7 is_stmt 1 view .LVU1345
 3481              		.loc 1 923 46 is_stmt 0 view .LVU1346
 3482 0146 A079     		ldrb	r0, [r4, #6]	@ zero_extendqisi2
 3483              		.loc 1 923 57 view .LVU1347
 3484 0148 E579     		ldrb	r5, [r4, #7]	@ zero_extendqisi2
 3485              		.loc 1 923 48 view .LVU1348
 3486 014a 00EB0520 		add	r0, r0, r5, lsl #8
 3487              		.loc 1 923 37 view .LVU1349
 3488 014e A2F8BE00 		strh	r0, [r2, #190]	@ movhi
 924:Core/Src/adBms6830ParseCreate.cpp ****       ic[curr_ic].raux.ra_codes[4]  = (data[8] + (data[9] << 8));
 3489              		.loc 1 924 7 is_stmt 1 view .LVU1350
 3490              		.loc 1 924 46 is_stmt 0 view .LVU1351
 3491 0152 207A     		ldrb	r0, [r4, #8]	@ zero_extendqisi2
 3492              		.loc 1 924 57 view .LVU1352
 3493 0154 657A     		ldrb	r5, [r4, #9]	@ zero_extendqisi2
 3494              		.loc 1 924 48 view .LVU1353
 3495 0156 00EB0520 		add	r0, r0, r5, lsl #8
 3496              		.loc 1 924 37 view .LVU1354
 3497 015a A2F8C000 		strh	r0, [r2, #192]	@ movhi
 925:Core/Src/adBms6830ParseCreate.cpp ****       ic[curr_ic].raux.ra_codes[5]  = (data[10] + (data[11] << 8));
 3498              		.loc 1 925 7 is_stmt 1 view .LVU1355
 3499              		.loc 1 925 47 is_stmt 0 view .LVU1356
 3500 015e A07A     		ldrb	r0, [r4, #10]	@ zero_extendqisi2
 3501              		.loc 1 925 59 view .LVU1357
 3502 0160 E57A     		ldrb	r5, [r4, #11]	@ zero_extendqisi2
 3503              		.loc 1 925 49 view .LVU1358
 3504 0162 00EB0520 		add	r0, r0, r5, lsl #8
 3505              		.loc 1 925 37 view .LVU1359
ARM GAS  C:\Users\huawei\AppData\Local\Temp\ccwYaMVL.s 			page 81


 3506 0166 A2F8C200 		strh	r0, [r2, #194]	@ movhi
 926:Core/Src/adBms6830ParseCreate.cpp ****       ic[curr_ic].raux.ra_codes[6]  = (data[12] + (data[13] << 8));
 3507              		.loc 1 926 7 is_stmt 1 view .LVU1360
 3508              		.loc 1 926 47 is_stmt 0 view .LVU1361
 3509 016a 207B     		ldrb	r0, [r4, #12]	@ zero_extendqisi2
 3510              		.loc 1 926 59 view .LVU1362
 3511 016c 657B     		ldrb	r5, [r4, #13]	@ zero_extendqisi2
 3512              		.loc 1 926 49 view .LVU1363
 3513 016e 00EB0520 		add	r0, r0, r5, lsl #8
 3514              		.loc 1 926 37 view .LVU1364
 3515 0172 A2F8C400 		strh	r0, [r2, #196]	@ movhi
 927:Core/Src/adBms6830ParseCreate.cpp ****       ic[curr_ic].raux.ra_codes[7]  = (data[14] + (data[15] << 8));
 3516              		.loc 1 927 7 is_stmt 1 view .LVU1365
 3517              		.loc 1 927 47 is_stmt 0 view .LVU1366
 3518 0176 A07B     		ldrb	r0, [r4, #14]	@ zero_extendqisi2
 3519              		.loc 1 927 59 view .LVU1367
 3520 0178 E57B     		ldrb	r5, [r4, #15]	@ zero_extendqisi2
 3521              		.loc 1 927 49 view .LVU1368
 3522 017a 00EB0520 		add	r0, r0, r5, lsl #8
 3523              		.loc 1 927 37 view .LVU1369
 3524 017e A2F8C600 		strh	r0, [r2, #198]	@ movhi
 928:Core/Src/adBms6830ParseCreate.cpp ****       ic[curr_ic].raux.ra_codes[8]  = (data[16] + (data[17] << 8));
 3525              		.loc 1 928 7 is_stmt 1 view .LVU1370
 3526              		.loc 1 928 47 is_stmt 0 view .LVU1371
 3527 0182 207C     		ldrb	r0, [r4, #16]	@ zero_extendqisi2
 3528              		.loc 1 928 59 view .LVU1372
 3529 0184 657C     		ldrb	r5, [r4, #17]	@ zero_extendqisi2
 3530              		.loc 1 928 49 view .LVU1373
 3531 0186 00EB0520 		add	r0, r0, r5, lsl #8
 3532              		.loc 1 928 37 view .LVU1374
 3533 018a A2F8C800 		strh	r0, [r2, #200]	@ movhi
 929:Core/Src/adBms6830ParseCreate.cpp ****       ic[curr_ic].raux.ra_codes[9]  = (data[18] + (data[19] << 8));
 3534              		.loc 1 929 7 is_stmt 1 view .LVU1375
 3535              		.loc 1 929 47 is_stmt 0 view .LVU1376
 3536 018e A07C     		ldrb	r0, [r4, #18]	@ zero_extendqisi2
 3537              		.loc 1 929 59 view .LVU1377
 3538 0190 E57C     		ldrb	r5, [r4, #19]	@ zero_extendqisi2
 3539              		.loc 1 929 49 view .LVU1378
 3540 0192 00EB0520 		add	r0, r0, r5, lsl #8
 3541              		.loc 1 929 37 view .LVU1379
 3542 0196 A2F8CA00 		strh	r0, [r2, #202]	@ movhi
 930:Core/Src/adBms6830ParseCreate.cpp ****      break;
 3543              		.loc 1 930 6 is_stmt 1 view .LVU1380
 3544 019a 64E7     		b	.L157
 3545              	.LVL229:
 3546              	.L170:
 3547              		.loc 1 930 6 is_stmt 0 view .LVU1381
 3548              	.LBE28:
 931:Core/Src/adBms6830ParseCreate.cpp **** 
 932:Core/Src/adBms6830ParseCreate.cpp ****     default:
 933:Core/Src/adBms6830ParseCreate.cpp ****       break;
 934:Core/Src/adBms6830ParseCreate.cpp ****     }
 935:Core/Src/adBms6830ParseCreate.cpp ****   }
 936:Core/Src/adBms6830ParseCreate.cpp ****   free(data);
 3549              		.loc 1 936 3 is_stmt 1 view .LVU1382
 3550              		.loc 1 936 7 is_stmt 0 view .LVU1383
 3551 019c 2046     		mov	r0, r4
ARM GAS  C:\Users\huawei\AppData\Local\Temp\ccwYaMVL.s 			page 82


 3552 019e FFF7FEFF 		bl	free
 3553              	.LVL230:
 937:Core/Src/adBms6830ParseCreate.cpp **** }
 3554              		.loc 1 937 1 view .LVU1384
 3555 01a2 BDE8F88F 		pop	{r3, r4, r5, r6, r7, r8, r9, r10, fp, pc}
 3556              	.LVL231:
 3557              	.L172:
 3558              		.loc 1 937 1 view .LVU1385
 3559 01a6 00BF     		.align	2
 3560              	.L171:
 3561 01a8 00000000 		.word	.LC5
 3562              		.cfi_endproc
 3563              	.LFE260:
 3564              		.fnend
 3566              		.section	.text._Z21adBms6830ParseStatusAhP9cell_asicPh,"ax",%progbits
 3567              		.align	1
 3568              		.global	_Z21adBms6830ParseStatusAhP9cell_asicPh
 3569              		.syntax unified
 3570              		.thumb
 3571              		.thumb_func
 3573              	_Z21adBms6830ParseStatusAhP9cell_asicPh:
 3574              		.fnstart
 3575              	.LVL232:
 3576              	.LFB261:
 938:Core/Src/adBms6830ParseCreate.cpp **** 
 939:Core/Src/adBms6830ParseCreate.cpp **** /**
 940:Core/Src/adBms6830ParseCreate.cpp ****  *******************************************************************************
 941:Core/Src/adBms6830ParseCreate.cpp ****  * Function: adBms6830ParseStatusA
 942:Core/Src/adBms6830ParseCreate.cpp ****  * @brief Parse status A register data
 943:Core/Src/adBms6830ParseCreate.cpp ****  *
 944:Core/Src/adBms6830ParseCreate.cpp ****  * @details This function Parse the recived status A register data.
 945:Core/Src/adBms6830ParseCreate.cpp ****  *
 946:Core/Src/adBms6830ParseCreate.cpp ****  * Parameters:
 947:Core/Src/adBms6830ParseCreate.cpp ****  *
 948:Core/Src/adBms6830ParseCreate.cpp ****  * @param [in]  tIC                     Total IC
 949:Core/Src/adBms6830ParseCreate.cpp ****  *
 950:Core/Src/adBms6830ParseCreate.cpp ****  * @param [in]  *ic                     cell_asic ic structure pointer
 951:Core/Src/adBms6830ParseCreate.cpp ****  *
 952:Core/Src/adBms6830ParseCreate.cpp ****  * @param [in]  *data                   data pointer
 953:Core/Src/adBms6830ParseCreate.cpp ****  *
 954:Core/Src/adBms6830ParseCreate.cpp ****  * @return None
 955:Core/Src/adBms6830ParseCreate.cpp ****  *
 956:Core/Src/adBms6830ParseCreate.cpp ****  *******************************************************************************
 957:Core/Src/adBms6830ParseCreate.cpp **** */
 958:Core/Src/adBms6830ParseCreate.cpp **** void adBms6830ParseStatusA(uint8_t tIC, cell_asic *ic, uint8_t *data)
 959:Core/Src/adBms6830ParseCreate.cpp **** {
 3577              		.loc 1 959 1 is_stmt 1 view -0
 3578              		.cfi_startproc
 3579              		@ args = 0, pretend = 0, frame = 0
 3580              		@ frame_needed = 0, uses_anonymous_args = 0
 3581              		.loc 1 959 1 is_stmt 0 view .LVU1387
 3582 0000 30B5     		push	{r4, r5, lr}
 3583              	.LCFI13:
 3584              		.cfi_def_cfa_offset 12
 3585              		.cfi_offset 4, -12
 3586              		.cfi_offset 5, -8
 3587              		.cfi_offset 14, -4
ARM GAS  C:\Users\huawei\AppData\Local\Temp\ccwYaMVL.s 			page 83


 960:Core/Src/adBms6830ParseCreate.cpp ****   uint8_t address = 0;
 3588              		.loc 1 960 3 is_stmt 1 view .LVU1388
 3589              	.LVL233:
 961:Core/Src/adBms6830ParseCreate.cpp ****   for(uint8_t curr_ic = 0; curr_ic < tIC; curr_ic++)
 3590              		.loc 1 961 3 view .LVU1389
 3591              	.LBB29:
 3592              		.loc 1 961 15 is_stmt 0 view .LVU1390
 3593 0002 4FF0000C 		mov	ip, #0
 3594              	.LBE29:
 960:Core/Src/adBms6830ParseCreate.cpp ****   uint8_t address = 0;
 3595              		.loc 1 960 11 view .LVU1391
 3596 0006 E646     		mov	lr, ip
 3597              	.LBB30:
 3598              		.loc 1 961 3 view .LVU1392
 3599 0008 2CE0     		b	.L174
 3600              	.LVL234:
 3601              	.L175:
 962:Core/Src/adBms6830ParseCreate.cpp ****   {
 963:Core/Src/adBms6830ParseCreate.cpp ****     memcpy(&ic[curr_ic].stat.rx_data[0], &data[address], RX_DATA); /* dst , src , size */
 3602              		.loc 1 963 5 is_stmt 1 discriminator 3 view .LVU1393
 3603              		.loc 1 963 23 is_stmt 0 discriminator 3 view .LVU1394
 3604 000a 4FF42873 		mov	r3, #672
 3605 000e 03FB0C13 		mla	r3, r3, ip, r1
 3606              		.loc 1 963 42 discriminator 3 view .LVU1395
 3607 0012 02EB0E04 		add	r4, r2, lr
 3608              		.loc 1 963 11 discriminator 3 view .LVU1396
 3609 0016 52F80E50 		ldr	r5, [r2, lr]	@ unaligned
 3610 001a 6468     		ldr	r4, [r4, #4]	@ unaligned
 3611 001c C3F84F51 		str	r5, [r3, #335]	@ unaligned
 3612 0020 C3F85341 		str	r4, [r3, #339]	@ unaligned
 964:Core/Src/adBms6830ParseCreate.cpp ****     address = ((curr_ic+1) * (RX_DATA));
 3613              		.loc 1 964 5 is_stmt 1 discriminator 3 view .LVU1397
 3614              		.loc 1 964 13 is_stmt 0 discriminator 3 view .LVU1398
 3615 0024 0CF1010C 		add	ip, ip, #1
 3616              	.LVL235:
 3617              		.loc 1 964 13 discriminator 3 view .LVU1399
 3618 0028 5FFA8CFC 		uxtb	ip, ip
 3619 002c 4FEACC0E 		lsl	lr, ip, #3
 3620              	.LVL236:
 3621              		.loc 1 964 13 discriminator 3 view .LVU1400
 3622 0030 5FFA8EFE 		uxtb	lr, lr
 3623              	.LVL237:
 965:Core/Src/adBms6830ParseCreate.cpp ****     ic[curr_ic].stata.vref2   = (ic[curr_ic].stat.rx_data[0] | (ic[curr_ic].stat.rx_data[1] << 8));
 3624              		.loc 1 965 5 is_stmt 1 discriminator 3 view .LVU1401
 3625              		.loc 1 965 60 is_stmt 0 discriminator 3 view .LVU1402
 3626 0034 93F84F41 		ldrb	r4, [r3, #335]	@ zero_extendqisi2
 3627              		.loc 1 965 91 discriminator 3 view .LVU1403
 3628 0038 93F85051 		ldrb	r5, [r3, #336]	@ zero_extendqisi2
 3629              		.loc 1 965 62 discriminator 3 view .LVU1404
 3630 003c 44EA0524 		orr	r4, r4, r5, lsl #8
 3631              		.loc 1 965 31 discriminator 3 view .LVU1405
 3632 0040 A3F8CC40 		strh	r4, [r3, #204]	@ movhi
 966:Core/Src/adBms6830ParseCreate.cpp ****     ic[curr_ic].stata.itmp = (ic[curr_ic].stat.rx_data[2] | (ic[curr_ic].stat.rx_data[3] << 8));
 3633              		.loc 1 966 5 is_stmt 1 discriminator 3 view .LVU1406
 3634              		.loc 1 966 57 is_stmt 0 discriminator 3 view .LVU1407
 3635 0044 93F85141 		ldrb	r4, [r3, #337]	@ zero_extendqisi2
 3636              		.loc 1 966 88 discriminator 3 view .LVU1408
ARM GAS  C:\Users\huawei\AppData\Local\Temp\ccwYaMVL.s 			page 84


 3637 0048 93F85251 		ldrb	r5, [r3, #338]	@ zero_extendqisi2
 3638              		.loc 1 966 59 discriminator 3 view .LVU1409
 3639 004c 44EA0524 		orr	r4, r4, r5, lsl #8
 3640              		.loc 1 966 28 discriminator 3 view .LVU1410
 3641 0050 A3F8CE40 		strh	r4, [r3, #206]	@ movhi
 967:Core/Src/adBms6830ParseCreate.cpp ****     ic[curr_ic].stata.vref3   = (ic[curr_ic].stat.rx_data[4] | (ic[curr_ic].stat.rx_data[5] << 8));
 3642              		.loc 1 967 5 is_stmt 1 discriminator 3 view .LVU1411
 3643              		.loc 1 967 60 is_stmt 0 discriminator 3 view .LVU1412
 3644 0054 93F85341 		ldrb	r4, [r3, #339]	@ zero_extendqisi2
 3645              		.loc 1 967 91 discriminator 3 view .LVU1413
 3646 0058 93F85451 		ldrb	r5, [r3, #340]	@ zero_extendqisi2
 3647              		.loc 1 967 62 discriminator 3 view .LVU1414
 3648 005c 44EA0524 		orr	r4, r4, r5, lsl #8
 3649              		.loc 1 967 31 discriminator 3 view .LVU1415
 3650 0060 A3F8D040 		strh	r4, [r3, #208]	@ movhi
 961:Core/Src/adBms6830ParseCreate.cpp ****   {
 3651              		.loc 1 961 3 is_stmt 1 discriminator 3 view .LVU1416
 3652              	.LVL238:
 3653              	.L174:
 961:Core/Src/adBms6830ParseCreate.cpp ****   {
 3654              		.loc 1 961 36 discriminator 1 view .LVU1417
 3655 0064 8445     		cmp	ip, r0
 3656 0066 D0D3     		bcc	.L175
 3657              	.LBE30:
 968:Core/Src/adBms6830ParseCreate.cpp ****   }
 969:Core/Src/adBms6830ParseCreate.cpp **** }
 3658              		.loc 1 969 1 is_stmt 0 view .LVU1418
 3659 0068 30BD     		pop	{r4, r5, pc}
 3660              		.cfi_endproc
 3661              	.LFE261:
 3662              		.cantunwind
 3663              		.fnend
 3665              		.section	.text._Z21adBms6830ParseStatusBhP9cell_asicPh,"ax",%progbits
 3666              		.align	1
 3667              		.global	_Z21adBms6830ParseStatusBhP9cell_asicPh
 3668              		.syntax unified
 3669              		.thumb
 3670              		.thumb_func
 3672              	_Z21adBms6830ParseStatusBhP9cell_asicPh:
 3673              		.fnstart
 3674              	.LVL239:
 3675              	.LFB262:
 970:Core/Src/adBms6830ParseCreate.cpp **** 
 971:Core/Src/adBms6830ParseCreate.cpp **** /**
 972:Core/Src/adBms6830ParseCreate.cpp ****  *******************************************************************************
 973:Core/Src/adBms6830ParseCreate.cpp ****  * Function: adBms6830ParseStatusB
 974:Core/Src/adBms6830ParseCreate.cpp ****  * @brief Parse status B register data
 975:Core/Src/adBms6830ParseCreate.cpp ****  *
 976:Core/Src/adBms6830ParseCreate.cpp ****  * @details This function Parse the recived status B register data.
 977:Core/Src/adBms6830ParseCreate.cpp ****  *
 978:Core/Src/adBms6830ParseCreate.cpp ****  * Parameters:
 979:Core/Src/adBms6830ParseCreate.cpp ****  *
 980:Core/Src/adBms6830ParseCreate.cpp ****  * @param [in]  tIC                     Total IC
 981:Core/Src/adBms6830ParseCreate.cpp ****  *
 982:Core/Src/adBms6830ParseCreate.cpp ****  * @param [in]  *ic                     cell_asic ic structure pointer
 983:Core/Src/adBms6830ParseCreate.cpp ****  *
 984:Core/Src/adBms6830ParseCreate.cpp ****  * @param [in]  *data                   data pointer
ARM GAS  C:\Users\huawei\AppData\Local\Temp\ccwYaMVL.s 			page 85


 985:Core/Src/adBms6830ParseCreate.cpp ****  *
 986:Core/Src/adBms6830ParseCreate.cpp ****  * @return None
 987:Core/Src/adBms6830ParseCreate.cpp ****  *
 988:Core/Src/adBms6830ParseCreate.cpp ****  *******************************************************************************
 989:Core/Src/adBms6830ParseCreate.cpp **** */
 990:Core/Src/adBms6830ParseCreate.cpp **** void adBms6830ParseStatusB(uint8_t tIC, cell_asic *ic, uint8_t *data)
 991:Core/Src/adBms6830ParseCreate.cpp **** {
 3676              		.loc 1 991 1 is_stmt 1 view -0
 3677              		.cfi_startproc
 3678              		@ args = 0, pretend = 0, frame = 0
 3679              		@ frame_needed = 0, uses_anonymous_args = 0
 3680              		.loc 1 991 1 is_stmt 0 view .LVU1420
 3681 0000 30B5     		push	{r4, r5, lr}
 3682              	.LCFI14:
 3683              		.cfi_def_cfa_offset 12
 3684              		.cfi_offset 4, -12
 3685              		.cfi_offset 5, -8
 3686              		.cfi_offset 14, -4
 992:Core/Src/adBms6830ParseCreate.cpp ****   uint8_t address = 0;
 3687              		.loc 1 992 3 is_stmt 1 view .LVU1421
 3688              	.LVL240:
 993:Core/Src/adBms6830ParseCreate.cpp ****   for(uint8_t curr_ic = 0; curr_ic < tIC; curr_ic++)
 3689              		.loc 1 993 3 view .LVU1422
 3690              	.LBB31:
 3691              		.loc 1 993 15 is_stmt 0 view .LVU1423
 3692 0002 4FF0000C 		mov	ip, #0
 3693              	.LBE31:
 992:Core/Src/adBms6830ParseCreate.cpp ****   uint8_t address = 0;
 3694              		.loc 1 992 11 view .LVU1424
 3695 0006 E646     		mov	lr, ip
 3696              	.LBB32:
 3697              		.loc 1 993 3 view .LVU1425
 3698 0008 2CE0     		b	.L178
 3699              	.LVL241:
 3700              	.L179:
 994:Core/Src/adBms6830ParseCreate.cpp ****   {
 995:Core/Src/adBms6830ParseCreate.cpp ****     memcpy(&ic[curr_ic].stat.rx_data[0], &data[address], RX_DATA); /* dst , src , size */
 3701              		.loc 1 995 5 is_stmt 1 discriminator 3 view .LVU1426
 3702              		.loc 1 995 23 is_stmt 0 discriminator 3 view .LVU1427
 3703 000a 4FF42873 		mov	r3, #672
 3704 000e 03FB0C13 		mla	r3, r3, ip, r1
 3705              		.loc 1 995 42 discriminator 3 view .LVU1428
 3706 0012 02EB0E04 		add	r4, r2, lr
 3707              		.loc 1 995 11 discriminator 3 view .LVU1429
 3708 0016 52F80E50 		ldr	r5, [r2, lr]	@ unaligned
 3709 001a 6468     		ldr	r4, [r4, #4]	@ unaligned
 3710 001c C3F84F51 		str	r5, [r3, #335]	@ unaligned
 3711 0020 C3F85341 		str	r4, [r3, #339]	@ unaligned
 996:Core/Src/adBms6830ParseCreate.cpp ****     address = ((curr_ic+1) * (RX_DATA));
 3712              		.loc 1 996 5 is_stmt 1 discriminator 3 view .LVU1430
 3713              		.loc 1 996 13 is_stmt 0 discriminator 3 view .LVU1431
 3714 0024 0CF1010C 		add	ip, ip, #1
 3715              	.LVL242:
 3716              		.loc 1 996 13 discriminator 3 view .LVU1432
 3717 0028 5FFA8CFC 		uxtb	ip, ip
 3718 002c 4FEACC0E 		lsl	lr, ip, #3
 3719              	.LVL243:
ARM GAS  C:\Users\huawei\AppData\Local\Temp\ccwYaMVL.s 			page 86


 3720              		.loc 1 996 13 discriminator 3 view .LVU1433
 3721 0030 5FFA8EFE 		uxtb	lr, lr
 3722              	.LVL244:
 997:Core/Src/adBms6830ParseCreate.cpp ****     ic[curr_ic].statb.vd   = (ic[curr_ic].stat.rx_data[0] + (ic[curr_ic].stat.rx_data[1] << 8));
 3723              		.loc 1 997 5 is_stmt 1 discriminator 3 view .LVU1434
 3724              		.loc 1 997 57 is_stmt 0 discriminator 3 view .LVU1435
 3725 0034 93F84F41 		ldrb	r4, [r3, #335]	@ zero_extendqisi2
 3726              		.loc 1 997 88 discriminator 3 view .LVU1436
 3727 0038 93F85051 		ldrb	r5, [r3, #336]	@ zero_extendqisi2
 3728              		.loc 1 997 59 discriminator 3 view .LVU1437
 3729 003c 04EB0524 		add	r4, r4, r5, lsl #8
 3730              		.loc 1 997 28 discriminator 3 view .LVU1438
 3731 0040 A3F8D240 		strh	r4, [r3, #210]	@ movhi
 998:Core/Src/adBms6830ParseCreate.cpp ****     ic[curr_ic].statb.va = (ic[curr_ic].stat.rx_data[2] + (ic[curr_ic].stat.rx_data[3] << 8));
 3732              		.loc 1 998 5 is_stmt 1 discriminator 3 view .LVU1439
 3733              		.loc 1 998 55 is_stmt 0 discriminator 3 view .LVU1440
 3734 0044 93F85141 		ldrb	r4, [r3, #337]	@ zero_extendqisi2
 3735              		.loc 1 998 86 discriminator 3 view .LVU1441
 3736 0048 93F85251 		ldrb	r5, [r3, #338]	@ zero_extendqisi2
 3737              		.loc 1 998 57 discriminator 3 view .LVU1442
 3738 004c 04EB0524 		add	r4, r4, r5, lsl #8
 3739              		.loc 1 998 26 discriminator 3 view .LVU1443
 3740 0050 A3F8D440 		strh	r4, [r3, #212]	@ movhi
 999:Core/Src/adBms6830ParseCreate.cpp ****     ic[curr_ic].statb.vr4k   = (ic[curr_ic].stat.rx_data[4] + (ic[curr_ic].stat.rx_data[5] << 8));
 3741              		.loc 1 999 5 is_stmt 1 discriminator 3 view .LVU1444
 3742              		.loc 1 999 59 is_stmt 0 discriminator 3 view .LVU1445
 3743 0054 93F85341 		ldrb	r4, [r3, #339]	@ zero_extendqisi2
 3744              		.loc 1 999 90 discriminator 3 view .LVU1446
 3745 0058 93F85451 		ldrb	r5, [r3, #340]	@ zero_extendqisi2
 3746              		.loc 1 999 61 discriminator 3 view .LVU1447
 3747 005c 04EB0524 		add	r4, r4, r5, lsl #8
 3748              		.loc 1 999 30 discriminator 3 view .LVU1448
 3749 0060 A3F8D640 		strh	r4, [r3, #214]	@ movhi
 993:Core/Src/adBms6830ParseCreate.cpp ****   {
 3750              		.loc 1 993 3 is_stmt 1 discriminator 3 view .LVU1449
 3751              	.LVL245:
 3752              	.L178:
 993:Core/Src/adBms6830ParseCreate.cpp ****   {
 3753              		.loc 1 993 36 discriminator 1 view .LVU1450
 3754 0064 8445     		cmp	ip, r0
 3755 0066 D0D3     		bcc	.L179
 3756              	.LBE32:
1000:Core/Src/adBms6830ParseCreate.cpp ****   }
1001:Core/Src/adBms6830ParseCreate.cpp **** }
 3757              		.loc 1 1001 1 is_stmt 0 view .LVU1451
 3758 0068 30BD     		pop	{r4, r5, pc}
 3759              		.cfi_endproc
 3760              	.LFE262:
 3761              		.cantunwind
 3762              		.fnend
 3764              		.section	.text._Z21adBms6830ParseStatusChP9cell_asicPh,"ax",%progbits
 3765              		.align	1
 3766              		.global	_Z21adBms6830ParseStatusChP9cell_asicPh
 3767              		.syntax unified
 3768              		.thumb
 3769              		.thumb_func
 3771              	_Z21adBms6830ParseStatusChP9cell_asicPh:
ARM GAS  C:\Users\huawei\AppData\Local\Temp\ccwYaMVL.s 			page 87


 3772              		.fnstart
 3773              	.LVL246:
 3774              	.LFB263:
1002:Core/Src/adBms6830ParseCreate.cpp **** 
1003:Core/Src/adBms6830ParseCreate.cpp **** /**
1004:Core/Src/adBms6830ParseCreate.cpp ****  *******************************************************************************
1005:Core/Src/adBms6830ParseCreate.cpp ****  * Function: adBms6830ParseStatusC
1006:Core/Src/adBms6830ParseCreate.cpp ****  * @brief Parse status C register data
1007:Core/Src/adBms6830ParseCreate.cpp ****  *
1008:Core/Src/adBms6830ParseCreate.cpp ****  * @details This function Parse the recived status C register data.
1009:Core/Src/adBms6830ParseCreate.cpp ****  *
1010:Core/Src/adBms6830ParseCreate.cpp ****  * Parameters:
1011:Core/Src/adBms6830ParseCreate.cpp ****  *
1012:Core/Src/adBms6830ParseCreate.cpp ****  * @param [in]  tIC                     Total IC
1013:Core/Src/adBms6830ParseCreate.cpp ****  *
1014:Core/Src/adBms6830ParseCreate.cpp ****  * @param [in]  *ic                     cell_asic ic structure pointer
1015:Core/Src/adBms6830ParseCreate.cpp ****  *
1016:Core/Src/adBms6830ParseCreate.cpp ****  * @param [in]  *data                   data pointer
1017:Core/Src/adBms6830ParseCreate.cpp ****  *
1018:Core/Src/adBms6830ParseCreate.cpp ****  * @return None
1019:Core/Src/adBms6830ParseCreate.cpp ****  *
1020:Core/Src/adBms6830ParseCreate.cpp ****  *******************************************************************************
1021:Core/Src/adBms6830ParseCreate.cpp **** */
1022:Core/Src/adBms6830ParseCreate.cpp **** void adBms6830ParseStatusC(uint8_t tIC, cell_asic *ic, uint8_t *data)
1023:Core/Src/adBms6830ParseCreate.cpp **** {
 3775              		.loc 1 1023 1 is_stmt 1 view -0
 3776              		.cfi_startproc
 3777              		@ args = 0, pretend = 0, frame = 0
 3778              		@ frame_needed = 0, uses_anonymous_args = 0
 3779              		.loc 1 1023 1 is_stmt 0 view .LVU1453
 3780 0000 70B5     		push	{r4, r5, r6, lr}
 3781              	.LCFI15:
 3782              		.cfi_def_cfa_offset 16
 3783              		.cfi_offset 4, -16
 3784              		.cfi_offset 5, -12
 3785              		.cfi_offset 6, -8
 3786              		.cfi_offset 14, -4
1024:Core/Src/adBms6830ParseCreate.cpp ****   uint8_t address = 0;
 3787              		.loc 1 1024 3 is_stmt 1 view .LVU1454
 3788              	.LVL247:
1025:Core/Src/adBms6830ParseCreate.cpp ****   for(uint8_t curr_ic = 0; curr_ic < tIC; curr_ic++)
 3789              		.loc 1 1025 3 view .LVU1455
 3790              	.LBB33:
 3791              		.loc 1 1025 15 is_stmt 0 view .LVU1456
 3792 0002 4FF0000E 		mov	lr, #0
 3793              	.LBE33:
1024:Core/Src/adBms6830ParseCreate.cpp ****   uint8_t address = 0;
 3794              		.loc 1 1024 11 view .LVU1457
 3795 0006 7446     		mov	r4, lr
 3796              	.LBB34:
 3797              		.loc 1 1025 3 view .LVU1458
 3798 0008 8BE0     		b	.L182
 3799              	.LVL248:
 3800              	.L183:
1026:Core/Src/adBms6830ParseCreate.cpp ****   {
1027:Core/Src/adBms6830ParseCreate.cpp ****     memcpy(&ic[curr_ic].stat.rx_data[0], &data[address], RX_DATA); /* dst , src , size */
 3801              		.loc 1 1027 5 is_stmt 1 discriminator 3 view .LVU1459
ARM GAS  C:\Users\huawei\AppData\Local\Temp\ccwYaMVL.s 			page 88


 3802              		.loc 1 1027 23 is_stmt 0 discriminator 3 view .LVU1460
 3803 000a 4FF42873 		mov	r3, #672
 3804 000e 03FB0E13 		mla	r3, r3, lr, r1
 3805              		.loc 1 1027 42 discriminator 3 view .LVU1461
 3806 0012 1619     		adds	r6, r2, r4
 3807              		.loc 1 1027 11 discriminator 3 view .LVU1462
 3808 0014 1559     		ldr	r5, [r2, r4]	@ unaligned
 3809 0016 7468     		ldr	r4, [r6, #4]	@ unaligned
 3810              	.LVL249:
 3811              		.loc 1 1027 11 discriminator 3 view .LVU1463
 3812 0018 C3F84F51 		str	r5, [r3, #335]	@ unaligned
 3813 001c C3F85341 		str	r4, [r3, #339]	@ unaligned
1028:Core/Src/adBms6830ParseCreate.cpp ****     address = ((curr_ic+1) * (RX_DATA));
 3814              		.loc 1 1028 5 is_stmt 1 discriminator 3 view .LVU1464
 3815              		.loc 1 1028 13 is_stmt 0 discriminator 3 view .LVU1465
 3816 0020 0EF1010E 		add	lr, lr, #1
 3817              	.LVL250:
 3818              		.loc 1 1028 13 discriminator 3 view .LVU1466
 3819 0024 5FFA8EFE 		uxtb	lr, lr
 3820 0028 4FEACE04 		lsl	r4, lr, #3
 3821 002c E4B2     		uxtb	r4, r4
 3822              	.LVL251:
1029:Core/Src/adBms6830ParseCreate.cpp ****     ic[curr_ic].statc.cs_flt   = (ic[curr_ic].stat.rx_data[0] + (ic[curr_ic].stat.rx_data[1] << 8))
 3823              		.loc 1 1029 5 is_stmt 1 discriminator 3 view .LVU1467
 3824              		.loc 1 1029 61 is_stmt 0 discriminator 3 view .LVU1468
 3825 002e 93F84FC1 		ldrb	ip, [r3, #335]	@ zero_extendqisi2
 3826              		.loc 1 1029 92 discriminator 3 view .LVU1469
 3827 0032 93F85051 		ldrb	r5, [r3, #336]	@ zero_extendqisi2
 3828              		.loc 1 1029 63 discriminator 3 view .LVU1470
 3829 0036 0CEB052C 		add	ip, ip, r5, lsl #8
 3830              		.loc 1 1029 32 discriminator 3 view .LVU1471
 3831 003a A3F8D8C0 		strh	ip, [r3, #216]	@ movhi
1030:Core/Src/adBms6830ParseCreate.cpp ****     ic[curr_ic].statc.otp2_med = (ic[curr_ic].stat.rx_data[4] & 0x01);
 3832              		.loc 1 1030 5 is_stmt 1 discriminator 3 view .LVU1472
 3833              		.loc 1 1030 61 is_stmt 0 discriminator 3 view .LVU1473
 3834 003e 93F853C1 		ldrb	ip, [r3, #339]	@ zero_extendqisi2
 3835              		.loc 1 1030 32 discriminator 3 view .LVU1474
 3836 0042 93F8DA50 		ldrb	r5, [r3, #218]	@ zero_extendqisi2
 3837 0046 6CF3C715 		bfi	r5, ip, #7, #1
 3838 004a 83F8DA50 		strb	r5, [r3, #218]
1031:Core/Src/adBms6830ParseCreate.cpp ****     ic[curr_ic].statc.otp2_ed = ((ic[curr_ic].stat.rx_data[4] & 0x02) >> 1);
 3839              		.loc 1 1031 5 is_stmt 1 discriminator 3 view .LVU1475
 3840              		.loc 1 1031 71 is_stmt 0 discriminator 3 view .LVU1476
 3841 004e 4FEA5C06 		lsr	r6, ip, #1
 3842              		.loc 1 1031 31 discriminator 3 view .LVU1477
 3843 0052 EDB2     		uxtb	r5, r5
 3844 0054 66F38615 		bfi	r5, r6, #6, #1
 3845 0058 83F8DA50 		strb	r5, [r3, #218]
1032:Core/Src/adBms6830ParseCreate.cpp ****     ic[curr_ic].statc.otp1_med = ((ic[curr_ic].stat.rx_data[4] & 0x04) >> 2);
 3846              		.loc 1 1032 5 is_stmt 1 discriminator 3 view .LVU1478
 3847              		.loc 1 1032 72 is_stmt 0 discriminator 3 view .LVU1479
 3848 005c 4FEA9C06 		lsr	r6, ip, #2
 3849              		.loc 1 1032 32 discriminator 3 view .LVU1480
 3850 0060 EDB2     		uxtb	r5, r5
 3851 0062 66F34515 		bfi	r5, r6, #5, #1
 3852 0066 83F8DA50 		strb	r5, [r3, #218]
1033:Core/Src/adBms6830ParseCreate.cpp ****     ic[curr_ic].statc.otp1_ed = ((ic[curr_ic].stat.rx_data[4] & 0x08) >> 3);
ARM GAS  C:\Users\huawei\AppData\Local\Temp\ccwYaMVL.s 			page 89


 3853              		.loc 1 1033 5 is_stmt 1 discriminator 3 view .LVU1481
 3854              		.loc 1 1033 71 is_stmt 0 discriminator 3 view .LVU1482
 3855 006a 4FEADC06 		lsr	r6, ip, #3
 3856              		.loc 1 1033 31 discriminator 3 view .LVU1483
 3857 006e EDB2     		uxtb	r5, r5
 3858 0070 66F30415 		bfi	r5, r6, #4, #1
 3859 0074 83F8DA50 		strb	r5, [r3, #218]
1034:Core/Src/adBms6830ParseCreate.cpp ****     ic[curr_ic].statc.vd_uv  = ((ic[curr_ic].stat.rx_data[4] & 0x10) >> 4);
 3860              		.loc 1 1034 5 is_stmt 1 discriminator 3 view .LVU1484
 3861              		.loc 1 1034 70 is_stmt 0 discriminator 3 view .LVU1485
 3862 0078 4FEA1C16 		lsr	r6, ip, #4
 3863              		.loc 1 1034 30 discriminator 3 view .LVU1486
 3864 007c EDB2     		uxtb	r5, r5
 3865 007e 66F3C305 		bfi	r5, r6, #3, #1
 3866 0082 83F8DA50 		strb	r5, [r3, #218]
1035:Core/Src/adBms6830ParseCreate.cpp ****     ic[curr_ic].statc.vd_ov = ((ic[curr_ic].stat.rx_data[4] & 0x20) >> 5);
 3867              		.loc 1 1035 5 is_stmt 1 discriminator 3 view .LVU1487
 3868              		.loc 1 1035 69 is_stmt 0 discriminator 3 view .LVU1488
 3869 0086 4FEA5C16 		lsr	r6, ip, #5
 3870              		.loc 1 1035 29 discriminator 3 view .LVU1489
 3871 008a EDB2     		uxtb	r5, r5
 3872 008c 66F38205 		bfi	r5, r6, #2, #1
 3873 0090 83F8DA50 		strb	r5, [r3, #218]
1036:Core/Src/adBms6830ParseCreate.cpp ****     ic[curr_ic].statc.va_uv = ((ic[curr_ic].stat.rx_data[4] & 0x40) >> 6);
 3874              		.loc 1 1036 5 is_stmt 1 discriminator 3 view .LVU1490
 3875              		.loc 1 1036 69 is_stmt 0 discriminator 3 view .LVU1491
 3876 0094 4FEA9C16 		lsr	r6, ip, #6
 3877              		.loc 1 1036 29 discriminator 3 view .LVU1492
 3878 0098 EDB2     		uxtb	r5, r5
 3879 009a 66F34105 		bfi	r5, r6, #1, #1
 3880 009e 83F8DA50 		strb	r5, [r3, #218]
1037:Core/Src/adBms6830ParseCreate.cpp ****     ic[curr_ic].statc.va_ov = ((ic[curr_ic].stat.rx_data[4] & 0x80) >> 7);
 3881              		.loc 1 1037 5 is_stmt 1 discriminator 3 view .LVU1493
 3882              		.loc 1 1037 69 is_stmt 0 discriminator 3 view .LVU1494
 3883 00a2 4FEADC1C 		lsr	ip, ip, #7
 3884              		.loc 1 1037 29 discriminator 3 view .LVU1495
 3885 00a6 EDB2     		uxtb	r5, r5
 3886 00a8 6CF30005 		bfi	r5, ip, #0, #1
 3887 00ac 83F8DA50 		strb	r5, [r3, #218]
1038:Core/Src/adBms6830ParseCreate.cpp ****     ic[curr_ic].statc.oscchk = (ic[curr_ic].stat.rx_data[5] & 0x01);
 3888              		.loc 1 1038 5 is_stmt 1 discriminator 3 view .LVU1496
 3889              		.loc 1 1038 59 is_stmt 0 discriminator 3 view .LVU1497
 3890 00b0 93F854C1 		ldrb	ip, [r3, #340]	@ zero_extendqisi2
 3891              		.loc 1 1038 30 discriminator 3 view .LVU1498
 3892 00b4 93F8DB50 		ldrb	r5, [r3, #219]	@ zero_extendqisi2
 3893 00b8 6CF3C715 		bfi	r5, ip, #7, #1
 3894 00bc 83F8DB50 		strb	r5, [r3, #219]
1039:Core/Src/adBms6830ParseCreate.cpp ****     ic[curr_ic].statc.tmodchk = ((ic[curr_ic].stat.rx_data[5] & 0x02) >> 1);
 3895              		.loc 1 1039 5 is_stmt 1 discriminator 3 view .LVU1499
 3896              		.loc 1 1039 71 is_stmt 0 discriminator 3 view .LVU1500
 3897 00c0 4FEA5C06 		lsr	r6, ip, #1
 3898              		.loc 1 1039 31 discriminator 3 view .LVU1501
 3899 00c4 EDB2     		uxtb	r5, r5
 3900 00c6 66F38615 		bfi	r5, r6, #6, #1
 3901 00ca 83F8DB50 		strb	r5, [r3, #219]
1040:Core/Src/adBms6830ParseCreate.cpp ****     ic[curr_ic].statc.thsd = ((ic[curr_ic].stat.rx_data[5] & 0x04) >> 2);
 3902              		.loc 1 1040 5 is_stmt 1 discriminator 3 view .LVU1502
ARM GAS  C:\Users\huawei\AppData\Local\Temp\ccwYaMVL.s 			page 90


 3903              		.loc 1 1040 68 is_stmt 0 discriminator 3 view .LVU1503
 3904 00ce 4FEA9C06 		lsr	r6, ip, #2
 3905              		.loc 1 1040 28 discriminator 3 view .LVU1504
 3906 00d2 EDB2     		uxtb	r5, r5
 3907 00d4 66F34515 		bfi	r5, r6, #5, #1
 3908 00d8 83F8DB50 		strb	r5, [r3, #219]
1041:Core/Src/adBms6830ParseCreate.cpp ****     ic[curr_ic].statc.sleep = ((ic[curr_ic].stat.rx_data[5] & 0x08) >> 3);
 3909              		.loc 1 1041 5 is_stmt 1 discriminator 3 view .LVU1505
 3910              		.loc 1 1041 69 is_stmt 0 discriminator 3 view .LVU1506
 3911 00dc 4FEADC06 		lsr	r6, ip, #3
 3912              		.loc 1 1041 29 discriminator 3 view .LVU1507
 3913 00e0 EDB2     		uxtb	r5, r5
 3914 00e2 66F30415 		bfi	r5, r6, #4, #1
 3915 00e6 83F8DB50 		strb	r5, [r3, #219]
1042:Core/Src/adBms6830ParseCreate.cpp ****     ic[curr_ic].statc.spiflt  = ((ic[curr_ic].stat.rx_data[5] & 0x10) >> 4);
 3916              		.loc 1 1042 5 is_stmt 1 discriminator 3 view .LVU1508
 3917              		.loc 1 1042 71 is_stmt 0 discriminator 3 view .LVU1509
 3918 00ea 4FEA1C16 		lsr	r6, ip, #4
 3919              		.loc 1 1042 31 discriminator 3 view .LVU1510
 3920 00ee EDB2     		uxtb	r5, r5
 3921 00f0 66F3C305 		bfi	r5, r6, #3, #1
 3922 00f4 83F8DB50 		strb	r5, [r3, #219]
1043:Core/Src/adBms6830ParseCreate.cpp ****     ic[curr_ic].statc.comp = ((ic[curr_ic].stat.rx_data[5] & 0x20) >> 5);
 3923              		.loc 1 1043 5 is_stmt 1 discriminator 3 view .LVU1511
 3924              		.loc 1 1043 68 is_stmt 0 discriminator 3 view .LVU1512
 3925 00f8 4FEA5C16 		lsr	r6, ip, #5
 3926              		.loc 1 1043 28 discriminator 3 view .LVU1513
 3927 00fc EDB2     		uxtb	r5, r5
 3928 00fe 66F38205 		bfi	r5, r6, #2, #1
 3929 0102 83F8DB50 		strb	r5, [r3, #219]
1044:Core/Src/adBms6830ParseCreate.cpp ****     ic[curr_ic].statc.vdel = ((ic[curr_ic].stat.rx_data[5] & 0x40) >> 6);
 3930              		.loc 1 1044 5 is_stmt 1 discriminator 3 view .LVU1514
 3931              		.loc 1 1044 68 is_stmt 0 discriminator 3 view .LVU1515
 3932 0106 4FEA9C16 		lsr	r6, ip, #6
 3933              		.loc 1 1044 28 discriminator 3 view .LVU1516
 3934 010a EDB2     		uxtb	r5, r5
 3935 010c 66F34105 		bfi	r5, r6, #1, #1
 3936 0110 83F8DB50 		strb	r5, [r3, #219]
1045:Core/Src/adBms6830ParseCreate.cpp ****     ic[curr_ic].statc.vde = ((ic[curr_ic].stat.rx_data[5] & 0x80) >> 7);
 3937              		.loc 1 1045 5 is_stmt 1 discriminator 3 view .LVU1517
 3938              		.loc 1 1045 67 is_stmt 0 discriminator 3 view .LVU1518
 3939 0114 4FEADC1C 		lsr	ip, ip, #7
 3940              		.loc 1 1045 27 discriminator 3 view .LVU1519
 3941 0118 EDB2     		uxtb	r5, r5
 3942 011a 6CF30005 		bfi	r5, ip, #0, #1
 3943 011e 83F8DB50 		strb	r5, [r3, #219]
1025:Core/Src/adBms6830ParseCreate.cpp ****   {
 3944              		.loc 1 1025 3 is_stmt 1 discriminator 3 view .LVU1520
 3945              	.LVL252:
 3946              	.L182:
1025:Core/Src/adBms6830ParseCreate.cpp ****   {
 3947              		.loc 1 1025 36 discriminator 1 view .LVU1521
 3948 0122 8645     		cmp	lr, r0
 3949 0124 FFF471AF 		bcc	.L183
 3950              	.LBE34:
1046:Core/Src/adBms6830ParseCreate.cpp ****   }
1047:Core/Src/adBms6830ParseCreate.cpp **** }
ARM GAS  C:\Users\huawei\AppData\Local\Temp\ccwYaMVL.s 			page 91


 3951              		.loc 1 1047 1 is_stmt 0 view .LVU1522
 3952 0128 70BD     		pop	{r4, r5, r6, pc}
 3953              		.loc 1 1047 1 view .LVU1523
 3954              		.cfi_endproc
 3955              	.LFE263:
 3956              		.cantunwind
 3957              		.fnend
 3959              		.section	.text._Z21adBms6830ParseStatusDhP9cell_asicPh,"ax",%progbits
 3960              		.align	1
 3961              		.global	_Z21adBms6830ParseStatusDhP9cell_asicPh
 3962              		.syntax unified
 3963              		.thumb
 3964              		.thumb_func
 3966              	_Z21adBms6830ParseStatusDhP9cell_asicPh:
 3967              		.fnstart
 3968              	.LVL253:
 3969              	.LFB264:
1048:Core/Src/adBms6830ParseCreate.cpp **** 
1049:Core/Src/adBms6830ParseCreate.cpp **** /**
1050:Core/Src/adBms6830ParseCreate.cpp ****  *******************************************************************************
1051:Core/Src/adBms6830ParseCreate.cpp ****  * Function: adBms6830ParseStatusD
1052:Core/Src/adBms6830ParseCreate.cpp ****  * @brief Parse status D register data
1053:Core/Src/adBms6830ParseCreate.cpp ****  *
1054:Core/Src/adBms6830ParseCreate.cpp ****  * @details This function Parse the recived status D register data.
1055:Core/Src/adBms6830ParseCreate.cpp ****  *
1056:Core/Src/adBms6830ParseCreate.cpp ****  * Parameters:
1057:Core/Src/adBms6830ParseCreate.cpp ****  *
1058:Core/Src/adBms6830ParseCreate.cpp ****  * @param [in]  tIC                     Total IC
1059:Core/Src/adBms6830ParseCreate.cpp ****  *
1060:Core/Src/adBms6830ParseCreate.cpp ****  * @param [in]  *ic                     cell_asic ic structure pointer
1061:Core/Src/adBms6830ParseCreate.cpp ****  *
1062:Core/Src/adBms6830ParseCreate.cpp ****  * @param [in]  *data                   data pointer
1063:Core/Src/adBms6830ParseCreate.cpp ****  *
1064:Core/Src/adBms6830ParseCreate.cpp ****  * @return None
1065:Core/Src/adBms6830ParseCreate.cpp ****  *
1066:Core/Src/adBms6830ParseCreate.cpp ****  *******************************************************************************
1067:Core/Src/adBms6830ParseCreate.cpp **** */
1068:Core/Src/adBms6830ParseCreate.cpp **** void adBms6830ParseStatusD(uint8_t tIC, cell_asic *ic, uint8_t *data)
1069:Core/Src/adBms6830ParseCreate.cpp **** {
 3970              		.loc 1 1069 1 is_stmt 1 view -0
 3971              		.cfi_startproc
 3972              		@ args = 0, pretend = 0, frame = 0
 3973              		@ frame_needed = 0, uses_anonymous_args = 0
 3974              		.loc 1 1069 1 is_stmt 0 view .LVU1525
 3975 0000 30B5     		push	{r4, r5, lr}
 3976              	.LCFI16:
 3977              		.cfi_def_cfa_offset 12
 3978              		.cfi_offset 4, -12
 3979              		.cfi_offset 5, -8
 3980              		.cfi_offset 14, -4
1070:Core/Src/adBms6830ParseCreate.cpp ****   uint8_t address = 0;
 3981              		.loc 1 1070 3 is_stmt 1 view .LVU1526
 3982              	.LVL254:
1071:Core/Src/adBms6830ParseCreate.cpp ****   for(uint8_t curr_ic = 0; curr_ic < tIC; curr_ic++)
 3983              		.loc 1 1071 3 view .LVU1527
 3984              	.LBB35:
 3985              		.loc 1 1071 15 is_stmt 0 view .LVU1528
ARM GAS  C:\Users\huawei\AppData\Local\Temp\ccwYaMVL.s 			page 92


 3986 0002 4FF0000E 		mov	lr, #0
 3987              	.LBE35:
1070:Core/Src/adBms6830ParseCreate.cpp ****   uint8_t address = 0;
 3988              		.loc 1 1070 11 view .LVU1529
 3989 0006 7446     		mov	r4, lr
 3990              	.LBB36:
 3991              		.loc 1 1071 3 view .LVU1530
 3992 0008 AEE0     		b	.L186
 3993              	.LVL255:
 3994              	.L187:
1072:Core/Src/adBms6830ParseCreate.cpp ****   {
1073:Core/Src/adBms6830ParseCreate.cpp ****     memcpy(&ic[curr_ic].stat.rx_data[0], &data[address], RX_DATA); /* dst , src , size */
 3995              		.loc 1 1073 5 is_stmt 1 discriminator 3 view .LVU1531
 3996              		.loc 1 1073 23 is_stmt 0 discriminator 3 view .LVU1532
 3997 000a 4FF42873 		mov	r3, #672
 3998 000e 03FB0E13 		mla	r3, r3, lr, r1
 3999              		.loc 1 1073 42 discriminator 3 view .LVU1533
 4000 0012 02EB040C 		add	ip, r2, r4
 4001              		.loc 1 1073 11 discriminator 3 view .LVU1534
 4002 0016 1559     		ldr	r5, [r2, r4]	@ unaligned
 4003 0018 DCF80440 		ldr	r4, [ip, #4]	@ unaligned
 4004              	.LVL256:
 4005              		.loc 1 1073 11 discriminator 3 view .LVU1535
 4006 001c C3F84F51 		str	r5, [r3, #335]	@ unaligned
 4007 0020 C3F85341 		str	r4, [r3, #339]	@ unaligned
1074:Core/Src/adBms6830ParseCreate.cpp ****     address = ((curr_ic+1) * (RX_DATA));
 4008              		.loc 1 1074 5 is_stmt 1 discriminator 3 view .LVU1536
 4009              		.loc 1 1074 13 is_stmt 0 discriminator 3 view .LVU1537
 4010 0024 0EF1010E 		add	lr, lr, #1
 4011              	.LVL257:
 4012              		.loc 1 1074 13 discriminator 3 view .LVU1538
 4013 0028 5FFA8EFE 		uxtb	lr, lr
 4014 002c 4FEACE04 		lsl	r4, lr, #3
 4015 0030 E4B2     		uxtb	r4, r4
 4016              	.LVL258:
1075:Core/Src/adBms6830ParseCreate.cpp ****     /* uv, ov bits 1 to 4 status bits */
1076:Core/Src/adBms6830ParseCreate.cpp ****     ic[curr_ic].statd.c_uv[0] = (ic[curr_ic].stat.rx_data[0] & 0x01);
 4017              		.loc 1 1076 5 is_stmt 1 discriminator 3 view .LVU1539
 4018              		.loc 1 1076 60 is_stmt 0 discriminator 3 view .LVU1540
 4019 0032 93F84FC1 		ldrb	ip, [r3, #335]	@ zero_extendqisi2
 4020              		.loc 1 1076 62 discriminator 3 view .LVU1541
 4021 0036 0CF00105 		and	r5, ip, #1
 4022              		.loc 1 1076 31 discriminator 3 view .LVU1542
 4023 003a 83F8EC50 		strb	r5, [r3, #236]
1077:Core/Src/adBms6830ParseCreate.cpp ****     ic[curr_ic].statd.c_ov[0] = ((ic[curr_ic].stat.rx_data[0] & 0x02) >> 1);
 4024              		.loc 1 1077 5 is_stmt 1 discriminator 3 view .LVU1543
 4025              		.loc 1 1077 71 is_stmt 0 discriminator 3 view .LVU1544
 4026 003e CCF34005 		ubfx	r5, ip, #1, #1
 4027              		.loc 1 1077 31 discriminator 3 view .LVU1545
 4028 0042 83F8DC50 		strb	r5, [r3, #220]
1078:Core/Src/adBms6830ParseCreate.cpp ****     ic[curr_ic].statd.c_uv[1] = ((ic[curr_ic].stat.rx_data[0] & 0x04) >> 2);
 4029              		.loc 1 1078 5 is_stmt 1 discriminator 3 view .LVU1546
 4030              		.loc 1 1078 71 is_stmt 0 discriminator 3 view .LVU1547
 4031 0046 CCF38005 		ubfx	r5, ip, #2, #1
 4032              		.loc 1 1078 31 discriminator 3 view .LVU1548
 4033 004a 83F8ED50 		strb	r5, [r3, #237]
1079:Core/Src/adBms6830ParseCreate.cpp ****     ic[curr_ic].statd.c_ov[1] = ((ic[curr_ic].stat.rx_data[0] & 0x08) >> 3);
ARM GAS  C:\Users\huawei\AppData\Local\Temp\ccwYaMVL.s 			page 93


 4034              		.loc 1 1079 5 is_stmt 1 discriminator 3 view .LVU1549
 4035              		.loc 1 1079 71 is_stmt 0 discriminator 3 view .LVU1550
 4036 004e CCF3C005 		ubfx	r5, ip, #3, #1
 4037              		.loc 1 1079 31 discriminator 3 view .LVU1551
 4038 0052 83F8DD50 		strb	r5, [r3, #221]
1080:Core/Src/adBms6830ParseCreate.cpp ****     ic[curr_ic].statd.c_uv[2] = ((ic[curr_ic].stat.rx_data[0] & 0x10) >> 4);
 4039              		.loc 1 1080 5 is_stmt 1 discriminator 3 view .LVU1552
 4040              		.loc 1 1080 71 is_stmt 0 discriminator 3 view .LVU1553
 4041 0056 CCF30015 		ubfx	r5, ip, #4, #1
 4042              		.loc 1 1080 31 discriminator 3 view .LVU1554
 4043 005a 83F8EE50 		strb	r5, [r3, #238]
1081:Core/Src/adBms6830ParseCreate.cpp ****     ic[curr_ic].statd.c_ov[2] = ((ic[curr_ic].stat.rx_data[0] & 0x20) >> 5);
 4044              		.loc 1 1081 5 is_stmt 1 discriminator 3 view .LVU1555
 4045              		.loc 1 1081 71 is_stmt 0 discriminator 3 view .LVU1556
 4046 005e CCF34015 		ubfx	r5, ip, #5, #1
 4047              		.loc 1 1081 31 discriminator 3 view .LVU1557
 4048 0062 83F8DE50 		strb	r5, [r3, #222]
1082:Core/Src/adBms6830ParseCreate.cpp ****     ic[curr_ic].statd.c_uv[3] = ((ic[curr_ic].stat.rx_data[0] & 0x40) >> 6);
 4049              		.loc 1 1082 5 is_stmt 1 discriminator 3 view .LVU1558
 4050              		.loc 1 1082 71 is_stmt 0 discriminator 3 view .LVU1559
 4051 0066 CCF38015 		ubfx	r5, ip, #6, #1
 4052              		.loc 1 1082 31 discriminator 3 view .LVU1560
 4053 006a 83F8EF50 		strb	r5, [r3, #239]
1083:Core/Src/adBms6830ParseCreate.cpp ****     ic[curr_ic].statd.c_ov[3] = ((ic[curr_ic].stat.rx_data[0] & 0x80) >> 7);
 4054              		.loc 1 1083 5 is_stmt 1 discriminator 3 view .LVU1561
 4055              		.loc 1 1083 71 is_stmt 0 discriminator 3 view .LVU1562
 4056 006e 4FEADC1C 		lsr	ip, ip, #7
 4057              		.loc 1 1083 31 discriminator 3 view .LVU1563
 4058 0072 83F8DFC0 		strb	ip, [r3, #223]
1084:Core/Src/adBms6830ParseCreate.cpp ****     /* uv, ov bits 5 to 8 status bits */
1085:Core/Src/adBms6830ParseCreate.cpp ****     ic[curr_ic].statd.c_uv[4] = (ic[curr_ic].stat.rx_data[1] & 0x01);
 4059              		.loc 1 1085 5 is_stmt 1 discriminator 3 view .LVU1564
 4060              		.loc 1 1085 60 is_stmt 0 discriminator 3 view .LVU1565
 4061 0076 93F850C1 		ldrb	ip, [r3, #336]	@ zero_extendqisi2
 4062              		.loc 1 1085 62 discriminator 3 view .LVU1566
 4063 007a 0CF00105 		and	r5, ip, #1
 4064              		.loc 1 1085 31 discriminator 3 view .LVU1567
 4065 007e 83F8F050 		strb	r5, [r3, #240]
1086:Core/Src/adBms6830ParseCreate.cpp ****     ic[curr_ic].statd.c_ov[4] = ((ic[curr_ic].stat.rx_data[1] & 0x02) >> 1);
 4066              		.loc 1 1086 5 is_stmt 1 discriminator 3 view .LVU1568
 4067              		.loc 1 1086 71 is_stmt 0 discriminator 3 view .LVU1569
 4068 0082 CCF34005 		ubfx	r5, ip, #1, #1
 4069              		.loc 1 1086 31 discriminator 3 view .LVU1570
 4070 0086 83F8E050 		strb	r5, [r3, #224]
1087:Core/Src/adBms6830ParseCreate.cpp ****     ic[curr_ic].statd.c_uv[5] = ((ic[curr_ic].stat.rx_data[1] & 0x04) >> 2);
 4071              		.loc 1 1087 5 is_stmt 1 discriminator 3 view .LVU1571
 4072              		.loc 1 1087 71 is_stmt 0 discriminator 3 view .LVU1572
 4073 008a CCF38005 		ubfx	r5, ip, #2, #1
 4074              		.loc 1 1087 31 discriminator 3 view .LVU1573
 4075 008e 83F8F150 		strb	r5, [r3, #241]
1088:Core/Src/adBms6830ParseCreate.cpp ****     ic[curr_ic].statd.c_ov[5] = ((ic[curr_ic].stat.rx_data[1] & 0x08) >> 3);
 4076              		.loc 1 1088 5 is_stmt 1 discriminator 3 view .LVU1574
 4077              		.loc 1 1088 71 is_stmt 0 discriminator 3 view .LVU1575
 4078 0092 CCF3C005 		ubfx	r5, ip, #3, #1
 4079              		.loc 1 1088 31 discriminator 3 view .LVU1576
 4080 0096 83F8E150 		strb	r5, [r3, #225]
1089:Core/Src/adBms6830ParseCreate.cpp ****     ic[curr_ic].statd.c_uv[6] = ((ic[curr_ic].stat.rx_data[1] & 0x10) >> 4);
ARM GAS  C:\Users\huawei\AppData\Local\Temp\ccwYaMVL.s 			page 94


 4081              		.loc 1 1089 5 is_stmt 1 discriminator 3 view .LVU1577
 4082              		.loc 1 1089 71 is_stmt 0 discriminator 3 view .LVU1578
 4083 009a CCF30015 		ubfx	r5, ip, #4, #1
 4084              		.loc 1 1089 31 discriminator 3 view .LVU1579
 4085 009e 83F8F250 		strb	r5, [r3, #242]
1090:Core/Src/adBms6830ParseCreate.cpp ****     ic[curr_ic].statd.c_ov[6] = ((ic[curr_ic].stat.rx_data[1] & 0x20) >> 5);
 4086              		.loc 1 1090 5 is_stmt 1 discriminator 3 view .LVU1580
 4087              		.loc 1 1090 71 is_stmt 0 discriminator 3 view .LVU1581
 4088 00a2 CCF34015 		ubfx	r5, ip, #5, #1
 4089              		.loc 1 1090 31 discriminator 3 view .LVU1582
 4090 00a6 83F8E250 		strb	r5, [r3, #226]
1091:Core/Src/adBms6830ParseCreate.cpp ****     ic[curr_ic].statd.c_uv[7] = ((ic[curr_ic].stat.rx_data[1] & 0x40) >> 6);
 4091              		.loc 1 1091 5 is_stmt 1 discriminator 3 view .LVU1583
 4092              		.loc 1 1091 71 is_stmt 0 discriminator 3 view .LVU1584
 4093 00aa CCF38015 		ubfx	r5, ip, #6, #1
 4094              		.loc 1 1091 31 discriminator 3 view .LVU1585
 4095 00ae 83F8F350 		strb	r5, [r3, #243]
1092:Core/Src/adBms6830ParseCreate.cpp ****     ic[curr_ic].statd.c_ov[7] = ((ic[curr_ic].stat.rx_data[1] & 0x80) >> 7);
 4096              		.loc 1 1092 5 is_stmt 1 discriminator 3 view .LVU1586
 4097              		.loc 1 1092 71 is_stmt 0 discriminator 3 view .LVU1587
 4098 00b2 4FEADC1C 		lsr	ip, ip, #7
 4099              		.loc 1 1092 31 discriminator 3 view .LVU1588
 4100 00b6 83F8E3C0 		strb	ip, [r3, #227]
1093:Core/Src/adBms6830ParseCreate.cpp ****     /* uv, ov bits 9 to 12 status bits */
1094:Core/Src/adBms6830ParseCreate.cpp ****     ic[curr_ic].statd.c_uv[8] = (ic[curr_ic].stat.rx_data[2] & 0x01);
 4101              		.loc 1 1094 5 is_stmt 1 discriminator 3 view .LVU1589
 4102              		.loc 1 1094 60 is_stmt 0 discriminator 3 view .LVU1590
 4103 00ba 93F851C1 		ldrb	ip, [r3, #337]	@ zero_extendqisi2
 4104              		.loc 1 1094 62 discriminator 3 view .LVU1591
 4105 00be 0CF00105 		and	r5, ip, #1
 4106              		.loc 1 1094 31 discriminator 3 view .LVU1592
 4107 00c2 83F8F450 		strb	r5, [r3, #244]
1095:Core/Src/adBms6830ParseCreate.cpp ****     ic[curr_ic].statd.c_ov[8] = ((ic[curr_ic].stat.rx_data[2] & 0x02) >> 1);
 4108              		.loc 1 1095 5 is_stmt 1 discriminator 3 view .LVU1593
 4109              		.loc 1 1095 71 is_stmt 0 discriminator 3 view .LVU1594
 4110 00c6 CCF34005 		ubfx	r5, ip, #1, #1
 4111              		.loc 1 1095 31 discriminator 3 view .LVU1595
 4112 00ca 83F8E450 		strb	r5, [r3, #228]
1096:Core/Src/adBms6830ParseCreate.cpp ****     ic[curr_ic].statd.c_uv[9] = ((ic[curr_ic].stat.rx_data[2] & 0x04) >> 2);
 4113              		.loc 1 1096 5 is_stmt 1 discriminator 3 view .LVU1596
 4114              		.loc 1 1096 71 is_stmt 0 discriminator 3 view .LVU1597
 4115 00ce CCF38005 		ubfx	r5, ip, #2, #1
 4116              		.loc 1 1096 31 discriminator 3 view .LVU1598
 4117 00d2 83F8F550 		strb	r5, [r3, #245]
1097:Core/Src/adBms6830ParseCreate.cpp ****     ic[curr_ic].statd.c_ov[9] = ((ic[curr_ic].stat.rx_data[2] & 0x08) >> 3);
 4118              		.loc 1 1097 5 is_stmt 1 discriminator 3 view .LVU1599
 4119              		.loc 1 1097 71 is_stmt 0 discriminator 3 view .LVU1600
 4120 00d6 CCF3C005 		ubfx	r5, ip, #3, #1
 4121              		.loc 1 1097 31 discriminator 3 view .LVU1601
 4122 00da 83F8E550 		strb	r5, [r3, #229]
1098:Core/Src/adBms6830ParseCreate.cpp ****     ic[curr_ic].statd.c_uv[10] = ((ic[curr_ic].stat.rx_data[2] & 0x10) >> 4);
 4123              		.loc 1 1098 5 is_stmt 1 discriminator 3 view .LVU1602
 4124              		.loc 1 1098 72 is_stmt 0 discriminator 3 view .LVU1603
 4125 00de CCF30015 		ubfx	r5, ip, #4, #1
 4126              		.loc 1 1098 32 discriminator 3 view .LVU1604
 4127 00e2 83F8F650 		strb	r5, [r3, #246]
1099:Core/Src/adBms6830ParseCreate.cpp ****     ic[curr_ic].statd.c_ov[10] = ((ic[curr_ic].stat.rx_data[2] & 0x20) >> 5);
ARM GAS  C:\Users\huawei\AppData\Local\Temp\ccwYaMVL.s 			page 95


 4128              		.loc 1 1099 5 is_stmt 1 discriminator 3 view .LVU1605
 4129              		.loc 1 1099 72 is_stmt 0 discriminator 3 view .LVU1606
 4130 00e6 CCF34015 		ubfx	r5, ip, #5, #1
 4131              		.loc 1 1099 32 discriminator 3 view .LVU1607
 4132 00ea 83F8E650 		strb	r5, [r3, #230]
1100:Core/Src/adBms6830ParseCreate.cpp ****     ic[curr_ic].statd.c_uv[11] = ((ic[curr_ic].stat.rx_data[2] & 0x40) >> 6);
 4133              		.loc 1 1100 5 is_stmt 1 discriminator 3 view .LVU1608
 4134              		.loc 1 1100 72 is_stmt 0 discriminator 3 view .LVU1609
 4135 00ee CCF38015 		ubfx	r5, ip, #6, #1
 4136              		.loc 1 1100 32 discriminator 3 view .LVU1610
 4137 00f2 83F8F750 		strb	r5, [r3, #247]
1101:Core/Src/adBms6830ParseCreate.cpp ****     ic[curr_ic].statd.c_ov[11] = ((ic[curr_ic].stat.rx_data[2] & 0x80) >> 7);
 4138              		.loc 1 1101 5 is_stmt 1 discriminator 3 view .LVU1611
 4139              		.loc 1 1101 72 is_stmt 0 discriminator 3 view .LVU1612
 4140 00f6 4FEADC1C 		lsr	ip, ip, #7
 4141              		.loc 1 1101 32 discriminator 3 view .LVU1613
 4142 00fa 83F8E7C0 		strb	ip, [r3, #231]
1102:Core/Src/adBms6830ParseCreate.cpp ****     /* uv, ov bits 13 to 16 status bits */
1103:Core/Src/adBms6830ParseCreate.cpp ****     ic[curr_ic].statd.c_uv[12] = (ic[curr_ic].stat.rx_data[3] & 0x01);
 4143              		.loc 1 1103 5 is_stmt 1 discriminator 3 view .LVU1614
 4144              		.loc 1 1103 61 is_stmt 0 discriminator 3 view .LVU1615
 4145 00fe 93F852C1 		ldrb	ip, [r3, #338]	@ zero_extendqisi2
 4146              		.loc 1 1103 63 discriminator 3 view .LVU1616
 4147 0102 0CF00105 		and	r5, ip, #1
 4148              		.loc 1 1103 32 discriminator 3 view .LVU1617
 4149 0106 83F8F850 		strb	r5, [r3, #248]
1104:Core/Src/adBms6830ParseCreate.cpp ****     ic[curr_ic].statd.c_ov[12] = ((ic[curr_ic].stat.rx_data[3] & 0x02) >> 1);
 4150              		.loc 1 1104 5 is_stmt 1 discriminator 3 view .LVU1618
 4151              		.loc 1 1104 72 is_stmt 0 discriminator 3 view .LVU1619
 4152 010a CCF34005 		ubfx	r5, ip, #1, #1
 4153              		.loc 1 1104 32 discriminator 3 view .LVU1620
 4154 010e 83F8E850 		strb	r5, [r3, #232]
1105:Core/Src/adBms6830ParseCreate.cpp ****     ic[curr_ic].statd.c_uv[13] = ((ic[curr_ic].stat.rx_data[3] & 0x04) >> 2);
 4155              		.loc 1 1105 5 is_stmt 1 discriminator 3 view .LVU1621
 4156              		.loc 1 1105 72 is_stmt 0 discriminator 3 view .LVU1622
 4157 0112 CCF38005 		ubfx	r5, ip, #2, #1
 4158              		.loc 1 1105 32 discriminator 3 view .LVU1623
 4159 0116 83F8F950 		strb	r5, [r3, #249]
1106:Core/Src/adBms6830ParseCreate.cpp ****     ic[curr_ic].statd.c_ov[13] = ((ic[curr_ic].stat.rx_data[3] & 0x08) >> 3);
 4160              		.loc 1 1106 5 is_stmt 1 discriminator 3 view .LVU1624
 4161              		.loc 1 1106 72 is_stmt 0 discriminator 3 view .LVU1625
 4162 011a CCF3C005 		ubfx	r5, ip, #3, #1
 4163              		.loc 1 1106 32 discriminator 3 view .LVU1626
 4164 011e 83F8E950 		strb	r5, [r3, #233]
1107:Core/Src/adBms6830ParseCreate.cpp ****     ic[curr_ic].statd.c_uv[14] = ((ic[curr_ic].stat.rx_data[3] & 0x10) >> 4);
 4165              		.loc 1 1107 5 is_stmt 1 discriminator 3 view .LVU1627
 4166              		.loc 1 1107 72 is_stmt 0 discriminator 3 view .LVU1628
 4167 0122 CCF30015 		ubfx	r5, ip, #4, #1
 4168              		.loc 1 1107 32 discriminator 3 view .LVU1629
 4169 0126 83F8FA50 		strb	r5, [r3, #250]
1108:Core/Src/adBms6830ParseCreate.cpp ****     ic[curr_ic].statd.c_ov[14] = ((ic[curr_ic].stat.rx_data[3] & 0x20) >> 5);
 4170              		.loc 1 1108 5 is_stmt 1 discriminator 3 view .LVU1630
 4171              		.loc 1 1108 72 is_stmt 0 discriminator 3 view .LVU1631
 4172 012a CCF34015 		ubfx	r5, ip, #5, #1
 4173              		.loc 1 1108 32 discriminator 3 view .LVU1632
 4174 012e 83F8EA50 		strb	r5, [r3, #234]
1109:Core/Src/adBms6830ParseCreate.cpp ****     ic[curr_ic].statd.c_uv[15] = ((ic[curr_ic].stat.rx_data[3] & 0x40) >> 6);
ARM GAS  C:\Users\huawei\AppData\Local\Temp\ccwYaMVL.s 			page 96


 4175              		.loc 1 1109 5 is_stmt 1 discriminator 3 view .LVU1633
 4176              		.loc 1 1109 72 is_stmt 0 discriminator 3 view .LVU1634
 4177 0132 CCF38015 		ubfx	r5, ip, #6, #1
 4178              		.loc 1 1109 32 discriminator 3 view .LVU1635
 4179 0136 83F8FB50 		strb	r5, [r3, #251]
1110:Core/Src/adBms6830ParseCreate.cpp ****     ic[curr_ic].statd.c_ov[15] = ((ic[curr_ic].stat.rx_data[3] & 0x80) >> 7);
 4180              		.loc 1 1110 5 is_stmt 1 discriminator 3 view .LVU1636
 4181              		.loc 1 1110 72 is_stmt 0 discriminator 3 view .LVU1637
 4182 013a 4FEADC1C 		lsr	ip, ip, #7
 4183              		.loc 1 1110 32 discriminator 3 view .LVU1638
 4184 013e 83F8EBC0 		strb	ip, [r3, #235]
1111:Core/Src/adBms6830ParseCreate.cpp ****     /* ct and cts */
1112:Core/Src/adBms6830ParseCreate.cpp ****     ic[curr_ic].statd.cts = (ic[curr_ic].stat.rx_data[4] & 0x03);
 4185              		.loc 1 1112 5 is_stmt 1 discriminator 3 view .LVU1639
 4186              		.loc 1 1112 56 is_stmt 0 discriminator 3 view .LVU1640
 4187 0142 93F853C1 		ldrb	ip, [r3, #339]	@ zero_extendqisi2
 4188              		.loc 1 1112 27 discriminator 3 view .LVU1641
 4189 0146 93F8FC50 		ldrb	r5, [r3, #252]	@ zero_extendqisi2
 4190 014a 6CF38715 		bfi	r5, ip, #6, #2
 4191 014e 83F8FC50 		strb	r5, [r3, #252]
1113:Core/Src/adBms6830ParseCreate.cpp ****     ic[curr_ic].statd.ct = ((ic[curr_ic].stat.rx_data[4] & 0xFC) >> 2);
 4192              		.loc 1 1113 5 is_stmt 1 discriminator 3 view .LVU1642
 4193              		.loc 1 1113 66 is_stmt 0 discriminator 3 view .LVU1643
 4194 0152 4FEA9C0C 		lsr	ip, ip, #2
 4195              		.loc 1 1113 26 discriminator 3 view .LVU1644
 4196 0156 EDB2     		uxtb	r5, r5
 4197 0158 6CF30505 		bfi	r5, ip, #0, #6
 4198 015c 83F8FC50 		strb	r5, [r3, #252]
1114:Core/Src/adBms6830ParseCreate.cpp ****     /* oc_cntr */
1115:Core/Src/adBms6830ParseCreate.cpp ****     ic[curr_ic].statd.oc_cntr = (ic[curr_ic].stat.rx_data[5] & 0xFF);
 4199              		.loc 1 1115 5 is_stmt 1 discriminator 3 view .LVU1645
 4200              		.loc 1 1115 60 is_stmt 0 discriminator 3 view .LVU1646
 4201 0160 93F85451 		ldrb	r5, [r3, #340]	@ zero_extendqisi2
 4202              		.loc 1 1115 31 discriminator 3 view .LVU1647
 4203 0164 83F8FD50 		strb	r5, [r3, #253]
1071:Core/Src/adBms6830ParseCreate.cpp ****   {
 4204              		.loc 1 1071 3 is_stmt 1 discriminator 3 view .LVU1648
 4205              	.LVL259:
 4206              	.L186:
1071:Core/Src/adBms6830ParseCreate.cpp ****   {
 4207              		.loc 1 1071 36 discriminator 1 view .LVU1649
 4208 0168 8645     		cmp	lr, r0
 4209 016a FFF44EAF 		bcc	.L187
 4210              	.LBE36:
1116:Core/Src/adBms6830ParseCreate.cpp ****   }
1117:Core/Src/adBms6830ParseCreate.cpp **** }
 4211              		.loc 1 1117 1 is_stmt 0 view .LVU1650
 4212 016e 30BD     		pop	{r4, r5, pc}
 4213              		.loc 1 1117 1 view .LVU1651
 4214              		.cfi_endproc
 4215              	.LFE264:
 4216              		.cantunwind
 4217              		.fnend
 4219              		.section	.text._Z21adBms6830ParseStatusEhP9cell_asicPh,"ax",%progbits
 4220              		.align	1
 4221              		.global	_Z21adBms6830ParseStatusEhP9cell_asicPh
 4222              		.syntax unified
ARM GAS  C:\Users\huawei\AppData\Local\Temp\ccwYaMVL.s 			page 97


 4223              		.thumb
 4224              		.thumb_func
 4226              	_Z21adBms6830ParseStatusEhP9cell_asicPh:
 4227              		.fnstart
 4228              	.LVL260:
 4229              	.LFB265:
1118:Core/Src/adBms6830ParseCreate.cpp **** 
1119:Core/Src/adBms6830ParseCreate.cpp **** /**
1120:Core/Src/adBms6830ParseCreate.cpp ****  *******************************************************************************
1121:Core/Src/adBms6830ParseCreate.cpp ****  * Function: adBms6830ParseStatusE
1122:Core/Src/adBms6830ParseCreate.cpp ****  * @brief Parse status E register data
1123:Core/Src/adBms6830ParseCreate.cpp ****  *
1124:Core/Src/adBms6830ParseCreate.cpp ****  * @details This function Parse the recived status E register data.
1125:Core/Src/adBms6830ParseCreate.cpp ****  *
1126:Core/Src/adBms6830ParseCreate.cpp ****  * Parameters:
1127:Core/Src/adBms6830ParseCreate.cpp ****  *
1128:Core/Src/adBms6830ParseCreate.cpp ****  * @param [in]  tIC                     Total IC
1129:Core/Src/adBms6830ParseCreate.cpp ****  *
1130:Core/Src/adBms6830ParseCreate.cpp ****  * @param [in]  *ic                     cell_asic ic structure pointer
1131:Core/Src/adBms6830ParseCreate.cpp ****  *
1132:Core/Src/adBms6830ParseCreate.cpp ****  * @param [in]  *data                   data pointer
1133:Core/Src/adBms6830ParseCreate.cpp ****  *
1134:Core/Src/adBms6830ParseCreate.cpp ****  * @return None
1135:Core/Src/adBms6830ParseCreate.cpp ****  *
1136:Core/Src/adBms6830ParseCreate.cpp ****  *******************************************************************************
1137:Core/Src/adBms6830ParseCreate.cpp **** */
1138:Core/Src/adBms6830ParseCreate.cpp **** void adBms6830ParseStatusE(uint8_t tIC, cell_asic *ic, uint8_t *data)
1139:Core/Src/adBms6830ParseCreate.cpp **** {
 4230              		.loc 1 1139 1 is_stmt 1 view -0
 4231              		.cfi_startproc
 4232              		@ args = 0, pretend = 0, frame = 0
 4233              		@ frame_needed = 0, uses_anonymous_args = 0
 4234              		.loc 1 1139 1 is_stmt 0 view .LVU1653
 4235 0000 70B5     		push	{r4, r5, r6, lr}
 4236              	.LCFI17:
 4237              		.cfi_def_cfa_offset 16
 4238              		.cfi_offset 4, -16
 4239              		.cfi_offset 5, -12
 4240              		.cfi_offset 6, -8
 4241              		.cfi_offset 14, -4
1140:Core/Src/adBms6830ParseCreate.cpp ****   uint8_t address = 0;
 4242              		.loc 1 1140 3 is_stmt 1 view .LVU1654
 4243              	.LVL261:
1141:Core/Src/adBms6830ParseCreate.cpp ****   for(uint8_t curr_ic = 0; curr_ic < tIC; curr_ic++)
 4244              		.loc 1 1141 3 view .LVU1655
 4245              	.LBB37:
 4246              		.loc 1 1141 15 is_stmt 0 view .LVU1656
 4247 0002 4FF0000C 		mov	ip, #0
 4248              	.LBE37:
1140:Core/Src/adBms6830ParseCreate.cpp ****   uint8_t address = 0;
 4249              		.loc 1 1140 11 view .LVU1657
 4250 0006 E646     		mov	lr, ip
 4251              	.LBB38:
 4252              		.loc 1 1141 3 view .LVU1658
 4253 0008 29E0     		b	.L190
 4254              	.LVL262:
 4255              	.L191:
ARM GAS  C:\Users\huawei\AppData\Local\Temp\ccwYaMVL.s 			page 98


1142:Core/Src/adBms6830ParseCreate.cpp ****   {
1143:Core/Src/adBms6830ParseCreate.cpp ****     memcpy(&ic[curr_ic].stat.rx_data[0], &data[address], RX_DATA); /* dst , src , size */
 4256              		.loc 1 1143 5 is_stmt 1 discriminator 3 view .LVU1659
 4257              		.loc 1 1143 23 is_stmt 0 discriminator 3 view .LVU1660
 4258 000a 4FF42873 		mov	r3, #672
 4259 000e 03FB0C13 		mla	r3, r3, ip, r1
 4260              		.loc 1 1143 42 discriminator 3 view .LVU1661
 4261 0012 02EB0E04 		add	r4, r2, lr
 4262              		.loc 1 1143 11 discriminator 3 view .LVU1662
 4263 0016 52F80E50 		ldr	r5, [r2, lr]	@ unaligned
 4264 001a 6468     		ldr	r4, [r4, #4]	@ unaligned
 4265 001c C3F84F51 		str	r5, [r3, #335]	@ unaligned
 4266 0020 C3F85341 		str	r4, [r3, #339]	@ unaligned
1144:Core/Src/adBms6830ParseCreate.cpp ****     address = ((curr_ic+1) * (RX_DATA));
 4267              		.loc 1 1144 5 is_stmt 1 discriminator 3 view .LVU1663
 4268              		.loc 1 1144 13 is_stmt 0 discriminator 3 view .LVU1664
 4269 0024 0CF1010C 		add	ip, ip, #1
 4270              	.LVL263:
 4271              		.loc 1 1144 13 discriminator 3 view .LVU1665
 4272 0028 5FFA8CFC 		uxtb	ip, ip
 4273 002c 4FEACC0E 		lsl	lr, ip, #3
 4274              	.LVL264:
 4275              		.loc 1 1144 13 discriminator 3 view .LVU1666
 4276 0030 5FFA8EFE 		uxtb	lr, lr
 4277              	.LVL265:
1145:Core/Src/adBms6830ParseCreate.cpp ****     ic[curr_ic].state.gpi   = ((ic[curr_ic].stat.rx_data[4] + ((ic[curr_ic].stat.rx_data[5] & 0x03)
 4278              		.loc 1 1145 5 is_stmt 1 discriminator 3 view .LVU1667
 4279              		.loc 1 1145 59 is_stmt 0 discriminator 3 view .LVU1668
 4280 0034 93F85351 		ldrb	r5, [r3, #339]	@ zero_extendqisi2
 4281              		.loc 1 1145 91 discriminator 3 view .LVU1669
 4282 0038 93F85441 		ldrb	r4, [r3, #340]	@ zero_extendqisi2
 4283              		.loc 1 1145 101 discriminator 3 view .LVU1670
 4284 003c 2602     		lsls	r6, r4, #8
 4285 003e 06F44076 		and	r6, r6, #768
 4286              		.loc 1 1145 61 discriminator 3 view .LVU1671
 4287 0042 3544     		add	r5, r5, r6
 4288              		.loc 1 1145 29 discriminator 3 view .LVU1672
 4289 0044 B3F8FE60 		ldrh	r6, [r3, #254]
 4290 0048 65F30906 		bfi	r6, r5, #0, #10
 4291 004c A3F8FE60 		strh	r6, [r3, #254]	@ movhi
1146:Core/Src/adBms6830ParseCreate.cpp ****     ic[curr_ic].state.rev = ((ic[curr_ic].stat.rx_data[5] & 0xF0) >> 4);
 4292              		.loc 1 1146 5 is_stmt 1 discriminator 3 view .LVU1673
 4293              		.loc 1 1146 67 is_stmt 0 discriminator 3 view .LVU1674
 4294 0050 2409     		lsrs	r4, r4, #4
 4295              		.loc 1 1146 27 discriminator 3 view .LVU1675
 4296 0052 93F8FF50 		ldrb	r5, [r3, #255]	@ zero_extendqisi2
 4297 0056 64F38505 		bfi	r5, r4, #2, #4
 4298 005a 83F8FF50 		strb	r5, [r3, #255]
1141:Core/Src/adBms6830ParseCreate.cpp ****   {
 4299              		.loc 1 1141 3 is_stmt 1 discriminator 3 view .LVU1676
 4300              	.LVL266:
 4301              	.L190:
1141:Core/Src/adBms6830ParseCreate.cpp ****   {
 4302              		.loc 1 1141 36 discriminator 1 view .LVU1677
 4303 005e 8445     		cmp	ip, r0
 4304 0060 D3D3     		bcc	.L191
 4305              	.LBE38:
ARM GAS  C:\Users\huawei\AppData\Local\Temp\ccwYaMVL.s 			page 99


1147:Core/Src/adBms6830ParseCreate.cpp ****   }
1148:Core/Src/adBms6830ParseCreate.cpp **** }
 4306              		.loc 1 1148 1 is_stmt 0 view .LVU1678
 4307 0062 70BD     		pop	{r4, r5, r6, pc}
 4308              		.cfi_endproc
 4309              	.LFE265:
 4310              		.cantunwind
 4311              		.fnend
 4313              		.section	.text._Z20adBms6830ParseStatushP9cell_asic3GRPPh,"ax",%progbits
 4314              		.align	1
 4315              		.global	_Z20adBms6830ParseStatushP9cell_asic3GRPPh
 4316              		.syntax unified
 4317              		.thumb
 4318              		.thumb_func
 4320              	_Z20adBms6830ParseStatushP9cell_asic3GRPPh:
 4321              		.fnstart
 4322              	.LVL267:
 4323              	.LFB266:
1149:Core/Src/adBms6830ParseCreate.cpp **** 
1150:Core/Src/adBms6830ParseCreate.cpp **** /**
1151:Core/Src/adBms6830ParseCreate.cpp ****  *******************************************************************************
1152:Core/Src/adBms6830ParseCreate.cpp ****  * Function: adBms6830ParseStatus
1153:Core/Src/adBms6830ParseCreate.cpp ****  * @brief Parse status register data
1154:Core/Src/adBms6830ParseCreate.cpp ****  *
1155:Core/Src/adBms6830ParseCreate.cpp ****  * @details This function Parse the recived status register data.
1156:Core/Src/adBms6830ParseCreate.cpp ****  *
1157:Core/Src/adBms6830ParseCreate.cpp ****  * Parameters:
1158:Core/Src/adBms6830ParseCreate.cpp ****  *
1159:Core/Src/adBms6830ParseCreate.cpp ****  * @param [in]  tIC                     Total IC
1160:Core/Src/adBms6830ParseCreate.cpp ****  *
1161:Core/Src/adBms6830ParseCreate.cpp ****  * @param [in]  *ic                     cell_asic ic structure pointer
1162:Core/Src/adBms6830ParseCreate.cpp ****  *
1163:Core/Src/adBms6830ParseCreate.cpp ****  * @param [in]  *data                   data pointer
1164:Core/Src/adBms6830ParseCreate.cpp ****  *
1165:Core/Src/adBms6830ParseCreate.cpp ****  * @return None
1166:Core/Src/adBms6830ParseCreate.cpp ****  *
1167:Core/Src/adBms6830ParseCreate.cpp ****  *******************************************************************************
1168:Core/Src/adBms6830ParseCreate.cpp **** */
1169:Core/Src/adBms6830ParseCreate.cpp **** void adBms6830ParseStatus(uint8_t tIC, cell_asic *ic, GRP grp, uint8_t *data)
1170:Core/Src/adBms6830ParseCreate.cpp **** {
 4324              		.loc 1 1170 1 is_stmt 1 view -0
 4325              		.cfi_startproc
 4326              		@ args = 0, pretend = 0, frame = 16
 4327              		@ frame_needed = 0, uses_anonymous_args = 0
 4328              		.loc 1 1170 1 is_stmt 0 view .LVU1680
 4329 0000 70B5     		push	{r4, r5, r6, lr}
 4330              	.LCFI18:
 4331              		.cfi_def_cfa_offset 16
 4332              		.cfi_offset 4, -16
 4333              		.cfi_offset 5, -12
 4334              		.cfi_offset 6, -8
 4335              		.cfi_offset 14, -4
 4336 0002 84B0     		sub	sp, sp, #16
 4337              	.LCFI19:
 4338              		.cfi_def_cfa_offset 32
 4339 0004 0546     		mov	r5, r0
 4340 0006 0E46     		mov	r6, r1
ARM GAS  C:\Users\huawei\AppData\Local\Temp\ccwYaMVL.s 			page 100


 4341 0008 1C46     		mov	r4, r3
1171:Core/Src/adBms6830ParseCreate.cpp ****   uint8_t statc[RX_DATA], state[RX_DATA];
 4342              		.loc 1 1171 3 is_stmt 1 view .LVU1681
1172:Core/Src/adBms6830ParseCreate.cpp ****   switch (grp)
 4343              		.loc 1 1172 3 view .LVU1682
 4344 000a 052A     		cmp	r2, #5
 4345 000c 07D8     		bhi	.L193
 4346 000e DFE802F0 		tbb	[pc, r2]
 4347              	.LVL268:
 4348              	.L196:
 4349 0012 18       		.byte	(.L201-.L196)/2
 4350 0013 03       		.byte	(.L200-.L196)/2
 4351 0014 08       		.byte	(.L199-.L196)/2
 4352 0015 0C       		.byte	(.L198-.L196)/2
 4353 0016 10       		.byte	(.L197-.L196)/2
 4354 0017 14       		.byte	(.L195-.L196)/2
 4355              		.p2align 1
 4356              	.L200:
1173:Core/Src/adBms6830ParseCreate.cpp ****   {
1174:Core/Src/adBms6830ParseCreate.cpp ****     case A: /* Status Register group A */
 4357              		.loc 1 1174 5 view .LVU1683
1175:Core/Src/adBms6830ParseCreate.cpp ****       adBms6830ParseStatusA(tIC, &ic[0], &data[0]);
 4358              		.loc 1 1175 7 view .LVU1684
 4359              		.loc 1 1175 28 is_stmt 0 view .LVU1685
 4360 0018 2246     		mov	r2, r4
 4361              	.LVL269:
 4362              		.loc 1 1175 28 view .LVU1686
 4363 001a FFF7FEFF 		bl	_Z21adBms6830ParseStatusAhP9cell_asicPh
 4364              	.LVL270:
1176:Core/Src/adBms6830ParseCreate.cpp ****       break;
 4365              		.loc 1 1176 7 is_stmt 1 view .LVU1687
 4366              	.L193:
1177:Core/Src/adBms6830ParseCreate.cpp **** 
1178:Core/Src/adBms6830ParseCreate.cpp ****     case B: /* Status Register group B */
1179:Core/Src/adBms6830ParseCreate.cpp ****       adBms6830ParseStatusB(tIC, &ic[0], &data[0]);
1180:Core/Src/adBms6830ParseCreate.cpp ****       break;
1181:Core/Src/adBms6830ParseCreate.cpp **** 
1182:Core/Src/adBms6830ParseCreate.cpp ****     case C: /* Status Register group C */
1183:Core/Src/adBms6830ParseCreate.cpp ****       adBms6830ParseStatusC(tIC, &ic[0], &data[0]);
1184:Core/Src/adBms6830ParseCreate.cpp ****       break;
1185:Core/Src/adBms6830ParseCreate.cpp **** 
1186:Core/Src/adBms6830ParseCreate.cpp ****     case D: /* Status Register group D */
1187:Core/Src/adBms6830ParseCreate.cpp ****       adBms6830ParseStatusD(tIC, &ic[0], &data[0]);
1188:Core/Src/adBms6830ParseCreate.cpp ****       break;
1189:Core/Src/adBms6830ParseCreate.cpp **** 
1190:Core/Src/adBms6830ParseCreate.cpp ****     case E: /* Status Register group E */
1191:Core/Src/adBms6830ParseCreate.cpp ****       adBms6830ParseStatusE(tIC, &ic[0], &data[0]);
1192:Core/Src/adBms6830ParseCreate.cpp ****       break;
1193:Core/Src/adBms6830ParseCreate.cpp **** 
1194:Core/Src/adBms6830ParseCreate.cpp ****     case ALL_GRP: /* Status Register group ALL */
1195:Core/Src/adBms6830ParseCreate.cpp ****       /* Status A base address data[0] index */
1196:Core/Src/adBms6830ParseCreate.cpp ****       adBms6830ParseStatusA(tIC, &ic[0], &data[0]);
1197:Core/Src/adBms6830ParseCreate.cpp ****       /* Status B base address data[6] index */
1198:Core/Src/adBms6830ParseCreate.cpp ****       adBms6830ParseStatusB(tIC, &ic[0], &data[6]);
1199:Core/Src/adBms6830ParseCreate.cpp ****       /* Status C base address data[12] index */
1200:Core/Src/adBms6830ParseCreate.cpp ****       statc[0] = data[12];
1201:Core/Src/adBms6830ParseCreate.cpp ****       statc[1] = data[13];
ARM GAS  C:\Users\huawei\AppData\Local\Temp\ccwYaMVL.s 			page 101


1202:Core/Src/adBms6830ParseCreate.cpp ****       statc[4] = data[14];
1203:Core/Src/adBms6830ParseCreate.cpp ****       statc[5] = data[15];
1204:Core/Src/adBms6830ParseCreate.cpp ****       adBms6830ParseStatusC(tIC, &ic[0], &statc[0]);
1205:Core/Src/adBms6830ParseCreate.cpp ****       /* Status D base address data[16] index */
1206:Core/Src/adBms6830ParseCreate.cpp ****       adBms6830ParseStatusD(tIC, &ic[0], &data[16]);
1207:Core/Src/adBms6830ParseCreate.cpp ****       /* Status E base address data[22] index */
1208:Core/Src/adBms6830ParseCreate.cpp ****       state[4] = data[22];
1209:Core/Src/adBms6830ParseCreate.cpp ****       state[5] = data[23];
1210:Core/Src/adBms6830ParseCreate.cpp ****       adBms6830ParseStatusE(tIC, &ic[0], &state[0]);
1211:Core/Src/adBms6830ParseCreate.cpp ****      break;
1212:Core/Src/adBms6830ParseCreate.cpp **** 
1213:Core/Src/adBms6830ParseCreate.cpp ****     default:
1214:Core/Src/adBms6830ParseCreate.cpp ****       break;
1215:Core/Src/adBms6830ParseCreate.cpp ****   }
1216:Core/Src/adBms6830ParseCreate.cpp **** }
 4367              		.loc 1 1216 1 is_stmt 0 view .LVU1688
 4368 001e 04B0     		add	sp, sp, #16
 4369              	.LCFI20:
 4370              		.cfi_remember_state
 4371              		.cfi_def_cfa_offset 16
 4372              		@ sp needed
 4373 0020 70BD     		pop	{r4, r5, r6, pc}
 4374              	.LVL271:
 4375              	.L199:
 4376              	.LCFI21:
 4377              		.cfi_restore_state
1178:Core/Src/adBms6830ParseCreate.cpp ****       adBms6830ParseStatusB(tIC, &ic[0], &data[0]);
 4378              		.loc 1 1178 5 is_stmt 1 view .LVU1689
1179:Core/Src/adBms6830ParseCreate.cpp ****       break;
 4379              		.loc 1 1179 7 view .LVU1690
1179:Core/Src/adBms6830ParseCreate.cpp ****       break;
 4380              		.loc 1 1179 28 is_stmt 0 view .LVU1691
 4381 0022 2246     		mov	r2, r4
 4382              	.LVL272:
1179:Core/Src/adBms6830ParseCreate.cpp ****       break;
 4383              		.loc 1 1179 28 view .LVU1692
 4384 0024 FFF7FEFF 		bl	_Z21adBms6830ParseStatusBhP9cell_asicPh
 4385              	.LVL273:
1180:Core/Src/adBms6830ParseCreate.cpp **** 
 4386              		.loc 1 1180 7 is_stmt 1 view .LVU1693
 4387 0028 F9E7     		b	.L193
 4388              	.LVL274:
 4389              	.L198:
1182:Core/Src/adBms6830ParseCreate.cpp ****       adBms6830ParseStatusC(tIC, &ic[0], &data[0]);
 4390              		.loc 1 1182 5 view .LVU1694
1183:Core/Src/adBms6830ParseCreate.cpp ****       break;
 4391              		.loc 1 1183 7 view .LVU1695
1183:Core/Src/adBms6830ParseCreate.cpp ****       break;
 4392              		.loc 1 1183 28 is_stmt 0 view .LVU1696
 4393 002a 2246     		mov	r2, r4
 4394              	.LVL275:
1183:Core/Src/adBms6830ParseCreate.cpp ****       break;
 4395              		.loc 1 1183 28 view .LVU1697
 4396 002c FFF7FEFF 		bl	_Z21adBms6830ParseStatusChP9cell_asicPh
 4397              	.LVL276:
1184:Core/Src/adBms6830ParseCreate.cpp **** 
 4398              		.loc 1 1184 7 is_stmt 1 view .LVU1698
ARM GAS  C:\Users\huawei\AppData\Local\Temp\ccwYaMVL.s 			page 102


 4399 0030 F5E7     		b	.L193
 4400              	.LVL277:
 4401              	.L197:
1186:Core/Src/adBms6830ParseCreate.cpp ****       adBms6830ParseStatusD(tIC, &ic[0], &data[0]);
 4402              		.loc 1 1186 5 view .LVU1699
1187:Core/Src/adBms6830ParseCreate.cpp ****       break;
 4403              		.loc 1 1187 7 view .LVU1700
1187:Core/Src/adBms6830ParseCreate.cpp ****       break;
 4404              		.loc 1 1187 28 is_stmt 0 view .LVU1701
 4405 0032 2246     		mov	r2, r4
 4406              	.LVL278:
1187:Core/Src/adBms6830ParseCreate.cpp ****       break;
 4407              		.loc 1 1187 28 view .LVU1702
 4408 0034 FFF7FEFF 		bl	_Z21adBms6830ParseStatusDhP9cell_asicPh
 4409              	.LVL279:
1188:Core/Src/adBms6830ParseCreate.cpp **** 
 4410              		.loc 1 1188 7 is_stmt 1 view .LVU1703
 4411 0038 F1E7     		b	.L193
 4412              	.LVL280:
 4413              	.L195:
1190:Core/Src/adBms6830ParseCreate.cpp ****       adBms6830ParseStatusE(tIC, &ic[0], &data[0]);
 4414              		.loc 1 1190 5 view .LVU1704
1191:Core/Src/adBms6830ParseCreate.cpp ****       break;
 4415              		.loc 1 1191 7 view .LVU1705
1191:Core/Src/adBms6830ParseCreate.cpp ****       break;
 4416              		.loc 1 1191 28 is_stmt 0 view .LVU1706
 4417 003a 2246     		mov	r2, r4
 4418              	.LVL281:
1191:Core/Src/adBms6830ParseCreate.cpp ****       break;
 4419              		.loc 1 1191 28 view .LVU1707
 4420 003c FFF7FEFF 		bl	_Z21adBms6830ParseStatusEhP9cell_asicPh
 4421              	.LVL282:
1192:Core/Src/adBms6830ParseCreate.cpp **** 
 4422              		.loc 1 1192 7 is_stmt 1 view .LVU1708
 4423 0040 EDE7     		b	.L193
 4424              	.LVL283:
 4425              	.L201:
1194:Core/Src/adBms6830ParseCreate.cpp ****       /* Status A base address data[0] index */
 4426              		.loc 1 1194 5 view .LVU1709
1196:Core/Src/adBms6830ParseCreate.cpp ****       /* Status B base address data[6] index */
 4427              		.loc 1 1196 7 view .LVU1710
1196:Core/Src/adBms6830ParseCreate.cpp ****       /* Status B base address data[6] index */
 4428              		.loc 1 1196 28 is_stmt 0 view .LVU1711
 4429 0042 2246     		mov	r2, r4
 4430              	.LVL284:
1196:Core/Src/adBms6830ParseCreate.cpp ****       /* Status B base address data[6] index */
 4431              		.loc 1 1196 28 view .LVU1712
 4432 0044 FFF7FEFF 		bl	_Z21adBms6830ParseStatusAhP9cell_asicPh
 4433              	.LVL285:
1198:Core/Src/adBms6830ParseCreate.cpp ****       /* Status C base address data[12] index */
 4434              		.loc 1 1198 7 is_stmt 1 view .LVU1713
1198:Core/Src/adBms6830ParseCreate.cpp ****       /* Status C base address data[12] index */
 4435              		.loc 1 1198 28 is_stmt 0 view .LVU1714
 4436 0048 A21D     		adds	r2, r4, #6
 4437 004a 3146     		mov	r1, r6
 4438 004c 2846     		mov	r0, r5
 4439 004e FFF7FEFF 		bl	_Z21adBms6830ParseStatusBhP9cell_asicPh
ARM GAS  C:\Users\huawei\AppData\Local\Temp\ccwYaMVL.s 			page 103


 4440              	.LVL286:
1200:Core/Src/adBms6830ParseCreate.cpp ****       statc[1] = data[13];
 4441              		.loc 1 1200 7 is_stmt 1 view .LVU1715
1200:Core/Src/adBms6830ParseCreate.cpp ****       statc[1] = data[13];
 4442              		.loc 1 1200 16 is_stmt 0 view .LVU1716
 4443 0052 237B     		ldrb	r3, [r4, #12]	@ zero_extendqisi2
 4444 0054 8DF80830 		strb	r3, [sp, #8]
1201:Core/Src/adBms6830ParseCreate.cpp ****       statc[4] = data[14];
 4445              		.loc 1 1201 7 is_stmt 1 view .LVU1717
1201:Core/Src/adBms6830ParseCreate.cpp ****       statc[4] = data[14];
 4446              		.loc 1 1201 16 is_stmt 0 view .LVU1718
 4447 0058 637B     		ldrb	r3, [r4, #13]	@ zero_extendqisi2
 4448 005a 8DF80930 		strb	r3, [sp, #9]
1202:Core/Src/adBms6830ParseCreate.cpp ****       statc[5] = data[15];
 4449              		.loc 1 1202 7 is_stmt 1 view .LVU1719
1202:Core/Src/adBms6830ParseCreate.cpp ****       statc[5] = data[15];
 4450              		.loc 1 1202 16 is_stmt 0 view .LVU1720
 4451 005e A37B     		ldrb	r3, [r4, #14]	@ zero_extendqisi2
 4452 0060 8DF80C30 		strb	r3, [sp, #12]
1203:Core/Src/adBms6830ParseCreate.cpp ****       adBms6830ParseStatusC(tIC, &ic[0], &statc[0]);
 4453              		.loc 1 1203 7 is_stmt 1 view .LVU1721
1203:Core/Src/adBms6830ParseCreate.cpp ****       adBms6830ParseStatusC(tIC, &ic[0], &statc[0]);
 4454              		.loc 1 1203 16 is_stmt 0 view .LVU1722
 4455 0064 E37B     		ldrb	r3, [r4, #15]	@ zero_extendqisi2
 4456 0066 8DF80D30 		strb	r3, [sp, #13]
1204:Core/Src/adBms6830ParseCreate.cpp ****       /* Status D base address data[16] index */
 4457              		.loc 1 1204 7 is_stmt 1 view .LVU1723
1204:Core/Src/adBms6830ParseCreate.cpp ****       /* Status D base address data[16] index */
 4458              		.loc 1 1204 28 is_stmt 0 view .LVU1724
 4459 006a 02AA     		add	r2, sp, #8
 4460 006c 3146     		mov	r1, r6
 4461 006e 2846     		mov	r0, r5
 4462 0070 FFF7FEFF 		bl	_Z21adBms6830ParseStatusChP9cell_asicPh
 4463              	.LVL287:
1206:Core/Src/adBms6830ParseCreate.cpp ****       /* Status E base address data[22] index */
 4464              		.loc 1 1206 7 is_stmt 1 view .LVU1725
1206:Core/Src/adBms6830ParseCreate.cpp ****       /* Status E base address data[22] index */
 4465              		.loc 1 1206 28 is_stmt 0 view .LVU1726
 4466 0074 04F11002 		add	r2, r4, #16
 4467 0078 3146     		mov	r1, r6
 4468 007a 2846     		mov	r0, r5
 4469 007c FFF7FEFF 		bl	_Z21adBms6830ParseStatusDhP9cell_asicPh
 4470              	.LVL288:
1208:Core/Src/adBms6830ParseCreate.cpp ****       state[5] = data[23];
 4471              		.loc 1 1208 7 is_stmt 1 view .LVU1727
1208:Core/Src/adBms6830ParseCreate.cpp ****       state[5] = data[23];
 4472              		.loc 1 1208 16 is_stmt 0 view .LVU1728
 4473 0080 A37D     		ldrb	r3, [r4, #22]	@ zero_extendqisi2
 4474 0082 8DF80430 		strb	r3, [sp, #4]
1209:Core/Src/adBms6830ParseCreate.cpp ****       adBms6830ParseStatusE(tIC, &ic[0], &state[0]);
 4475              		.loc 1 1209 7 is_stmt 1 view .LVU1729
1209:Core/Src/adBms6830ParseCreate.cpp ****       adBms6830ParseStatusE(tIC, &ic[0], &state[0]);
 4476              		.loc 1 1209 16 is_stmt 0 view .LVU1730
 4477 0086 E37D     		ldrb	r3, [r4, #23]	@ zero_extendqisi2
 4478 0088 8DF80530 		strb	r3, [sp, #5]
1210:Core/Src/adBms6830ParseCreate.cpp ****      break;
 4479              		.loc 1 1210 7 is_stmt 1 view .LVU1731
ARM GAS  C:\Users\huawei\AppData\Local\Temp\ccwYaMVL.s 			page 104


1210:Core/Src/adBms6830ParseCreate.cpp ****      break;
 4480              		.loc 1 1210 28 is_stmt 0 view .LVU1732
 4481 008c 6A46     		mov	r2, sp
 4482 008e 3146     		mov	r1, r6
 4483 0090 2846     		mov	r0, r5
 4484 0092 FFF7FEFF 		bl	_Z21adBms6830ParseStatusEhP9cell_asicPh
 4485              	.LVL289:
1211:Core/Src/adBms6830ParseCreate.cpp **** 
 4486              		.loc 1 1211 6 is_stmt 1 view .LVU1733
 4487              		.loc 1 1216 1 is_stmt 0 view .LVU1734
 4488 0096 C2E7     		b	.L193
 4489              		.cfi_endproc
 4490              	.LFE266:
 4491              		.cantunwind
 4492              		.fnend
 4494              		.section	.text._Z18adBms6830ParseCommhP9cell_asicPh,"ax",%progbits
 4495              		.align	1
 4496              		.global	_Z18adBms6830ParseCommhP9cell_asicPh
 4497              		.syntax unified
 4498              		.thumb
 4499              		.thumb_func
 4501              	_Z18adBms6830ParseCommhP9cell_asicPh:
 4502              		.fnstart
 4503              	.LVL290:
 4504              	.LFB267:
1217:Core/Src/adBms6830ParseCreate.cpp **** 
1218:Core/Src/adBms6830ParseCreate.cpp **** /**
1219:Core/Src/adBms6830ParseCreate.cpp ****  *******************************************************************************
1220:Core/Src/adBms6830ParseCreate.cpp ****  * Function: adBms6830ParseComm
1221:Core/Src/adBms6830ParseCreate.cpp ****  * @brief Parse comm register
1222:Core/Src/adBms6830ParseCreate.cpp ****  *
1223:Core/Src/adBms6830ParseCreate.cpp ****  * @details This function Parse the recived comm register data.
1224:Core/Src/adBms6830ParseCreate.cpp ****  *
1225:Core/Src/adBms6830ParseCreate.cpp ****  * Parameters:
1226:Core/Src/adBms6830ParseCreate.cpp ****  *
1227:Core/Src/adBms6830ParseCreate.cpp ****  * @param [in]  tIC                     Total IC
1228:Core/Src/adBms6830ParseCreate.cpp ****  *
1229:Core/Src/adBms6830ParseCreate.cpp ****  * @param [in]  *ic                     cell_asic ic structure pointer
1230:Core/Src/adBms6830ParseCreate.cpp ****  *
1231:Core/Src/adBms6830ParseCreate.cpp ****  * @param [in]  *data                   data pointer
1232:Core/Src/adBms6830ParseCreate.cpp ****  *
1233:Core/Src/adBms6830ParseCreate.cpp ****  * @return None
1234:Core/Src/adBms6830ParseCreate.cpp ****  *
1235:Core/Src/adBms6830ParseCreate.cpp ****  *******************************************************************************
1236:Core/Src/adBms6830ParseCreate.cpp **** */
1237:Core/Src/adBms6830ParseCreate.cpp **** void adBms6830ParseComm(uint8_t tIC, cell_asic *ic, uint8_t *data)
1238:Core/Src/adBms6830ParseCreate.cpp **** {
 4505              		.loc 1 1238 1 is_stmt 1 view -0
 4506              		.cfi_startproc
 4507              		@ args = 0, pretend = 0, frame = 0
 4508              		@ frame_needed = 0, uses_anonymous_args = 0
 4509              		.loc 1 1238 1 is_stmt 0 view .LVU1736
 4510 0000 30B5     		push	{r4, r5, lr}
 4511              	.LCFI22:
 4512              		.cfi_def_cfa_offset 12
 4513              		.cfi_offset 4, -12
 4514              		.cfi_offset 5, -8
ARM GAS  C:\Users\huawei\AppData\Local\Temp\ccwYaMVL.s 			page 105


 4515              		.cfi_offset 14, -4
1239:Core/Src/adBms6830ParseCreate.cpp ****   uint8_t address = 0;
 4516              		.loc 1 1239 3 is_stmt 1 view .LVU1737
 4517              	.LVL291:
1240:Core/Src/adBms6830ParseCreate.cpp ****   for(uint8_t curr_ic = 0; curr_ic < tIC; curr_ic++)
 4518              		.loc 1 1240 3 view .LVU1738
 4519              	.LBB39:
 4520              		.loc 1 1240 15 is_stmt 0 view .LVU1739
 4521 0002 4FF0000C 		mov	ip, #0
 4522              	.LBE39:
1239:Core/Src/adBms6830ParseCreate.cpp ****   uint8_t address = 0;
 4523              		.loc 1 1239 11 view .LVU1740
 4524 0006 E646     		mov	lr, ip
 4525              	.LBB40:
 4526              		.loc 1 1240 3 view .LVU1741
 4527 0008 3BE0     		b	.L205
 4528              	.LVL292:
 4529              	.L206:
1241:Core/Src/adBms6830ParseCreate.cpp ****   {
1242:Core/Src/adBms6830ParseCreate.cpp ****     memcpy(&ic[curr_ic].com.rx_data[0], &data[address], RX_DATA); /* dst , src , size */
 4530              		.loc 1 1242 5 is_stmt 1 discriminator 3 view .LVU1742
 4531              		.loc 1 1242 23 is_stmt 0 discriminator 3 view .LVU1743
 4532 000a 4FF42873 		mov	r3, #672
 4533 000e 03FB0C13 		mla	r3, r3, ip, r1
 4534              		.loc 1 1242 41 discriminator 3 view .LVU1744
 4535 0012 02EB0E04 		add	r4, r2, lr
 4536              		.loc 1 1242 11 discriminator 3 view .LVU1745
 4537 0016 52F80E50 		ldr	r5, [r2, lr]	@ unaligned
 4538 001a 6468     		ldr	r4, [r4, #4]	@ unaligned
 4539 001c C3F85D51 		str	r5, [r3, #349]	@ unaligned
 4540 0020 C3F86141 		str	r4, [r3, #353]	@ unaligned
1243:Core/Src/adBms6830ParseCreate.cpp ****     address = ((curr_ic+1) * (RX_DATA));
 4541              		.loc 1 1243 5 is_stmt 1 discriminator 3 view .LVU1746
 4542              		.loc 1 1243 13 is_stmt 0 discriminator 3 view .LVU1747
 4543 0024 0CF1010C 		add	ip, ip, #1
 4544              	.LVL293:
 4545              		.loc 1 1243 13 discriminator 3 view .LVU1748
 4546 0028 5FFA8CFC 		uxtb	ip, ip
 4547 002c 4FEACC0E 		lsl	lr, ip, #3
 4548              	.LVL294:
 4549              		.loc 1 1243 13 discriminator 3 view .LVU1749
 4550 0030 5FFA8EFE 		uxtb	lr, lr
 4551              	.LVL295:
1244:Core/Src/adBms6830ParseCreate.cpp ****     ic[curr_ic].comm.icomm[0] = ((ic[curr_ic].com.rx_data[0] & 0xF0) >> 4);
 4552              		.loc 1 1244 5 is_stmt 1 discriminator 3 view .LVU1750
 4553              		.loc 1 1244 60 is_stmt 0 discriminator 3 view .LVU1751
 4554 0034 93F85D41 		ldrb	r4, [r3, #349]	@ zero_extendqisi2
 4555              		.loc 1 1244 70 discriminator 3 view .LVU1752
 4556 0038 2509     		lsrs	r5, r4, #4
 4557              		.loc 1 1244 31 discriminator 3 view .LVU1753
 4558 003a 83F80351 		strb	r5, [r3, #259]
1245:Core/Src/adBms6830ParseCreate.cpp ****     ic[curr_ic].comm.fcomm[0] = (ic[curr_ic].com.rx_data[0] & 0x0F);
 4559              		.loc 1 1245 5 is_stmt 1 discriminator 3 view .LVU1754
 4560              		.loc 1 1245 61 is_stmt 0 discriminator 3 view .LVU1755
 4561 003e 04F00F04 		and	r4, r4, #15
 4562              		.loc 1 1245 31 discriminator 3 view .LVU1756
 4563 0042 83F80041 		strb	r4, [r3, #256]
ARM GAS  C:\Users\huawei\AppData\Local\Temp\ccwYaMVL.s 			page 106


1246:Core/Src/adBms6830ParseCreate.cpp ****     ic[curr_ic].comm.data[0] = (ic[curr_ic].com.rx_data[1]);
 4564              		.loc 1 1246 5 is_stmt 1 discriminator 3 view .LVU1757
 4565              		.loc 1 1246 58 is_stmt 0 discriminator 3 view .LVU1758
 4566 0046 93F85E41 		ldrb	r4, [r3, #350]	@ zero_extendqisi2
 4567              		.loc 1 1246 30 discriminator 3 view .LVU1759
 4568 004a 83F80641 		strb	r4, [r3, #262]
1247:Core/Src/adBms6830ParseCreate.cpp ****     ic[curr_ic].comm.icomm[1] = ((ic[curr_ic].com.rx_data[2] & 0xF0) >> 4);
 4569              		.loc 1 1247 5 is_stmt 1 discriminator 3 view .LVU1760
 4570              		.loc 1 1247 60 is_stmt 0 discriminator 3 view .LVU1761
 4571 004e 93F85F41 		ldrb	r4, [r3, #351]	@ zero_extendqisi2
 4572              		.loc 1 1247 70 discriminator 3 view .LVU1762
 4573 0052 2509     		lsrs	r5, r4, #4
 4574              		.loc 1 1247 31 discriminator 3 view .LVU1763
 4575 0054 83F80451 		strb	r5, [r3, #260]
1248:Core/Src/adBms6830ParseCreate.cpp ****     ic[curr_ic].comm.data[1] = (ic[curr_ic].com.rx_data[3]);
 4576              		.loc 1 1248 5 is_stmt 1 discriminator 3 view .LVU1764
 4577              		.loc 1 1248 58 is_stmt 0 discriminator 3 view .LVU1765
 4578 0058 93F86051 		ldrb	r5, [r3, #352]	@ zero_extendqisi2
 4579              		.loc 1 1248 30 discriminator 3 view .LVU1766
 4580 005c 83F80751 		strb	r5, [r3, #263]
1249:Core/Src/adBms6830ParseCreate.cpp ****     ic[curr_ic].comm.fcomm[1] = (ic[curr_ic].com.rx_data[2] & 0x0F);
 4581              		.loc 1 1249 5 is_stmt 1 discriminator 3 view .LVU1767
 4582              		.loc 1 1249 61 is_stmt 0 discriminator 3 view .LVU1768
 4583 0060 04F00F04 		and	r4, r4, #15
 4584              		.loc 1 1249 31 discriminator 3 view .LVU1769
 4585 0064 83F80141 		strb	r4, [r3, #257]
1250:Core/Src/adBms6830ParseCreate.cpp ****     ic[curr_ic].comm.icomm[2] = ((ic[curr_ic].com.rx_data[4] & 0xF0) >> 4);
 4586              		.loc 1 1250 5 is_stmt 1 discriminator 3 view .LVU1770
 4587              		.loc 1 1250 60 is_stmt 0 discriminator 3 view .LVU1771
 4588 0068 93F86141 		ldrb	r4, [r3, #353]	@ zero_extendqisi2
 4589              		.loc 1 1250 70 discriminator 3 view .LVU1772
 4590 006c 2509     		lsrs	r5, r4, #4
 4591              		.loc 1 1250 31 discriminator 3 view .LVU1773
 4592 006e 83F80551 		strb	r5, [r3, #261]
1251:Core/Src/adBms6830ParseCreate.cpp ****     ic[curr_ic].comm.data[2] = (ic[curr_ic].com.rx_data[5]);
 4593              		.loc 1 1251 5 is_stmt 1 discriminator 3 view .LVU1774
 4594              		.loc 1 1251 58 is_stmt 0 discriminator 3 view .LVU1775
 4595 0072 93F86251 		ldrb	r5, [r3, #354]	@ zero_extendqisi2
 4596              		.loc 1 1251 30 discriminator 3 view .LVU1776
 4597 0076 83F80851 		strb	r5, [r3, #264]
1252:Core/Src/adBms6830ParseCreate.cpp ****     ic[curr_ic].comm.fcomm[2] = (ic[curr_ic].com.rx_data[4] & 0x0F);
 4598              		.loc 1 1252 5 is_stmt 1 discriminator 3 view .LVU1777
 4599              		.loc 1 1252 61 is_stmt 0 discriminator 3 view .LVU1778
 4600 007a 04F00F04 		and	r4, r4, #15
 4601              		.loc 1 1252 31 discriminator 3 view .LVU1779
 4602 007e 83F80241 		strb	r4, [r3, #258]
1240:Core/Src/adBms6830ParseCreate.cpp ****   {
 4603              		.loc 1 1240 3 is_stmt 1 discriminator 3 view .LVU1780
 4604              	.LVL296:
 4605              	.L205:
1240:Core/Src/adBms6830ParseCreate.cpp ****   {
 4606              		.loc 1 1240 36 discriminator 1 view .LVU1781
 4607 0082 8445     		cmp	ip, r0
 4608 0084 C1D3     		bcc	.L206
 4609              	.LBE40:
1253:Core/Src/adBms6830ParseCreate.cpp ****   }
1254:Core/Src/adBms6830ParseCreate.cpp **** }
ARM GAS  C:\Users\huawei\AppData\Local\Temp\ccwYaMVL.s 			page 107


 4610              		.loc 1 1254 1 is_stmt 0 view .LVU1782
 4611 0086 30BD     		pop	{r4, r5, pc}
 4612              		.cfi_endproc
 4613              	.LFE267:
 4614              		.cantunwind
 4615              		.fnend
 4617              		.section	.text._Z17adBms6830ParseSIDhP9cell_asicPh,"ax",%progbits
 4618              		.align	1
 4619              		.global	_Z17adBms6830ParseSIDhP9cell_asicPh
 4620              		.syntax unified
 4621              		.thumb
 4622              		.thumb_func
 4624              	_Z17adBms6830ParseSIDhP9cell_asicPh:
 4625              		.fnstart
 4626              	.LVL297:
 4627              	.LFB268:
1255:Core/Src/adBms6830ParseCreate.cpp **** 
1256:Core/Src/adBms6830ParseCreate.cpp **** /**
1257:Core/Src/adBms6830ParseCreate.cpp ****  *******************************************************************************
1258:Core/Src/adBms6830ParseCreate.cpp ****  * Function: adBms6830ParseSID
1259:Core/Src/adBms6830ParseCreate.cpp ****  * @brief Parse SID register
1260:Core/Src/adBms6830ParseCreate.cpp ****  *
1261:Core/Src/adBms6830ParseCreate.cpp ****  * @details This function Parse the recived sid register data.
1262:Core/Src/adBms6830ParseCreate.cpp ****  *
1263:Core/Src/adBms6830ParseCreate.cpp ****  * Parameters:
1264:Core/Src/adBms6830ParseCreate.cpp ****  *
1265:Core/Src/adBms6830ParseCreate.cpp ****  * @param [in]  tIC                     Total IC
1266:Core/Src/adBms6830ParseCreate.cpp ****  *
1267:Core/Src/adBms6830ParseCreate.cpp ****  * @param [in]  *ic                     cell_asic ic structure pointer
1268:Core/Src/adBms6830ParseCreate.cpp ****  *
1269:Core/Src/adBms6830ParseCreate.cpp ****  * @param [in]  *data                   data pointer
1270:Core/Src/adBms6830ParseCreate.cpp ****  *
1271:Core/Src/adBms6830ParseCreate.cpp ****  * @return None
1272:Core/Src/adBms6830ParseCreate.cpp ****  *
1273:Core/Src/adBms6830ParseCreate.cpp ****  *******************************************************************************
1274:Core/Src/adBms6830ParseCreate.cpp **** */
1275:Core/Src/adBms6830ParseCreate.cpp **** void adBms6830ParseSID(uint8_t tIC, cell_asic *ic, uint8_t *data)
1276:Core/Src/adBms6830ParseCreate.cpp **** {
 4628              		.loc 1 1276 1 is_stmt 1 view -0
 4629              		.cfi_startproc
 4630              		@ args = 0, pretend = 0, frame = 0
 4631              		@ frame_needed = 0, uses_anonymous_args = 0
 4632              		.loc 1 1276 1 is_stmt 0 view .LVU1784
 4633 0000 10B5     		push	{r4, lr}
 4634              	.LCFI23:
 4635              		.cfi_def_cfa_offset 8
 4636              		.cfi_offset 4, -8
 4637              		.cfi_offset 14, -4
1277:Core/Src/adBms6830ParseCreate.cpp ****   uint8_t address = 0;
 4638              		.loc 1 1277 3 is_stmt 1 view .LVU1785
 4639              	.LVL298:
1278:Core/Src/adBms6830ParseCreate.cpp ****   for(uint8_t curr_ic = 0; curr_ic < tIC; curr_ic++)
 4640              		.loc 1 1278 3 view .LVU1786
 4641              	.LBB41:
 4642              		.loc 1 1278 15 is_stmt 0 view .LVU1787
 4643 0002 4FF0000C 		mov	ip, #0
 4644              	.LBE41:
ARM GAS  C:\Users\huawei\AppData\Local\Temp\ccwYaMVL.s 			page 108


1277:Core/Src/adBms6830ParseCreate.cpp ****   uint8_t address = 0;
 4645              		.loc 1 1277 11 view .LVU1788
 4646 0006 E646     		mov	lr, ip
 4647              	.LBB42:
 4648              		.loc 1 1278 3 view .LVU1789
 4649 0008 2CE0     		b	.L209
 4650              	.LVL299:
 4651              	.L210:
1279:Core/Src/adBms6830ParseCreate.cpp ****   {
1280:Core/Src/adBms6830ParseCreate.cpp ****     memcpy(&ic[curr_ic].rsid.rx_data[0], &data[address], RX_DATA); /* dst , src , size */
 4652              		.loc 1 1280 5 is_stmt 1 discriminator 3 view .LVU1790
 4653              		.loc 1 1280 23 is_stmt 0 discriminator 3 view .LVU1791
 4654 000a 4FF42873 		mov	r3, #672
 4655 000e 03FB0C13 		mla	r3, r3, ip, r1
 4656              		.loc 1 1280 42 discriminator 3 view .LVU1792
 4657 0012 02EB0E04 		add	r4, r2, lr
 4658              		.loc 1 1280 11 discriminator 3 view .LVU1793
 4659 0016 52F80EE0 		ldr	lr, [r2, lr]	@ unaligned
 4660              	.LVL300:
 4661              		.loc 1 1280 11 discriminator 3 view .LVU1794
 4662 001a 6468     		ldr	r4, [r4, #4]	@ unaligned
 4663 001c C3F887E1 		str	lr, [r3, #391]	@ unaligned
 4664 0020 C3F88B41 		str	r4, [r3, #395]	@ unaligned
1281:Core/Src/adBms6830ParseCreate.cpp ****     address = ((curr_ic+1) * (RX_DATA));
 4665              		.loc 1 1281 5 is_stmt 1 discriminator 3 view .LVU1795
 4666              		.loc 1 1281 13 is_stmt 0 discriminator 3 view .LVU1796
 4667 0024 0CF1010C 		add	ip, ip, #1
 4668              	.LVL301:
 4669              		.loc 1 1281 13 discriminator 3 view .LVU1797
 4670 0028 5FFA8CFC 		uxtb	ip, ip
 4671 002c 4FEACC0E 		lsl	lr, ip, #3
 4672 0030 5FFA8EFE 		uxtb	lr, lr
 4673              	.LVL302:
1282:Core/Src/adBms6830ParseCreate.cpp ****     ic[curr_ic].sid.sid[0] = ic[curr_ic].rsid.rx_data[0];
 4674              		.loc 1 1282 5 is_stmt 1 discriminator 3 view .LVU1798
 4675              		.loc 1 1282 56 is_stmt 0 discriminator 3 view .LVU1799
 4676 0034 93F88741 		ldrb	r4, [r3, #391]	@ zero_extendqisi2
 4677              		.loc 1 1282 28 discriminator 3 view .LVU1800
 4678 0038 83F81941 		strb	r4, [r3, #281]
1283:Core/Src/adBms6830ParseCreate.cpp ****     ic[curr_ic].sid.sid[1] = ic[curr_ic].rsid.rx_data[1];
 4679              		.loc 1 1283 5 is_stmt 1 discriminator 3 view .LVU1801
 4680              		.loc 1 1283 56 is_stmt 0 discriminator 3 view .LVU1802
 4681 003c 93F88841 		ldrb	r4, [r3, #392]	@ zero_extendqisi2
 4682              		.loc 1 1283 28 discriminator 3 view .LVU1803
 4683 0040 83F81A41 		strb	r4, [r3, #282]
1284:Core/Src/adBms6830ParseCreate.cpp ****     ic[curr_ic].sid.sid[2] = ic[curr_ic].rsid.rx_data[2];
 4684              		.loc 1 1284 5 is_stmt 1 discriminator 3 view .LVU1804
 4685              		.loc 1 1284 56 is_stmt 0 discriminator 3 view .LVU1805
 4686 0044 93F88941 		ldrb	r4, [r3, #393]	@ zero_extendqisi2
 4687              		.loc 1 1284 28 discriminator 3 view .LVU1806
 4688 0048 83F81B41 		strb	r4, [r3, #283]
1285:Core/Src/adBms6830ParseCreate.cpp ****     ic[curr_ic].sid.sid[3] = ic[curr_ic].rsid.rx_data[3];
 4689              		.loc 1 1285 5 is_stmt 1 discriminator 3 view .LVU1807
 4690              		.loc 1 1285 56 is_stmt 0 discriminator 3 view .LVU1808
 4691 004c 93F88A41 		ldrb	r4, [r3, #394]	@ zero_extendqisi2
 4692              		.loc 1 1285 28 discriminator 3 view .LVU1809
 4693 0050 83F81C41 		strb	r4, [r3, #284]
ARM GAS  C:\Users\huawei\AppData\Local\Temp\ccwYaMVL.s 			page 109


1286:Core/Src/adBms6830ParseCreate.cpp ****     ic[curr_ic].sid.sid[4] = ic[curr_ic].rsid.rx_data[4];
 4694              		.loc 1 1286 5 is_stmt 1 discriminator 3 view .LVU1810
 4695              		.loc 1 1286 56 is_stmt 0 discriminator 3 view .LVU1811
 4696 0054 93F88B41 		ldrb	r4, [r3, #395]	@ zero_extendqisi2
 4697              		.loc 1 1286 28 discriminator 3 view .LVU1812
 4698 0058 83F81D41 		strb	r4, [r3, #285]
1287:Core/Src/adBms6830ParseCreate.cpp ****     ic[curr_ic].sid.sid[5] = ic[curr_ic].rsid.rx_data[5];
 4699              		.loc 1 1287 5 is_stmt 1 discriminator 3 view .LVU1813
 4700              		.loc 1 1287 56 is_stmt 0 discriminator 3 view .LVU1814
 4701 005c 93F88C41 		ldrb	r4, [r3, #396]	@ zero_extendqisi2
 4702              		.loc 1 1287 28 discriminator 3 view .LVU1815
 4703 0060 83F81E41 		strb	r4, [r3, #286]
1278:Core/Src/adBms6830ParseCreate.cpp ****   {
 4704              		.loc 1 1278 3 is_stmt 1 discriminator 3 view .LVU1816
 4705              	.LVL303:
 4706              	.L209:
1278:Core/Src/adBms6830ParseCreate.cpp ****   {
 4707              		.loc 1 1278 36 discriminator 1 view .LVU1817
 4708 0064 8445     		cmp	ip, r0
 4709 0066 D0D3     		bcc	.L210
 4710              	.LBE42:
1288:Core/Src/adBms6830ParseCreate.cpp ****   }
1289:Core/Src/adBms6830ParseCreate.cpp **** }
 4711              		.loc 1 1289 1 is_stmt 0 view .LVU1818
 4712 0068 10BD     		pop	{r4, pc}
 4713              		.cfi_endproc
 4714              	.LFE268:
 4715              		.cantunwind
 4716              		.fnend
 4718              		.section	.text._Z18adBms6830ParsePwmahP9cell_asicPh,"ax",%progbits
 4719              		.align	1
 4720              		.global	_Z18adBms6830ParsePwmahP9cell_asicPh
 4721              		.syntax unified
 4722              		.thumb
 4723              		.thumb_func
 4725              	_Z18adBms6830ParsePwmahP9cell_asicPh:
 4726              		.fnstart
 4727              	.LVL304:
 4728              	.LFB269:
1290:Core/Src/adBms6830ParseCreate.cpp **** 
1291:Core/Src/adBms6830ParseCreate.cpp **** /**
1292:Core/Src/adBms6830ParseCreate.cpp ****  *******************************************************************************
1293:Core/Src/adBms6830ParseCreate.cpp ****  * Function: adBms6830ParsePwma
1294:Core/Src/adBms6830ParseCreate.cpp ****  * @brief Parse PWMA register
1295:Core/Src/adBms6830ParseCreate.cpp ****  *
1296:Core/Src/adBms6830ParseCreate.cpp ****  * @details This function Parse the recived pwma register data.
1297:Core/Src/adBms6830ParseCreate.cpp ****  *
1298:Core/Src/adBms6830ParseCreate.cpp ****  * Parameters:
1299:Core/Src/adBms6830ParseCreate.cpp ****  *
1300:Core/Src/adBms6830ParseCreate.cpp ****  * @param [in]  tIC                     Total IC
1301:Core/Src/adBms6830ParseCreate.cpp ****  *
1302:Core/Src/adBms6830ParseCreate.cpp ****  * @param [in]  *ic                     cell_asic ic structure pointer
1303:Core/Src/adBms6830ParseCreate.cpp ****  *
1304:Core/Src/adBms6830ParseCreate.cpp ****  * @param [in]  *data                   data pointer
1305:Core/Src/adBms6830ParseCreate.cpp ****  *
1306:Core/Src/adBms6830ParseCreate.cpp ****  * @return None
1307:Core/Src/adBms6830ParseCreate.cpp ****  *
ARM GAS  C:\Users\huawei\AppData\Local\Temp\ccwYaMVL.s 			page 110


1308:Core/Src/adBms6830ParseCreate.cpp ****  *******************************************************************************
1309:Core/Src/adBms6830ParseCreate.cpp **** */
1310:Core/Src/adBms6830ParseCreate.cpp **** void adBms6830ParsePwma(uint8_t tIC, cell_asic *ic, uint8_t *data)
1311:Core/Src/adBms6830ParseCreate.cpp **** {
 4729              		.loc 1 1311 1 is_stmt 1 view -0
 4730              		.cfi_startproc
 4731              		@ args = 0, pretend = 0, frame = 0
 4732              		@ frame_needed = 0, uses_anonymous_args = 0
 4733              		.loc 1 1311 1 is_stmt 0 view .LVU1820
 4734 0000 30B5     		push	{r4, r5, lr}
 4735              	.LCFI24:
 4736              		.cfi_def_cfa_offset 12
 4737              		.cfi_offset 4, -12
 4738              		.cfi_offset 5, -8
 4739              		.cfi_offset 14, -4
1312:Core/Src/adBms6830ParseCreate.cpp ****   uint8_t address = 0;
 4740              		.loc 1 1312 3 is_stmt 1 view .LVU1821
 4741              	.LVL305:
1313:Core/Src/adBms6830ParseCreate.cpp ****   for(uint8_t curr_ic = 0; curr_ic < tIC; curr_ic++)
 4742              		.loc 1 1313 3 view .LVU1822
 4743              	.LBB43:
 4744              		.loc 1 1313 15 is_stmt 0 view .LVU1823
 4745 0002 4FF0000C 		mov	ip, #0
 4746              	.LBE43:
1312:Core/Src/adBms6830ParseCreate.cpp ****   uint8_t address = 0;
 4747              		.loc 1 1312 11 view .LVU1824
 4748 0006 E646     		mov	lr, ip
 4749              	.LBB44:
 4750              		.loc 1 1313 3 view .LVU1825
 4751 0008 4AE0     		b	.L213
 4752              	.LVL306:
 4753              	.L214:
1314:Core/Src/adBms6830ParseCreate.cpp ****   {
1315:Core/Src/adBms6830ParseCreate.cpp ****     memcpy(&ic[curr_ic].pwma.rx_data[0], &data[address], RX_DATA); /* dst , src , size */
 4754              		.loc 1 1315 5 is_stmt 1 discriminator 3 view .LVU1826
 4755              		.loc 1 1315 23 is_stmt 0 discriminator 3 view .LVU1827
 4756 000a 4FF42873 		mov	r3, #672
 4757 000e 03FB0C13 		mla	r3, r3, ip, r1
 4758              		.loc 1 1315 42 discriminator 3 view .LVU1828
 4759 0012 02EB0E04 		add	r4, r2, lr
 4760              		.loc 1 1315 11 discriminator 3 view .LVU1829
 4761 0016 52F80E50 		ldr	r5, [r2, lr]	@ unaligned
 4762 001a 6468     		ldr	r4, [r4, #4]	@ unaligned
 4763 001c C3F86B51 		str	r5, [r3, #363]	@ unaligned
 4764 0020 C3F86F41 		str	r4, [r3, #367]	@ unaligned
1316:Core/Src/adBms6830ParseCreate.cpp ****     address = ((curr_ic+1) * (RX_DATA));
 4765              		.loc 1 1316 5 is_stmt 1 discriminator 3 view .LVU1830
 4766              		.loc 1 1316 13 is_stmt 0 discriminator 3 view .LVU1831
 4767 0024 0CF1010C 		add	ip, ip, #1
 4768              	.LVL307:
 4769              		.loc 1 1316 13 discriminator 3 view .LVU1832
 4770 0028 5FFA8CFC 		uxtb	ip, ip
 4771 002c 4FEACC0E 		lsl	lr, ip, #3
 4772              	.LVL308:
 4773              		.loc 1 1316 13 discriminator 3 view .LVU1833
 4774 0030 5FFA8EFE 		uxtb	lr, lr
 4775              	.LVL309:
ARM GAS  C:\Users\huawei\AppData\Local\Temp\ccwYaMVL.s 			page 111


1317:Core/Src/adBms6830ParseCreate.cpp ****     ic[curr_ic].PwmA.pwma[0] = (ic[curr_ic].pwma.rx_data[0] & 0x0F);
 4776              		.loc 1 1317 5 is_stmt 1 discriminator 3 view .LVU1834
 4777              		.loc 1 1317 59 is_stmt 0 discriminator 3 view .LVU1835
 4778 0034 93F86B41 		ldrb	r4, [r3, #363]	@ zero_extendqisi2
 4779              		.loc 1 1317 61 discriminator 3 view .LVU1836
 4780 0038 04F00F05 		and	r5, r4, #15
 4781              		.loc 1 1317 30 discriminator 3 view .LVU1837
 4782 003c 83F80951 		strb	r5, [r3, #265]
1318:Core/Src/adBms6830ParseCreate.cpp ****     ic[curr_ic].PwmA.pwma[1] = ((ic[curr_ic].pwma.rx_data[0] & 0xF0) >> 4);
 4783              		.loc 1 1318 5 is_stmt 1 discriminator 3 view .LVU1838
 4784              		.loc 1 1318 70 is_stmt 0 discriminator 3 view .LVU1839
 4785 0040 2409     		lsrs	r4, r4, #4
 4786              		.loc 1 1318 30 discriminator 3 view .LVU1840
 4787 0042 83F80A41 		strb	r4, [r3, #266]
1319:Core/Src/adBms6830ParseCreate.cpp ****     ic[curr_ic].PwmA.pwma[2] = (ic[curr_ic].pwma.rx_data[1] & 0x0F);
 4788              		.loc 1 1319 5 is_stmt 1 discriminator 3 view .LVU1841
 4789              		.loc 1 1319 59 is_stmt 0 discriminator 3 view .LVU1842
 4790 0046 93F86C41 		ldrb	r4, [r3, #364]	@ zero_extendqisi2
 4791              		.loc 1 1319 61 discriminator 3 view .LVU1843
 4792 004a 04F00F05 		and	r5, r4, #15
 4793              		.loc 1 1319 30 discriminator 3 view .LVU1844
 4794 004e 83F80B51 		strb	r5, [r3, #267]
1320:Core/Src/adBms6830ParseCreate.cpp ****     ic[curr_ic].PwmA.pwma[3] = ((ic[curr_ic].pwma.rx_data[1] & 0xF0) >> 4);
 4795              		.loc 1 1320 5 is_stmt 1 discriminator 3 view .LVU1845
 4796              		.loc 1 1320 70 is_stmt 0 discriminator 3 view .LVU1846
 4797 0052 2409     		lsrs	r4, r4, #4
 4798              		.loc 1 1320 30 discriminator 3 view .LVU1847
 4799 0054 83F80C41 		strb	r4, [r3, #268]
1321:Core/Src/adBms6830ParseCreate.cpp ****     ic[curr_ic].PwmA.pwma[4] = (ic[curr_ic].pwma.rx_data[2] & 0x0F);
 4800              		.loc 1 1321 5 is_stmt 1 discriminator 3 view .LVU1848
 4801              		.loc 1 1321 59 is_stmt 0 discriminator 3 view .LVU1849
 4802 0058 93F86D41 		ldrb	r4, [r3, #365]	@ zero_extendqisi2
 4803              		.loc 1 1321 61 discriminator 3 view .LVU1850
 4804 005c 04F00F05 		and	r5, r4, #15
 4805              		.loc 1 1321 30 discriminator 3 view .LVU1851
 4806 0060 83F80D51 		strb	r5, [r3, #269]
1322:Core/Src/adBms6830ParseCreate.cpp ****     ic[curr_ic].PwmA.pwma[5] = ((ic[curr_ic].pwma.rx_data[2] & 0xF0) >> 4);
 4807              		.loc 1 1322 5 is_stmt 1 discriminator 3 view .LVU1852
 4808              		.loc 1 1322 70 is_stmt 0 discriminator 3 view .LVU1853
 4809 0064 2409     		lsrs	r4, r4, #4
 4810              		.loc 1 1322 30 discriminator 3 view .LVU1854
 4811 0066 83F80E41 		strb	r4, [r3, #270]
1323:Core/Src/adBms6830ParseCreate.cpp ****     ic[curr_ic].PwmA.pwma[6] = (ic[curr_ic].pwma.rx_data[3] & 0x0F);
 4812              		.loc 1 1323 5 is_stmt 1 discriminator 3 view .LVU1855
 4813              		.loc 1 1323 59 is_stmt 0 discriminator 3 view .LVU1856
 4814 006a 93F86E41 		ldrb	r4, [r3, #366]	@ zero_extendqisi2
 4815              		.loc 1 1323 61 discriminator 3 view .LVU1857
 4816 006e 04F00F05 		and	r5, r4, #15
 4817              		.loc 1 1323 30 discriminator 3 view .LVU1858
 4818 0072 83F80F51 		strb	r5, [r3, #271]
1324:Core/Src/adBms6830ParseCreate.cpp ****     ic[curr_ic].PwmA.pwma[7] = ((ic[curr_ic].pwma.rx_data[3] & 0xF0) >> 4);
 4819              		.loc 1 1324 5 is_stmt 1 discriminator 3 view .LVU1859
 4820              		.loc 1 1324 70 is_stmt 0 discriminator 3 view .LVU1860
 4821 0076 2409     		lsrs	r4, r4, #4
 4822              		.loc 1 1324 30 discriminator 3 view .LVU1861
 4823 0078 83F81041 		strb	r4, [r3, #272]
1325:Core/Src/adBms6830ParseCreate.cpp ****     ic[curr_ic].PwmA.pwma[8] = (ic[curr_ic].pwma.rx_data[4] & 0x0F);
ARM GAS  C:\Users\huawei\AppData\Local\Temp\ccwYaMVL.s 			page 112


 4824              		.loc 1 1325 5 is_stmt 1 discriminator 3 view .LVU1862
 4825              		.loc 1 1325 59 is_stmt 0 discriminator 3 view .LVU1863
 4826 007c 93F86F41 		ldrb	r4, [r3, #367]	@ zero_extendqisi2
 4827              		.loc 1 1325 61 discriminator 3 view .LVU1864
 4828 0080 04F00F05 		and	r5, r4, #15
 4829              		.loc 1 1325 30 discriminator 3 view .LVU1865
 4830 0084 83F81151 		strb	r5, [r3, #273]
1326:Core/Src/adBms6830ParseCreate.cpp ****     ic[curr_ic].PwmA.pwma[9] = ((ic[curr_ic].pwma.rx_data[4] & 0xF0) >> 4);
 4831              		.loc 1 1326 5 is_stmt 1 discriminator 3 view .LVU1866
 4832              		.loc 1 1326 70 is_stmt 0 discriminator 3 view .LVU1867
 4833 0088 2409     		lsrs	r4, r4, #4
 4834              		.loc 1 1326 30 discriminator 3 view .LVU1868
 4835 008a 83F81241 		strb	r4, [r3, #274]
1327:Core/Src/adBms6830ParseCreate.cpp ****     ic[curr_ic].PwmA.pwma[10] = (ic[curr_ic].pwma.rx_data[5] & 0x0F);
 4836              		.loc 1 1327 5 is_stmt 1 discriminator 3 view .LVU1869
 4837              		.loc 1 1327 60 is_stmt 0 discriminator 3 view .LVU1870
 4838 008e 93F87041 		ldrb	r4, [r3, #368]	@ zero_extendqisi2
 4839              		.loc 1 1327 62 discriminator 3 view .LVU1871
 4840 0092 04F00F05 		and	r5, r4, #15
 4841              		.loc 1 1327 31 discriminator 3 view .LVU1872
 4842 0096 83F81351 		strb	r5, [r3, #275]
1328:Core/Src/adBms6830ParseCreate.cpp ****     ic[curr_ic].PwmA.pwma[11] = ((ic[curr_ic].pwma.rx_data[5] & 0xF0) >> 4);
 4843              		.loc 1 1328 5 is_stmt 1 discriminator 3 view .LVU1873
 4844              		.loc 1 1328 71 is_stmt 0 discriminator 3 view .LVU1874
 4845 009a 2409     		lsrs	r4, r4, #4
 4846              		.loc 1 1328 31 discriminator 3 view .LVU1875
 4847 009c 83F81441 		strb	r4, [r3, #276]
1313:Core/Src/adBms6830ParseCreate.cpp ****   {
 4848              		.loc 1 1313 3 is_stmt 1 discriminator 3 view .LVU1876
 4849              	.LVL310:
 4850              	.L213:
1313:Core/Src/adBms6830ParseCreate.cpp ****   {
 4851              		.loc 1 1313 36 discriminator 1 view .LVU1877
 4852 00a0 8445     		cmp	ip, r0
 4853 00a2 B2D3     		bcc	.L214
 4854              	.LBE44:
1329:Core/Src/adBms6830ParseCreate.cpp ****   }
1330:Core/Src/adBms6830ParseCreate.cpp **** }
 4855              		.loc 1 1330 1 is_stmt 0 view .LVU1878
 4856 00a4 30BD     		pop	{r4, r5, pc}
 4857              		.cfi_endproc
 4858              	.LFE269:
 4859              		.cantunwind
 4860              		.fnend
 4862              		.section	.text._Z18adBms6830ParsePwmbhP9cell_asicPh,"ax",%progbits
 4863              		.align	1
 4864              		.global	_Z18adBms6830ParsePwmbhP9cell_asicPh
 4865              		.syntax unified
 4866              		.thumb
 4867              		.thumb_func
 4869              	_Z18adBms6830ParsePwmbhP9cell_asicPh:
 4870              		.fnstart
 4871              	.LVL311:
 4872              	.LFB270:
1331:Core/Src/adBms6830ParseCreate.cpp **** 
1332:Core/Src/adBms6830ParseCreate.cpp **** /**
1333:Core/Src/adBms6830ParseCreate.cpp ****  *******************************************************************************
ARM GAS  C:\Users\huawei\AppData\Local\Temp\ccwYaMVL.s 			page 113


1334:Core/Src/adBms6830ParseCreate.cpp ****  * Function: adBms6830ParsePwmb
1335:Core/Src/adBms6830ParseCreate.cpp ****  * @brief Parse PWMB register
1336:Core/Src/adBms6830ParseCreate.cpp ****  *
1337:Core/Src/adBms6830ParseCreate.cpp ****  * @details This function Parse the recived pwmb register data.
1338:Core/Src/adBms6830ParseCreate.cpp ****  *
1339:Core/Src/adBms6830ParseCreate.cpp ****  * Parameters:
1340:Core/Src/adBms6830ParseCreate.cpp ****  *
1341:Core/Src/adBms6830ParseCreate.cpp ****  * @param [in]  tIC                     Total IC
1342:Core/Src/adBms6830ParseCreate.cpp ****  *
1343:Core/Src/adBms6830ParseCreate.cpp ****  * @param [in]  *ic                     cell_asic ic structure pointer
1344:Core/Src/adBms6830ParseCreate.cpp ****  *
1345:Core/Src/adBms6830ParseCreate.cpp ****  * @param [in]  *data                   data pointer
1346:Core/Src/adBms6830ParseCreate.cpp ****  *
1347:Core/Src/adBms6830ParseCreate.cpp ****  * @return None
1348:Core/Src/adBms6830ParseCreate.cpp ****  *
1349:Core/Src/adBms6830ParseCreate.cpp ****  *******************************************************************************
1350:Core/Src/adBms6830ParseCreate.cpp **** */
1351:Core/Src/adBms6830ParseCreate.cpp **** void adBms6830ParsePwmb(uint8_t tIC, cell_asic *ic, uint8_t *data)
1352:Core/Src/adBms6830ParseCreate.cpp **** {
 4873              		.loc 1 1352 1 is_stmt 1 view -0
 4874              		.cfi_startproc
 4875              		@ args = 0, pretend = 0, frame = 0
 4876              		@ frame_needed = 0, uses_anonymous_args = 0
 4877              		.loc 1 1352 1 is_stmt 0 view .LVU1880
 4878 0000 30B5     		push	{r4, r5, lr}
 4879              	.LCFI25:
 4880              		.cfi_def_cfa_offset 12
 4881              		.cfi_offset 4, -12
 4882              		.cfi_offset 5, -8
 4883              		.cfi_offset 14, -4
1353:Core/Src/adBms6830ParseCreate.cpp ****   uint8_t address = 0;
 4884              		.loc 1 1353 3 is_stmt 1 view .LVU1881
 4885              	.LVL312:
1354:Core/Src/adBms6830ParseCreate.cpp ****   for(uint8_t curr_ic = 0; curr_ic < tIC; curr_ic++)
 4886              		.loc 1 1354 3 view .LVU1882
 4887              	.LBB45:
 4888              		.loc 1 1354 15 is_stmt 0 view .LVU1883
 4889 0002 4FF0000C 		mov	ip, #0
 4890              	.LBE45:
1353:Core/Src/adBms6830ParseCreate.cpp ****   uint8_t address = 0;
 4891              		.loc 1 1353 11 view .LVU1884
 4892 0006 E646     		mov	lr, ip
 4893              	.LBB46:
 4894              		.loc 1 1354 3 view .LVU1885
 4895 0008 26E0     		b	.L217
 4896              	.LVL313:
 4897              	.L218:
1355:Core/Src/adBms6830ParseCreate.cpp ****   {
1356:Core/Src/adBms6830ParseCreate.cpp ****     memcpy(&ic[curr_ic].pwmb.rx_data[0], &data[address], RX_DATA); /* dst , src , size */
 4898              		.loc 1 1356 5 is_stmt 1 discriminator 3 view .LVU1886
 4899              		.loc 1 1356 23 is_stmt 0 discriminator 3 view .LVU1887
 4900 000a 4FF42873 		mov	r3, #672
 4901 000e 03FB0C13 		mla	r3, r3, ip, r1
 4902              		.loc 1 1356 42 discriminator 3 view .LVU1888
 4903 0012 02EB0E04 		add	r4, r2, lr
 4904              		.loc 1 1356 11 discriminator 3 view .LVU1889
 4905 0016 52F80E50 		ldr	r5, [r2, lr]	@ unaligned
ARM GAS  C:\Users\huawei\AppData\Local\Temp\ccwYaMVL.s 			page 114


 4906 001a 6468     		ldr	r4, [r4, #4]	@ unaligned
 4907 001c C3F87951 		str	r5, [r3, #377]	@ unaligned
 4908 0020 C3F87D41 		str	r4, [r3, #381]	@ unaligned
1357:Core/Src/adBms6830ParseCreate.cpp ****     address = ((curr_ic+1) * (RX_DATA));
 4909              		.loc 1 1357 5 is_stmt 1 discriminator 3 view .LVU1890
 4910              		.loc 1 1357 13 is_stmt 0 discriminator 3 view .LVU1891
 4911 0024 0CF1010C 		add	ip, ip, #1
 4912              	.LVL314:
 4913              		.loc 1 1357 13 discriminator 3 view .LVU1892
 4914 0028 5FFA8CFC 		uxtb	ip, ip
 4915 002c 4FEACC0E 		lsl	lr, ip, #3
 4916              	.LVL315:
 4917              		.loc 1 1357 13 discriminator 3 view .LVU1893
 4918 0030 5FFA8EFE 		uxtb	lr, lr
 4919              	.LVL316:
1358:Core/Src/adBms6830ParseCreate.cpp ****     ic[curr_ic].PwmB.pwmb[0] = (ic[curr_ic].pwmb.rx_data[0] & 0x0F);
 4920              		.loc 1 1358 5 is_stmt 1 discriminator 3 view .LVU1894
 4921              		.loc 1 1358 59 is_stmt 0 discriminator 3 view .LVU1895
 4922 0034 93F87941 		ldrb	r4, [r3, #377]	@ zero_extendqisi2
 4923              		.loc 1 1358 61 discriminator 3 view .LVU1896
 4924 0038 04F00F05 		and	r5, r4, #15
 4925              		.loc 1 1358 30 discriminator 3 view .LVU1897
 4926 003c 83F81551 		strb	r5, [r3, #277]
1359:Core/Src/adBms6830ParseCreate.cpp ****     ic[curr_ic].PwmB.pwmb[1] = ((ic[curr_ic].pwmb.rx_data[0] & 0xF0) >> 4);
 4927              		.loc 1 1359 5 is_stmt 1 discriminator 3 view .LVU1898
 4928              		.loc 1 1359 70 is_stmt 0 discriminator 3 view .LVU1899
 4929 0040 2409     		lsrs	r4, r4, #4
 4930              		.loc 1 1359 30 discriminator 3 view .LVU1900
 4931 0042 83F81641 		strb	r4, [r3, #278]
1360:Core/Src/adBms6830ParseCreate.cpp ****     ic[curr_ic].PwmB.pwmb[2] = (ic[curr_ic].pwmb.rx_data[1] & 0x0F);
 4932              		.loc 1 1360 5 is_stmt 1 discriminator 3 view .LVU1901
 4933              		.loc 1 1360 59 is_stmt 0 discriminator 3 view .LVU1902
 4934 0046 93F87A41 		ldrb	r4, [r3, #378]	@ zero_extendqisi2
 4935              		.loc 1 1360 61 discriminator 3 view .LVU1903
 4936 004a 04F00F05 		and	r5, r4, #15
 4937              		.loc 1 1360 30 discriminator 3 view .LVU1904
 4938 004e 83F81751 		strb	r5, [r3, #279]
1361:Core/Src/adBms6830ParseCreate.cpp ****     ic[curr_ic].PwmB.pwmb[3] = ((ic[curr_ic].pwmb.rx_data[1] & 0xF0) >> 4);
 4939              		.loc 1 1361 5 is_stmt 1 discriminator 3 view .LVU1905
 4940              		.loc 1 1361 70 is_stmt 0 discriminator 3 view .LVU1906
 4941 0052 2409     		lsrs	r4, r4, #4
 4942              		.loc 1 1361 30 discriminator 3 view .LVU1907
 4943 0054 83F81841 		strb	r4, [r3, #280]
1354:Core/Src/adBms6830ParseCreate.cpp ****   {
 4944              		.loc 1 1354 3 is_stmt 1 discriminator 3 view .LVU1908
 4945              	.LVL317:
 4946              	.L217:
1354:Core/Src/adBms6830ParseCreate.cpp ****   {
 4947              		.loc 1 1354 36 discriminator 1 view .LVU1909
 4948 0058 8445     		cmp	ip, r0
 4949 005a D6D3     		bcc	.L218
 4950              	.LBE46:
1362:Core/Src/adBms6830ParseCreate.cpp ****   }
1363:Core/Src/adBms6830ParseCreate.cpp **** }
 4951              		.loc 1 1363 1 is_stmt 0 view .LVU1910
 4952 005c 30BD     		pop	{r4, r5, pc}
 4953              		.cfi_endproc
ARM GAS  C:\Users\huawei\AppData\Local\Temp\ccwYaMVL.s 			page 115


 4954              	.LFE270:
 4955              		.cantunwind
 4956              		.fnend
 4958              		.section	.text._Z17adBms6830ParsePwmhP9cell_asic3GRPPh,"ax",%progbits
 4959              		.align	1
 4960              		.global	_Z17adBms6830ParsePwmhP9cell_asic3GRPPh
 4961              		.syntax unified
 4962              		.thumb
 4963              		.thumb_func
 4965              	_Z17adBms6830ParsePwmhP9cell_asic3GRPPh:
 4966              		.fnstart
 4967              	.LVL318:
 4968              	.LFB271:
1364:Core/Src/adBms6830ParseCreate.cpp **** 
1365:Core/Src/adBms6830ParseCreate.cpp **** /**
1366:Core/Src/adBms6830ParseCreate.cpp ****  *******************************************************************************
1367:Core/Src/adBms6830ParseCreate.cpp ****  * Function: adBms6830ParsePwm
1368:Core/Src/adBms6830ParseCreate.cpp ****  * @brief Parse PWM register
1369:Core/Src/adBms6830ParseCreate.cpp ****  *
1370:Core/Src/adBms6830ParseCreate.cpp ****  * @details This function Parse the recived pwm register data.
1371:Core/Src/adBms6830ParseCreate.cpp ****  *
1372:Core/Src/adBms6830ParseCreate.cpp ****  * Parameters:
1373:Core/Src/adBms6830ParseCreate.cpp ****  *
1374:Core/Src/adBms6830ParseCreate.cpp ****  * @param [in]  tIC                     Total IC
1375:Core/Src/adBms6830ParseCreate.cpp ****  *
1376:Core/Src/adBms6830ParseCreate.cpp ****  * @param [in]  *ic                     cell_asic ic structure pointer
1377:Core/Src/adBms6830ParseCreate.cpp ****  *
1378:Core/Src/adBms6830ParseCreate.cpp ****  * @param [in]  *data                   data pointer
1379:Core/Src/adBms6830ParseCreate.cpp ****  *
1380:Core/Src/adBms6830ParseCreate.cpp ****  * @return None
1381:Core/Src/adBms6830ParseCreate.cpp ****  *
1382:Core/Src/adBms6830ParseCreate.cpp ****  *******************************************************************************
1383:Core/Src/adBms6830ParseCreate.cpp **** */
1384:Core/Src/adBms6830ParseCreate.cpp **** void adBms6830ParsePwm(uint8_t tIC, cell_asic *ic, GRP grp, uint8_t *data)
1385:Core/Src/adBms6830ParseCreate.cpp **** {
 4969              		.loc 1 1385 1 is_stmt 1 view -0
 4970              		.cfi_startproc
 4971              		@ args = 0, pretend = 0, frame = 0
 4972              		@ frame_needed = 0, uses_anonymous_args = 0
 4973              		.loc 1 1385 1 is_stmt 0 view .LVU1912
 4974 0000 08B5     		push	{r3, lr}
 4975              	.LCFI26:
 4976              		.cfi_def_cfa_offset 8
 4977              		.cfi_offset 3, -8
 4978              		.cfi_offset 14, -4
 4979 0002 9446     		mov	ip, r2
 4980 0004 1A46     		mov	r2, r3
 4981              	.LVL319:
1386:Core/Src/adBms6830ParseCreate.cpp ****   switch (grp)
 4982              		.loc 1 1386 3 is_stmt 1 view .LVU1913
 4983 0006 BCF1010F 		cmp	ip, #1
 4984 000a 03D0     		beq	.L221
 4985 000c BCF1020F 		cmp	ip, #2
 4986 0010 03D0     		beq	.L222
 4987              	.LVL320:
 4988              	.L220:
1387:Core/Src/adBms6830ParseCreate.cpp ****   {
ARM GAS  C:\Users\huawei\AppData\Local\Temp\ccwYaMVL.s 			page 116


1388:Core/Src/adBms6830ParseCreate.cpp ****     case A:
1389:Core/Src/adBms6830ParseCreate.cpp ****       adBms6830ParsePwma(tIC, &ic[0], &data[0]);
1390:Core/Src/adBms6830ParseCreate.cpp ****       break;
1391:Core/Src/adBms6830ParseCreate.cpp **** 
1392:Core/Src/adBms6830ParseCreate.cpp ****     case B:
1393:Core/Src/adBms6830ParseCreate.cpp ****       adBms6830ParsePwmb(tIC, &ic[0], &data[0]);
1394:Core/Src/adBms6830ParseCreate.cpp ****       break;
1395:Core/Src/adBms6830ParseCreate.cpp **** 
1396:Core/Src/adBms6830ParseCreate.cpp ****     default:
1397:Core/Src/adBms6830ParseCreate.cpp ****       break;
1398:Core/Src/adBms6830ParseCreate.cpp ****   }
1399:Core/Src/adBms6830ParseCreate.cpp **** }
 4989              		.loc 1 1399 1 is_stmt 0 view .LVU1914
 4990 0012 08BD     		pop	{r3, pc}
 4991              	.LVL321:
 4992              	.L221:
1388:Core/Src/adBms6830ParseCreate.cpp ****       adBms6830ParsePwma(tIC, &ic[0], &data[0]);
 4993              		.loc 1 1388 5 is_stmt 1 view .LVU1915
1389:Core/Src/adBms6830ParseCreate.cpp ****       break;
 4994              		.loc 1 1389 7 view .LVU1916
1389:Core/Src/adBms6830ParseCreate.cpp ****       break;
 4995              		.loc 1 1389 25 is_stmt 0 view .LVU1917
 4996 0014 FFF7FEFF 		bl	_Z18adBms6830ParsePwmahP9cell_asicPh
 4997              	.LVL322:
1390:Core/Src/adBms6830ParseCreate.cpp **** 
 4998              		.loc 1 1390 7 is_stmt 1 view .LVU1918
 4999 0018 FBE7     		b	.L220
 5000              	.LVL323:
 5001              	.L222:
1392:Core/Src/adBms6830ParseCreate.cpp ****       adBms6830ParsePwmb(tIC, &ic[0], &data[0]);
 5002              		.loc 1 1392 5 view .LVU1919
1393:Core/Src/adBms6830ParseCreate.cpp ****       break;
 5003              		.loc 1 1393 7 view .LVU1920
1393:Core/Src/adBms6830ParseCreate.cpp ****       break;
 5004              		.loc 1 1393 25 is_stmt 0 view .LVU1921
 5005 001a FFF7FEFF 		bl	_Z18adBms6830ParsePwmbhP9cell_asicPh
 5006              	.LVL324:
1394:Core/Src/adBms6830ParseCreate.cpp **** 
 5007              		.loc 1 1394 7 is_stmt 1 view .LVU1922
 5008              		.loc 1 1399 1 is_stmt 0 view .LVU1923
 5009 001e F8E7     		b	.L220
 5010              		.cfi_endproc
 5011              	.LFE271:
 5012              		.cantunwind
 5013              		.fnend
 5015              		.section	.text._Z22adBms6830CreateConfigahP9cell_asic,"ax",%progbits
 5016              		.align	1
 5017              		.global	_Z22adBms6830CreateConfigahP9cell_asic
 5018              		.syntax unified
 5019              		.thumb
 5020              		.thumb_func
 5022              	_Z22adBms6830CreateConfigahP9cell_asic:
 5023              		.fnstart
 5024              	.LVL325:
 5025              	.LFB272:
1400:Core/Src/adBms6830ParseCreate.cpp **** 
1401:Core/Src/adBms6830ParseCreate.cpp **** /**
ARM GAS  C:\Users\huawei\AppData\Local\Temp\ccwYaMVL.s 			page 117


1402:Core/Src/adBms6830ParseCreate.cpp ****  *******************************************************************************
1403:Core/Src/adBms6830ParseCreate.cpp ****  * Function: adBms6830CreateConfiga
1404:Core/Src/adBms6830ParseCreate.cpp ****  * @brief Create the configation A write buffer
1405:Core/Src/adBms6830ParseCreate.cpp ****  *
1406:Core/Src/adBms6830ParseCreate.cpp ****  * @details This function create the configation A write buffer.
1407:Core/Src/adBms6830ParseCreate.cpp ****  *
1408:Core/Src/adBms6830ParseCreate.cpp ****  * Parameters:
1409:Core/Src/adBms6830ParseCreate.cpp ****  *
1410:Core/Src/adBms6830ParseCreate.cpp ****  * @param [in]  tIC                     Total IC
1411:Core/Src/adBms6830ParseCreate.cpp ****  *
1412:Core/Src/adBms6830ParseCreate.cpp ****  * @param [in]  *ic                     cell_asic ic structure pointer
1413:Core/Src/adBms6830ParseCreate.cpp ****  *
1414:Core/Src/adBms6830ParseCreate.cpp ****  * @return None
1415:Core/Src/adBms6830ParseCreate.cpp ****  *
1416:Core/Src/adBms6830ParseCreate.cpp ****  *******************************************************************************
1417:Core/Src/adBms6830ParseCreate.cpp **** */
1418:Core/Src/adBms6830ParseCreate.cpp **** void adBms6830CreateConfiga(uint8_t tIC, cell_asic *ic)
1419:Core/Src/adBms6830ParseCreate.cpp **** {
 5026              		.loc 1 1419 1 is_stmt 1 view -0
 5027              		.cfi_startproc
 5028              		@ args = 0, pretend = 0, frame = 0
 5029              		@ frame_needed = 0, uses_anonymous_args = 0
1420:Core/Src/adBms6830ParseCreate.cpp ****   for(uint8_t curr_ic = 0; curr_ic < tIC; curr_ic++)
 5030              		.loc 1 1420 3 view .LVU1925
 5031              	.LBB47:
 5032              		.loc 1 1420 15 is_stmt 0 view .LVU1926
 5033 0000 4FF0000C 		mov	ip, #0
 5034              	.LVL326:
 5035              		.loc 1 1420 36 is_stmt 1 view .LVU1927
 5036 0004 8445     		cmp	ip, r0
 5037 0006 43D2     		bcs	.L231
 5038              	.LBE47:
1419:Core/Src/adBms6830ParseCreate.cpp ****   for(uint8_t curr_ic = 0; curr_ic < tIC; curr_ic++)
 5039              		.loc 1 1419 1 is_stmt 0 view .LVU1928
 5040 0008 10B5     		push	{r4, lr}
 5041              	.LCFI27:
 5042              		.cfi_def_cfa_offset 8
 5043              		.cfi_offset 4, -8
 5044              		.cfi_offset 14, -4
 5045              	.L227:
 5046              	.LBB48:
1421:Core/Src/adBms6830ParseCreate.cpp ****   {
1422:Core/Src/adBms6830ParseCreate.cpp ****     ic[curr_ic].configa.tx_data[0] = (((ic[curr_ic].tx_cfga.refon & 0x01) << 7) | (ic[curr_ic].tx_c
 5047              		.loc 1 1422 5 is_stmt 1 discriminator 3 view .LVU1929
 5048              		.loc 1 1422 51 is_stmt 0 discriminator 3 view .LVU1930
 5049 000a 4FF42872 		mov	r2, #672
 5050 000e 02FB0CF2 		mul	r2, r2, ip
 5051 0012 8B18     		adds	r3, r1, r2
 5052              		.loc 1 1422 61 discriminator 3 view .LVU1931
 5053 0014 8A5C     		ldrb	r2, [r1, r2]	@ zero_extendqisi2
 5054 0016 02F00104 		and	r4, r2, #1
 5055              		.loc 1 1422 104 discriminator 3 view .LVU1932
 5056 001a C2F34202 		ubfx	r2, r2, #1, #3
 5057              		.loc 1 1422 81 discriminator 3 view .LVU1933
 5058 001e 42EAC412 		orr	r2, r2, r4, lsl #7
 5059              		.loc 1 1422 36 discriminator 3 view .LVU1934
 5060 0022 83F81F21 		strb	r2, [r3, #287]
ARM GAS  C:\Users\huawei\AppData\Local\Temp\ccwYaMVL.s 			page 118


1423:Core/Src/adBms6830ParseCreate.cpp ****     ic[curr_ic].configa.tx_data[1] = (ic[curr_ic].tx_cfga.flag_d & 0xFF);
 5061              		.loc 1 1423 5 is_stmt 1 discriminator 3 view .LVU1935
 5062              		.loc 1 1423 59 is_stmt 0 discriminator 3 view .LVU1936
 5063 0026 5A78     		ldrb	r2, [r3, #1]	@ zero_extendqisi2
 5064              		.loc 1 1423 36 discriminator 3 view .LVU1937
 5065 0028 83F82021 		strb	r2, [r3, #288]
1424:Core/Src/adBms6830ParseCreate.cpp ****     ic[curr_ic].configa.tx_data[2] = (((ic[curr_ic].tx_cfga.soakon & 0x01) << 7) | ((ic[curr_ic].tx
 5066              		.loc 1 1424 5 is_stmt 1 discriminator 3 view .LVU1938
 5067              		.loc 1 1424 61 is_stmt 0 discriminator 3 view .LVU1939
 5068 002c 93F802E0 		ldrb	lr, [r3, #2]	@ zero_extendqisi2
 5069 0030 0EF00104 		and	r4, lr, #1
 5070              		.loc 1 1424 106 discriminator 3 view .LVU1940
 5071 0034 CEF34002 		ubfx	r2, lr, #1, #1
 5072              		.loc 1 1424 120 discriminator 3 view .LVU1941
 5073 0038 9201     		lsls	r2, r2, #6
 5074              		.loc 1 1424 82 discriminator 3 view .LVU1942
 5075 003a 42EAC412 		orr	r2, r2, r4, lsl #7
 5076 003e 52B2     		sxtb	r2, r2
 5077              		.loc 1 1424 150 discriminator 3 view .LVU1943
 5078 0040 CEF3820E 		ubfx	lr, lr, #2, #3
 5079              		.loc 1 1424 126 discriminator 3 view .LVU1944
 5080 0044 42EACE02 		orr	r2, r2, lr, lsl #3
 5081              		.loc 1 1424 36 discriminator 3 view .LVU1945
 5082 0048 83F82121 		strb	r2, [r3, #289]
1425:Core/Src/adBms6830ParseCreate.cpp ****     ic[curr_ic].configa.tx_data[3] = ((ic[curr_ic].tx_cfga.gpo & 0x00FF));
 5083              		.loc 1 1425 5 is_stmt 1 discriminator 3 view .LVU1946
 5084              		.loc 1 1425 60 is_stmt 0 discriminator 3 view .LVU1947
 5085 004c 5A88     		ldrh	r2, [r3, #2]
 5086 004e C2F34912 		ubfx	r2, r2, #5, #10
 5087              		.loc 1 1425 36 discriminator 3 view .LVU1948
 5088 0052 83F82221 		strb	r2, [r3, #290]
1426:Core/Src/adBms6830ParseCreate.cpp ****     ic[curr_ic].configa.tx_data[4] = ((ic[curr_ic].tx_cfga.gpo & 0x0300)>>8);
 5089              		.loc 1 1426 5 is_stmt 1 discriminator 3 view .LVU1949
 5090              		.loc 1 1426 73 is_stmt 0 discriminator 3 view .LVU1950
 5091 0056 120A     		lsrs	r2, r2, #8
 5092              		.loc 1 1426 36 discriminator 3 view .LVU1951
 5093 0058 83F82321 		strb	r2, [r3, #291]
1427:Core/Src/adBms6830ParseCreate.cpp ****     ic[curr_ic].configa.tx_data[5] = (((ic[curr_ic].tx_cfga.snap & 0x01) << 5) | ((ic[curr_ic].tx_c
 5094              		.loc 1 1427 5 is_stmt 1 discriminator 3 view .LVU1952
 5095              		.loc 1 1427 61 is_stmt 0 discriminator 3 view .LVU1953
 5096 005c DC78     		ldrb	r4, [r3, #3]	@ zero_extendqisi2
 5097 005e E409     		lsrs	r4, r4, #7
 5098              		.loc 1 1427 104 discriminator 3 view .LVU1954
 5099 0060 93F804E0 		ldrb	lr, [r3, #4]	@ zero_extendqisi2
 5100 0064 0EF00102 		and	r2, lr, #1
 5101              		.loc 1 1427 120 discriminator 3 view .LVU1955
 5102 0068 1201     		lsls	r2, r2, #4
 5103              		.loc 1 1427 80 discriminator 3 view .LVU1956
 5104 006a 42EA4412 		orr	r2, r2, r4, lsl #5
 5105              		.loc 1 1427 150 discriminator 3 view .LVU1957
 5106 006e CEF34004 		ubfx	r4, lr, #1, #1
 5107              		.loc 1 1427 126 discriminator 3 view .LVU1958
 5108 0072 42EAC402 		orr	r2, r2, r4, lsl #3
 5109              		.loc 1 1427 195 discriminator 3 view .LVU1959
 5110 0076 CEF3820E 		ubfx	lr, lr, #2, #3
 5111              		.loc 1 1427 172 discriminator 3 view .LVU1960
 5112 007a 42EA0E02 		orr	r2, r2, lr
ARM GAS  C:\Users\huawei\AppData\Local\Temp\ccwYaMVL.s 			page 119


 5113              		.loc 1 1427 36 discriminator 3 view .LVU1961
 5114 007e 83F82421 		strb	r2, [r3, #292]
1420:Core/Src/adBms6830ParseCreate.cpp ****   {
 5115              		.loc 1 1420 3 is_stmt 1 discriminator 3 view .LVU1962
 5116 0082 0CF1010C 		add	ip, ip, #1
 5117              	.LVL327:
1420:Core/Src/adBms6830ParseCreate.cpp ****   {
 5118              		.loc 1 1420 3 is_stmt 0 discriminator 3 view .LVU1963
 5119 0086 5FFA8CFC 		uxtb	ip, ip
 5120              	.LVL328:
1420:Core/Src/adBms6830ParseCreate.cpp ****   {
 5121              		.loc 1 1420 36 is_stmt 1 discriminator 3 view .LVU1964
 5122 008a 8445     		cmp	ip, r0
 5123 008c BDD3     		bcc	.L227
 5124              	.LBE48:
1428:Core/Src/adBms6830ParseCreate.cpp ****   }
1429:Core/Src/adBms6830ParseCreate.cpp **** }
 5125              		.loc 1 1429 1 is_stmt 0 view .LVU1965
 5126 008e 10BD     		pop	{r4, pc}
 5127              	.L231:
 5128              	.LCFI28:
 5129              		.cfi_def_cfa_offset 0
 5130              		.cfi_restore 4
 5131              		.cfi_restore 14
 5132              		.loc 1 1429 1 view .LVU1966
 5133 0090 7047     		bx	lr
 5134              		.cfi_endproc
 5135              	.LFE272:
 5136              		.cantunwind
 5137              		.fnend
 5139              		.section	.text._Z22adBms6830CreateConfigbhP9cell_asic,"ax",%progbits
 5140              		.align	1
 5141              		.global	_Z22adBms6830CreateConfigbhP9cell_asic
 5142              		.syntax unified
 5143              		.thumb
 5144              		.thumb_func
 5146              	_Z22adBms6830CreateConfigbhP9cell_asic:
 5147              		.fnstart
 5148              	.LVL329:
 5149              	.LFB273:
1430:Core/Src/adBms6830ParseCreate.cpp **** 
1431:Core/Src/adBms6830ParseCreate.cpp **** /**
1432:Core/Src/adBms6830ParseCreate.cpp ****  *******************************************************************************
1433:Core/Src/adBms6830ParseCreate.cpp ****  * Function: adBms6830CreateConfigb
1434:Core/Src/adBms6830ParseCreate.cpp ****  * @brief Create the configation B write buffer
1435:Core/Src/adBms6830ParseCreate.cpp ****  *
1436:Core/Src/adBms6830ParseCreate.cpp ****  * @details This function create the configation B write buffer.
1437:Core/Src/adBms6830ParseCreate.cpp ****  *
1438:Core/Src/adBms6830ParseCreate.cpp ****  * Parameters:
1439:Core/Src/adBms6830ParseCreate.cpp ****  *
1440:Core/Src/adBms6830ParseCreate.cpp ****  * @param [in]  tIC                     Total IC
1441:Core/Src/adBms6830ParseCreate.cpp ****  *
1442:Core/Src/adBms6830ParseCreate.cpp ****  * @param [in]  *ic                     cell_asic ic structure pointer
1443:Core/Src/adBms6830ParseCreate.cpp ****  *
1444:Core/Src/adBms6830ParseCreate.cpp ****  * @return None
1445:Core/Src/adBms6830ParseCreate.cpp ****  *
1446:Core/Src/adBms6830ParseCreate.cpp ****  *******************************************************************************
ARM GAS  C:\Users\huawei\AppData\Local\Temp\ccwYaMVL.s 			page 120


1447:Core/Src/adBms6830ParseCreate.cpp **** */
1448:Core/Src/adBms6830ParseCreate.cpp **** void adBms6830CreateConfigb(uint8_t tIC, cell_asic *ic)
1449:Core/Src/adBms6830ParseCreate.cpp **** {
 5150              		.loc 1 1449 1 is_stmt 1 view -0
 5151              		.cfi_startproc
 5152              		@ args = 0, pretend = 0, frame = 0
 5153              		@ frame_needed = 0, uses_anonymous_args = 0
1450:Core/Src/adBms6830ParseCreate.cpp ****   for(uint8_t curr_ic = 0; curr_ic < tIC; curr_ic++)
 5154              		.loc 1 1450 3 view .LVU1968
 5155              	.LBB49:
 5156              		.loc 1 1450 15 is_stmt 0 view .LVU1969
 5157 0000 4FF0000C 		mov	ip, #0
 5158              	.LVL330:
 5159              		.loc 1 1450 36 is_stmt 1 view .LVU1970
 5160 0004 8445     		cmp	ip, r0
 5161 0006 2DD2     		bcs	.L238
 5162              	.LBE49:
1449:Core/Src/adBms6830ParseCreate.cpp ****   for(uint8_t curr_ic = 0; curr_ic < tIC; curr_ic++)
 5163              		.loc 1 1449 1 is_stmt 0 view .LVU1971
 5164 0008 10B5     		push	{r4, lr}
 5165              	.LCFI29:
 5166              		.cfi_def_cfa_offset 8
 5167              		.cfi_offset 4, -8
 5168              		.cfi_offset 14, -4
 5169              	.L234:
 5170              	.LBB50:
1451:Core/Src/adBms6830ParseCreate.cpp ****   {
1452:Core/Src/adBms6830ParseCreate.cpp ****     ic[curr_ic].configb.tx_data[0] = ((ic[curr_ic].tx_cfgb.vuv ));
 5171              		.loc 1 1452 5 is_stmt 1 discriminator 3 view .LVU1972
 5172              		.loc 1 1452 50 is_stmt 0 discriminator 3 view .LVU1973
 5173 000a 4FF42873 		mov	r3, #672
 5174 000e 03FB0C13 		mla	r3, r3, ip, r1
 5175              		.loc 1 1452 60 discriminator 3 view .LVU1974
 5176 0012 9A89     		ldrh	r2, [r3, #12]
 5177              		.loc 1 1452 36 discriminator 3 view .LVU1975
 5178 0014 83F82D21 		strb	r2, [r3, #301]
1453:Core/Src/adBms6830ParseCreate.cpp ****     ic[curr_ic].configb.tx_data[1] = (((ic[curr_ic].tx_cfgb.vov & 0x000F) << 4) | ((ic[curr_ic].tx_
 5179              		.loc 1 1453 5 is_stmt 1 discriminator 3 view .LVU1976
 5180              		.loc 1 1453 61 is_stmt 0 discriminator 3 view .LVU1977
 5181 0018 B3F80EE0 		ldrh	lr, [r3, #14]
 5182              		.loc 1 1453 111 discriminator 3 view .LVU1978
 5183 001c 120A     		lsrs	r2, r2, #8
 5184              		.loc 1 1453 81 discriminator 3 view .LVU1979
 5185 001e 42EA0E12 		orr	r2, r2, lr, lsl #4
 5186              		.loc 1 1453 36 discriminator 3 view .LVU1980
 5187 0022 83F82E21 		strb	r2, [r3, #302]
1454:Core/Src/adBms6830ParseCreate.cpp ****     ic[curr_ic].configb.tx_data[2] = ((ic[curr_ic].tx_cfgb.vov >>4)&0x0FF);
 5188              		.loc 1 1454 5 is_stmt 1 discriminator 3 view .LVU1981
 5189              		.loc 1 1454 64 is_stmt 0 discriminator 3 view .LVU1982
 5190 0026 4FEA1E1E 		lsr	lr, lr, #4
 5191              		.loc 1 1454 36 discriminator 3 view .LVU1983
 5192 002a 83F82FE1 		strb	lr, [r3, #303]
1455:Core/Src/adBms6830ParseCreate.cpp ****     ic[curr_ic].configb.tx_data[3] = (((ic[curr_ic].tx_cfgb.dtmen & 0x01) << 7) | ((ic[curr_ic].tx_
 5193              		.loc 1 1455 5 is_stmt 1 discriminator 3 view .LVU1984
 5194              		.loc 1 1455 61 is_stmt 0 discriminator 3 view .LVU1985
 5195 002e 93F810E0 		ldrb	lr, [r3, #16]	@ zero_extendqisi2
 5196 0032 0EF00104 		and	r4, lr, #1
ARM GAS  C:\Users\huawei\AppData\Local\Temp\ccwYaMVL.s 			page 121


 5197              		.loc 1 1455 105 discriminator 3 view .LVU1986
 5198 0036 CEF34002 		ubfx	r2, lr, #1, #1
 5199              		.loc 1 1455 119 discriminator 3 view .LVU1987
 5200 003a 9201     		lsls	r2, r2, #6
 5201              		.loc 1 1455 81 discriminator 3 view .LVU1988
 5202 003c 42EAC412 		orr	r2, r2, r4, lsl #7
 5203 0040 52B2     		sxtb	r2, r2
 5204              		.loc 1 1455 125 discriminator 3 view .LVU1989
 5205 0042 42EA9E02 		orr	r2, r2, lr, lsr #2
 5206              		.loc 1 1455 36 discriminator 3 view .LVU1990
 5207 0046 83F83021 		strb	r2, [r3, #304]
1456:Core/Src/adBms6830ParseCreate.cpp ****     ic[curr_ic].configb.tx_data[4] = ((ic[curr_ic].tx_cfgb.dcc & 0xFF));
 5208              		.loc 1 1456 5 is_stmt 1 discriminator 3 view .LVU1991
 5209              		.loc 1 1456 60 is_stmt 0 discriminator 3 view .LVU1992
 5210 004a 5A8A     		ldrh	r2, [r3, #18]
 5211              		.loc 1 1456 36 discriminator 3 view .LVU1993
 5212 004c 83F83121 		strb	r2, [r3, #305]
1457:Core/Src/adBms6830ParseCreate.cpp ****     ic[curr_ic].configb.tx_data[5] = ((ic[curr_ic].tx_cfgb.dcc >>8 ));
 5213              		.loc 1 1457 5 is_stmt 1 discriminator 3 view .LVU1994
 5214              		.loc 1 1457 64 is_stmt 0 discriminator 3 view .LVU1995
 5215 0050 120A     		lsrs	r2, r2, #8
 5216              		.loc 1 1457 36 discriminator 3 view .LVU1996
 5217 0052 83F83221 		strb	r2, [r3, #306]
1450:Core/Src/adBms6830ParseCreate.cpp ****   {
 5218              		.loc 1 1450 3 is_stmt 1 discriminator 3 view .LVU1997
 5219 0056 0CF1010C 		add	ip, ip, #1
 5220              	.LVL331:
1450:Core/Src/adBms6830ParseCreate.cpp ****   {
 5221              		.loc 1 1450 3 is_stmt 0 discriminator 3 view .LVU1998
 5222 005a 5FFA8CFC 		uxtb	ip, ip
 5223              	.LVL332:
1450:Core/Src/adBms6830ParseCreate.cpp ****   {
 5224              		.loc 1 1450 36 is_stmt 1 discriminator 3 view .LVU1999
 5225 005e 8445     		cmp	ip, r0
 5226 0060 D3D3     		bcc	.L234
 5227              	.LBE50:
1458:Core/Src/adBms6830ParseCreate.cpp ****   }
1459:Core/Src/adBms6830ParseCreate.cpp **** }
 5228              		.loc 1 1459 1 is_stmt 0 view .LVU2000
 5229 0062 10BD     		pop	{r4, pc}
 5230              	.L238:
 5231              	.LCFI30:
 5232              		.cfi_def_cfa_offset 0
 5233              		.cfi_restore 4
 5234              		.cfi_restore 14
 5235              		.loc 1 1459 1 view .LVU2001
 5236 0064 7047     		bx	lr
 5237              		.cfi_endproc
 5238              	.LFE273:
 5239              		.cantunwind
 5240              		.fnend
 5242              		.section	.text._Z26adBms6830CreateClrflagDatahP9cell_asic,"ax",%progbits
 5243              		.align	1
 5244              		.global	_Z26adBms6830CreateClrflagDatahP9cell_asic
 5245              		.syntax unified
 5246              		.thumb
 5247              		.thumb_func
ARM GAS  C:\Users\huawei\AppData\Local\Temp\ccwYaMVL.s 			page 122


 5249              	_Z26adBms6830CreateClrflagDatahP9cell_asic:
 5250              		.fnstart
 5251              	.LVL333:
 5252              	.LFB274:
1460:Core/Src/adBms6830ParseCreate.cpp **** 
1461:Core/Src/adBms6830ParseCreate.cpp **** /**
1462:Core/Src/adBms6830ParseCreate.cpp ****  *******************************************************************************
1463:Core/Src/adBms6830ParseCreate.cpp ****  * Function: adBms6830CreateClrflagData
1464:Core/Src/adBms6830ParseCreate.cpp ****  * @brief Create the clear flag write buffer
1465:Core/Src/adBms6830ParseCreate.cpp ****  *
1466:Core/Src/adBms6830ParseCreate.cpp ****  * @details This function create the clear flag write buffer.
1467:Core/Src/adBms6830ParseCreate.cpp ****  *
1468:Core/Src/adBms6830ParseCreate.cpp ****  * Parameters:
1469:Core/Src/adBms6830ParseCreate.cpp ****  *
1470:Core/Src/adBms6830ParseCreate.cpp ****  * @param [in]  tIC                     Total IC
1471:Core/Src/adBms6830ParseCreate.cpp ****  *
1472:Core/Src/adBms6830ParseCreate.cpp ****  * @param [in]  *ic                     cell_asic ic structure pointer
1473:Core/Src/adBms6830ParseCreate.cpp ****  *
1474:Core/Src/adBms6830ParseCreate.cpp ****  * @return None
1475:Core/Src/adBms6830ParseCreate.cpp ****  *
1476:Core/Src/adBms6830ParseCreate.cpp ****  *******************************************************************************
1477:Core/Src/adBms6830ParseCreate.cpp **** */
1478:Core/Src/adBms6830ParseCreate.cpp **** void adBms6830CreateClrflagData(uint8_t tIC, cell_asic *ic)
1479:Core/Src/adBms6830ParseCreate.cpp **** {
 5253              		.loc 1 1479 1 is_stmt 1 view -0
 5254              		.cfi_startproc
 5255              		@ args = 0, pretend = 0, frame = 0
 5256              		@ frame_needed = 0, uses_anonymous_args = 0
1480:Core/Src/adBms6830ParseCreate.cpp ****   for(uint8_t curr_ic = 0; curr_ic < tIC; curr_ic++)
 5257              		.loc 1 1480 3 view .LVU2003
 5258              	.LBB51:
 5259              		.loc 1 1480 15 is_stmt 0 view .LVU2004
 5260 0000 4FF0000C 		mov	ip, #0
 5261              	.LVL334:
 5262              		.loc 1 1480 36 is_stmt 1 view .LVU2005
 5263 0004 8445     		cmp	ip, r0
 5264 0006 4FD2     		bcs	.L245
 5265              	.LBE51:
1479:Core/Src/adBms6830ParseCreate.cpp ****   for(uint8_t curr_ic = 0; curr_ic < tIC; curr_ic++)
 5266              		.loc 1 1479 1 is_stmt 0 view .LVU2006
 5267 0008 10B5     		push	{r4, lr}
 5268              	.LCFI31:
 5269              		.cfi_def_cfa_offset 8
 5270              		.cfi_offset 4, -8
 5271              		.cfi_offset 14, -4
 5272              	.L241:
 5273              	.LBB52:
1481:Core/Src/adBms6830ParseCreate.cpp ****   {
1482:Core/Src/adBms6830ParseCreate.cpp ****     ic[curr_ic].clrflag.tx_data[0] = (ic[curr_ic].clflag.cl_csflt & 0x00FF);
 5274              		.loc 1 1482 5 is_stmt 1 discriminator 3 view .LVU2007
 5275              		.loc 1 1482 49 is_stmt 0 discriminator 3 view .LVU2008
 5276 000a 4FF42872 		mov	r2, #672
 5277 000e 02FB0C12 		mla	r2, r2, ip, r1
 5278              		.loc 1 1482 58 discriminator 3 view .LVU2009
 5279 0012 938B     		ldrh	r3, [r2, #28]
 5280              		.loc 1 1482 36 discriminator 3 view .LVU2010
 5281 0014 82F83B31 		strb	r3, [r2, #315]
ARM GAS  C:\Users\huawei\AppData\Local\Temp\ccwYaMVL.s 			page 123


1483:Core/Src/adBms6830ParseCreate.cpp ****     ic[curr_ic].clrflag.tx_data[1] = ((ic[curr_ic].clflag.cl_csflt & 0xFF00) >> 8);
 5282              		.loc 1 1483 5 is_stmt 1 discriminator 3 view .LVU2011
 5283              		.loc 1 1483 78 is_stmt 0 discriminator 3 view .LVU2012
 5284 0018 1B0A     		lsrs	r3, r3, #8
 5285              		.loc 1 1483 36 discriminator 3 view .LVU2013
 5286 001a 82F83C31 		strb	r3, [r2, #316]
1484:Core/Src/adBms6830ParseCreate.cpp ****     ic[curr_ic].clrflag.tx_data[2] = 0x00;
 5287              		.loc 1 1484 5 is_stmt 1 discriminator 3 view .LVU2014
 5288              		.loc 1 1484 36 is_stmt 0 discriminator 3 view .LVU2015
 5289 001e 0023     		movs	r3, #0
 5290 0020 82F83D31 		strb	r3, [r2, #317]
1485:Core/Src/adBms6830ParseCreate.cpp ****     ic[curr_ic].clrflag.tx_data[3] = 0x00;
 5291              		.loc 1 1485 5 is_stmt 1 discriminator 3 view .LVU2016
 5292              		.loc 1 1485 36 is_stmt 0 discriminator 3 view .LVU2017
 5293 0024 82F83E31 		strb	r3, [r2, #318]
1486:Core/Src/adBms6830ParseCreate.cpp ****     ic[curr_ic].clrflag.tx_data[4] = ((ic[curr_ic].clflag.cl_vaov << 7) | (ic[curr_ic].clflag.cl_va
 5294              		.loc 1 1486 5 is_stmt 1 discriminator 3 view .LVU2018
 5295              		.loc 1 1486 59 is_stmt 0 discriminator 3 view .LVU2019
 5296 0028 92F81EE0 		ldrb	lr, [r2, #30]	@ zero_extendqisi2
 5297              		.loc 1 1486 67 discriminator 3 view .LVU2020
 5298 002c 0EF08003 		and	r3, lr, #128
 5299              		.loc 1 1486 103 discriminator 3 view .LVU2021
 5300 0030 0EF04004 		and	r4, lr, #64
 5301              		.loc 1 1486 73 discriminator 3 view .LVU2022
 5302 0034 2343     		orrs	r3, r3, r4
 5303 0036 5BB2     		sxtb	r3, r3
 5304              		.loc 1 1486 139 discriminator 3 view .LVU2023
 5305 0038 0EF02004 		and	r4, lr, #32
 5306              		.loc 1 1486 109 discriminator 3 view .LVU2024
 5307 003c 2343     		orrs	r3, r3, r4
 5308              		.loc 1 1486 175 discriminator 3 view .LVU2025
 5309 003e 0EF01004 		and	r4, lr, #16
 5310              		.loc 1 1486 145 discriminator 3 view .LVU2026
 5311 0042 2343     		orrs	r3, r3, r4
1487:Core/Src/adBms6830ParseCreate.cpp ****                                       |(ic[curr_ic].clflag.cl_ced << 3)| (ic[curr_ic].clflag.cl_cme
 5312              		.loc 1 1487 67 discriminator 3 view .LVU2027
 5313 0044 0EF00804 		and	r4, lr, #8
 5314              		.loc 1 1487 39 discriminator 3 view .LVU2028
 5315 0048 2343     		orrs	r3, r3, r4
 5316              		.loc 1 1487 102 discriminator 3 view .LVU2029
 5317 004a 0EF00404 		and	r4, lr, #4
 5318              		.loc 1 1487 72 discriminator 3 view .LVU2030
 5319 004e 2343     		orrs	r3, r3, r4
 5320              		.loc 1 1487 137 discriminator 3 view .LVU2031
 5321 0050 0EF00204 		and	r4, lr, #2
 5322              		.loc 1 1487 108 discriminator 3 view .LVU2032
 5323 0054 2343     		orrs	r3, r3, r4
 5324              		.loc 1 1487 165 discriminator 3 view .LVU2033
 5325 0056 0EF0010E 		and	lr, lr, #1
 5326              		.loc 1 1487 143 discriminator 3 view .LVU2034
 5327 005a 43EA0E03 		orr	r3, r3, lr
1486:Core/Src/adBms6830ParseCreate.cpp ****     ic[curr_ic].clrflag.tx_data[4] = ((ic[curr_ic].clflag.cl_vaov << 7) | (ic[curr_ic].clflag.cl_va
 5328              		.loc 1 1486 36 discriminator 3 view .LVU2035
 5329 005e 82F83F31 		strb	r3, [r2, #319]
1488:Core/Src/adBms6830ParseCreate.cpp ****     ic[curr_ic].clrflag.tx_data[5] = ((ic[curr_ic].clflag.cl_vde << 7) | (ic[curr_ic].clflag.cl_vde
 5330              		.loc 1 1488 5 is_stmt 1 discriminator 3 view .LVU2036
 5331              		.loc 1 1488 59 is_stmt 0 discriminator 3 view .LVU2037
ARM GAS  C:\Users\huawei\AppData\Local\Temp\ccwYaMVL.s 			page 124


 5332 0062 92F81FE0 		ldrb	lr, [r2, #31]	@ zero_extendqisi2
 5333 0066 CEF38014 		ubfx	r4, lr, #6, #1
 5334              		.loc 1 1488 94 discriminator 3 view .LVU2038
 5335 006a CEF34013 		ubfx	r3, lr, #5, #1
 5336              		.loc 1 1488 102 discriminator 3 view .LVU2039
 5337 006e 9B01     		lsls	r3, r3, #6
 5338              		.loc 1 1488 72 discriminator 3 view .LVU2040
 5339 0070 43EAC413 		orr	r3, r3, r4, lsl #7
 5340 0074 5BB2     		sxtb	r3, r3
 5341              		.loc 1 1488 140 discriminator 3 view .LVU2041
 5342 0076 0EF01004 		and	r4, lr, #16
 5343              		.loc 1 1488 108 discriminator 3 view .LVU2042
 5344 007a 2343     		orrs	r3, r3, r4
 5345              		.loc 1 1488 176 discriminator 3 view .LVU2043
 5346 007c 0EF00804 		and	r4, lr, #8
 5347              		.loc 1 1488 146 discriminator 3 view .LVU2044
 5348 0080 2343     		orrs	r3, r3, r4
1489:Core/Src/adBms6830ParseCreate.cpp ****                                       | (ic[curr_ic].clflag.cl_thsd << 2) | (ic[curr_ic].clflag.cl_
 5349              		.loc 1 1489 69 discriminator 3 view .LVU2045
 5350 0082 0EF00404 		and	r4, lr, #4
 5351              		.loc 1 1489 39 discriminator 3 view .LVU2046
 5352 0086 2343     		orrs	r3, r3, r4
 5353              		.loc 1 1489 106 discriminator 3 view .LVU2047
 5354 0088 0EF00204 		and	r4, lr, #2
 5355              		.loc 1 1489 75 discriminator 3 view .LVU2048
 5356 008c 2343     		orrs	r3, r3, r4
 5357              		.loc 1 1489 134 discriminator 3 view .LVU2049
 5358 008e 0EF0010E 		and	lr, lr, #1
 5359              		.loc 1 1489 112 discriminator 3 view .LVU2050
 5360 0092 43EA0E03 		orr	r3, r3, lr
1488:Core/Src/adBms6830ParseCreate.cpp ****     ic[curr_ic].clrflag.tx_data[5] = ((ic[curr_ic].clflag.cl_vde << 7) | (ic[curr_ic].clflag.cl_vde
 5361              		.loc 1 1488 36 discriminator 3 view .LVU2051
 5362 0096 82F84031 		strb	r3, [r2, #320]
1480:Core/Src/adBms6830ParseCreate.cpp ****   {
 5363              		.loc 1 1480 3 is_stmt 1 discriminator 3 view .LVU2052
 5364 009a 0CF1010C 		add	ip, ip, #1
 5365              	.LVL335:
1480:Core/Src/adBms6830ParseCreate.cpp ****   {
 5366              		.loc 1 1480 3 is_stmt 0 discriminator 3 view .LVU2053
 5367 009e 5FFA8CFC 		uxtb	ip, ip
 5368              	.LVL336:
1480:Core/Src/adBms6830ParseCreate.cpp ****   {
 5369              		.loc 1 1480 36 is_stmt 1 discriminator 3 view .LVU2054
 5370 00a2 8445     		cmp	ip, r0
 5371 00a4 B1D3     		bcc	.L241
 5372              	.LBE52:
1490:Core/Src/adBms6830ParseCreate.cpp ****   }
1491:Core/Src/adBms6830ParseCreate.cpp **** }
 5373              		.loc 1 1491 1 is_stmt 0 view .LVU2055
 5374 00a6 10BD     		pop	{r4, pc}
 5375              	.L245:
 5376              	.LCFI32:
 5377              		.cfi_def_cfa_offset 0
 5378              		.cfi_restore 4
 5379              		.cfi_restore 14
 5380              		.loc 1 1491 1 view .LVU2056
 5381 00a8 7047     		bx	lr
ARM GAS  C:\Users\huawei\AppData\Local\Temp\ccwYaMVL.s 			page 125


 5382              		.cfi_endproc
 5383              	.LFE274:
 5384              		.cantunwind
 5385              		.fnend
 5387              		.section	.text._Z19adBms6830CreateCommhP9cell_asic,"ax",%progbits
 5388              		.align	1
 5389              		.global	_Z19adBms6830CreateCommhP9cell_asic
 5390              		.syntax unified
 5391              		.thumb
 5392              		.thumb_func
 5394              	_Z19adBms6830CreateCommhP9cell_asic:
 5395              		.fnstart
 5396              	.LVL337:
 5397              	.LFB275:
1492:Core/Src/adBms6830ParseCreate.cpp **** 
1493:Core/Src/adBms6830ParseCreate.cpp **** /**
1494:Core/Src/adBms6830ParseCreate.cpp ****  *******************************************************************************
1495:Core/Src/adBms6830ParseCreate.cpp ****  * Function: adBms6830CreateComm
1496:Core/Src/adBms6830ParseCreate.cpp ****  * @brief Create the configation comm write buffer
1497:Core/Src/adBms6830ParseCreate.cpp ****  *
1498:Core/Src/adBms6830ParseCreate.cpp ****  * @details This function create the configation comm write buffer.
1499:Core/Src/adBms6830ParseCreate.cpp ****  *
1500:Core/Src/adBms6830ParseCreate.cpp ****  * Parameters:
1501:Core/Src/adBms6830ParseCreate.cpp ****  *
1502:Core/Src/adBms6830ParseCreate.cpp ****  * @param [in]  tIC                     Total IC
1503:Core/Src/adBms6830ParseCreate.cpp ****  *
1504:Core/Src/adBms6830ParseCreate.cpp ****  * @param [in]  *ic                     cell_asic ic structure pointer
1505:Core/Src/adBms6830ParseCreate.cpp ****  *
1506:Core/Src/adBms6830ParseCreate.cpp ****  * @return None
1507:Core/Src/adBms6830ParseCreate.cpp ****  *
1508:Core/Src/adBms6830ParseCreate.cpp ****  *******************************************************************************
1509:Core/Src/adBms6830ParseCreate.cpp **** */
1510:Core/Src/adBms6830ParseCreate.cpp **** void adBms6830CreateComm(uint8_t tIC, cell_asic *ic)
1511:Core/Src/adBms6830ParseCreate.cpp **** {
 5398              		.loc 1 1511 1 is_stmt 1 view -0
 5399              		.cfi_startproc
 5400              		@ args = 0, pretend = 0, frame = 0
 5401              		@ frame_needed = 0, uses_anonymous_args = 0
1512:Core/Src/adBms6830ParseCreate.cpp ****   for(uint8_t curr_ic = 0; curr_ic < tIC; curr_ic++)
 5402              		.loc 1 1512 3 view .LVU2058
 5403              	.LBB53:
 5404              		.loc 1 1512 15 is_stmt 0 view .LVU2059
 5405 0000 0022     		movs	r2, #0
 5406              	.LVL338:
 5407              		.loc 1 1512 36 is_stmt 1 view .LVU2060
 5408 0002 8242     		cmp	r2, r0
 5409 0004 34D2     		bcs	.L252
 5410              	.LBE53:
1511:Core/Src/adBms6830ParseCreate.cpp ****   for(uint8_t curr_ic = 0; curr_ic < tIC; curr_ic++)
 5411              		.loc 1 1511 1 is_stmt 0 view .LVU2061
 5412 0006 00B5     		push	{lr}
 5413              	.LCFI33:
 5414              		.cfi_def_cfa_offset 4
 5415              		.cfi_offset 14, -4
 5416              	.L248:
 5417              	.LBB54:
1513:Core/Src/adBms6830ParseCreate.cpp ****   {
ARM GAS  C:\Users\huawei\AppData\Local\Temp\ccwYaMVL.s 			page 126


1514:Core/Src/adBms6830ParseCreate.cpp ****     ic[curr_ic].com.tx_data[0] = ((ic[curr_ic].comm.icomm[0] & 0x0F)  << 4  | (ic[curr_ic].comm.fco
 5418              		.loc 1 1514 5 is_stmt 1 discriminator 3 view .LVU2062
 5419              		.loc 1 1514 46 is_stmt 0 discriminator 3 view .LVU2063
 5420 0008 4FF42873 		mov	r3, #672
 5421 000c 03FB0213 		mla	r3, r3, r2, r1
 5422              		.loc 1 1514 60 discriminator 3 view .LVU2064
 5423 0010 93F803E1 		ldrb	lr, [r3, #259]	@ zero_extendqisi2
 5424              		.loc 1 1514 104 discriminator 3 view .LVU2065
 5425 0014 93F800C1 		ldrb	ip, [r3, #256]	@ zero_extendqisi2
 5426              		.loc 1 1514 77 discriminator 3 view .LVU2066
 5427 0018 0CF00F0C 		and	ip, ip, #15
 5428 001c 4CEA0E1C 		orr	ip, ip, lr, lsl #4
 5429              		.loc 1 1514 32 discriminator 3 view .LVU2067
 5430 0020 83F857C1 		strb	ip, [r3, #343]
1515:Core/Src/adBms6830ParseCreate.cpp ****     ic[curr_ic].com.tx_data[1] = ((ic[curr_ic].comm.data[0] ));
 5431              		.loc 1 1515 5 is_stmt 1 discriminator 3 view .LVU2068
 5432              		.loc 1 1515 59 is_stmt 0 discriminator 3 view .LVU2069
 5433 0024 93F806C1 		ldrb	ip, [r3, #262]	@ zero_extendqisi2
 5434              		.loc 1 1515 32 discriminator 3 view .LVU2070
 5435 0028 83F858C1 		strb	ip, [r3, #344]
1516:Core/Src/adBms6830ParseCreate.cpp ****     ic[curr_ic].com.tx_data[2] = ((ic[curr_ic].comm.icomm[1] & 0x0F)  << 4 ) | (ic[curr_ic].comm.fc
 5436              		.loc 1 1516 5 is_stmt 1 discriminator 3 view .LVU2071
 5437              		.loc 1 1516 60 is_stmt 0 discriminator 3 view .LVU2072
 5438 002c 93F804E1 		ldrb	lr, [r3, #260]	@ zero_extendqisi2
 5439              		.loc 1 1516 105 discriminator 3 view .LVU2073
 5440 0030 93F801C1 		ldrb	ip, [r3, #257]	@ zero_extendqisi2
 5441              		.loc 1 1516 78 discriminator 3 view .LVU2074
 5442 0034 0CF00F0C 		and	ip, ip, #15
 5443 0038 4CEA0E1C 		orr	ip, ip, lr, lsl #4
 5444              		.loc 1 1516 32 discriminator 3 view .LVU2075
 5445 003c 83F859C1 		strb	ip, [r3, #345]
1517:Core/Src/adBms6830ParseCreate.cpp ****     ic[curr_ic].com.tx_data[3] = ((ic[curr_ic].comm.data[1]));
 5446              		.loc 1 1517 5 is_stmt 1 discriminator 3 view .LVU2076
 5447              		.loc 1 1517 59 is_stmt 0 discriminator 3 view .LVU2077
 5448 0040 93F807C1 		ldrb	ip, [r3, #263]	@ zero_extendqisi2
 5449              		.loc 1 1517 32 discriminator 3 view .LVU2078
 5450 0044 83F85AC1 		strb	ip, [r3, #346]
1518:Core/Src/adBms6830ParseCreate.cpp ****     ic[curr_ic].com.tx_data[4] = ((ic[curr_ic].comm.icomm[2] & 0x0F)  << 4  | (ic[curr_ic].comm.fco
 5451              		.loc 1 1518 5 is_stmt 1 discriminator 3 view .LVU2079
 5452              		.loc 1 1518 60 is_stmt 0 discriminator 3 view .LVU2080
 5453 0048 93F805E1 		ldrb	lr, [r3, #261]	@ zero_extendqisi2
 5454              		.loc 1 1518 104 discriminator 3 view .LVU2081
 5455 004c 93F802C1 		ldrb	ip, [r3, #258]	@ zero_extendqisi2
 5456              		.loc 1 1518 77 discriminator 3 view .LVU2082
 5457 0050 0CF00F0C 		and	ip, ip, #15
 5458 0054 4CEA0E1C 		orr	ip, ip, lr, lsl #4
 5459              		.loc 1 1518 32 discriminator 3 view .LVU2083
 5460 0058 83F85BC1 		strb	ip, [r3, #347]
1519:Core/Src/adBms6830ParseCreate.cpp ****     ic[curr_ic].com.tx_data[5] = ((ic[curr_ic].comm.data[2]));
 5461              		.loc 1 1519 5 is_stmt 1 discriminator 3 view .LVU2084
 5462              		.loc 1 1519 59 is_stmt 0 discriminator 3 view .LVU2085
 5463 005c 93F808C1 		ldrb	ip, [r3, #264]	@ zero_extendqisi2
 5464              		.loc 1 1519 32 discriminator 3 view .LVU2086
 5465 0060 83F85CC1 		strb	ip, [r3, #348]
1512:Core/Src/adBms6830ParseCreate.cpp ****   {
 5466              		.loc 1 1512 3 is_stmt 1 discriminator 3 view .LVU2087
 5467 0064 0132     		adds	r2, r2, #1
ARM GAS  C:\Users\huawei\AppData\Local\Temp\ccwYaMVL.s 			page 127


 5468              	.LVL339:
1512:Core/Src/adBms6830ParseCreate.cpp ****   {
 5469              		.loc 1 1512 3 is_stmt 0 discriminator 3 view .LVU2088
 5470 0066 D2B2     		uxtb	r2, r2
 5471              	.LVL340:
1512:Core/Src/adBms6830ParseCreate.cpp ****   {
 5472              		.loc 1 1512 36 is_stmt 1 discriminator 3 view .LVU2089
 5473 0068 8242     		cmp	r2, r0
 5474 006a CDD3     		bcc	.L248
 5475              	.LBE54:
1520:Core/Src/adBms6830ParseCreate.cpp ****   }
1521:Core/Src/adBms6830ParseCreate.cpp **** }
 5476              		.loc 1 1521 1 is_stmt 0 view .LVU2090
 5477 006c 5DF804FB 		ldr	pc, [sp], #4
 5478              	.L252:
 5479              	.LCFI34:
 5480              		.cfi_def_cfa_offset 0
 5481              		.cfi_restore 14
 5482              		.loc 1 1521 1 view .LVU2091
 5483 0070 7047     		bx	lr
 5484              		.cfi_endproc
 5485              	.LFE275:
 5486              		.cantunwind
 5487              		.fnend
 5489              		.section	.text._Z19adBms6830CreatePwmahP9cell_asic,"ax",%progbits
 5490              		.align	1
 5491              		.global	_Z19adBms6830CreatePwmahP9cell_asic
 5492              		.syntax unified
 5493              		.thumb
 5494              		.thumb_func
 5496              	_Z19adBms6830CreatePwmahP9cell_asic:
 5497              		.fnstart
 5498              	.LVL341:
 5499              	.LFB276:
1522:Core/Src/adBms6830ParseCreate.cpp **** 
1523:Core/Src/adBms6830ParseCreate.cpp **** /**
1524:Core/Src/adBms6830ParseCreate.cpp ****  *******************************************************************************
1525:Core/Src/adBms6830ParseCreate.cpp ****  * Function: adBms6830CreatePwma
1526:Core/Src/adBms6830ParseCreate.cpp ****  * @brief Create the configation pwma write buffer
1527:Core/Src/adBms6830ParseCreate.cpp ****  *
1528:Core/Src/adBms6830ParseCreate.cpp ****  * @details This function create the configation pwma write buffer.
1529:Core/Src/adBms6830ParseCreate.cpp ****  *
1530:Core/Src/adBms6830ParseCreate.cpp ****  * Parameters:
1531:Core/Src/adBms6830ParseCreate.cpp ****  *
1532:Core/Src/adBms6830ParseCreate.cpp ****  * @param [in]  tIC                     Total IC
1533:Core/Src/adBms6830ParseCreate.cpp ****  *
1534:Core/Src/adBms6830ParseCreate.cpp ****  * @param [in]  *ic                     cell_asic ic structure pointer
1535:Core/Src/adBms6830ParseCreate.cpp ****  *
1536:Core/Src/adBms6830ParseCreate.cpp ****  * @return None
1537:Core/Src/adBms6830ParseCreate.cpp ****  *
1538:Core/Src/adBms6830ParseCreate.cpp ****  *******************************************************************************
1539:Core/Src/adBms6830ParseCreate.cpp **** */
1540:Core/Src/adBms6830ParseCreate.cpp **** void adBms6830CreatePwma(uint8_t tIC, cell_asic *ic)
1541:Core/Src/adBms6830ParseCreate.cpp **** {
 5500              		.loc 1 1541 1 is_stmt 1 view -0
 5501              		.cfi_startproc
 5502              		@ args = 0, pretend = 0, frame = 0
ARM GAS  C:\Users\huawei\AppData\Local\Temp\ccwYaMVL.s 			page 128


 5503              		@ frame_needed = 0, uses_anonymous_args = 0
1542:Core/Src/adBms6830ParseCreate.cpp ****   for(uint8_t curr_ic = 0; curr_ic < tIC; curr_ic++)
 5504              		.loc 1 1542 3 view .LVU2093
 5505              	.LBB55:
 5506              		.loc 1 1542 15 is_stmt 0 view .LVU2094
 5507 0000 0022     		movs	r2, #0
 5508              	.LVL342:
 5509              		.loc 1 1542 36 is_stmt 1 view .LVU2095
 5510 0002 8242     		cmp	r2, r0
 5511 0004 46D2     		bcs	.L259
 5512              	.LBE55:
1541:Core/Src/adBms6830ParseCreate.cpp ****   for(uint8_t curr_ic = 0; curr_ic < tIC; curr_ic++)
 5513              		.loc 1 1541 1 is_stmt 0 view .LVU2096
 5514 0006 00B5     		push	{lr}
 5515              	.LCFI35:
 5516              		.cfi_def_cfa_offset 4
 5517              		.cfi_offset 14, -4
 5518              	.L255:
 5519              	.LBB56:
1543:Core/Src/adBms6830ParseCreate.cpp ****   {
1544:Core/Src/adBms6830ParseCreate.cpp ****     ic[curr_ic].pwma.tx_data[0] = ((ic[curr_ic].PwmA.pwma[1] & 0x0F) << 4 | (ic[curr_ic].PwmA.pwma[
 5520              		.loc 1 1544 5 is_stmt 1 discriminator 3 view .LVU2097
 5521              		.loc 1 1544 47 is_stmt 0 discriminator 3 view .LVU2098
 5522 0008 4FF42873 		mov	r3, #672
 5523 000c 03FB0213 		mla	r3, r3, r2, r1
 5524              		.loc 1 1544 60 discriminator 3 view .LVU2099
 5525 0010 93F80AE1 		ldrb	lr, [r3, #266]	@ zero_extendqisi2
 5526              		.loc 1 1544 101 discriminator 3 view .LVU2100
 5527 0014 93F809C1 		ldrb	ip, [r3, #265]	@ zero_extendqisi2
 5528              		.loc 1 1544 75 discriminator 3 view .LVU2101
 5529 0018 0CF00F0C 		and	ip, ip, #15
 5530 001c 4CEA0E1C 		orr	ip, ip, lr, lsl #4
 5531              		.loc 1 1544 33 discriminator 3 view .LVU2102
 5532 0020 83F865C1 		strb	ip, [r3, #357]
1545:Core/Src/adBms6830ParseCreate.cpp ****     ic[curr_ic].pwma.tx_data[1] = ((ic[curr_ic].PwmA.pwma[3] & 0x0F) << 4 | (ic[curr_ic].PwmA.pwma[
 5533              		.loc 1 1545 5 is_stmt 1 discriminator 3 view .LVU2103
 5534              		.loc 1 1545 60 is_stmt 0 discriminator 3 view .LVU2104
 5535 0024 93F80CE1 		ldrb	lr, [r3, #268]	@ zero_extendqisi2
 5536              		.loc 1 1545 101 discriminator 3 view .LVU2105
 5537 0028 93F80BC1 		ldrb	ip, [r3, #267]	@ zero_extendqisi2
 5538              		.loc 1 1545 75 discriminator 3 view .LVU2106
 5539 002c 0CF00F0C 		and	ip, ip, #15
 5540 0030 4CEA0E1C 		orr	ip, ip, lr, lsl #4
 5541              		.loc 1 1545 33 discriminator 3 view .LVU2107
 5542 0034 83F866C1 		strb	ip, [r3, #358]
1546:Core/Src/adBms6830ParseCreate.cpp ****     ic[curr_ic].pwma.tx_data[2] = ((ic[curr_ic].PwmA.pwma[5] & 0x0F) << 4 | (ic[curr_ic].PwmA.pwma[
 5543              		.loc 1 1546 5 is_stmt 1 discriminator 3 view .LVU2108
 5544              		.loc 1 1546 60 is_stmt 0 discriminator 3 view .LVU2109
 5545 0038 93F80EE1 		ldrb	lr, [r3, #270]	@ zero_extendqisi2
 5546              		.loc 1 1546 101 discriminator 3 view .LVU2110
 5547 003c 93F80DC1 		ldrb	ip, [r3, #269]	@ zero_extendqisi2
 5548              		.loc 1 1546 75 discriminator 3 view .LVU2111
 5549 0040 0CF00F0C 		and	ip, ip, #15
 5550 0044 4CEA0E1C 		orr	ip, ip, lr, lsl #4
 5551              		.loc 1 1546 33 discriminator 3 view .LVU2112
 5552 0048 83F867C1 		strb	ip, [r3, #359]
1547:Core/Src/adBms6830ParseCreate.cpp ****     ic[curr_ic].pwma.tx_data[3] = ((ic[curr_ic].PwmA.pwma[7] & 0x0F) << 4 | (ic[curr_ic].PwmA.pwma[
ARM GAS  C:\Users\huawei\AppData\Local\Temp\ccwYaMVL.s 			page 129


 5553              		.loc 1 1547 5 is_stmt 1 discriminator 3 view .LVU2113
 5554              		.loc 1 1547 60 is_stmt 0 discriminator 3 view .LVU2114
 5555 004c 93F810E1 		ldrb	lr, [r3, #272]	@ zero_extendqisi2
 5556              		.loc 1 1547 101 discriminator 3 view .LVU2115
 5557 0050 93F80FC1 		ldrb	ip, [r3, #271]	@ zero_extendqisi2
 5558              		.loc 1 1547 75 discriminator 3 view .LVU2116
 5559 0054 0CF00F0C 		and	ip, ip, #15
 5560 0058 4CEA0E1C 		orr	ip, ip, lr, lsl #4
 5561              		.loc 1 1547 33 discriminator 3 view .LVU2117
 5562 005c 83F868C1 		strb	ip, [r3, #360]
1548:Core/Src/adBms6830ParseCreate.cpp ****     ic[curr_ic].pwma.tx_data[4] = ((ic[curr_ic].PwmA.pwma[9] & 0x0F) << 4 | (ic[curr_ic].PwmA.pwma[
 5563              		.loc 1 1548 5 is_stmt 1 discriminator 3 view .LVU2118
 5564              		.loc 1 1548 60 is_stmt 0 discriminator 3 view .LVU2119
 5565 0060 93F812E1 		ldrb	lr, [r3, #274]	@ zero_extendqisi2
 5566              		.loc 1 1548 101 discriminator 3 view .LVU2120
 5567 0064 93F811C1 		ldrb	ip, [r3, #273]	@ zero_extendqisi2
 5568              		.loc 1 1548 75 discriminator 3 view .LVU2121
 5569 0068 0CF00F0C 		and	ip, ip, #15
 5570 006c 4CEA0E1C 		orr	ip, ip, lr, lsl #4
 5571              		.loc 1 1548 33 discriminator 3 view .LVU2122
 5572 0070 83F869C1 		strb	ip, [r3, #361]
1549:Core/Src/adBms6830ParseCreate.cpp ****     ic[curr_ic].pwma.tx_data[5] = ((ic[curr_ic].PwmA.pwma[11] & 0x0F) << 4 | (ic[curr_ic].PwmA.pwma
 5573              		.loc 1 1549 5 is_stmt 1 discriminator 3 view .LVU2123
 5574              		.loc 1 1549 61 is_stmt 0 discriminator 3 view .LVU2124
 5575 0074 93F814E1 		ldrb	lr, [r3, #276]	@ zero_extendqisi2
 5576              		.loc 1 1549 103 discriminator 3 view .LVU2125
 5577 0078 93F813C1 		ldrb	ip, [r3, #275]	@ zero_extendqisi2
 5578              		.loc 1 1549 76 discriminator 3 view .LVU2126
 5579 007c 0CF00F0C 		and	ip, ip, #15
 5580 0080 4CEA0E1C 		orr	ip, ip, lr, lsl #4
 5581              		.loc 1 1549 33 discriminator 3 view .LVU2127
 5582 0084 83F86AC1 		strb	ip, [r3, #362]
1542:Core/Src/adBms6830ParseCreate.cpp ****   {
 5583              		.loc 1 1542 3 is_stmt 1 discriminator 3 view .LVU2128
 5584 0088 0132     		adds	r2, r2, #1
 5585              	.LVL343:
1542:Core/Src/adBms6830ParseCreate.cpp ****   {
 5586              		.loc 1 1542 3 is_stmt 0 discriminator 3 view .LVU2129
 5587 008a D2B2     		uxtb	r2, r2
 5588              	.LVL344:
1542:Core/Src/adBms6830ParseCreate.cpp ****   {
 5589              		.loc 1 1542 36 is_stmt 1 discriminator 3 view .LVU2130
 5590 008c 8242     		cmp	r2, r0
 5591 008e BBD3     		bcc	.L255
 5592              	.LBE56:
1550:Core/Src/adBms6830ParseCreate.cpp ****   }
1551:Core/Src/adBms6830ParseCreate.cpp **** }
 5593              		.loc 1 1551 1 is_stmt 0 view .LVU2131
 5594 0090 5DF804FB 		ldr	pc, [sp], #4
 5595              	.L259:
 5596              	.LCFI36:
 5597              		.cfi_def_cfa_offset 0
 5598              		.cfi_restore 14
 5599              		.loc 1 1551 1 view .LVU2132
 5600 0094 7047     		bx	lr
 5601              		.cfi_endproc
 5602              	.LFE276:
ARM GAS  C:\Users\huawei\AppData\Local\Temp\ccwYaMVL.s 			page 130


 5603              		.cantunwind
 5604              		.fnend
 5606              		.section	.text._Z19adBms6830CreatePwmbhP9cell_asic,"ax",%progbits
 5607              		.align	1
 5608              		.global	_Z19adBms6830CreatePwmbhP9cell_asic
 5609              		.syntax unified
 5610              		.thumb
 5611              		.thumb_func
 5613              	_Z19adBms6830CreatePwmbhP9cell_asic:
 5614              		.fnstart
 5615              	.LVL345:
 5616              	.LFB277:
1552:Core/Src/adBms6830ParseCreate.cpp **** /**
1553:Core/Src/adBms6830ParseCreate.cpp ****  *******************************************************************************
1554:Core/Src/adBms6830ParseCreate.cpp ****  * Function: adBms6830CreatePwmb
1555:Core/Src/adBms6830ParseCreate.cpp ****  * @brief Create the configation pwmb write buffer
1556:Core/Src/adBms6830ParseCreate.cpp ****  *
1557:Core/Src/adBms6830ParseCreate.cpp ****  * @details This function create the configation pwmb write buffer.
1558:Core/Src/adBms6830ParseCreate.cpp ****  *
1559:Core/Src/adBms6830ParseCreate.cpp ****  * Parameters:
1560:Core/Src/adBms6830ParseCreate.cpp ****  *
1561:Core/Src/adBms6830ParseCreate.cpp ****  * @param [in]  tIC                     Total IC
1562:Core/Src/adBms6830ParseCreate.cpp ****  *
1563:Core/Src/adBms6830ParseCreate.cpp ****  * @param [in]  *ic                     cell_asic ic structure pointer
1564:Core/Src/adBms6830ParseCreate.cpp ****  *
1565:Core/Src/adBms6830ParseCreate.cpp ****  * @return None
1566:Core/Src/adBms6830ParseCreate.cpp ****  *
1567:Core/Src/adBms6830ParseCreate.cpp ****  *******************************************************************************
1568:Core/Src/adBms6830ParseCreate.cpp **** */
1569:Core/Src/adBms6830ParseCreate.cpp **** void adBms6830CreatePwmb(uint8_t tIC, cell_asic *ic)
1570:Core/Src/adBms6830ParseCreate.cpp **** {
 5617              		.loc 1 1570 1 is_stmt 1 view -0
 5618              		.cfi_startproc
 5619              		@ args = 0, pretend = 0, frame = 0
 5620              		@ frame_needed = 0, uses_anonymous_args = 0
1571:Core/Src/adBms6830ParseCreate.cpp ****   for(uint8_t curr_ic = 0; curr_ic < tIC; curr_ic++)
 5621              		.loc 1 1571 3 view .LVU2134
 5622              	.LBB57:
 5623              		.loc 1 1571 15 is_stmt 0 view .LVU2135
 5624 0000 0022     		movs	r2, #0
 5625              	.LVL346:
 5626              		.loc 1 1571 36 is_stmt 1 view .LVU2136
 5627 0002 8242     		cmp	r2, r0
 5628 0004 1ED2     		bcs	.L266
 5629              	.LBE57:
1570:Core/Src/adBms6830ParseCreate.cpp ****   for(uint8_t curr_ic = 0; curr_ic < tIC; curr_ic++)
 5630              		.loc 1 1570 1 is_stmt 0 view .LVU2137
 5631 0006 00B5     		push	{lr}
 5632              	.LCFI37:
 5633              		.cfi_def_cfa_offset 4
 5634              		.cfi_offset 14, -4
 5635              	.L262:
 5636              	.LBB58:
1572:Core/Src/adBms6830ParseCreate.cpp ****   {
1573:Core/Src/adBms6830ParseCreate.cpp ****     ic[curr_ic].pwmb.tx_data[0] = ((ic[curr_ic].PwmB.pwmb[1] & 0x0F) << 4 | (ic[curr_ic].PwmB.pwmb[
 5637              		.loc 1 1573 5 is_stmt 1 discriminator 3 view .LVU2138
 5638              		.loc 1 1573 47 is_stmt 0 discriminator 3 view .LVU2139
ARM GAS  C:\Users\huawei\AppData\Local\Temp\ccwYaMVL.s 			page 131


 5639 0008 4FF42873 		mov	r3, #672
 5640 000c 03FB0213 		mla	r3, r3, r2, r1
 5641              		.loc 1 1573 60 discriminator 3 view .LVU2140
 5642 0010 93F816E1 		ldrb	lr, [r3, #278]	@ zero_extendqisi2
 5643              		.loc 1 1573 101 discriminator 3 view .LVU2141
 5644 0014 93F815C1 		ldrb	ip, [r3, #277]	@ zero_extendqisi2
 5645              		.loc 1 1573 75 discriminator 3 view .LVU2142
 5646 0018 0CF00F0C 		and	ip, ip, #15
 5647 001c 4CEA0E1C 		orr	ip, ip, lr, lsl #4
 5648              		.loc 1 1573 33 discriminator 3 view .LVU2143
 5649 0020 83F873C1 		strb	ip, [r3, #371]
1574:Core/Src/adBms6830ParseCreate.cpp ****     ic[curr_ic].pwmb.tx_data[1] = ((ic[curr_ic].PwmB.pwmb[3] & 0x0F) << 4 | (ic[curr_ic].PwmB.pwmb[
 5650              		.loc 1 1574 5 is_stmt 1 discriminator 3 view .LVU2144
 5651              		.loc 1 1574 60 is_stmt 0 discriminator 3 view .LVU2145
 5652 0024 93F818E1 		ldrb	lr, [r3, #280]	@ zero_extendqisi2
 5653              		.loc 1 1574 101 discriminator 3 view .LVU2146
 5654 0028 93F817C1 		ldrb	ip, [r3, #279]	@ zero_extendqisi2
 5655              		.loc 1 1574 75 discriminator 3 view .LVU2147
 5656 002c 0CF00F0C 		and	ip, ip, #15
 5657 0030 4CEA0E1C 		orr	ip, ip, lr, lsl #4
 5658              		.loc 1 1574 33 discriminator 3 view .LVU2148
 5659 0034 83F874C1 		strb	ip, [r3, #372]
1571:Core/Src/adBms6830ParseCreate.cpp ****   {
 5660              		.loc 1 1571 3 is_stmt 1 discriminator 3 view .LVU2149
 5661 0038 0132     		adds	r2, r2, #1
 5662              	.LVL347:
1571:Core/Src/adBms6830ParseCreate.cpp ****   {
 5663              		.loc 1 1571 3 is_stmt 0 discriminator 3 view .LVU2150
 5664 003a D2B2     		uxtb	r2, r2
 5665              	.LVL348:
1571:Core/Src/adBms6830ParseCreate.cpp ****   {
 5666              		.loc 1 1571 36 is_stmt 1 discriminator 3 view .LVU2151
 5667 003c 8242     		cmp	r2, r0
 5668 003e E3D3     		bcc	.L262
 5669              	.LBE58:
1575:Core/Src/adBms6830ParseCreate.cpp ****   }
1576:Core/Src/adBms6830ParseCreate.cpp **** }
 5670              		.loc 1 1576 1 is_stmt 0 view .LVU2152
 5671 0040 5DF804FB 		ldr	pc, [sp], #4
 5672              	.L266:
 5673              	.LCFI38:
 5674              		.cfi_def_cfa_offset 0
 5675              		.cfi_restore 14
 5676              		.loc 1 1576 1 view .LVU2153
 5677 0044 7047     		bx	lr
 5678              		.cfi_endproc
 5679              	.LFE277:
 5680              		.cantunwind
 5681              		.fnend
 5683              		.text
 5684              	.Letext0:
 5685              		.file 2 "c:\\users\\huawei\\desktop\\workspace\\stm32\\vs code tools\\arm-gnu-toolchain-12.2.rel1-
 5686              		.file 3 "c:\\users\\huawei\\desktop\\workspace\\stm32\\vs code tools\\arm-gnu-toolchain-12.2.rel1-
 5687              		.file 4 "c:\\users\\huawei\\desktop\\workspace\\stm32\\vs code tools\\arm-gnu-toolchain-12.2.rel1-
 5688              		.file 5 "Core/Inc/adBms6830Data.h"
 5689              		.file 6 "c:\\users\\huawei\\desktop\\workspace\\stm32\\vs code tools\\arm-gnu-toolchain-12.2.rel1-
 5690              		.file 7 "c:\\users\\huawei\\desktop\\workspace\\stm32\\vs code tools\\arm-gnu-toolchain-12.2.rel1-
ARM GAS  C:\Users\huawei\AppData\Local\Temp\ccwYaMVL.s 			page 132


 5691              		.file 8 "c:\\users\\huawei\\desktop\\workspace\\stm32\\vs code tools\\arm-gnu-toolchain-12.2.rel1-
 5692              		.file 9 "c:\\users\\huawei\\desktop\\workspace\\stm32\\vs code tools\\arm-gnu-toolchain-12.2.rel1-
 5693              		.file 10 "c:\\users\\huawei\\desktop\\workspace\\stm32\\vs code tools\\arm-gnu-toolchain-12.2.rel1
 5694              		.file 11 "c:\\users\\huawei\\desktop\\workspace\\stm32\\vs code tools\\arm-gnu-toolchain-12.2.rel1
ARM GAS  C:\Users\huawei\AppData\Local\Temp\ccwYaMVL.s 			page 133


DEFINED SYMBOLS
                            *ABS*:00000000 adBms6830ParseCreate.cpp
C:\Users\huawei\AppData\Local\Temp\ccwYaMVL.s:24     .text._Z23SetOverVoltageThresholdf:00000000 $t
C:\Users\huawei\AppData\Local\Temp\ccwYaMVL.s:30     .text._Z23SetOverVoltageThresholdf:00000000 _Z23SetOverVoltageThresholdf
C:\Users\huawei\AppData\Local\Temp\ccwYaMVL.s:85     .text._Z23SetOverVoltageThresholdf:00000040 $d
.ARM.exidx.text._Z23SetOverVoltageThresholdf:00000000 $d
C:\Users\huawei\AppData\Local\Temp\ccwYaMVL.s:94     .text._Z24SetUnderVoltageThresholdf:00000000 $t
C:\Users\huawei\AppData\Local\Temp\ccwYaMVL.s:100    .text._Z24SetUnderVoltageThresholdf:00000000 _Z24SetUnderVoltageThresholdf
C:\Users\huawei\AppData\Local\Temp\ccwYaMVL.s:155    .text._Z24SetUnderVoltageThresholdf:00000040 $d
.ARM.exidx.text._Z24SetUnderVoltageThresholdf:00000000 $d
C:\Users\huawei\AppData\Local\Temp\ccwYaMVL.s:164    .text._Z12ConfigA_Flag6FLAG_D9CFGA_FLAG:00000000 $t
C:\Users\huawei\AppData\Local\Temp\ccwYaMVL.s:170    .text._Z12ConfigA_Flag6FLAG_D9CFGA_FLAG:00000000 _Z12ConfigA_Flag6FLAG_D9CFGA_FLAG
.ARM.exidx.text._Z12ConfigA_Flag6FLAG_D9CFGA_FLAG:00000000 $d
C:\Users\huawei\AppData\Local\Temp\ccwYaMVL.s:207    .text._Z11ConfigA_Gpo3GPO8CFGA_GPO:00000000 $t
C:\Users\huawei\AppData\Local\Temp\ccwYaMVL.s:213    .text._Z11ConfigA_Gpo3GPO8CFGA_GPO:00000000 _Z11ConfigA_Gpo3GPO8CFGA_GPO
.ARM.exidx.text._Z11ConfigA_Gpo3GPO8CFGA_GPO:00000000 $d
C:\Users\huawei\AppData\Local\Temp\ccwYaMVL.s:250    .text._Z14ConfigB_DccBit3DCC7DCC_BIT:00000000 $t
C:\Users\huawei\AppData\Local\Temp\ccwYaMVL.s:256    .text._Z14ConfigB_DccBit3DCC7DCC_BIT:00000000 _Z14ConfigB_DccBit3DCC7DCC_BIT
.ARM.exidx.text._Z14ConfigB_DccBit3DCC7DCC_BIT:00000000 $d
C:\Users\huawei\AppData\Local\Temp\ccwYaMVL.s:293    .text._Z32SetConfigB_DischargeTimeOutValuehP9cell_asic5DTRNG4DCTO:00000000 $t
C:\Users\huawei\AppData\Local\Temp\ccwYaMVL.s:299    .text._Z32SetConfigB_DischargeTimeOutValuehP9cell_asic5DTRNG4DCTO:00000000 _Z32SetConfigB_DischargeTimeOutValuehP9cell_asic5DTRNG4DCTO
.ARM.exidx.text._Z32SetConfigB_DischargeTimeOutValuehP9cell_asic5DTRNG4DCTO:00000000 $d
C:\Users\huawei\AppData\Local\Temp\ccwYaMVL.s:371    .text._Z15SetPwmDutyCyclehP9cell_asic8PWM_DUTY:00000000 $t
C:\Users\huawei\AppData\Local\Temp\ccwYaMVL.s:377    .text._Z15SetPwmDutyCyclehP9cell_asic8PWM_DUTY:00000000 _Z15SetPwmDutyCyclehP9cell_asic8PWM_DUTY
.ARM.exidx.text._Z15SetPwmDutyCyclehP9cell_asic8PWM_DUTY:00000000 $d
C:\Users\huawei\AppData\Local\Temp\ccwYaMVL.s:469    .text._Z21adBms6830ParseConfigahP9cell_asicPh:00000000 $t
C:\Users\huawei\AppData\Local\Temp\ccwYaMVL.s:475    .text._Z21adBms6830ParseConfigahP9cell_asicPh:00000000 _Z21adBms6830ParseConfigahP9cell_asicPh
.ARM.exidx.text._Z21adBms6830ParseConfigahP9cell_asicPh:00000000 $d
C:\Users\huawei\AppData\Local\Temp\ccwYaMVL.s:627    .text._Z21adBms6830ParseConfigbhP9cell_asicPh:00000000 $t
C:\Users\huawei\AppData\Local\Temp\ccwYaMVL.s:633    .text._Z21adBms6830ParseConfigbhP9cell_asicPh:00000000 _Z21adBms6830ParseConfigbhP9cell_asicPh
.ARM.exidx.text._Z21adBms6830ParseConfigbhP9cell_asicPh:00000000 $d
C:\Users\huawei\AppData\Local\Temp\ccwYaMVL.s:752    .text._Z20adBms6830ParseConfighP9cell_asic3GRPPh:00000000 $t
C:\Users\huawei\AppData\Local\Temp\ccwYaMVL.s:758    .text._Z20adBms6830ParseConfighP9cell_asic3GRPPh:00000000 _Z20adBms6830ParseConfighP9cell_asic3GRPPh
.ARM.exidx.text._Z20adBms6830ParseConfighP9cell_asic3GRPPh:00000000 $d
C:\Users\huawei\AppData\Local\Temp\ccwYaMVL.s:809    .rodata._Z18adBms6830ParseCellhP9cell_asic3GRPPh.str1.4:00000000 $d
C:\Users\huawei\AppData\Local\Temp\ccwYaMVL.s:813    .text._Z18adBms6830ParseCellhP9cell_asic3GRPPh:00000000 $t
C:\Users\huawei\AppData\Local\Temp\ccwYaMVL.s:819    .text._Z18adBms6830ParseCellhP9cell_asic3GRPPh:00000000 _Z18adBms6830ParseCellhP9cell_asic3GRPPh
C:\Users\huawei\AppData\Local\Temp\ccwYaMVL.s:963    .text._Z18adBms6830ParseCellhP9cell_asic3GRPPh:00000088 $d
C:\Users\huawei\AppData\Local\Temp\ccwYaMVL.s:970    .text._Z18adBms6830ParseCellhP9cell_asic3GRPPh:000000a4 $t
C:\Users\huawei\AppData\Local\Temp\ccwYaMVL.s:1299   .text._Z18adBms6830ParseCellhP9cell_asic3GRPPh:00000218 $d
.ARM.exidx.text._Z18adBms6830ParseCellhP9cell_asic3GRPPh:00000000 $d
C:\Users\huawei\AppData\Local\Temp\ccwYaMVL.s:1305   .rodata._Z25adBms6830ParseAverageCellhP9cell_asic3GRPPh.str1.4:00000000 $d
C:\Users\huawei\AppData\Local\Temp\ccwYaMVL.s:1309   .text._Z25adBms6830ParseAverageCellhP9cell_asic3GRPPh:00000000 $t
C:\Users\huawei\AppData\Local\Temp\ccwYaMVL.s:1315   .text._Z25adBms6830ParseAverageCellhP9cell_asic3GRPPh:00000000 _Z25adBms6830ParseAverageCellhP9cell_asic3GRPPh
C:\Users\huawei\AppData\Local\Temp\ccwYaMVL.s:1459   .text._Z25adBms6830ParseAverageCellhP9cell_asic3GRPPh:0000008c $d
C:\Users\huawei\AppData\Local\Temp\ccwYaMVL.s:1466   .text._Z25adBms6830ParseAverageCellhP9cell_asic3GRPPh:000000a8 $t
C:\Users\huawei\AppData\Local\Temp\ccwYaMVL.s:1795   .text._Z25adBms6830ParseAverageCellhP9cell_asic3GRPPh:00000258 $d
.ARM.exidx.text._Z25adBms6830ParseAverageCellhP9cell_asic3GRPPh:00000000 $d
C:\Users\huawei\AppData\Local\Temp\ccwYaMVL.s:1801   .rodata._Z19adBms6830ParseSCellhP9cell_asic3GRPPh.str1.4:00000000 $d
C:\Users\huawei\AppData\Local\Temp\ccwYaMVL.s:1805   .text._Z19adBms6830ParseSCellhP9cell_asic3GRPPh:00000000 $t
C:\Users\huawei\AppData\Local\Temp\ccwYaMVL.s:1811   .text._Z19adBms6830ParseSCellhP9cell_asic3GRPPh:00000000 _Z19adBms6830ParseSCellhP9cell_asic3GRPPh
C:\Users\huawei\AppData\Local\Temp\ccwYaMVL.s:1955   .text._Z19adBms6830ParseSCellhP9cell_asic3GRPPh:0000008c $d
C:\Users\huawei\AppData\Local\Temp\ccwYaMVL.s:1962   .text._Z19adBms6830ParseSCellhP9cell_asic3GRPPh:000000a8 $t
C:\Users\huawei\AppData\Local\Temp\ccwYaMVL.s:2291   .text._Z19adBms6830ParseSCellhP9cell_asic3GRPPh:00000258 $d
.ARM.exidx.text._Z19adBms6830ParseSCellhP9cell_asic3GRPPh:00000000 $d
C:\Users\huawei\AppData\Local\Temp\ccwYaMVL.s:2297   .rodata._Z19adBms6830ParseFCellhP9cell_asic3GRPPh.str1.4:00000000 $d
C:\Users\huawei\AppData\Local\Temp\ccwYaMVL.s:2301   .text._Z19adBms6830ParseFCellhP9cell_asic3GRPPh:00000000 $t
ARM GAS  C:\Users\huawei\AppData\Local\Temp\ccwYaMVL.s 			page 134


C:\Users\huawei\AppData\Local\Temp\ccwYaMVL.s:2307   .text._Z19adBms6830ParseFCellhP9cell_asic3GRPPh:00000000 _Z19adBms6830ParseFCellhP9cell_asic3GRPPh
C:\Users\huawei\AppData\Local\Temp\ccwYaMVL.s:2451   .text._Z19adBms6830ParseFCellhP9cell_asic3GRPPh:0000008c $d
C:\Users\huawei\AppData\Local\Temp\ccwYaMVL.s:2458   .text._Z19adBms6830ParseFCellhP9cell_asic3GRPPh:000000a8 $t
C:\Users\huawei\AppData\Local\Temp\ccwYaMVL.s:2787   .text._Z19adBms6830ParseFCellhP9cell_asic3GRPPh:00000258 $d
.ARM.exidx.text._Z19adBms6830ParseFCellhP9cell_asic3GRPPh:00000000 $d
C:\Users\huawei\AppData\Local\Temp\ccwYaMVL.s:2793   .rodata._Z17adBms6830ParseAuxhP9cell_asic3GRPPh.str1.4:00000000 $d
C:\Users\huawei\AppData\Local\Temp\ccwYaMVL.s:2797   .text._Z17adBms6830ParseAuxhP9cell_asic3GRPPh:00000000 $t
C:\Users\huawei\AppData\Local\Temp\ccwYaMVL.s:2803   .text._Z17adBms6830ParseAuxhP9cell_asic3GRPPh:00000000 _Z17adBms6830ParseAuxhP9cell_asic3GRPPh
C:\Users\huawei\AppData\Local\Temp\ccwYaMVL.s:2947   .text._Z17adBms6830ParseAuxhP9cell_asic3GRPPh:0000008c $d
C:\Users\huawei\AppData\Local\Temp\ccwYaMVL.s:2952   .text._Z17adBms6830ParseAuxhP9cell_asic3GRPPh:000000a0 $t
C:\Users\huawei\AppData\Local\Temp\ccwYaMVL.s:3193   .text._Z17adBms6830ParseAuxhP9cell_asic3GRPPh:000001d8 $d
.ARM.exidx.text._Z17adBms6830ParseAuxhP9cell_asic3GRPPh:00000000 $d
C:\Users\huawei\AppData\Local\Temp\ccwYaMVL.s:3199   .rodata._Z18adBms6830ParseRAuxhP9cell_asic3GRPPh.str1.4:00000000 $d
C:\Users\huawei\AppData\Local\Temp\ccwYaMVL.s:3203   .text._Z18adBms6830ParseRAuxhP9cell_asic3GRPPh:00000000 $t
C:\Users\huawei\AppData\Local\Temp\ccwYaMVL.s:3209   .text._Z18adBms6830ParseRAuxhP9cell_asic3GRPPh:00000000 _Z18adBms6830ParseRAuxhP9cell_asic3GRPPh
C:\Users\huawei\AppData\Local\Temp\ccwYaMVL.s:3353   .text._Z18adBms6830ParseRAuxhP9cell_asic3GRPPh:0000008c $d
C:\Users\huawei\AppData\Local\Temp\ccwYaMVL.s:3358   .text._Z18adBms6830ParseRAuxhP9cell_asic3GRPPh:000000a0 $t
C:\Users\huawei\AppData\Local\Temp\ccwYaMVL.s:3561   .text._Z18adBms6830ParseRAuxhP9cell_asic3GRPPh:000001a8 $d
.ARM.exidx.text._Z18adBms6830ParseRAuxhP9cell_asic3GRPPh:00000000 $d
C:\Users\huawei\AppData\Local\Temp\ccwYaMVL.s:3567   .text._Z21adBms6830ParseStatusAhP9cell_asicPh:00000000 $t
C:\Users\huawei\AppData\Local\Temp\ccwYaMVL.s:3573   .text._Z21adBms6830ParseStatusAhP9cell_asicPh:00000000 _Z21adBms6830ParseStatusAhP9cell_asicPh
.ARM.exidx.text._Z21adBms6830ParseStatusAhP9cell_asicPh:00000000 $d
C:\Users\huawei\AppData\Local\Temp\ccwYaMVL.s:3666   .text._Z21adBms6830ParseStatusBhP9cell_asicPh:00000000 $t
C:\Users\huawei\AppData\Local\Temp\ccwYaMVL.s:3672   .text._Z21adBms6830ParseStatusBhP9cell_asicPh:00000000 _Z21adBms6830ParseStatusBhP9cell_asicPh
.ARM.exidx.text._Z21adBms6830ParseStatusBhP9cell_asicPh:00000000 $d
C:\Users\huawei\AppData\Local\Temp\ccwYaMVL.s:3765   .text._Z21adBms6830ParseStatusChP9cell_asicPh:00000000 $t
C:\Users\huawei\AppData\Local\Temp\ccwYaMVL.s:3771   .text._Z21adBms6830ParseStatusChP9cell_asicPh:00000000 _Z21adBms6830ParseStatusChP9cell_asicPh
.ARM.exidx.text._Z21adBms6830ParseStatusChP9cell_asicPh:00000000 $d
C:\Users\huawei\AppData\Local\Temp\ccwYaMVL.s:3960   .text._Z21adBms6830ParseStatusDhP9cell_asicPh:00000000 $t
C:\Users\huawei\AppData\Local\Temp\ccwYaMVL.s:3966   .text._Z21adBms6830ParseStatusDhP9cell_asicPh:00000000 _Z21adBms6830ParseStatusDhP9cell_asicPh
.ARM.exidx.text._Z21adBms6830ParseStatusDhP9cell_asicPh:00000000 $d
C:\Users\huawei\AppData\Local\Temp\ccwYaMVL.s:4220   .text._Z21adBms6830ParseStatusEhP9cell_asicPh:00000000 $t
C:\Users\huawei\AppData\Local\Temp\ccwYaMVL.s:4226   .text._Z21adBms6830ParseStatusEhP9cell_asicPh:00000000 _Z21adBms6830ParseStatusEhP9cell_asicPh
.ARM.exidx.text._Z21adBms6830ParseStatusEhP9cell_asicPh:00000000 $d
C:\Users\huawei\AppData\Local\Temp\ccwYaMVL.s:4314   .text._Z20adBms6830ParseStatushP9cell_asic3GRPPh:00000000 $t
C:\Users\huawei\AppData\Local\Temp\ccwYaMVL.s:4320   .text._Z20adBms6830ParseStatushP9cell_asic3GRPPh:00000000 _Z20adBms6830ParseStatushP9cell_asic3GRPPh
C:\Users\huawei\AppData\Local\Temp\ccwYaMVL.s:4349   .text._Z20adBms6830ParseStatushP9cell_asic3GRPPh:00000012 $d
C:\Users\huawei\AppData\Local\Temp\ccwYaMVL.s:4355   .text._Z20adBms6830ParseStatushP9cell_asic3GRPPh:00000018 $t
.ARM.exidx.text._Z20adBms6830ParseStatushP9cell_asic3GRPPh:00000000 $d
C:\Users\huawei\AppData\Local\Temp\ccwYaMVL.s:4495   .text._Z18adBms6830ParseCommhP9cell_asicPh:00000000 $t
C:\Users\huawei\AppData\Local\Temp\ccwYaMVL.s:4501   .text._Z18adBms6830ParseCommhP9cell_asicPh:00000000 _Z18adBms6830ParseCommhP9cell_asicPh
.ARM.exidx.text._Z18adBms6830ParseCommhP9cell_asicPh:00000000 $d
C:\Users\huawei\AppData\Local\Temp\ccwYaMVL.s:4618   .text._Z17adBms6830ParseSIDhP9cell_asicPh:00000000 $t
C:\Users\huawei\AppData\Local\Temp\ccwYaMVL.s:4624   .text._Z17adBms6830ParseSIDhP9cell_asicPh:00000000 _Z17adBms6830ParseSIDhP9cell_asicPh
.ARM.exidx.text._Z17adBms6830ParseSIDhP9cell_asicPh:00000000 $d
C:\Users\huawei\AppData\Local\Temp\ccwYaMVL.s:4719   .text._Z18adBms6830ParsePwmahP9cell_asicPh:00000000 $t
C:\Users\huawei\AppData\Local\Temp\ccwYaMVL.s:4725   .text._Z18adBms6830ParsePwmahP9cell_asicPh:00000000 _Z18adBms6830ParsePwmahP9cell_asicPh
.ARM.exidx.text._Z18adBms6830ParsePwmahP9cell_asicPh:00000000 $d
C:\Users\huawei\AppData\Local\Temp\ccwYaMVL.s:4863   .text._Z18adBms6830ParsePwmbhP9cell_asicPh:00000000 $t
C:\Users\huawei\AppData\Local\Temp\ccwYaMVL.s:4869   .text._Z18adBms6830ParsePwmbhP9cell_asicPh:00000000 _Z18adBms6830ParsePwmbhP9cell_asicPh
.ARM.exidx.text._Z18adBms6830ParsePwmbhP9cell_asicPh:00000000 $d
C:\Users\huawei\AppData\Local\Temp\ccwYaMVL.s:4959   .text._Z17adBms6830ParsePwmhP9cell_asic3GRPPh:00000000 $t
C:\Users\huawei\AppData\Local\Temp\ccwYaMVL.s:4965   .text._Z17adBms6830ParsePwmhP9cell_asic3GRPPh:00000000 _Z17adBms6830ParsePwmhP9cell_asic3GRPPh
.ARM.exidx.text._Z17adBms6830ParsePwmhP9cell_asic3GRPPh:00000000 $d
C:\Users\huawei\AppData\Local\Temp\ccwYaMVL.s:5016   .text._Z22adBms6830CreateConfigahP9cell_asic:00000000 $t
C:\Users\huawei\AppData\Local\Temp\ccwYaMVL.s:5022   .text._Z22adBms6830CreateConfigahP9cell_asic:00000000 _Z22adBms6830CreateConfigahP9cell_asic
.ARM.exidx.text._Z22adBms6830CreateConfigahP9cell_asic:00000000 $d
ARM GAS  C:\Users\huawei\AppData\Local\Temp\ccwYaMVL.s 			page 135


C:\Users\huawei\AppData\Local\Temp\ccwYaMVL.s:5140   .text._Z22adBms6830CreateConfigbhP9cell_asic:00000000 $t
C:\Users\huawei\AppData\Local\Temp\ccwYaMVL.s:5146   .text._Z22adBms6830CreateConfigbhP9cell_asic:00000000 _Z22adBms6830CreateConfigbhP9cell_asic
.ARM.exidx.text._Z22adBms6830CreateConfigbhP9cell_asic:00000000 $d
C:\Users\huawei\AppData\Local\Temp\ccwYaMVL.s:5243   .text._Z26adBms6830CreateClrflagDatahP9cell_asic:00000000 $t
C:\Users\huawei\AppData\Local\Temp\ccwYaMVL.s:5249   .text._Z26adBms6830CreateClrflagDatahP9cell_asic:00000000 _Z26adBms6830CreateClrflagDatahP9cell_asic
.ARM.exidx.text._Z26adBms6830CreateClrflagDatahP9cell_asic:00000000 $d
C:\Users\huawei\AppData\Local\Temp\ccwYaMVL.s:5388   .text._Z19adBms6830CreateCommhP9cell_asic:00000000 $t
C:\Users\huawei\AppData\Local\Temp\ccwYaMVL.s:5394   .text._Z19adBms6830CreateCommhP9cell_asic:00000000 _Z19adBms6830CreateCommhP9cell_asic
.ARM.exidx.text._Z19adBms6830CreateCommhP9cell_asic:00000000 $d
C:\Users\huawei\AppData\Local\Temp\ccwYaMVL.s:5490   .text._Z19adBms6830CreatePwmahP9cell_asic:00000000 $t
C:\Users\huawei\AppData\Local\Temp\ccwYaMVL.s:5496   .text._Z19adBms6830CreatePwmahP9cell_asic:00000000 _Z19adBms6830CreatePwmahP9cell_asic
.ARM.exidx.text._Z19adBms6830CreatePwmahP9cell_asic:00000000 $d
C:\Users\huawei\AppData\Local\Temp\ccwYaMVL.s:5607   .text._Z19adBms6830CreatePwmbhP9cell_asic:00000000 $t
C:\Users\huawei\AppData\Local\Temp\ccwYaMVL.s:5613   .text._Z19adBms6830CreatePwmbhP9cell_asic:00000000 _Z19adBms6830CreatePwmbhP9cell_asic
.ARM.exidx.text._Z19adBms6830CreatePwmbhP9cell_asic:00000000 $d

UNDEFINED SYMBOLS
__aeabi_f2d
__aeabi_ddiv
__aeabi_d2f
calloc
puts
exit
memcpy
free
__aeabi_unwind_cpp_pr0
