ARM GAS  C:\Users\huawei\AppData\Local\Temp\ccwYaMVL.s 			page 1


   1              		.cpu cortex-m4
   2              		.arch armv7e-m
   3              		.fpu fpv4-sp-d16
   4              		.eabi_attribute 27, 1
   5              		.eabi_attribute 28, 1
   6              		.eabi_attribute 20, 1
   7              		.eabi_attribute 21, 1
   8              		.eabi_attribute 23, 3
   9              		.eabi_attribute 24, 1
  10              		.eabi_attribute 25, 1
  11              		.eabi_attribute 26, 1
  12              		.eabi_attribute 30, 1
  13              		.eabi_attribute 34, 1
  14              		.eabi_attribute 18, 4
  15              		.file	"adBms6830ParseCreate.cpp"
  16              		.text
  17              	.Ltext0:
  18              		.cfi_sections	.debug_frame
  19              		.file 1 "Core/Src/adBms6830ParseCreate.cpp"
  20              		.global	__aeabi_f2d
  21              		.global	__aeabi_ddiv
  22              		.global	__aeabi_d2f
  23              		.section	.text._Z23SetOverVoltageThresholdf,"ax",%progbits
  24              		.align	1
  25              		.global	_Z23SetOverVoltageThresholdf
  26              		.syntax unified
  27              		.thumb
  28              		.thumb_func
  30              	_Z23SetOverVoltageThresholdf:
  31              		.fnstart
  32              	.LVL0:
  33              	.LFB245:
   1:Core/Src/adBms6830ParseCreate.cpp **** /*******************************************************************************
   2:Core/Src/adBms6830ParseCreate.cpp **** Copyright (c) 2020 - Analog Devices Inc. All Rights Reserved.
   3:Core/Src/adBms6830ParseCreate.cpp **** This software is proprietary & confidential to Analog Devices, Inc.
   4:Core/Src/adBms6830ParseCreate.cpp **** and its licensor.
   5:Core/Src/adBms6830ParseCreate.cpp **** ******************************************************************************
   6:Core/Src/adBms6830ParseCreate.cpp **** * @file:    adBms6830ParseCreate.c
   7:Core/Src/adBms6830ParseCreate.cpp **** * @brief:   adBms6830 ParseCreate data helper functions
   8:Core/Src/adBms6830ParseCreate.cpp **** * @version: $Revision$
   9:Core/Src/adBms6830ParseCreate.cpp **** * @date:    $Date$
  10:Core/Src/adBms6830ParseCreate.cpp **** * Developed by: ADIBMS Software team, Bangalore, India
  11:Core/Src/adBms6830ParseCreate.cpp **** *****************************************************************************/
  12:Core/Src/adBms6830ParseCreate.cpp **** 
  13:Core/Src/adBms6830ParseCreate.cpp **** /*! \addtogroup BMS DRIVER
  14:Core/Src/adBms6830ParseCreate.cpp **** */
  15:Core/Src/adBms6830ParseCreate.cpp **** 
  16:Core/Src/adBms6830ParseCreate.cpp **** /*! @addtogroup PARSE_CREATE PARSE CREATE DATA
  17:Core/Src/adBms6830ParseCreate.cpp **** *  @{
  18:Core/Src/adBms6830ParseCreate.cpp **** */
  19:Core/Src/adBms6830ParseCreate.cpp **** #include "adBms6830ParseCreate.h"
  20:Core/Src/adBms6830ParseCreate.cpp **** 
  21:Core/Src/adBms6830ParseCreate.cpp **** /**
  22:Core/Src/adBms6830ParseCreate.cpp ****  *******************************************************************************
  23:Core/Src/adBms6830ParseCreate.cpp ****  * Function: SetOverVoltageThreshold
  24:Core/Src/adBms6830ParseCreate.cpp ****  * @brief Set Over Voltage Threshold.
  25:Core/Src/adBms6830ParseCreate.cpp ****  *
ARM GAS  C:\Users\huawei\AppData\Local\Temp\ccwYaMVL.s 			page 2


  26:Core/Src/adBms6830ParseCreate.cpp ****  * @details This function Set Over Voltage Threshold.
  27:Core/Src/adBms6830ParseCreate.cpp ****  *
  28:Core/Src/adBms6830ParseCreate.cpp ****  * Parameters:
  29:Core/Src/adBms6830ParseCreate.cpp ****  *
  30:Core/Src/adBms6830ParseCreate.cpp ****  * @param [in]  voltage      Over voltage
  31:Core/Src/adBms6830ParseCreate.cpp ****  *
  32:Core/Src/adBms6830ParseCreate.cpp ****  * @return OverVoltage_value
  33:Core/Src/adBms6830ParseCreate.cpp ****  *
  34:Core/Src/adBms6830ParseCreate.cpp ****  *******************************************************************************
  35:Core/Src/adBms6830ParseCreate.cpp **** */
  36:Core/Src/adBms6830ParseCreate.cpp **** uint16_t SetOverVoltageThreshold(float voltage)
  37:Core/Src/adBms6830ParseCreate.cpp **** {
  34              		.loc 1 37 1 view -0
  35              		.cfi_startproc
  36              		@ args = 0, pretend = 0, frame = 0
  37              		@ frame_needed = 0, uses_anonymous_args = 0
  38              		.loc 1 37 1 is_stmt 0 view .LVU1
  39 0000 08B5     		push	{r3, lr}
  40              	.LCFI0:
  41              		.cfi_def_cfa_offset 8
  42              		.cfi_offset 3, -8
  43              		.cfi_offset 14, -4
  38:Core/Src/adBms6830ParseCreate.cpp ****   uint16_t vov_value;
  44              		.loc 1 38 3 is_stmt 1 view .LVU2
  39:Core/Src/adBms6830ParseCreate.cpp ****   uint8_t rbits = 12;
  45              		.loc 1 39 3 view .LVU3
  46              	.LVL1:
  40:Core/Src/adBms6830ParseCreate.cpp ****   voltage = (voltage - 1.5);
  47              		.loc 1 40 3 view .LVU4
  41:Core/Src/adBms6830ParseCreate.cpp ****   voltage = voltage / (16 * 0.000150);
  48              		.loc 1 41 3 view .LVU5
  49              		.loc 1 41 13 is_stmt 0 view .LVU6
  50 0002 F7EE087A 		vmov.f32	s15, #1.5e+0
  51 0006 70EE677A 		vsub.f32	s15, s0, s15
  52              	.LVL2:
  53              		.loc 1 41 13 view .LVU7
  54 000a 17EE900A 		vmov	r0, s15
  55 000e FFF7FEFF 		bl	__aeabi_f2d
  56              	.LVL3:
  57              		.loc 1 41 21 view .LVU8
  58 0012 0CA3     		adr	r3, .L3+4
  59 0014 D3E90023 		ldrd	r2, [r3]
  60 0018 FFF7FEFF 		bl	__aeabi_ddiv
  61              	.LVL4:
  62              		.loc 1 41 11 view .LVU9
  63 001c FFF7FEFF 		bl	__aeabi_d2f
  64              	.LVL5:
  65 0020 07EE900A 		vmov	s15, r0
  66              	.LVL6:
  42:Core/Src/adBms6830ParseCreate.cpp ****   vov_value = (uint16_t )(voltage + 2 * (1 << (rbits - 1)));
  67              		.loc 1 42 3 is_stmt 1 view .LVU10
  68              		.loc 1 42 35 is_stmt 0 view .LVU11
  69 0024 9FED067A 		vldr.32	s14, .L3
  70 0028 77EE877A 		vadd.f32	s15, s15, s14
  71              		.loc 1 42 13 view .LVU12
  72 002c FCEEE77A 		vcvt.u32.f32	s15, s15
  73 0030 17EE900A 		vmov	r0, s15	@ int
ARM GAS  C:\Users\huawei\AppData\Local\Temp\ccwYaMVL.s 			page 3


  74              	.LVL7:
  43:Core/Src/adBms6830ParseCreate.cpp ****   vov_value &= 0xFFF;
  75              		.loc 1 43 3 is_stmt 1 view .LVU13
  44:Core/Src/adBms6830ParseCreate.cpp ****   return vov_value;
  76              		.loc 1 44 3 view .LVU14
  45:Core/Src/adBms6830ParseCreate.cpp **** }
  77              		.loc 1 45 1 is_stmt 0 view .LVU15
  78 0034 C0F30B00 		ubfx	r0, r0, #0, #12
  79              	.LVL8:
  80              		.loc 1 45 1 view .LVU16
  81 0038 08BD     		pop	{r3, pc}
  82              	.L4:
  83 003a 00BFAFF3 		.align	3
  83      0080
  84              	.L3:
  85 0040 00008045 		.word	1166016512
  86 0044 61325530 		.word	810889825
  87 0048 2AA9633F 		.word	1063495978
  88              		.cfi_endproc
  89              	.LFE245:
  90              		.cantunwind
  91              		.fnend
  93              		.section	.text._Z24SetUnderVoltageThresholdf,"ax",%progbits
  94              		.align	1
  95              		.global	_Z24SetUnderVoltageThresholdf
  96              		.syntax unified
  97              		.thumb
  98              		.thumb_func
 100              	_Z24SetUnderVoltageThresholdf:
 101              		.fnstart
 102              	.LVL9:
 103              	.LFB246:
  46:Core/Src/adBms6830ParseCreate.cpp **** 
  47:Core/Src/adBms6830ParseCreate.cpp **** /**
  48:Core/Src/adBms6830ParseCreate.cpp ****  *******************************************************************************
  49:Core/Src/adBms6830ParseCreate.cpp ****  * Function: SetUnderVoltageThreshold
  50:Core/Src/adBms6830ParseCreate.cpp ****  * @brief Set Under Voltage Threshold.
  51:Core/Src/adBms6830ParseCreate.cpp ****  *
  52:Core/Src/adBms6830ParseCreate.cpp ****  * @details This function Set Under Voltage Threshold.
  53:Core/Src/adBms6830ParseCreate.cpp ****  *
  54:Core/Src/adBms6830ParseCreate.cpp ****  * Parameters:
  55:Core/Src/adBms6830ParseCreate.cpp ****  *
  56:Core/Src/adBms6830ParseCreate.cpp ****  * @param [in]  voltage      Under voltage
  57:Core/Src/adBms6830ParseCreate.cpp ****  *
  58:Core/Src/adBms6830ParseCreate.cpp ****  * @return UnderVoltage_value
  59:Core/Src/adBms6830ParseCreate.cpp ****  *
  60:Core/Src/adBms6830ParseCreate.cpp ****  *******************************************************************************
  61:Core/Src/adBms6830ParseCreate.cpp **** */
  62:Core/Src/adBms6830ParseCreate.cpp **** uint16_t SetUnderVoltageThreshold(float voltage)
  63:Core/Src/adBms6830ParseCreate.cpp **** {
 104              		.loc 1 63 1 is_stmt 1 view -0
 105              		.cfi_startproc
 106              		@ args = 0, pretend = 0, frame = 0
 107              		@ frame_needed = 0, uses_anonymous_args = 0
 108              		.loc 1 63 1 is_stmt 0 view .LVU18
 109 0000 08B5     		push	{r3, lr}
 110              	.LCFI1:
ARM GAS  C:\Users\huawei\AppData\Local\Temp\ccwYaMVL.s 			page 4


 111              		.cfi_def_cfa_offset 8
 112              		.cfi_offset 3, -8
 113              		.cfi_offset 14, -4
  64:Core/Src/adBms6830ParseCreate.cpp ****   uint16_t vuv_value;
 114              		.loc 1 64 3 is_stmt 1 view .LVU19
  65:Core/Src/adBms6830ParseCreate.cpp ****   uint8_t rbits = 12;
 115              		.loc 1 65 3 view .LVU20
 116              	.LVL10:
  66:Core/Src/adBms6830ParseCreate.cpp ****   voltage = (voltage - 1.5);
 117              		.loc 1 66 3 view .LVU21
  67:Core/Src/adBms6830ParseCreate.cpp ****   voltage = voltage / (16 * 0.000150);
 118              		.loc 1 67 3 view .LVU22
 119              		.loc 1 67 13 is_stmt 0 view .LVU23
 120 0002 F7EE087A 		vmov.f32	s15, #1.5e+0
 121 0006 70EE677A 		vsub.f32	s15, s0, s15
 122              	.LVL11:
 123              		.loc 1 67 13 view .LVU24
 124 000a 17EE900A 		vmov	r0, s15
 125 000e FFF7FEFF 		bl	__aeabi_f2d
 126              	.LVL12:
 127              		.loc 1 67 21 view .LVU25
 128 0012 0CA3     		adr	r3, .L7+4
 129 0014 D3E90023 		ldrd	r2, [r3]
 130 0018 FFF7FEFF 		bl	__aeabi_ddiv
 131              	.LVL13:
 132              		.loc 1 67 11 view .LVU26
 133 001c FFF7FEFF 		bl	__aeabi_d2f
 134              	.LVL14:
 135 0020 07EE900A 		vmov	s15, r0
 136              	.LVL15:
  68:Core/Src/adBms6830ParseCreate.cpp ****   vuv_value = (uint16_t )(voltage + 2 * (1 << (rbits - 1)));
 137              		.loc 1 68 3 is_stmt 1 view .LVU27
 138              		.loc 1 68 35 is_stmt 0 view .LVU28
 139 0024 9FED067A 		vldr.32	s14, .L7
 140 0028 77EE877A 		vadd.f32	s15, s15, s14
 141              		.loc 1 68 13 view .LVU29
 142 002c FCEEE77A 		vcvt.u32.f32	s15, s15
 143 0030 17EE900A 		vmov	r0, s15	@ int
 144              	.LVL16:
  69:Core/Src/adBms6830ParseCreate.cpp ****   vuv_value &= 0xFFF;
 145              		.loc 1 69 3 is_stmt 1 view .LVU30
  70:Core/Src/adBms6830ParseCreate.cpp ****   return vuv_value;
 146              		.loc 1 70 3 view .LVU31
  71:Core/Src/adBms6830ParseCreate.cpp **** }
 147              		.loc 1 71 1 is_stmt 0 view .LVU32
 148 0034 C0F30B00 		ubfx	r0, r0, #0, #12
 149              	.LVL17:
 150              		.loc 1 71 1 view .LVU33
 151 0038 08BD     		pop	{r3, pc}
 152              	.L8:
 153 003a 00BFAFF3 		.align	3
 153      0080
 154              	.L7:
 155 0040 00008045 		.word	1166016512
 156 0044 61325530 		.word	810889825
 157 0048 2AA9633F 		.word	1063495978
 158              		.cfi_endproc
ARM GAS  C:\Users\huawei\AppData\Local\Temp\ccwYaMVL.s 			page 5


 159              	.LFE246:
 160              		.cantunwind
 161              		.fnend
 163              		.section	.text._Z12ConfigA_Flag6FLAG_D9CFGA_FLAG,"ax",%progbits
 164              		.align	1
 165              		.global	_Z12ConfigA_Flag6FLAG_D9CFGA_FLAG
 166              		.syntax unified
 167              		.thumb
 168              		.thumb_func
 170              	_Z12ConfigA_Flag6FLAG_D9CFGA_FLAG:
 171              		.fnstart
 172              	.LVL18:
 173              	.LFB247:
  72:Core/Src/adBms6830ParseCreate.cpp **** 
  73:Core/Src/adBms6830ParseCreate.cpp **** /**
  74:Core/Src/adBms6830ParseCreate.cpp ****  *******************************************************************************
  75:Core/Src/adBms6830ParseCreate.cpp ****  * Function: ConfigA_Flag
  76:Core/Src/adBms6830ParseCreate.cpp ****  * @brief Config A Flag bit.
  77:Core/Src/adBms6830ParseCreate.cpp ****  *
  78:Core/Src/adBms6830ParseCreate.cpp ****  * @details This function Set configuration A flag bit.
  79:Core/Src/adBms6830ParseCreate.cpp ****  *
  80:Core/Src/adBms6830ParseCreate.cpp ****  * Parameters:
  81:Core/Src/adBms6830ParseCreate.cpp ****  *
  82:Core/Src/adBms6830ParseCreate.cpp ****  * @param [in]  flag_d      Enum type flag bit
  83:Core/Src/adBms6830ParseCreate.cpp ****  *
  84:Core/Src/adBms6830ParseCreate.cpp ****  * @param [in]  flag       Enum type set or clr flag
  85:Core/Src/adBms6830ParseCreate.cpp ****  *
  86:Core/Src/adBms6830ParseCreate.cpp ****  * @return Flagbit_Value
  87:Core/Src/adBms6830ParseCreate.cpp ****  *
  88:Core/Src/adBms6830ParseCreate.cpp ****  *******************************************************************************
  89:Core/Src/adBms6830ParseCreate.cpp **** */
  90:Core/Src/adBms6830ParseCreate.cpp **** uint8_t ConfigA_Flag(FLAG_D flag_d, CFGA_FLAG flag)
  91:Core/Src/adBms6830ParseCreate.cpp **** {
 174              		.loc 1 91 1 is_stmt 1 view -0
 175              		.cfi_startproc
 176              		@ args = 0, pretend = 0, frame = 0
 177              		@ frame_needed = 0, uses_anonymous_args = 0
 178              		@ link register save eliminated.
  92:Core/Src/adBms6830ParseCreate.cpp ****   uint8_t flag_value;
 179              		.loc 1 92 3 view .LVU35
  93:Core/Src/adBms6830ParseCreate.cpp ****   if(flag == FLAG_SET)
 180              		.loc 1 93 3 view .LVU36
 181 0000 0129     		cmp	r1, #1
 182 0002 01D0     		beq	.L12
  94:Core/Src/adBms6830ParseCreate.cpp ****   {
  95:Core/Src/adBms6830ParseCreate.cpp ****     flag_value = (1 << flag_d);
  96:Core/Src/adBms6830ParseCreate.cpp ****   }
  97:Core/Src/adBms6830ParseCreate.cpp ****   else
  98:Core/Src/adBms6830ParseCreate.cpp ****   {
  99:Core/Src/adBms6830ParseCreate.cpp ****     flag_value = (0 << flag_d);
 183              		.loc 1 99 16 is_stmt 0 view .LVU37
 184 0004 0020     		movs	r0, #0
 185              	.LVL19:
 100:Core/Src/adBms6830ParseCreate.cpp ****   }
 101:Core/Src/adBms6830ParseCreate.cpp ****   return(flag_value);
 186              		.loc 1 101 3 is_stmt 1 view .LVU38
 102:Core/Src/adBms6830ParseCreate.cpp **** }
ARM GAS  C:\Users\huawei\AppData\Local\Temp\ccwYaMVL.s 			page 6


 187              		.loc 1 102 1 is_stmt 0 view .LVU39
 188 0006 7047     		bx	lr
 189              	.LVL20:
 190              	.L12:
  95:Core/Src/adBms6830ParseCreate.cpp ****   }
 191              		.loc 1 95 5 is_stmt 1 view .LVU40
  95:Core/Src/adBms6830ParseCreate.cpp ****   }
 192              		.loc 1 95 21 is_stmt 0 view .LVU41
 193 0008 0123     		movs	r3, #1
 194 000a 03FA00F0 		lsl	r0, r3, r0
 195              	.LVL21:
  95:Core/Src/adBms6830ParseCreate.cpp ****   }
 196              		.loc 1 95 16 view .LVU42
 197 000e C0B2     		uxtb	r0, r0
 198              	.LVL22:
  95:Core/Src/adBms6830ParseCreate.cpp ****   }
 199              		.loc 1 95 16 view .LVU43
 200 0010 7047     		bx	lr
 201              		.cfi_endproc
 202              	.LFE247:
 203              		.cantunwind
 204              		.fnend
 206              		.section	.text._Z11ConfigA_Gpo3GPO8CFGA_GPO,"ax",%progbits
 207              		.align	1
 208              		.global	_Z11ConfigA_Gpo3GPO8CFGA_GPO
 209              		.syntax unified
 210              		.thumb
 211              		.thumb_func
 213              	_Z11ConfigA_Gpo3GPO8CFGA_GPO:
 214              		.fnstart
 215              	.LVL23:
 216              	.LFB248:
 103:Core/Src/adBms6830ParseCreate.cpp **** 
 104:Core/Src/adBms6830ParseCreate.cpp **** /**
 105:Core/Src/adBms6830ParseCreate.cpp ****  *******************************************************************************
 106:Core/Src/adBms6830ParseCreate.cpp ****  * Function: ConfigA_Gpo
 107:Core/Src/adBms6830ParseCreate.cpp ****  * @brief Config A Gpio Pull High/Low.
 108:Core/Src/adBms6830ParseCreate.cpp ****  *
 109:Core/Src/adBms6830ParseCreate.cpp ****  * @details This function Set configuration A gpio as pull high/Low.
 110:Core/Src/adBms6830ParseCreate.cpp ****  *
 111:Core/Src/adBms6830ParseCreate.cpp ****  * Parameters:
 112:Core/Src/adBms6830ParseCreate.cpp ****  *
 113:Core/Src/adBms6830ParseCreate.cpp ****  * @param [in]  gpo      Enum type GPO Pin
 114:Core/Src/adBms6830ParseCreate.cpp ****  *
 115:Core/Src/adBms6830ParseCreate.cpp ****  * @param [in]  stat     Enum type CFGAGPO set Low or High
 116:Core/Src/adBms6830ParseCreate.cpp ****  *
 117:Core/Src/adBms6830ParseCreate.cpp ****  * @return Gpio_value
 118:Core/Src/adBms6830ParseCreate.cpp ****  *
 119:Core/Src/adBms6830ParseCreate.cpp ****  *******************************************************************************
 120:Core/Src/adBms6830ParseCreate.cpp **** */
 121:Core/Src/adBms6830ParseCreate.cpp **** uint16_t ConfigA_Gpo(GPO gpo, CFGA_GPO stat)
 122:Core/Src/adBms6830ParseCreate.cpp **** {
 217              		.loc 1 122 1 is_stmt 1 view -0
 218              		.cfi_startproc
 219              		@ args = 0, pretend = 0, frame = 0
 220              		@ frame_needed = 0, uses_anonymous_args = 0
 221              		@ link register save eliminated.
ARM GAS  C:\Users\huawei\AppData\Local\Temp\ccwYaMVL.s 			page 7


 123:Core/Src/adBms6830ParseCreate.cpp ****   uint16_t gpovalue;
 222              		.loc 1 123 3 view .LVU45
 124:Core/Src/adBms6830ParseCreate.cpp ****   if(stat == GPO_SET)
 223              		.loc 1 124 3 view .LVU46
 224 0000 0129     		cmp	r1, #1
 225 0002 01D0     		beq	.L16
 125:Core/Src/adBms6830ParseCreate.cpp ****   {
 126:Core/Src/adBms6830ParseCreate.cpp ****     gpovalue = (1 << gpo);
 127:Core/Src/adBms6830ParseCreate.cpp ****   }
 128:Core/Src/adBms6830ParseCreate.cpp ****   else
 129:Core/Src/adBms6830ParseCreate.cpp ****   {
 130:Core/Src/adBms6830ParseCreate.cpp ****     gpovalue = (0 << gpo);
 226              		.loc 1 130 14 is_stmt 0 view .LVU47
 227 0004 0020     		movs	r0, #0
 228              	.LVL24:
 131:Core/Src/adBms6830ParseCreate.cpp ****   }
 132:Core/Src/adBms6830ParseCreate.cpp ****   return(gpovalue);
 229              		.loc 1 132 3 is_stmt 1 view .LVU48
 133:Core/Src/adBms6830ParseCreate.cpp **** }
 230              		.loc 1 133 1 is_stmt 0 view .LVU49
 231 0006 7047     		bx	lr
 232              	.LVL25:
 233              	.L16:
 126:Core/Src/adBms6830ParseCreate.cpp ****   }
 234              		.loc 1 126 5 is_stmt 1 view .LVU50
 126:Core/Src/adBms6830ParseCreate.cpp ****   }
 235              		.loc 1 126 19 is_stmt 0 view .LVU51
 236 0008 0123     		movs	r3, #1
 237 000a 03FA00F0 		lsl	r0, r3, r0
 238              	.LVL26:
 126:Core/Src/adBms6830ParseCreate.cpp ****   }
 239              		.loc 1 126 14 view .LVU52
 240 000e 80B2     		uxth	r0, r0
 241              	.LVL27:
 126:Core/Src/adBms6830ParseCreate.cpp ****   }
 242              		.loc 1 126 14 view .LVU53
 243 0010 7047     		bx	lr
 244              		.cfi_endproc
 245              	.LFE248:
 246              		.cantunwind
 247              		.fnend
 249              		.section	.text._Z14ConfigB_DccBit3DCC7DCC_BIT,"ax",%progbits
 250              		.align	1
 251              		.global	_Z14ConfigB_DccBit3DCC7DCC_BIT
 252              		.syntax unified
 253              		.thumb
 254              		.thumb_func
 256              	_Z14ConfigB_DccBit3DCC7DCC_BIT:
 257              		.fnstart
 258              	.LVL28:
 259              	.LFB249:
 134:Core/Src/adBms6830ParseCreate.cpp **** 
 135:Core/Src/adBms6830ParseCreate.cpp **** /**
 136:Core/Src/adBms6830ParseCreate.cpp ****  *******************************************************************************
 137:Core/Src/adBms6830ParseCreate.cpp ****  * Function: ConfigB_DccBit
 138:Core/Src/adBms6830ParseCreate.cpp ****  * @brief Config B DCC bit.
 139:Core/Src/adBms6830ParseCreate.cpp ****  *
ARM GAS  C:\Users\huawei\AppData\Local\Temp\ccwYaMVL.s 			page 8


 140:Core/Src/adBms6830ParseCreate.cpp ****  * @details This function configure config B DCC bit.
 141:Core/Src/adBms6830ParseCreate.cpp ****  *
 142:Core/Src/adBms6830ParseCreate.cpp ****  * Parameters:
 143:Core/Src/adBms6830ParseCreate.cpp ****  *
 144:Core/Src/adBms6830ParseCreate.cpp ****  * @param [in]  dcc      Enum type DCC bit
 145:Core/Src/adBms6830ParseCreate.cpp ****  *
 146:Core/Src/adBms6830ParseCreate.cpp ****  * @param [in]  dccbit   Enum type DCC bit set or clr.
 147:Core/Src/adBms6830ParseCreate.cpp ****  *
 148:Core/Src/adBms6830ParseCreate.cpp ****  * @return DccBit_value
 149:Core/Src/adBms6830ParseCreate.cpp ****  *
 150:Core/Src/adBms6830ParseCreate.cpp ****  *******************************************************************************
 151:Core/Src/adBms6830ParseCreate.cpp **** */
 152:Core/Src/adBms6830ParseCreate.cpp **** uint16_t ConfigB_DccBit(DCC dcc, DCC_BIT dccbit)
 153:Core/Src/adBms6830ParseCreate.cpp **** {
 260              		.loc 1 153 1 is_stmt 1 view -0
 261              		.cfi_startproc
 262              		@ args = 0, pretend = 0, frame = 0
 263              		@ frame_needed = 0, uses_anonymous_args = 0
 264              		@ link register save eliminated.
 154:Core/Src/adBms6830ParseCreate.cpp ****   uint16_t dccvalue;
 265              		.loc 1 154 3 view .LVU55
 155:Core/Src/adBms6830ParseCreate.cpp ****   if(dccbit == DCC_BIT_SET)
 266              		.loc 1 155 3 view .LVU56
 267 0000 0129     		cmp	r1, #1
 268 0002 01D0     		beq	.L20
 156:Core/Src/adBms6830ParseCreate.cpp ****   {
 157:Core/Src/adBms6830ParseCreate.cpp ****     dccvalue = (1 << dcc);
 158:Core/Src/adBms6830ParseCreate.cpp ****   }
 159:Core/Src/adBms6830ParseCreate.cpp ****   else
 160:Core/Src/adBms6830ParseCreate.cpp ****   {
 161:Core/Src/adBms6830ParseCreate.cpp ****     dccvalue = (0 << dcc);
 269              		.loc 1 161 14 is_stmt 0 view .LVU57
 270 0004 0020     		movs	r0, #0
 271              	.LVL29:
 162:Core/Src/adBms6830ParseCreate.cpp ****   }
 163:Core/Src/adBms6830ParseCreate.cpp ****   return(dccvalue);
 272              		.loc 1 163 3 is_stmt 1 view .LVU58
 164:Core/Src/adBms6830ParseCreate.cpp **** }
 273              		.loc 1 164 1 is_stmt 0 view .LVU59
 274 0006 7047     		bx	lr
 275              	.LVL30:
 276              	.L20:
 157:Core/Src/adBms6830ParseCreate.cpp ****   }
 277              		.loc 1 157 5 is_stmt 1 view .LVU60
 157:Core/Src/adBms6830ParseCreate.cpp ****   }
 278              		.loc 1 157 19 is_stmt 0 view .LVU61
 279 0008 0123     		movs	r3, #1
 280 000a 03FA00F0 		lsl	r0, r3, r0
 281              	.LVL31:
 157:Core/Src/adBms6830ParseCreate.cpp ****   }
 282              		.loc 1 157 14 view .LVU62
 283 000e 80B2     		uxth	r0, r0
 284              	.LVL32:
 157:Core/Src/adBms6830ParseCreate.cpp ****   }
 285              		.loc 1 157 14 view .LVU63
 286 0010 7047     		bx	lr
 287              		.cfi_endproc
ARM GAS  C:\Users\huawei\AppData\Local\Temp\ccwYaMVL.s 			page 9


 288              	.LFE249:
 289              		.cantunwind
 290              		.fnend
 292              		.section	.text._Z32SetConfigB_DischargeTimeOutValuehP9cell_asic5DTRNG4DCTO,"ax",%progbits
 293              		.align	1
 294              		.global	_Z32SetConfigB_DischargeTimeOutValuehP9cell_asic5DTRNG4DCTO
 295              		.syntax unified
 296              		.thumb
 297              		.thumb_func
 299              	_Z32SetConfigB_DischargeTimeOutValuehP9cell_asic5DTRNG4DCTO:
 300              		.fnstart
 301              	.LVL33:
 302              	.LFB250:
 165:Core/Src/adBms6830ParseCreate.cpp **** 
 166:Core/Src/adBms6830ParseCreate.cpp **** /**
 167:Core/Src/adBms6830ParseCreate.cpp ****  *******************************************************************************
 168:Core/Src/adBms6830ParseCreate.cpp ****  * Function: SetConfig_B_DischargeTimeOutValue
 169:Core/Src/adBms6830ParseCreate.cpp ****  * @brief Set Config B Discharge Time Out Value.
 170:Core/Src/adBms6830ParseCreate.cpp ****  *
 171:Core/Src/adBms6830ParseCreate.cpp ****  * @details This function Set configuration B Discharge Time Out Value with short or long range.
 172:Core/Src/adBms6830ParseCreate.cpp ****  *
 173:Core/Src/adBms6830ParseCreate.cpp ****  * Parameters:
 174:Core/Src/adBms6830ParseCreate.cpp ****  *
 175:Core/Src/adBms6830ParseCreate.cpp ****  * @param [in]  tIC                     Total IC
 176:Core/Src/adBms6830ParseCreate.cpp ****  *
 177:Core/Src/adBms6830ParseCreate.cpp ****  * @param [in]  *ic                      cell_asic ic structure pointer
 178:Core/Src/adBms6830ParseCreate.cpp ****  *
 179:Core/Src/adBms6830ParseCreate.cpp ****  * @param [in]  timer_rang              Enum type time range
 180:Core/Src/adBms6830ParseCreate.cpp ****  *
 181:Core/Src/adBms6830ParseCreate.cpp ****  * @param [in]  timeout_value           Enum type time out value
 182:Core/Src/adBms6830ParseCreate.cpp ****  *
 183:Core/Src/adBms6830ParseCreate.cpp ****  * @return None
 184:Core/Src/adBms6830ParseCreate.cpp ****  *
 185:Core/Src/adBms6830ParseCreate.cpp ****  *******************************************************************************
 186:Core/Src/adBms6830ParseCreate.cpp **** */
 187:Core/Src/adBms6830ParseCreate.cpp **** void SetConfigB_DischargeTimeOutValue(uint8_t tIC, cell_asic *ic, DTRNG timer_rang, DCTO timeout_va
 188:Core/Src/adBms6830ParseCreate.cpp **** {
 303              		.loc 1 188 1 is_stmt 1 view -0
 304              		.cfi_startproc
 305              		@ args = 0, pretend = 0, frame = 0
 306              		@ frame_needed = 0, uses_anonymous_args = 0
 307              		.loc 1 188 1 is_stmt 0 view .LVU65
 308 0000 10B5     		push	{r4, lr}
 309              	.LCFI2:
 310              		.cfi_def_cfa_offset 8
 311              		.cfi_offset 4, -8
 312              		.cfi_offset 14, -4
 189:Core/Src/adBms6830ParseCreate.cpp ****   for(uint8_t curr_ic = 0; curr_ic < tIC; curr_ic++)
 313              		.loc 1 189 3 is_stmt 1 view .LVU66
 314              	.LVL34:
 315              	.LBB2:
 316              		.loc 1 189 15 is_stmt 0 view .LVU67
 317 0002 4FF0000E 		mov	lr, #0
 318              		.loc 1 189 3 view .LVU68
 319 0006 05E0     		b	.L22
 320              	.LVL35:
 321              	.L23:
ARM GAS  C:\Users\huawei\AppData\Local\Temp\ccwYaMVL.s 			page 10


 190:Core/Src/adBms6830ParseCreate.cpp ****   {
 191:Core/Src/adBms6830ParseCreate.cpp ****     ic[curr_ic].tx_cfgb.dtrng = timer_rang;
 192:Core/Src/adBms6830ParseCreate.cpp ****     if(timer_rang == RANG_0_TO_63_MIN)
 193:Core/Src/adBms6830ParseCreate.cpp ****     {
 194:Core/Src/adBms6830ParseCreate.cpp ****       ic[curr_ic].tx_cfgb.dcto = timeout_value;
 195:Core/Src/adBms6830ParseCreate.cpp ****     }
 196:Core/Src/adBms6830ParseCreate.cpp ****     else if(timer_rang == RANG_0_TO_16_8_HR)
 322              		.loc 1 196 10 is_stmt 1 view .LVU69
 323 0008 012A     		cmp	r2, #1
 324 000a 17D0     		beq	.L27
 325              	.L24:
 189:Core/Src/adBms6830ParseCreate.cpp ****   for(uint8_t curr_ic = 0; curr_ic < tIC; curr_ic++)
 326              		.loc 1 189 3 discriminator 2 view .LVU70
 327 000c 0EF1010E 		add	lr, lr, #1
 328              	.LVL36:
 189:Core/Src/adBms6830ParseCreate.cpp ****   for(uint8_t curr_ic = 0; curr_ic < tIC; curr_ic++)
 329              		.loc 1 189 3 is_stmt 0 discriminator 2 view .LVU71
 330 0010 5FFA8EFE 		uxtb	lr, lr
 331              	.LVL37:
 332              	.L22:
 189:Core/Src/adBms6830ParseCreate.cpp ****   for(uint8_t curr_ic = 0; curr_ic < tIC; curr_ic++)
 333              		.loc 1 189 36 is_stmt 1 discriminator 1 view .LVU72
 334 0014 8645     		cmp	lr, r0
 335 0016 18D2     		bcs	.L28
 191:Core/Src/adBms6830ParseCreate.cpp ****     if(timer_rang == RANG_0_TO_63_MIN)
 336              		.loc 1 191 5 view .LVU73
 191:Core/Src/adBms6830ParseCreate.cpp ****     if(timer_rang == RANG_0_TO_63_MIN)
 337              		.loc 1 191 15 is_stmt 0 view .LVU74
 338 0018 4FF4287C 		mov	ip, #672
 339 001c 0CFB0E1C 		mla	ip, ip, lr, r1
 191:Core/Src/adBms6830ParseCreate.cpp ****     if(timer_rang == RANG_0_TO_63_MIN)
 340              		.loc 1 191 31 view .LVU75
 341 0020 9CF81040 		ldrb	r4, [ip, #16]	@ zero_extendqisi2
 342 0024 62F34104 		bfi	r4, r2, #1, #1
 343 0028 8CF81040 		strb	r4, [ip, #16]
 192:Core/Src/adBms6830ParseCreate.cpp ****     {
 344              		.loc 1 192 5 is_stmt 1 view .LVU76
 345 002c 002A     		cmp	r2, #0
 346 002e EBD1     		bne	.L23
 194:Core/Src/adBms6830ParseCreate.cpp ****     }
 347              		.loc 1 194 7 view .LVU77
 194:Core/Src/adBms6830ParseCreate.cpp ****     }
 348              		.loc 1 194 32 is_stmt 0 view .LVU78
 349 0030 E4B2     		uxtb	r4, r4
 350 0032 63F38704 		bfi	r4, r3, #2, #6
 351 0036 8CF81040 		strb	r4, [ip, #16]
 352 003a E7E7     		b	.L24
 353              	.L27:
 197:Core/Src/adBms6830ParseCreate.cpp ****     {
 198:Core/Src/adBms6830ParseCreate.cpp ****       ic[curr_ic].tx_cfgb.dcto = timeout_value;
 354              		.loc 1 198 7 is_stmt 1 view .LVU79
 355              		.loc 1 198 32 is_stmt 0 view .LVU80
 356 003c 9CF81040 		ldrb	r4, [ip, #16]	@ zero_extendqisi2
 357 0040 63F38704 		bfi	r4, r3, #2, #6
 358 0044 8CF81040 		strb	r4, [ip, #16]
 359 0048 E0E7     		b	.L24
 360              	.L28:
ARM GAS  C:\Users\huawei\AppData\Local\Temp\ccwYaMVL.s 			page 11


 361              		.loc 1 198 32 view .LVU81
 362              	.LBE2:
 199:Core/Src/adBms6830ParseCreate.cpp ****     }
 200:Core/Src/adBms6830ParseCreate.cpp ****   }
 201:Core/Src/adBms6830ParseCreate.cpp **** }
 363              		.loc 1 201 1 view .LVU82
 364 004a 10BD     		pop	{r4, pc}
 365              		.cfi_endproc
 366              	.LFE250:
 367              		.cantunwind
 368              		.fnend
 370              		.section	.text._Z15SetPwmDutyCyclehP9cell_asic8PWM_DUTY,"ax",%progbits
 371              		.align	1
 372              		.global	_Z15SetPwmDutyCyclehP9cell_asic8PWM_DUTY
 373              		.syntax unified
 374              		.thumb
 375              		.thumb_func
 377              	_Z15SetPwmDutyCyclehP9cell_asic8PWM_DUTY:
 378              		.fnstart
 379              	.LVL38:
 380              	.LFB251:
 202:Core/Src/adBms6830ParseCreate.cpp **** 
 203:Core/Src/adBms6830ParseCreate.cpp **** /**
 204:Core/Src/adBms6830ParseCreate.cpp ****  *******************************************************************************
 205:Core/Src/adBms6830ParseCreate.cpp ****  * Function: SetPwmDutyCycle
 206:Core/Src/adBms6830ParseCreate.cpp ****  * @brief Set PWM discharges duty cycle.
 207:Core/Src/adBms6830ParseCreate.cpp ****  *
 208:Core/Src/adBms6830ParseCreate.cpp ****  * @details This function Set PWM discharges duty cycle.
 209:Core/Src/adBms6830ParseCreate.cpp ****  *
 210:Core/Src/adBms6830ParseCreate.cpp ****  * Parameters:
 211:Core/Src/adBms6830ParseCreate.cpp ****  *
 212:Core/Src/adBms6830ParseCreate.cpp ****  * @param [in]  tIC                     Total IC
 213:Core/Src/adBms6830ParseCreate.cpp ****  *
 214:Core/Src/adBms6830ParseCreate.cpp ****  * @param [in]  *ic                     cell_asic ic structure pointer
 215:Core/Src/adBms6830ParseCreate.cpp ****  *
 216:Core/Src/adBms6830ParseCreate.cpp ****  * @param [in]  duty_cycle              Enum type PWM duty cycle value
 217:Core/Src/adBms6830ParseCreate.cpp ****  *
 218:Core/Src/adBms6830ParseCreate.cpp ****  * @return None
 219:Core/Src/adBms6830ParseCreate.cpp ****  *
 220:Core/Src/adBms6830ParseCreate.cpp ****  *******************************************************************************
 221:Core/Src/adBms6830ParseCreate.cpp **** */
 222:Core/Src/adBms6830ParseCreate.cpp **** void SetPwmDutyCycle(uint8_t tIC, cell_asic *ic, PWM_DUTY duty_cycle)
 223:Core/Src/adBms6830ParseCreate.cpp **** {
 381              		.loc 1 223 1 is_stmt 1 view -0
 382              		.cfi_startproc
 383              		@ args = 0, pretend = 0, frame = 0
 384              		@ frame_needed = 0, uses_anonymous_args = 0
 385              		.loc 1 223 1 is_stmt 0 view .LVU84
 386 0000 00B5     		push	{lr}
 387              	.LCFI3:
 388              		.cfi_def_cfa_offset 4
 389              		.cfi_offset 14, -4
 224:Core/Src/adBms6830ParseCreate.cpp ****   for(uint8_t curr_ic = 0; curr_ic < tIC; curr_ic++)
 390              		.loc 1 224 3 is_stmt 1 view .LVU85
 391              	.LVL39:
 392              	.LBB3:
 393              		.loc 1 224 15 is_stmt 0 view .LVU86
ARM GAS  C:\Users\huawei\AppData\Local\Temp\ccwYaMVL.s 			page 12


 394 0002 4FF0000E 		mov	lr, #0
 395              		.loc 1 224 3 view .LVU87
 396 0006 1BE0     		b	.L30
 397              	.LVL40:
 398              	.L31:
 399              	.LBB4:
 225:Core/Src/adBms6830ParseCreate.cpp ****   {
 226:Core/Src/adBms6830ParseCreate.cpp ****     for(uint8_t pwmc = 0; pwmc < PWMA; pwmc++)
 227:Core/Src/adBms6830ParseCreate.cpp ****     {
 228:Core/Src/adBms6830ParseCreate.cpp ****      ic[curr_ic].PwmA.pwma[pwmc] = duty_cycle;
 400              		.loc 1 228 6 is_stmt 1 discriminator 3 view .LVU88
 401              		.loc 1 228 16 is_stmt 0 discriminator 3 view .LVU89
 402 0008 4FF4287C 		mov	ip, #672
 403 000c 0CFB0E1C 		mla	ip, ip, lr, r1
 404              		.loc 1 228 34 discriminator 3 view .LVU90
 405 0010 9C44     		add	ip, ip, r3
 406 0012 8CF80921 		strb	r2, [ip, #265]
 226:Core/Src/adBms6830ParseCreate.cpp ****     {
 407              		.loc 1 226 5 is_stmt 1 discriminator 3 view .LVU91
 408 0016 0133     		adds	r3, r3, #1
 409              	.LVL41:
 226:Core/Src/adBms6830ParseCreate.cpp ****     {
 410              		.loc 1 226 5 is_stmt 0 discriminator 3 view .LVU92
 411 0018 DBB2     		uxtb	r3, r3
 412              	.LVL42:
 413              	.L34:
 226:Core/Src/adBms6830ParseCreate.cpp ****     {
 414              		.loc 1 226 32 is_stmt 1 discriminator 1 view .LVU93
 415 001a 0B2B     		cmp	r3, #11
 416 001c F4D9     		bls	.L31
 417              	.LBE4:
 418              	.LBB5:
 229:Core/Src/adBms6830ParseCreate.cpp ****     }
 230:Core/Src/adBms6830ParseCreate.cpp **** 
 231:Core/Src/adBms6830ParseCreate.cpp ****     for(uint8_t pwmc = 0; pwmc < PWMB; pwmc++)
 419              		.loc 1 231 17 is_stmt 0 view .LVU94
 420 001e 0023     		movs	r3, #0
 421              	.LVL43:
 422              		.loc 1 231 17 view .LVU95
 423 0020 08E0     		b	.L32
 424              	.LVL44:
 425              	.L33:
 232:Core/Src/adBms6830ParseCreate.cpp ****     {
 233:Core/Src/adBms6830ParseCreate.cpp ****      ic[curr_ic].PwmB.pwmb[pwmc] = duty_cycle;
 426              		.loc 1 233 6 is_stmt 1 discriminator 3 view .LVU96
 427              		.loc 1 233 16 is_stmt 0 discriminator 3 view .LVU97
 428 0022 4FF4287C 		mov	ip, #672
 429 0026 0CFB0E1C 		mla	ip, ip, lr, r1
 430              		.loc 1 233 34 discriminator 3 view .LVU98
 431 002a 9C44     		add	ip, ip, r3
 432 002c 8CF81521 		strb	r2, [ip, #277]
 231:Core/Src/adBms6830ParseCreate.cpp ****     {
 433              		.loc 1 231 5 is_stmt 1 discriminator 3 view .LVU99
 434 0030 0133     		adds	r3, r3, #1
 435              	.LVL45:
 231:Core/Src/adBms6830ParseCreate.cpp ****     {
 436              		.loc 1 231 5 is_stmt 0 discriminator 3 view .LVU100
ARM GAS  C:\Users\huawei\AppData\Local\Temp\ccwYaMVL.s 			page 13


 437 0032 DBB2     		uxtb	r3, r3
 438              	.LVL46:
 439              	.L32:
 231:Core/Src/adBms6830ParseCreate.cpp ****     {
 440              		.loc 1 231 32 is_stmt 1 discriminator 1 view .LVU101
 441 0034 032B     		cmp	r3, #3
 442 0036 F4D9     		bls	.L33
 443              	.LBE5:
 224:Core/Src/adBms6830ParseCreate.cpp ****   {
 444              		.loc 1 224 3 discriminator 2 view .LVU102
 445 0038 0EF1010E 		add	lr, lr, #1
 446              	.LVL47:
 224:Core/Src/adBms6830ParseCreate.cpp ****   {
 447              		.loc 1 224 3 is_stmt 0 discriminator 2 view .LVU103
 448 003c 5FFA8EFE 		uxtb	lr, lr
 449              	.LVL48:
 450              	.L30:
 224:Core/Src/adBms6830ParseCreate.cpp ****   {
 451              		.loc 1 224 36 is_stmt 1 discriminator 1 view .LVU104
 452 0040 8645     		cmp	lr, r0
 453 0042 01D2     		bcs	.L37
 454              	.LBB6:
 226:Core/Src/adBms6830ParseCreate.cpp ****     {
 455              		.loc 1 226 17 is_stmt 0 view .LVU105
 456 0044 0023     		movs	r3, #0
 457 0046 E8E7     		b	.L34
 458              	.L37:
 459              	.LBE6:
 460              	.LBE3:
 234:Core/Src/adBms6830ParseCreate.cpp ****     }
 235:Core/Src/adBms6830ParseCreate.cpp ****   }
 236:Core/Src/adBms6830ParseCreate.cpp **** }
 461              		.loc 1 236 1 view .LVU106
 462 0048 5DF804FB 		ldr	pc, [sp], #4
 463              		.cfi_endproc
 464              	.LFE251:
 465              		.cantunwind
 466              		.fnend
 468              		.section	.text._Z21adBms6830ParseConfigahP9cell_asicPh,"ax",%progbits
 469              		.align	1
 470              		.global	_Z21adBms6830ParseConfigahP9cell_asicPh
 471              		.syntax unified
 472              		.thumb
 473              		.thumb_func
 475              	_Z21adBms6830ParseConfigahP9cell_asicPh:
 476              		.fnstart
 477              	.LVL49:
 478              	.LFB252:
 237:Core/Src/adBms6830ParseCreate.cpp **** 
 238:Core/Src/adBms6830ParseCreate.cpp **** /**
 239:Core/Src/adBms6830ParseCreate.cpp ****  *******************************************************************************
 240:Core/Src/adBms6830ParseCreate.cpp ****  * Function: adBms6830ParseConfiga
 241:Core/Src/adBms6830ParseCreate.cpp ****  * @brief Parse the recived Configuration register A data
 242:Core/Src/adBms6830ParseCreate.cpp ****  *
 243:Core/Src/adBms6830ParseCreate.cpp ****  * @details This function Parse the recived Configuration register A data.
 244:Core/Src/adBms6830ParseCreate.cpp ****  *
 245:Core/Src/adBms6830ParseCreate.cpp ****  * Parameters:
ARM GAS  C:\Users\huawei\AppData\Local\Temp\ccwYaMVL.s 			page 14


 246:Core/Src/adBms6830ParseCreate.cpp ****  *
 247:Core/Src/adBms6830ParseCreate.cpp ****  * @param [in]  tIC                     Total IC
 248:Core/Src/adBms6830ParseCreate.cpp ****  *
 249:Core/Src/adBms6830ParseCreate.cpp ****  * @param [in]  *ic                      cell_asic ic structure pointer
 250:Core/Src/adBms6830ParseCreate.cpp ****  *
 251:Core/Src/adBms6830ParseCreate.cpp ****  * @param [in]  *data                    Data pointer
 252:Core/Src/adBms6830ParseCreate.cpp ****  *
 253:Core/Src/adBms6830ParseCreate.cpp ****  * @return None
 254:Core/Src/adBms6830ParseCreate.cpp ****  *
 255:Core/Src/adBms6830ParseCreate.cpp ****  *******************************************************************************
 256:Core/Src/adBms6830ParseCreate.cpp **** */
 257:Core/Src/adBms6830ParseCreate.cpp **** void adBms6830ParseConfiga(uint8_t tIC, cell_asic *ic, uint8_t *data)
 258:Core/Src/adBms6830ParseCreate.cpp **** {
 479              		.loc 1 258 1 is_stmt 1 view -0
 480              		.cfi_startproc
 481              		@ args = 0, pretend = 0, frame = 0
 482              		@ frame_needed = 0, uses_anonymous_args = 0
 483              		.loc 1 258 1 is_stmt 0 view .LVU108
 484 0000 70B5     		push	{r4, r5, r6, lr}
 485              	.LCFI4:
 486              		.cfi_def_cfa_offset 16
 487              		.cfi_offset 4, -16
 488              		.cfi_offset 5, -12
 489              		.cfi_offset 6, -8
 490              		.cfi_offset 14, -4
 259:Core/Src/adBms6830ParseCreate.cpp ****   uint8_t address = 0;
 491              		.loc 1 259 3 is_stmt 1 view .LVU109
 492              	.LVL50:
 260:Core/Src/adBms6830ParseCreate.cpp ****   for(uint8_t curr_ic = 0; curr_ic < tIC; curr_ic++)
 493              		.loc 1 260 3 view .LVU110
 494              	.LBB7:
 495              		.loc 1 260 15 is_stmt 0 view .LVU111
 496 0002 4FF0000C 		mov	ip, #0
 497              	.LBE7:
 259:Core/Src/adBms6830ParseCreate.cpp ****   uint8_t address = 0;
 498              		.loc 1 259 11 view .LVU112
 499 0006 6446     		mov	r4, ip
 500              	.LBB8:
 501              		.loc 1 260 3 view .LVU113
 502 0008 5AE0     		b	.L39
 503              	.LVL51:
 504              	.L40:
 261:Core/Src/adBms6830ParseCreate.cpp ****   {
 262:Core/Src/adBms6830ParseCreate.cpp ****     memcpy(&ic[curr_ic].configa.rx_data[0], &data[address], RX_DATA); /* dst , src , size */
 505              		.loc 1 262 5 is_stmt 1 discriminator 3 view .LVU114
 506              		.loc 1 262 23 is_stmt 0 discriminator 3 view .LVU115
 507 000a 4FF42873 		mov	r3, #672
 508 000e 03FB0C13 		mla	r3, r3, ip, r1
 509              		.loc 1 262 45 discriminator 3 view .LVU116
 510 0012 1619     		adds	r6, r2, r4
 511              		.loc 1 262 11 discriminator 3 view .LVU117
 512 0014 1559     		ldr	r5, [r2, r4]	@ unaligned
 513 0016 7468     		ldr	r4, [r6, #4]	@ unaligned
 514              	.LVL52:
 515              		.loc 1 262 11 discriminator 3 view .LVU118
 516 0018 C3F82551 		str	r5, [r3, #293]	@ unaligned
 517 001c C3F82941 		str	r4, [r3, #297]	@ unaligned
ARM GAS  C:\Users\huawei\AppData\Local\Temp\ccwYaMVL.s 			page 15


 263:Core/Src/adBms6830ParseCreate.cpp ****     address = ((curr_ic+1) * (RX_DATA));
 518              		.loc 1 263 5 is_stmt 1 discriminator 3 view .LVU119
 519              		.loc 1 263 13 is_stmt 0 discriminator 3 view .LVU120
 520 0020 0CF1010C 		add	ip, ip, #1
 521              	.LVL53:
 522              		.loc 1 263 13 discriminator 3 view .LVU121
 523 0024 5FFA8CFC 		uxtb	ip, ip
 524 0028 4FEACC04 		lsl	r4, ip, #3
 525 002c E4B2     		uxtb	r4, r4
 526              	.LVL54:
 264:Core/Src/adBms6830ParseCreate.cpp **** 
 265:Core/Src/adBms6830ParseCreate.cpp ****     ic[curr_ic].rx_cfga.cth = (ic[curr_ic].configa.rx_data[0] & 0x07);
 527              		.loc 1 265 5 is_stmt 1 discriminator 3 view .LVU122
 528              		.loc 1 265 61 is_stmt 0 discriminator 3 view .LVU123
 529 002e 93F825E1 		ldrb	lr, [r3, #293]	@ zero_extendqisi2
 530              		.loc 1 265 29 discriminator 3 view .LVU124
 531 0032 9D79     		ldrb	r5, [r3, #6]	@ zero_extendqisi2
 532 0034 6EF34305 		bfi	r5, lr, #1, #3
 533 0038 9D71     		strb	r5, [r3, #6]
 266:Core/Src/adBms6830ParseCreate.cpp ****     ic[curr_ic].rx_cfga.refon   = (ic[curr_ic].configa.rx_data[0] & 0x80) >> 7;
 534              		.loc 1 266 5 is_stmt 1 discriminator 3 view .LVU125
 535              		.loc 1 266 75 is_stmt 0 discriminator 3 view .LVU126
 536 003a 4FEADE1E 		lsr	lr, lr, #7
 537              		.loc 1 266 33 discriminator 3 view .LVU127
 538 003e EDB2     		uxtb	r5, r5
 539 0040 6EF30005 		bfi	r5, lr, #0, #1
 540 0044 9D71     		strb	r5, [r3, #6]
 267:Core/Src/adBms6830ParseCreate.cpp **** 
 268:Core/Src/adBms6830ParseCreate.cpp ****     ic[curr_ic].rx_cfga.flag_d  = (ic[curr_ic].configa.rx_data[1] & 0xFF);
 541              		.loc 1 268 5 is_stmt 1 discriminator 3 view .LVU128
 542              		.loc 1 268 65 is_stmt 0 discriminator 3 view .LVU129
 543 0046 93F82651 		ldrb	r5, [r3, #294]	@ zero_extendqisi2
 544              		.loc 1 268 33 discriminator 3 view .LVU130
 545 004a DD71     		strb	r5, [r3, #7]
 269:Core/Src/adBms6830ParseCreate.cpp **** 
 270:Core/Src/adBms6830ParseCreate.cpp ****     ic[curr_ic].rx_cfga.soakon   = (ic[curr_ic].configa.rx_data[2] & 0x80) >> 7;
 546              		.loc 1 270 5 is_stmt 1 discriminator 3 view .LVU131
 547              		.loc 1 270 66 is_stmt 0 discriminator 3 view .LVU132
 548 004c 93F827E1 		ldrb	lr, [r3, #295]	@ zero_extendqisi2
 549              		.loc 1 270 76 discriminator 3 view .LVU133
 550 0050 4FEADE16 		lsr	r6, lr, #7
 551              		.loc 1 270 34 discriminator 3 view .LVU134
 552 0054 1D7A     		ldrb	r5, [r3, #8]	@ zero_extendqisi2
 553 0056 66F30005 		bfi	r5, r6, #0, #1
 554 005a 1D72     		strb	r5, [r3, #8]
 271:Core/Src/adBms6830ParseCreate.cpp ****     ic[curr_ic].rx_cfga.owrng    = (((ic[curr_ic].configa.rx_data[2] & 0x40) >> 6));
 555              		.loc 1 271 5 is_stmt 1 discriminator 3 view .LVU135
 556              		.loc 1 271 78 is_stmt 0 discriminator 3 view .LVU136
 557 005c 4FEA9E16 		lsr	r6, lr, #6
 558              		.loc 1 271 34 discriminator 3 view .LVU137
 559 0060 EDB2     		uxtb	r5, r5
 560 0062 66F34105 		bfi	r5, r6, #1, #1
 561 0066 1D72     		strb	r5, [r3, #8]
 272:Core/Src/adBms6830ParseCreate.cpp ****     ic[curr_ic].rx_cfga.owa    = ( (ic[curr_ic].configa.rx_data[2] & 0x38) >> 3);
 562              		.loc 1 272 5 is_stmt 1 discriminator 3 view .LVU138
 563              		.loc 1 272 76 is_stmt 0 discriminator 3 view .LVU139
 564 0068 4FEADE0E 		lsr	lr, lr, #3
ARM GAS  C:\Users\huawei\AppData\Local\Temp\ccwYaMVL.s 			page 16


 565              		.loc 1 272 32 discriminator 3 view .LVU140
 566 006c EDB2     		uxtb	r5, r5
 567 006e 6EF38405 		bfi	r5, lr, #2, #3
 568 0072 1D72     		strb	r5, [r3, #8]
 273:Core/Src/adBms6830ParseCreate.cpp **** 
 274:Core/Src/adBms6830ParseCreate.cpp ****     ic[curr_ic].rx_cfga.gpo        = ( (ic[curr_ic].configa.rx_data[3] & 0xFF)| ((ic[curr_ic].confi
 569              		.loc 1 274 5 is_stmt 1 discriminator 3 view .LVU141
 570              		.loc 1 274 72 is_stmt 0 discriminator 3 view .LVU142
 571 0074 93F82851 		ldrb	r5, [r3, #296]	@ zero_extendqisi2
 572              		.loc 1 274 112 discriminator 3 view .LVU143
 573 0078 93F829E1 		ldrb	lr, [r3, #297]	@ zero_extendqisi2
 574              		.loc 1 274 122 discriminator 3 view .LVU144
 575 007c 4FEA0E2E 		lsl	lr, lr, #8
 576 0080 0EF4407E 		and	lr, lr, #768
 577              		.loc 1 274 79 discriminator 3 view .LVU145
 578 0084 45EA0E0E 		orr	lr, r5, lr
 579              		.loc 1 274 36 discriminator 3 view .LVU146
 580 0088 1D89     		ldrh	r5, [r3, #8]
 581 008a 6EF34E15 		bfi	r5, lr, #5, #10
 582 008e 1D81     		strh	r5, [r3, #8]	@ movhi
 275:Core/Src/adBms6830ParseCreate.cpp **** 
 276:Core/Src/adBms6830ParseCreate.cpp ****     ic[curr_ic].rx_cfga.snap   = ((ic[curr_ic].configa.rx_data[5] & 0x20) >> 5);
 583              		.loc 1 276 5 is_stmt 1 discriminator 3 view .LVU147
 584              		.loc 1 276 65 is_stmt 0 discriminator 3 view .LVU148
 585 0090 93F82AE1 		ldrb	lr, [r3, #298]	@ zero_extendqisi2
 586              		.loc 1 276 75 discriminator 3 view .LVU149
 587 0094 4FEA5E16 		lsr	r6, lr, #5
 588              		.loc 1 276 32 discriminator 3 view .LVU150
 589 0098 5D7A     		ldrb	r5, [r3, #9]	@ zero_extendqisi2
 590 009a 66F3C715 		bfi	r5, r6, #7, #1
 591 009e 5D72     		strb	r5, [r3, #9]
 277:Core/Src/adBms6830ParseCreate.cpp ****     ic[curr_ic].rx_cfga.mute_st   = ((ic[curr_ic].configa.rx_data[5] & 0x10) >> 4);
 592              		.loc 1 277 5 is_stmt 1 discriminator 3 view .LVU151
 593              		.loc 1 277 78 is_stmt 0 discriminator 3 view .LVU152
 594 00a0 4FEA1E16 		lsr	r6, lr, #4
 595              		.loc 1 277 35 discriminator 3 view .LVU153
 596 00a4 9D7A     		ldrb	r5, [r3, #10]	@ zero_extendqisi2
 597 00a6 66F30005 		bfi	r5, r6, #0, #1
 598 00aa 9D72     		strb	r5, [r3, #10]
 278:Core/Src/adBms6830ParseCreate.cpp ****     ic[curr_ic].rx_cfga.comm_bk   = ((ic[curr_ic].configa.rx_data[5] & 0x08) >> 3);
 599              		.loc 1 278 5 is_stmt 1 discriminator 3 view .LVU154
 600              		.loc 1 278 78 is_stmt 0 discriminator 3 view .LVU155
 601 00ac 4FEADE06 		lsr	r6, lr, #3
 602              		.loc 1 278 35 discriminator 3 view .LVU156
 603 00b0 EDB2     		uxtb	r5, r5
 604 00b2 66F34105 		bfi	r5, r6, #1, #1
 605 00b6 9D72     		strb	r5, [r3, #10]
 279:Core/Src/adBms6830ParseCreate.cpp ****     ic[curr_ic].rx_cfga.fc   = ((ic[curr_ic].configa.rx_data[5] & 0x07) >> 0);
 606              		.loc 1 279 5 is_stmt 1 discriminator 3 view .LVU157
 607              		.loc 1 279 30 is_stmt 0 discriminator 3 view .LVU158
 608 00b8 EDB2     		uxtb	r5, r5
 609 00ba 6EF38405 		bfi	r5, lr, #2, #3
 610 00be 9D72     		strb	r5, [r3, #10]
 260:Core/Src/adBms6830ParseCreate.cpp ****   {
 611              		.loc 1 260 3 is_stmt 1 discriminator 3 view .LVU159
 612              	.LVL55:
 613              	.L39:
ARM GAS  C:\Users\huawei\AppData\Local\Temp\ccwYaMVL.s 			page 17


 260:Core/Src/adBms6830ParseCreate.cpp ****   {
 614              		.loc 1 260 36 discriminator 1 view .LVU160
 615 00c0 8445     		cmp	ip, r0
 616 00c2 A2D3     		bcc	.L40
 617              	.LBE8:
 280:Core/Src/adBms6830ParseCreate.cpp ****   }
 281:Core/Src/adBms6830ParseCreate.cpp **** }
 618              		.loc 1 281 1 is_stmt 0 view .LVU161
 619 00c4 70BD     		pop	{r4, r5, r6, pc}
 620              		.loc 1 281 1 view .LVU162
 621              		.cfi_endproc
 622              	.LFE252:
 623              		.cantunwind
 624              		.fnend
 626              		.section	.text._Z21adBms6830ParseConfigbhP9cell_asicPh,"ax",%progbits
 627              		.align	1
 628              		.global	_Z21adBms6830ParseConfigbhP9cell_asicPh
 629              		.syntax unified
 630              		.thumb
 631              		.thumb_func
 633              	_Z21adBms6830ParseConfigbhP9cell_asicPh:
 634              		.fnstart
 635              	.LVL56:
 636              	.LFB253:
 282:Core/Src/adBms6830ParseCreate.cpp **** 
 283:Core/Src/adBms6830ParseCreate.cpp **** /**
 284:Core/Src/adBms6830ParseCreate.cpp ****  *******************************************************************************
 285:Core/Src/adBms6830ParseCreate.cpp ****  * Function: adBms6830ParseConfigb
 286:Core/Src/adBms6830ParseCreate.cpp ****  * @brief Parse the recived Configuration register B data
 287:Core/Src/adBms6830ParseCreate.cpp ****  *
 288:Core/Src/adBms6830ParseCreate.cpp ****  * @details This function Parse the recived Configuration register B data.
 289:Core/Src/adBms6830ParseCreate.cpp ****  *
 290:Core/Src/adBms6830ParseCreate.cpp ****  * Parameters:
 291:Core/Src/adBms6830ParseCreate.cpp ****  *
 292:Core/Src/adBms6830ParseCreate.cpp ****  * @param [in]  tIC                     Total IC
 293:Core/Src/adBms6830ParseCreate.cpp ****  *
 294:Core/Src/adBms6830ParseCreate.cpp ****  * @param [in]  *ic                     cell_asic ic structure pointer
 295:Core/Src/adBms6830ParseCreate.cpp ****  *
 296:Core/Src/adBms6830ParseCreate.cpp ****  * @param [in]  *data                   Data pointer
 297:Core/Src/adBms6830ParseCreate.cpp ****  *
 298:Core/Src/adBms6830ParseCreate.cpp ****  * @return None
 299:Core/Src/adBms6830ParseCreate.cpp ****  *
 300:Core/Src/adBms6830ParseCreate.cpp ****  *******************************************************************************
 301:Core/Src/adBms6830ParseCreate.cpp **** */
 302:Core/Src/adBms6830ParseCreate.cpp **** void adBms6830ParseConfigb(uint8_t tIC, cell_asic *ic, uint8_t *data)
 303:Core/Src/adBms6830ParseCreate.cpp **** {
 637              		.loc 1 303 1 is_stmt 1 view -0
 638              		.cfi_startproc
 639              		@ args = 0, pretend = 0, frame = 0
 640              		@ frame_needed = 0, uses_anonymous_args = 0
 641              		.loc 1 303 1 is_stmt 0 view .LVU164
 642 0000 70B5     		push	{r4, r5, r6, lr}
 643              	.LCFI5:
 644              		.cfi_def_cfa_offset 16
 645              		.cfi_offset 4, -16
 646              		.cfi_offset 5, -12
 647              		.cfi_offset 6, -8
ARM GAS  C:\Users\huawei\AppData\Local\Temp\ccwYaMVL.s 			page 18


 648              		.cfi_offset 14, -4
 304:Core/Src/adBms6830ParseCreate.cpp ****   uint8_t address = 0;
 649              		.loc 1 304 3 is_stmt 1 view .LVU165
 650              	.LVL57:
 305:Core/Src/adBms6830ParseCreate.cpp ****   for(uint8_t curr_ic = 0; curr_ic < tIC; curr_ic++)
 651              		.loc 1 305 3 view .LVU166
 652              	.LBB9:
 653              		.loc 1 305 15 is_stmt 0 view .LVU167
 654 0002 4FF0000C 		mov	ip, #0
 655              	.LBE9:
 304:Core/Src/adBms6830ParseCreate.cpp ****   uint8_t address = 0;
 656              		.loc 1 304 11 view .LVU168
 657 0006 6446     		mov	r4, ip
 658              	.LBB10:
 659              		.loc 1 305 3 view .LVU169
 660 0008 3DE0     		b	.L43
 661              	.LVL58:
 662              	.L44:
 306:Core/Src/adBms6830ParseCreate.cpp ****   {
 307:Core/Src/adBms6830ParseCreate.cpp ****     memcpy(&ic[curr_ic].configb.rx_data[0], &data[address], RX_DATA); /* dst , src , size */
 663              		.loc 1 307 5 is_stmt 1 discriminator 3 view .LVU170
 664              		.loc 1 307 23 is_stmt 0 discriminator 3 view .LVU171
 665 000a 4FF42873 		mov	r3, #672
 666 000e 03FB0C13 		mla	r3, r3, ip, r1
 667              		.loc 1 307 45 discriminator 3 view .LVU172
 668 0012 1619     		adds	r6, r2, r4
 669              		.loc 1 307 11 discriminator 3 view .LVU173
 670 0014 1559     		ldr	r5, [r2, r4]	@ unaligned
 671 0016 7468     		ldr	r4, [r6, #4]	@ unaligned
 672              	.LVL59:
 673              		.loc 1 307 11 discriminator 3 view .LVU174
 674 0018 C3F83351 		str	r5, [r3, #307]	@ unaligned
 675 001c C3F83741 		str	r4, [r3, #311]	@ unaligned
 308:Core/Src/adBms6830ParseCreate.cpp ****     address = ((curr_ic+1) * (RX_DATA));
 676              		.loc 1 308 5 is_stmt 1 discriminator 3 view .LVU175
 677              		.loc 1 308 13 is_stmt 0 discriminator 3 view .LVU176
 678 0020 0CF1010C 		add	ip, ip, #1
 679              	.LVL60:
 680              		.loc 1 308 13 discriminator 3 view .LVU177
 681 0024 5FFA8CFC 		uxtb	ip, ip
 682 0028 4FEACC04 		lsl	r4, ip, #3
 683 002c E4B2     		uxtb	r4, r4
 684              	.LVL61:
 309:Core/Src/adBms6830ParseCreate.cpp **** 
 310:Core/Src/adBms6830ParseCreate.cpp ****     ic[curr_ic].rx_cfgb.vuv = ((ic[curr_ic].configb.rx_data[0])  | ((ic[curr_ic].configb.rx_data[1]
 685              		.loc 1 310 5 is_stmt 1 discriminator 3 view .LVU178
 686              		.loc 1 310 62 is_stmt 0 discriminator 3 view .LVU179
 687 002e 93F83351 		ldrb	r5, [r3, #307]	@ zero_extendqisi2
 688              		.loc 1 310 99 discriminator 3 view .LVU180
 689 0032 93F834E1 		ldrb	lr, [r3, #308]	@ zero_extendqisi2
 690              		.loc 1 310 109 discriminator 3 view .LVU181
 691 0036 4FEA0E26 		lsl	r6, lr, #8
 692 003a 06F47066 		and	r6, r6, #3840
 693              		.loc 1 310 66 discriminator 3 view .LVU182
 694 003e 3543     		orrs	r5, r5, r6
 695              		.loc 1 310 29 discriminator 3 view .LVU183
 696 0040 9D82     		strh	r5, [r3, #20]	@ movhi
ARM GAS  C:\Users\huawei\AppData\Local\Temp\ccwYaMVL.s 			page 19


 311:Core/Src/adBms6830ParseCreate.cpp ****     ic[curr_ic].rx_cfgb.vov  = (ic[curr_ic].configb.rx_data[2]<<4)+((ic[curr_ic].configb.rx_data[1]
 697              		.loc 1 311 5 is_stmt 1 discriminator 3 view .LVU184
 698              		.loc 1 311 62 is_stmt 0 discriminator 3 view .LVU185
 699 0042 93F83551 		ldrb	r5, [r3, #309]	@ zero_extendqisi2
 700              		.loc 1 311 107 discriminator 3 view .LVU186
 701 0046 4FEA1E1E 		lsr	lr, lr, #4
 702              		.loc 1 311 67 discriminator 3 view .LVU187
 703 004a 0EEB051E 		add	lr, lr, r5, lsl #4
 704              		.loc 1 311 30 discriminator 3 view .LVU188
 705 004e A3F816E0 		strh	lr, [r3, #22]	@ movhi
 312:Core/Src/adBms6830ParseCreate.cpp ****     ic[curr_ic].rx_cfgb.dtmen = (((ic[curr_ic].configb.rx_data[3] & 0x80) >> 7));
 706              		.loc 1 312 5 is_stmt 1 discriminator 3 view .LVU189
 707              		.loc 1 312 65 is_stmt 0 discriminator 3 view .LVU190
 708 0052 93F836E1 		ldrb	lr, [r3, #310]	@ zero_extendqisi2
 709              		.loc 1 312 75 discriminator 3 view .LVU191
 710 0056 4FEADE16 		lsr	r6, lr, #7
 711              		.loc 1 312 31 discriminator 3 view .LVU192
 712 005a 1D7E     		ldrb	r5, [r3, #24]	@ zero_extendqisi2
 713 005c 66F30005 		bfi	r5, r6, #0, #1
 714 0060 1D76     		strb	r5, [r3, #24]
 313:Core/Src/adBms6830ParseCreate.cpp ****     ic[curr_ic].rx_cfgb.dtrng= ((ic[curr_ic].configb.rx_data[3] & 0x40) >> 6);
 715              		.loc 1 313 5 is_stmt 1 discriminator 3 view .LVU193
 716              		.loc 1 313 73 is_stmt 0 discriminator 3 view .LVU194
 717 0062 4FEA9E16 		lsr	r6, lr, #6
 718              		.loc 1 313 30 discriminator 3 view .LVU195
 719 0066 EDB2     		uxtb	r5, r5
 720 0068 66F34105 		bfi	r5, r6, #1, #1
 721 006c 1D76     		strb	r5, [r3, #24]
 314:Core/Src/adBms6830ParseCreate.cpp ****     ic[curr_ic].rx_cfgb.dcto   = ((ic[curr_ic].configb.rx_data[3] & 0x3F));
 722              		.loc 1 314 5 is_stmt 1 discriminator 3 view .LVU196
 723              		.loc 1 314 32 is_stmt 0 discriminator 3 view .LVU197
 724 006e EDB2     		uxtb	r5, r5
 725 0070 6EF38705 		bfi	r5, lr, #2, #6
 726 0074 1D76     		strb	r5, [r3, #24]
 315:Core/Src/adBms6830ParseCreate.cpp ****     ic[curr_ic].rx_cfgb.dcc = ((ic[curr_ic].configb.rx_data[4]) | ((ic[curr_ic].configb.rx_data[5] 
 727              		.loc 1 315 5 is_stmt 1 discriminator 3 view .LVU198
 728              		.loc 1 315 62 is_stmt 0 discriminator 3 view .LVU199
 729 0076 93F837E1 		ldrb	lr, [r3, #311]	@ zero_extendqisi2
 730              		.loc 1 315 98 discriminator 3 view .LVU200
 731 007a 93F83851 		ldrb	r5, [r3, #312]	@ zero_extendqisi2
 732              		.loc 1 315 65 discriminator 3 view .LVU201
 733 007e 4EEA052E 		orr	lr, lr, r5, lsl #8
 734              		.loc 1 315 29 discriminator 3 view .LVU202
 735 0082 A3F81AE0 		strh	lr, [r3, #26]	@ movhi
 305:Core/Src/adBms6830ParseCreate.cpp ****   {
 736              		.loc 1 305 3 is_stmt 1 discriminator 3 view .LVU203
 737              	.LVL62:
 738              	.L43:
 305:Core/Src/adBms6830ParseCreate.cpp ****   {
 739              		.loc 1 305 36 discriminator 1 view .LVU204
 740 0086 8445     		cmp	ip, r0
 741 0088 BFD3     		bcc	.L44
 742              	.LBE10:
 316:Core/Src/adBms6830ParseCreate.cpp ****   }
 317:Core/Src/adBms6830ParseCreate.cpp **** }
 743              		.loc 1 317 1 is_stmt 0 view .LVU205
 744 008a 70BD     		pop	{r4, r5, r6, pc}
ARM GAS  C:\Users\huawei\AppData\Local\Temp\ccwYaMVL.s 			page 20


 745              		.loc 1 317 1 view .LVU206
 746              		.cfi_endproc
 747              	.LFE253:
 748              		.cantunwind
 749              		.fnend
 751              		.section	.text._Z20adBms6830ParseConfighP9cell_asic3GRPPh,"ax",%progbits
 752              		.align	1
 753              		.global	_Z20adBms6830ParseConfighP9cell_asic3GRPPh
 754              		.syntax unified
 755              		.thumb
 756              		.thumb_func
 758              	_Z20adBms6830ParseConfighP9cell_asic3GRPPh:
 759              		.fnstart
 760              	.LVL63:
 761              	.LFB254:
 318:Core/Src/adBms6830ParseCreate.cpp **** 
 319:Core/Src/adBms6830ParseCreate.cpp **** /**
 320:Core/Src/adBms6830ParseCreate.cpp ****  *******************************************************************************
 321:Core/Src/adBms6830ParseCreate.cpp ****  * Function: adBms6830ParseConfig
 322:Core/Src/adBms6830ParseCreate.cpp ****  * @brief Parse the recived Configuration register A & B data
 323:Core/Src/adBms6830ParseCreate.cpp ****  *
 324:Core/Src/adBms6830ParseCreate.cpp ****  * @details This function Parse the recived Configuration register A & B data.
 325:Core/Src/adBms6830ParseCreate.cpp ****  *
 326:Core/Src/adBms6830ParseCreate.cpp ****  * Parameters:
 327:Core/Src/adBms6830ParseCreate.cpp ****  *
 328:Core/Src/adBms6830ParseCreate.cpp ****  * @param [in]  tIC                     Total IC
 329:Core/Src/adBms6830ParseCreate.cpp ****  *
 330:Core/Src/adBms6830ParseCreate.cpp ****  * @param [in]  *ic                     cell_asic ic structure pointer
 331:Core/Src/adBms6830ParseCreate.cpp ****  *
 332:Core/Src/adBms6830ParseCreate.cpp ****  * @param [in]  grp                     Enum type register group
 333:Core/Src/adBms6830ParseCreate.cpp ****  *
 334:Core/Src/adBms6830ParseCreate.cpp ****  * @param [in]  *data                   Data pointer
 335:Core/Src/adBms6830ParseCreate.cpp ****  *
 336:Core/Src/adBms6830ParseCreate.cpp ****  * @return None
 337:Core/Src/adBms6830ParseCreate.cpp ****  *
 338:Core/Src/adBms6830ParseCreate.cpp ****  *******************************************************************************
 339:Core/Src/adBms6830ParseCreate.cpp **** */
 340:Core/Src/adBms6830ParseCreate.cpp **** void adBms6830ParseConfig(uint8_t tIC, cell_asic *ic, GRP grp, uint8_t *data)
 341:Core/Src/adBms6830ParseCreate.cpp **** {
 762              		.loc 1 341 1 is_stmt 1 view -0
 763              		.cfi_startproc
 764              		@ args = 0, pretend = 0, frame = 0
 765              		@ frame_needed = 0, uses_anonymous_args = 0
 766              		.loc 1 341 1 is_stmt 0 view .LVU208
 767 0000 08B5     		push	{r3, lr}
 768              	.LCFI6:
 769              		.cfi_def_cfa_offset 8
 770              		.cfi_offset 3, -8
 771              		.cfi_offset 14, -4
 772 0002 9446     		mov	ip, r2
 773 0004 1A46     		mov	r2, r3
 774              	.LVL64:
 342:Core/Src/adBms6830ParseCreate.cpp ****   switch (grp)
 775              		.loc 1 342 3 is_stmt 1 view .LVU209
 776 0006 BCF1010F 		cmp	ip, #1
 777 000a 03D0     		beq	.L47
 778 000c BCF1020F 		cmp	ip, #2
ARM GAS  C:\Users\huawei\AppData\Local\Temp\ccwYaMVL.s 			page 21


 779 0010 03D0     		beq	.L48
 780              	.LVL65:
 781              	.L46:
 343:Core/Src/adBms6830ParseCreate.cpp ****   {
 344:Core/Src/adBms6830ParseCreate.cpp ****   case A:
 345:Core/Src/adBms6830ParseCreate.cpp ****     adBms6830ParseConfiga(tIC, &ic[0], &data[0]);
 346:Core/Src/adBms6830ParseCreate.cpp ****     break;
 347:Core/Src/adBms6830ParseCreate.cpp **** 
 348:Core/Src/adBms6830ParseCreate.cpp ****   case B:
 349:Core/Src/adBms6830ParseCreate.cpp ****     adBms6830ParseConfigb(tIC, &ic[0], &data[0]);
 350:Core/Src/adBms6830ParseCreate.cpp ****     break;
 351:Core/Src/adBms6830ParseCreate.cpp **** 
 352:Core/Src/adBms6830ParseCreate.cpp ****   default:
 353:Core/Src/adBms6830ParseCreate.cpp ****     break;
 354:Core/Src/adBms6830ParseCreate.cpp ****   }
 355:Core/Src/adBms6830ParseCreate.cpp **** }
 782              		.loc 1 355 1 is_stmt 0 view .LVU210
 783 0012 08BD     		pop	{r3, pc}
 784              	.LVL66:
 785              	.L47:
 344:Core/Src/adBms6830ParseCreate.cpp ****     adBms6830ParseConfiga(tIC, &ic[0], &data[0]);
 786              		.loc 1 344 3 is_stmt 1 view .LVU211
 345:Core/Src/adBms6830ParseCreate.cpp ****     break;
 787              		.loc 1 345 5 view .LVU212
 345:Core/Src/adBms6830ParseCreate.cpp ****     break;
 788              		.loc 1 345 26 is_stmt 0 view .LVU213
 789 0014 FFF7FEFF 		bl	_Z21adBms6830ParseConfigahP9cell_asicPh
 790              	.LVL67:
 346:Core/Src/adBms6830ParseCreate.cpp **** 
 791              		.loc 1 346 5 is_stmt 1 view .LVU214
 792 0018 FBE7     		b	.L46
 793              	.LVL68:
 794              	.L48:
 348:Core/Src/adBms6830ParseCreate.cpp ****     adBms6830ParseConfigb(tIC, &ic[0], &data[0]);
 795              		.loc 1 348 3 view .LVU215
 349:Core/Src/adBms6830ParseCreate.cpp ****     break;
 796              		.loc 1 349 5 view .LVU216
 349:Core/Src/adBms6830ParseCreate.cpp ****     break;
 797              		.loc 1 349 26 is_stmt 0 view .LVU217
 798 001a FFF7FEFF 		bl	_Z21adBms6830ParseConfigbhP9cell_asicPh
 799              	.LVL69:
 350:Core/Src/adBms6830ParseCreate.cpp **** 
 800              		.loc 1 350 5 is_stmt 1 view .LVU218
 801              		.loc 1 355 1 is_stmt 0 view .LVU219
 802 001e F8E7     		b	.L46
 803              		.cfi_endproc
 804              	.LFE254:
 805              		.cantunwind
 806              		.fnend
 808              		.section	.rodata._Z18adBms6830ParseCellhP9cell_asic3GRPPh.str1.4,"aMS",%progbits,1
 809              		.align	2
 810              	.LC0:
 811 0000 20466169 		.ascii	" Failed to allocate parse cell memory \000"
 811      6C656420 
 811      746F2061 
 811      6C6C6F63 
 811      61746520 
ARM GAS  C:\Users\huawei\AppData\Local\Temp\ccwYaMVL.s 			page 22


 812              		.section	.text._Z18adBms6830ParseCellhP9cell_asic3GRPPh,"ax",%progbits
 813              		.align	1
 814              		.global	_Z18adBms6830ParseCellhP9cell_asic3GRPPh
 815              		.syntax unified
 816              		.thumb
 817              		.thumb_func
 819              	_Z18adBms6830ParseCellhP9cell_asic3GRPPh:
 820              		.fnstart
 821              	.LVL70:
 822              	.LFB255:
 356:Core/Src/adBms6830ParseCreate.cpp **** 
 357:Core/Src/adBms6830ParseCreate.cpp **** /**
 358:Core/Src/adBms6830ParseCreate.cpp ****  *******************************************************************************
 359:Core/Src/adBms6830ParseCreate.cpp ****  * Function: adBms6830ParseCell
 360:Core/Src/adBms6830ParseCreate.cpp ****  * @brief Parse cell voltages
 361:Core/Src/adBms6830ParseCreate.cpp ****  *
 362:Core/Src/adBms6830ParseCreate.cpp ****  * @details This function Parse the recived cell register A,B,C,D,E and F data.
 363:Core/Src/adBms6830ParseCreate.cpp ****  *
 364:Core/Src/adBms6830ParseCreate.cpp ****  * Parameters:
 365:Core/Src/adBms6830ParseCreate.cpp ****  *
 366:Core/Src/adBms6830ParseCreate.cpp ****  * @param [in]  tIC                     Total IC
 367:Core/Src/adBms6830ParseCreate.cpp ****  *
 368:Core/Src/adBms6830ParseCreate.cpp ****  * @param [in]  *ic                     cell_asic ic structure pointer
 369:Core/Src/adBms6830ParseCreate.cpp ****  *
 370:Core/Src/adBms6830ParseCreate.cpp ****  * @param [in]  grp                     Enum type register group
 371:Core/Src/adBms6830ParseCreate.cpp ****  *
 372:Core/Src/adBms6830ParseCreate.cpp ****  * @param [in]  *cv_data                Cell voltage data pointer
 373:Core/Src/adBms6830ParseCreate.cpp ****  *
 374:Core/Src/adBms6830ParseCreate.cpp ****  * @return None
 375:Core/Src/adBms6830ParseCreate.cpp ****  *
 376:Core/Src/adBms6830ParseCreate.cpp ****  *******************************************************************************
 377:Core/Src/adBms6830ParseCreate.cpp **** */
 378:Core/Src/adBms6830ParseCreate.cpp **** /* Parse cell voltages */
 379:Core/Src/adBms6830ParseCreate.cpp **** void adBms6830ParseCell(uint8_t tIC, cell_asic *ic, GRP grp, uint8_t *cv_data)
 380:Core/Src/adBms6830ParseCreate.cpp **** {
 823              		.loc 1 380 1 is_stmt 1 view -0
 824              		.cfi_startproc
 825              		@ args = 0, pretend = 0, frame = 0
 826              		@ frame_needed = 0, uses_anonymous_args = 0
 827              		.loc 1 380 1 is_stmt 0 view .LVU221
 828 0000 2DE9F84F 		push	{r3, r4, r5, r6, r7, r8, r9, r10, fp, lr}
 829              		.save {r3, r4, r5, r6, r7, r8, r9, r10, fp, lr}
 830              	.LCFI7:
 831              		.cfi_def_cfa_offset 40
 832              		.cfi_offset 3, -40
 833              		.cfi_offset 4, -36
 834              		.cfi_offset 5, -32
 835              		.cfi_offset 6, -28
 836              		.cfi_offset 7, -24
 837              		.cfi_offset 8, -20
 838              		.cfi_offset 9, -16
 839              		.cfi_offset 10, -12
 840              		.cfi_offset 11, -8
 841              		.cfi_offset 14, -4
 842 0004 0746     		mov	r7, r0
 843 0006 8A46     		mov	r10, r1
 844 0008 9946     		mov	r9, r3
ARM GAS  C:\Users\huawei\AppData\Local\Temp\ccwYaMVL.s 			page 23


 381:Core/Src/adBms6830ParseCreate.cpp ****   uint8_t *data, data_size, address = 0;
 845              		.loc 1 381 3 is_stmt 1 view .LVU222
 846              	.LVL71:
 382:Core/Src/adBms6830ParseCreate.cpp ****   if(grp == ALL_GRP){data_size = RDCVALL_SIZE;}
 847              		.loc 1 382 3 view .LVU223
 848 000a 1646     		mov	r6, r2
 849 000c 5AB9     		cbnz	r2, .L64
 850              		.loc 1 382 32 is_stmt 0 view .LVU224
 851 000e 4FF02208 		mov	r8, #34
 852              	.L52:
 853              	.LVL72:
 383:Core/Src/adBms6830ParseCreate.cpp ****   else {data_size = RX_DATA;}
 384:Core/Src/adBms6830ParseCreate.cpp ****   data = (uint8_t *)calloc(data_size, sizeof(uint8_t));
 854              		.loc 1 384 3 is_stmt 1 view .LVU225
 855              		.loc 1 384 27 is_stmt 0 view .LVU226
 856 0012 C346     		mov	fp, r8
 857 0014 0121     		movs	r1, #1
 858              	.LVL73:
 859              		.loc 1 384 27 view .LVU227
 860 0016 4046     		mov	r0, r8
 861              	.LVL74:
 862              		.loc 1 384 27 view .LVU228
 863 0018 FFF7FEFF 		bl	calloc
 864              	.LVL75:
 385:Core/Src/adBms6830ParseCreate.cpp ****   if(data == NULL)
 865              		.loc 1 385 3 is_stmt 1 view .LVU229
 866 001c 0446     		mov	r4, r0
 867 001e 28B1     		cbz	r0, .L68
 868              	.LBB11:
 386:Core/Src/adBms6830ParseCreate.cpp ****   {
 387:Core/Src/adBms6830ParseCreate.cpp ****     #ifdef MBED
 388:Core/Src/adBms6830ParseCreate.cpp ****     pc.printf(" Failed to allocate parse cell memory \n");
 389:Core/Src/adBms6830ParseCreate.cpp ****     #else
 390:Core/Src/adBms6830ParseCreate.cpp ****     printf(" Failed to allocate parse cell memory \n");
 391:Core/Src/adBms6830ParseCreate.cpp ****     #endif
 392:Core/Src/adBms6830ParseCreate.cpp ****     exit(0);
 393:Core/Src/adBms6830ParseCreate.cpp ****   }
 394:Core/Src/adBms6830ParseCreate.cpp ****   for(uint8_t curr_ic = 0; curr_ic < tIC; curr_ic++)
 869              		.loc 1 394 15 is_stmt 0 view .LVU230
 870 0020 0025     		movs	r5, #0
 871              	.LBE11:
 381:Core/Src/adBms6830ParseCreate.cpp ****   if(grp == ALL_GRP){data_size = RDCVALL_SIZE;}
 872              		.loc 1 381 29 view .LVU231
 873 0022 2946     		mov	r1, r5
 874 0024 1DE0     		b	.L53
 875              	.LVL76:
 876              	.L64:
 383:Core/Src/adBms6830ParseCreate.cpp ****   data = (uint8_t *)calloc(data_size, sizeof(uint8_t));
 877              		.loc 1 383 19 view .LVU232
 878 0026 4FF00808 		mov	r8, #8
 879 002a F2E7     		b	.L52
 880              	.LVL77:
 881              	.L68:
 390:Core/Src/adBms6830ParseCreate.cpp ****     #endif
 882              		.loc 1 390 5 is_stmt 1 view .LVU233
 390:Core/Src/adBms6830ParseCreate.cpp ****     #endif
 883              		.loc 1 390 11 is_stmt 0 view .LVU234
ARM GAS  C:\Users\huawei\AppData\Local\Temp\ccwYaMVL.s 			page 24


 884 002c 7A48     		ldr	r0, .L70
 885              	.LVL78:
 390:Core/Src/adBms6830ParseCreate.cpp ****     #endif
 886              		.loc 1 390 11 view .LVU235
 887 002e FFF7FEFF 		bl	puts
 888              	.LVL79:
 392:Core/Src/adBms6830ParseCreate.cpp ****   }
 889              		.loc 1 392 5 is_stmt 1 view .LVU236
 392:Core/Src/adBms6830ParseCreate.cpp ****   }
 890              		.loc 1 392 9 is_stmt 0 view .LVU237
 891 0032 0020     		movs	r0, #0
 892 0034 FFF7FEFF 		bl	exit
 893              	.LVL80:
 894              	.L61:
 895              	.LBB12:
 395:Core/Src/adBms6830ParseCreate.cpp ****   {
 396:Core/Src/adBms6830ParseCreate.cpp ****     memcpy(&data[0], &cv_data[address], data_size); /* dst , src , size */
 397:Core/Src/adBms6830ParseCreate.cpp ****     address = ((curr_ic+1) * (data_size));
 398:Core/Src/adBms6830ParseCreate.cpp ****     switch (grp)
 399:Core/Src/adBms6830ParseCreate.cpp ****     {
 400:Core/Src/adBms6830ParseCreate.cpp ****     case A: /* Cell Register group A */
 896              		.loc 1 400 5 is_stmt 1 view .LVU238
 401:Core/Src/adBms6830ParseCreate.cpp ****       ic[curr_ic].cell.c_codes[0] = (data[0] + (data[1] << 8));
 897              		.loc 1 401 7 view .LVU239
 898              		.loc 1 401 44 is_stmt 0 view .LVU240
 899 0038 2078     		ldrb	r0, [r4]	@ zero_extendqisi2
 900              		.loc 1 401 55 view .LVU241
 901 003a 94F801C0 		ldrb	ip, [r4, #1]	@ zero_extendqisi2
 902              		.loc 1 401 17 view .LVU242
 903 003e 4FF42872 		mov	r2, #672
 904 0042 02FB05A2 		mla	r2, r2, r5, r10
 905              		.loc 1 401 46 view .LVU243
 906 0046 00EB0C20 		add	r0, r0, ip, lsl #8
 907              		.loc 1 401 35 view .LVU244
 908 004a 1084     		strh	r0, [r2, #32]	@ movhi
 402:Core/Src/adBms6830ParseCreate.cpp ****       ic[curr_ic].cell.c_codes[1] = (data[2] + (data[3] << 8));
 909              		.loc 1 402 7 is_stmt 1 view .LVU245
 910              		.loc 1 402 44 is_stmt 0 view .LVU246
 911 004c A078     		ldrb	r0, [r4, #2]	@ zero_extendqisi2
 912              		.loc 1 402 55 view .LVU247
 913 004e E578     		ldrb	r5, [r4, #3]	@ zero_extendqisi2
 914              	.LVL81:
 915              		.loc 1 402 46 view .LVU248
 916 0050 00EB0520 		add	r0, r0, r5, lsl #8
 917              		.loc 1 402 35 view .LVU249
 918 0054 5084     		strh	r0, [r2, #34]	@ movhi
 403:Core/Src/adBms6830ParseCreate.cpp ****       ic[curr_ic].cell.c_codes[2] = (data[4] + (data[5] << 8));
 919              		.loc 1 403 7 is_stmt 1 view .LVU250
 920              		.loc 1 403 44 is_stmt 0 view .LVU251
 921 0056 2079     		ldrb	r0, [r4, #4]	@ zero_extendqisi2
 922              		.loc 1 403 55 view .LVU252
 923 0058 6579     		ldrb	r5, [r4, #5]	@ zero_extendqisi2
 924              		.loc 1 403 46 view .LVU253
 925 005a 00EB0520 		add	r0, r0, r5, lsl #8
 926              		.loc 1 403 35 view .LVU254
 927 005e 9084     		strh	r0, [r2, #36]	@ movhi
 404:Core/Src/adBms6830ParseCreate.cpp ****       break;
ARM GAS  C:\Users\huawei\AppData\Local\Temp\ccwYaMVL.s 			page 25


 928              		.loc 1 404 7 is_stmt 1 view .LVU255
 929              	.L54:
 930              		.loc 1 404 7 is_stmt 0 view .LVU256
 931              	.LBE12:
 383:Core/Src/adBms6830ParseCreate.cpp ****   data = (uint8_t *)calloc(data_size, sizeof(uint8_t));
 932              		.loc 1 383 19 discriminator 1 view .LVU257
 933 0060 1D46     		mov	r5, r3
 934              	.LVL82:
 935              	.L53:
 936              	.LBB13:
 394:Core/Src/adBms6830ParseCreate.cpp ****   {
 937              		.loc 1 394 36 is_stmt 1 discriminator 1 view .LVU258
 938 0062 BD42     		cmp	r5, r7
 939 0064 80F0D380 		bcs	.L69
 396:Core/Src/adBms6830ParseCreate.cpp ****     address = ((curr_ic+1) * (data_size));
 940              		.loc 1 396 5 view .LVU259
 396:Core/Src/adBms6830ParseCreate.cpp ****     address = ((curr_ic+1) * (data_size));
 941              		.loc 1 396 11 is_stmt 0 view .LVU260
 942 0068 5A46     		mov	r2, fp
 943 006a 4944     		add	r1, r1, r9
 944              	.LVL83:
 396:Core/Src/adBms6830ParseCreate.cpp ****     address = ((curr_ic+1) * (data_size));
 945              		.loc 1 396 11 view .LVU261
 946 006c 2046     		mov	r0, r4
 947 006e FFF7FEFF 		bl	memcpy
 948              	.LVL84:
 397:Core/Src/adBms6830ParseCreate.cpp ****     switch (grp)
 949              		.loc 1 397 5 is_stmt 1 view .LVU262
 397:Core/Src/adBms6830ParseCreate.cpp ****     switch (grp)
 950              		.loc 1 397 13 is_stmt 0 view .LVU263
 951 0072 6B1C     		adds	r3, r5, #1
 952 0074 DBB2     		uxtb	r3, r3
 953 0076 13FB08F1 		smulbb	r1, r3, r8
 954 007a C9B2     		uxtb	r1, r1
 955              	.LVL85:
 398:Core/Src/adBms6830ParseCreate.cpp ****     {
 956              		.loc 1 398 5 is_stmt 1 view .LVU264
 957 007c 062E     		cmp	r6, #6
 958 007e EFD8     		bhi	.L54
 959 0080 01A2     		adr	r2, .L56
 960 0082 52F826F0 		ldr	pc, [r2, r6, lsl #2]
 961 0086 00BF     		.p2align 2
 962              	.L56:
 963 0088 63010000 		.word	.L62+1
 964 008c 39000000 		.word	.L61+1
 965 0090 A5000000 		.word	.L60+1
 966 0094 CF000000 		.word	.L59+1
 967 0098 F9000000 		.word	.L58+1
 968 009c 23010000 		.word	.L57+1
 969 00a0 4D010000 		.word	.L55+1
 970              		.p2align 1
 971              	.L60:
 405:Core/Src/adBms6830ParseCreate.cpp **** 
 406:Core/Src/adBms6830ParseCreate.cpp ****     case B: /* Cell Register group B */
 972              		.loc 1 406 5 view .LVU265
 407:Core/Src/adBms6830ParseCreate.cpp ****       ic[curr_ic].cell.c_codes[3] = (data[0] + (data[1] << 8));
 973              		.loc 1 407 7 view .LVU266
ARM GAS  C:\Users\huawei\AppData\Local\Temp\ccwYaMVL.s 			page 26


 974              		.loc 1 407 44 is_stmt 0 view .LVU267
 975 00a4 2078     		ldrb	r0, [r4]	@ zero_extendqisi2
 976              		.loc 1 407 55 view .LVU268
 977 00a6 94F801C0 		ldrb	ip, [r4, #1]	@ zero_extendqisi2
 978              		.loc 1 407 17 view .LVU269
 979 00aa 4FF42872 		mov	r2, #672
 980 00ae 02FB05A2 		mla	r2, r2, r5, r10
 981              		.loc 1 407 46 view .LVU270
 982 00b2 00EB0C20 		add	r0, r0, ip, lsl #8
 983              		.loc 1 407 35 view .LVU271
 984 00b6 D084     		strh	r0, [r2, #38]	@ movhi
 408:Core/Src/adBms6830ParseCreate.cpp ****       ic[curr_ic].cell.c_codes[4] = (data[2] + (data[3] << 8));
 985              		.loc 1 408 7 is_stmt 1 view .LVU272
 986              		.loc 1 408 44 is_stmt 0 view .LVU273
 987 00b8 A078     		ldrb	r0, [r4, #2]	@ zero_extendqisi2
 988              		.loc 1 408 55 view .LVU274
 989 00ba E578     		ldrb	r5, [r4, #3]	@ zero_extendqisi2
 990              	.LVL86:
 991              		.loc 1 408 46 view .LVU275
 992 00bc 00EB0520 		add	r0, r0, r5, lsl #8
 993              		.loc 1 408 35 view .LVU276
 994 00c0 1085     		strh	r0, [r2, #40]	@ movhi
 409:Core/Src/adBms6830ParseCreate.cpp ****       ic[curr_ic].cell.c_codes[5] = (data[4] + (data[5] << 8));
 995              		.loc 1 409 7 is_stmt 1 view .LVU277
 996              		.loc 1 409 44 is_stmt 0 view .LVU278
 997 00c2 2079     		ldrb	r0, [r4, #4]	@ zero_extendqisi2
 998              		.loc 1 409 55 view .LVU279
 999 00c4 6579     		ldrb	r5, [r4, #5]	@ zero_extendqisi2
 1000              		.loc 1 409 46 view .LVU280
 1001 00c6 00EB0520 		add	r0, r0, r5, lsl #8
 1002              		.loc 1 409 35 view .LVU281
 1003 00ca 5085     		strh	r0, [r2, #42]	@ movhi
 410:Core/Src/adBms6830ParseCreate.cpp ****       break;
 1004              		.loc 1 410 7 is_stmt 1 view .LVU282
 1005 00cc C8E7     		b	.L54
 1006              	.LVL87:
 1007              	.L59:
 411:Core/Src/adBms6830ParseCreate.cpp **** 
 412:Core/Src/adBms6830ParseCreate.cpp ****     case C: /* Cell Register group C */
 1008              		.loc 1 412 5 view .LVU283
 413:Core/Src/adBms6830ParseCreate.cpp ****       ic[curr_ic].cell.c_codes[6] = (data[0] + (data[1] << 8));
 1009              		.loc 1 413 7 view .LVU284
 1010              		.loc 1 413 44 is_stmt 0 view .LVU285
 1011 00ce 2078     		ldrb	r0, [r4]	@ zero_extendqisi2
 1012              		.loc 1 413 55 view .LVU286
 1013 00d0 94F801C0 		ldrb	ip, [r4, #1]	@ zero_extendqisi2
 1014              		.loc 1 413 17 view .LVU287
 1015 00d4 4FF42872 		mov	r2, #672
 1016 00d8 02FB05A2 		mla	r2, r2, r5, r10
 1017              		.loc 1 413 46 view .LVU288
 1018 00dc 00EB0C20 		add	r0, r0, ip, lsl #8
 1019              		.loc 1 413 35 view .LVU289
 1020 00e0 9085     		strh	r0, [r2, #44]	@ movhi
 414:Core/Src/adBms6830ParseCreate.cpp ****       ic[curr_ic].cell.c_codes[7] = (data[2] + (data[3] << 8));
 1021              		.loc 1 414 7 is_stmt 1 view .LVU290
 1022              		.loc 1 414 44 is_stmt 0 view .LVU291
 1023 00e2 A078     		ldrb	r0, [r4, #2]	@ zero_extendqisi2
ARM GAS  C:\Users\huawei\AppData\Local\Temp\ccwYaMVL.s 			page 27


 1024              		.loc 1 414 55 view .LVU292
 1025 00e4 E578     		ldrb	r5, [r4, #3]	@ zero_extendqisi2
 1026              	.LVL88:
 1027              		.loc 1 414 46 view .LVU293
 1028 00e6 00EB0520 		add	r0, r0, r5, lsl #8
 1029              		.loc 1 414 35 view .LVU294
 1030 00ea D085     		strh	r0, [r2, #46]	@ movhi
 415:Core/Src/adBms6830ParseCreate.cpp ****       ic[curr_ic].cell.c_codes[8] = (data[4] + (data[5] << 8));
 1031              		.loc 1 415 7 is_stmt 1 view .LVU295
 1032              		.loc 1 415 44 is_stmt 0 view .LVU296
 1033 00ec 2079     		ldrb	r0, [r4, #4]	@ zero_extendqisi2
 1034              		.loc 1 415 55 view .LVU297
 1035 00ee 6579     		ldrb	r5, [r4, #5]	@ zero_extendqisi2
 1036              		.loc 1 415 46 view .LVU298
 1037 00f0 00EB0520 		add	r0, r0, r5, lsl #8
 1038              		.loc 1 415 35 view .LVU299
 1039 00f4 1086     		strh	r0, [r2, #48]	@ movhi
 416:Core/Src/adBms6830ParseCreate.cpp ****       break;
 1040              		.loc 1 416 7 is_stmt 1 view .LVU300
 1041 00f6 B3E7     		b	.L54
 1042              	.LVL89:
 1043              	.L58:
 417:Core/Src/adBms6830ParseCreate.cpp **** 
 418:Core/Src/adBms6830ParseCreate.cpp ****     case D: /* Cell Register group D */
 1044              		.loc 1 418 5 view .LVU301
 419:Core/Src/adBms6830ParseCreate.cpp ****       ic[curr_ic].cell.c_codes[9] =  (data[0] + (data[1] << 8));
 1045              		.loc 1 419 7 view .LVU302
 1046              		.loc 1 419 45 is_stmt 0 view .LVU303
 1047 00f8 2078     		ldrb	r0, [r4]	@ zero_extendqisi2
 1048              		.loc 1 419 56 view .LVU304
 1049 00fa 94F801C0 		ldrb	ip, [r4, #1]	@ zero_extendqisi2
 1050              		.loc 1 419 17 view .LVU305
 1051 00fe 4FF42872 		mov	r2, #672
 1052 0102 02FB05A2 		mla	r2, r2, r5, r10
 1053              		.loc 1 419 47 view .LVU306
 1054 0106 00EB0C20 		add	r0, r0, ip, lsl #8
 1055              		.loc 1 419 35 view .LVU307
 1056 010a 5086     		strh	r0, [r2, #50]	@ movhi
 420:Core/Src/adBms6830ParseCreate.cpp ****       ic[curr_ic].cell.c_codes[10] = (data[2] + (data[3] << 8));
 1057              		.loc 1 420 7 is_stmt 1 view .LVU308
 1058              		.loc 1 420 45 is_stmt 0 view .LVU309
 1059 010c A078     		ldrb	r0, [r4, #2]	@ zero_extendqisi2
 1060              		.loc 1 420 56 view .LVU310
 1061 010e E578     		ldrb	r5, [r4, #3]	@ zero_extendqisi2
 1062              	.LVL90:
 1063              		.loc 1 420 47 view .LVU311
 1064 0110 00EB0520 		add	r0, r0, r5, lsl #8
 1065              		.loc 1 420 36 view .LVU312
 1066 0114 9086     		strh	r0, [r2, #52]	@ movhi
 421:Core/Src/adBms6830ParseCreate.cpp ****       ic[curr_ic].cell.c_codes[11] = (data[4] + (data[5] << 8));
 1067              		.loc 1 421 7 is_stmt 1 view .LVU313
 1068              		.loc 1 421 45 is_stmt 0 view .LVU314
 1069 0116 2079     		ldrb	r0, [r4, #4]	@ zero_extendqisi2
 1070              		.loc 1 421 56 view .LVU315
 1071 0118 6579     		ldrb	r5, [r4, #5]	@ zero_extendqisi2
 1072              		.loc 1 421 47 view .LVU316
 1073 011a 00EB0520 		add	r0, r0, r5, lsl #8
ARM GAS  C:\Users\huawei\AppData\Local\Temp\ccwYaMVL.s 			page 28


 1074              		.loc 1 421 36 view .LVU317
 1075 011e D086     		strh	r0, [r2, #54]	@ movhi
 422:Core/Src/adBms6830ParseCreate.cpp ****       break;
 1076              		.loc 1 422 7 is_stmt 1 view .LVU318
 1077 0120 9EE7     		b	.L54
 1078              	.LVL91:
 1079              	.L57:
 423:Core/Src/adBms6830ParseCreate.cpp **** 
 424:Core/Src/adBms6830ParseCreate.cpp ****     case E: /* Cell Register group E */
 1080              		.loc 1 424 5 view .LVU319
 425:Core/Src/adBms6830ParseCreate.cpp ****       ic[curr_ic].cell.c_codes[12] = (data[0] + (data[1] << 8));
 1081              		.loc 1 425 7 view .LVU320
 1082              		.loc 1 425 45 is_stmt 0 view .LVU321
 1083 0122 2078     		ldrb	r0, [r4]	@ zero_extendqisi2
 1084              		.loc 1 425 56 view .LVU322
 1085 0124 94F801C0 		ldrb	ip, [r4, #1]	@ zero_extendqisi2
 1086              		.loc 1 425 17 view .LVU323
 1087 0128 4FF42872 		mov	r2, #672
 1088 012c 02FB05A2 		mla	r2, r2, r5, r10
 1089              		.loc 1 425 47 view .LVU324
 1090 0130 00EB0C20 		add	r0, r0, ip, lsl #8
 1091              		.loc 1 425 36 view .LVU325
 1092 0134 1087     		strh	r0, [r2, #56]	@ movhi
 426:Core/Src/adBms6830ParseCreate.cpp ****       ic[curr_ic].cell.c_codes[13] = (data[2] + (data[3] << 8));
 1093              		.loc 1 426 7 is_stmt 1 view .LVU326
 1094              		.loc 1 426 45 is_stmt 0 view .LVU327
 1095 0136 A078     		ldrb	r0, [r4, #2]	@ zero_extendqisi2
 1096              		.loc 1 426 56 view .LVU328
 1097 0138 E578     		ldrb	r5, [r4, #3]	@ zero_extendqisi2
 1098              	.LVL92:
 1099              		.loc 1 426 47 view .LVU329
 1100 013a 00EB0520 		add	r0, r0, r5, lsl #8
 1101              		.loc 1 426 36 view .LVU330
 1102 013e 5087     		strh	r0, [r2, #58]	@ movhi
 427:Core/Src/adBms6830ParseCreate.cpp ****       ic[curr_ic].cell.c_codes[14] = (data[4] + (data[5] << 8));
 1103              		.loc 1 427 7 is_stmt 1 view .LVU331
 1104              		.loc 1 427 45 is_stmt 0 view .LVU332
 1105 0140 2079     		ldrb	r0, [r4, #4]	@ zero_extendqisi2
 1106              		.loc 1 427 56 view .LVU333
 1107 0142 6579     		ldrb	r5, [r4, #5]	@ zero_extendqisi2
 1108              		.loc 1 427 47 view .LVU334
 1109 0144 00EB0520 		add	r0, r0, r5, lsl #8
 1110              		.loc 1 427 36 view .LVU335
 1111 0148 9087     		strh	r0, [r2, #60]	@ movhi
 428:Core/Src/adBms6830ParseCreate.cpp ****       break;
 1112              		.loc 1 428 7 is_stmt 1 view .LVU336
 1113 014a 89E7     		b	.L54
 1114              	.LVL93:
 1115              	.L55:
 429:Core/Src/adBms6830ParseCreate.cpp **** 
 430:Core/Src/adBms6830ParseCreate.cpp ****     case F: /* Cell Register group F */
 1116              		.loc 1 430 5 view .LVU337
 431:Core/Src/adBms6830ParseCreate.cpp ****       ic[curr_ic].cell.c_codes[15] = (data[0] + (data[1] << 8));
 1117              		.loc 1 431 7 view .LVU338
 1118              		.loc 1 431 45 is_stmt 0 view .LVU339
 1119 014c 2078     		ldrb	r0, [r4]	@ zero_extendqisi2
 1120              		.loc 1 431 56 view .LVU340
ARM GAS  C:\Users\huawei\AppData\Local\Temp\ccwYaMVL.s 			page 29


 1121 014e 94F801C0 		ldrb	ip, [r4, #1]	@ zero_extendqisi2
 1122              		.loc 1 431 17 view .LVU341
 1123 0152 4FF42872 		mov	r2, #672
 1124 0156 02FB05A2 		mla	r2, r2, r5, r10
 1125              		.loc 1 431 47 view .LVU342
 1126 015a 00EB0C20 		add	r0, r0, ip, lsl #8
 1127              		.loc 1 431 36 view .LVU343
 1128 015e D087     		strh	r0, [r2, #62]	@ movhi
 432:Core/Src/adBms6830ParseCreate.cpp ****       break;
 1129              		.loc 1 432 7 is_stmt 1 view .LVU344
 1130 0160 7EE7     		b	.L54
 1131              	.L62:
 433:Core/Src/adBms6830ParseCreate.cpp **** 
 434:Core/Src/adBms6830ParseCreate.cpp ****     case ALL_GRP: /* Cell Register group ALL */
 1132              		.loc 1 434 5 view .LVU345
 435:Core/Src/adBms6830ParseCreate.cpp ****       ic[curr_ic].cell.c_codes[0] = (data[0] + (data[1] << 8));
 1133              		.loc 1 435 7 view .LVU346
 1134              		.loc 1 435 44 is_stmt 0 view .LVU347
 1135 0162 2078     		ldrb	r0, [r4]	@ zero_extendqisi2
 1136              		.loc 1 435 55 view .LVU348
 1137 0164 94F801C0 		ldrb	ip, [r4, #1]	@ zero_extendqisi2
 1138              		.loc 1 435 17 view .LVU349
 1139 0168 4FF42872 		mov	r2, #672
 1140 016c 02FB05A2 		mla	r2, r2, r5, r10
 1141              		.loc 1 435 46 view .LVU350
 1142 0170 00EB0C20 		add	r0, r0, ip, lsl #8
 1143              		.loc 1 435 35 view .LVU351
 1144 0174 1084     		strh	r0, [r2, #32]	@ movhi
 436:Core/Src/adBms6830ParseCreate.cpp ****       ic[curr_ic].cell.c_codes[1] = (data[2] + (data[3] << 8));
 1145              		.loc 1 436 7 is_stmt 1 view .LVU352
 1146              		.loc 1 436 44 is_stmt 0 view .LVU353
 1147 0176 A078     		ldrb	r0, [r4, #2]	@ zero_extendqisi2
 1148              		.loc 1 436 55 view .LVU354
 1149 0178 E578     		ldrb	r5, [r4, #3]	@ zero_extendqisi2
 1150              	.LVL94:
 1151              		.loc 1 436 46 view .LVU355
 1152 017a 00EB0520 		add	r0, r0, r5, lsl #8
 1153              		.loc 1 436 35 view .LVU356
 1154 017e 5084     		strh	r0, [r2, #34]	@ movhi
 437:Core/Src/adBms6830ParseCreate.cpp ****       ic[curr_ic].cell.c_codes[2] = (data[4] + (data[5] << 8));
 1155              		.loc 1 437 7 is_stmt 1 view .LVU357
 1156              		.loc 1 437 44 is_stmt 0 view .LVU358
 1157 0180 2079     		ldrb	r0, [r4, #4]	@ zero_extendqisi2
 1158              		.loc 1 437 55 view .LVU359
 1159 0182 6579     		ldrb	r5, [r4, #5]	@ zero_extendqisi2
 1160              		.loc 1 437 46 view .LVU360
 1161 0184 00EB0520 		add	r0, r0, r5, lsl #8
 1162              		.loc 1 437 35 view .LVU361
 1163 0188 9084     		strh	r0, [r2, #36]	@ movhi
 438:Core/Src/adBms6830ParseCreate.cpp ****       ic[curr_ic].cell.c_codes[3] = (data[6] + (data[7] << 8));
 1164              		.loc 1 438 7 is_stmt 1 view .LVU362
 1165              		.loc 1 438 44 is_stmt 0 view .LVU363
 1166 018a A079     		ldrb	r0, [r4, #6]	@ zero_extendqisi2
 1167              		.loc 1 438 55 view .LVU364
 1168 018c E579     		ldrb	r5, [r4, #7]	@ zero_extendqisi2
 1169              		.loc 1 438 46 view .LVU365
 1170 018e 00EB0520 		add	r0, r0, r5, lsl #8
ARM GAS  C:\Users\huawei\AppData\Local\Temp\ccwYaMVL.s 			page 30


 1171              		.loc 1 438 35 view .LVU366
 1172 0192 D084     		strh	r0, [r2, #38]	@ movhi
 439:Core/Src/adBms6830ParseCreate.cpp ****       ic[curr_ic].cell.c_codes[4] = (data[8] + (data[9] << 8));
 1173              		.loc 1 439 7 is_stmt 1 view .LVU367
 1174              		.loc 1 439 44 is_stmt 0 view .LVU368
 1175 0194 207A     		ldrb	r0, [r4, #8]	@ zero_extendqisi2
 1176              		.loc 1 439 55 view .LVU369
 1177 0196 657A     		ldrb	r5, [r4, #9]	@ zero_extendqisi2
 1178              		.loc 1 439 46 view .LVU370
 1179 0198 00EB0520 		add	r0, r0, r5, lsl #8
 1180              		.loc 1 439 35 view .LVU371
 1181 019c 1085     		strh	r0, [r2, #40]	@ movhi
 440:Core/Src/adBms6830ParseCreate.cpp ****       ic[curr_ic].cell.c_codes[5] = (data[10] + (data[11] << 8));
 1182              		.loc 1 440 7 is_stmt 1 view .LVU372
 1183              		.loc 1 440 45 is_stmt 0 view .LVU373
 1184 019e A07A     		ldrb	r0, [r4, #10]	@ zero_extendqisi2
 1185              		.loc 1 440 57 view .LVU374
 1186 01a0 E57A     		ldrb	r5, [r4, #11]	@ zero_extendqisi2
 1187              		.loc 1 440 47 view .LVU375
 1188 01a2 00EB0520 		add	r0, r0, r5, lsl #8
 1189              		.loc 1 440 35 view .LVU376
 1190 01a6 5085     		strh	r0, [r2, #42]	@ movhi
 441:Core/Src/adBms6830ParseCreate.cpp ****       ic[curr_ic].cell.c_codes[6] = (data[12] + (data[13] << 8));
 1191              		.loc 1 441 7 is_stmt 1 view .LVU377
 1192              		.loc 1 441 45 is_stmt 0 view .LVU378
 1193 01a8 207B     		ldrb	r0, [r4, #12]	@ zero_extendqisi2
 1194              		.loc 1 441 57 view .LVU379
 1195 01aa 657B     		ldrb	r5, [r4, #13]	@ zero_extendqisi2
 1196              		.loc 1 441 47 view .LVU380
 1197 01ac 00EB0520 		add	r0, r0, r5, lsl #8
 1198              		.loc 1 441 35 view .LVU381
 1199 01b0 9085     		strh	r0, [r2, #44]	@ movhi
 442:Core/Src/adBms6830ParseCreate.cpp ****       ic[curr_ic].cell.c_codes[7] = (data[14] + (data[15] << 8));
 1200              		.loc 1 442 7 is_stmt 1 view .LVU382
 1201              		.loc 1 442 45 is_stmt 0 view .LVU383
 1202 01b2 A07B     		ldrb	r0, [r4, #14]	@ zero_extendqisi2
 1203              		.loc 1 442 57 view .LVU384
 1204 01b4 E57B     		ldrb	r5, [r4, #15]	@ zero_extendqisi2
 1205              		.loc 1 442 47 view .LVU385
 1206 01b6 00EB0520 		add	r0, r0, r5, lsl #8
 1207              		.loc 1 442 35 view .LVU386
 1208 01ba D085     		strh	r0, [r2, #46]	@ movhi
 443:Core/Src/adBms6830ParseCreate.cpp ****       ic[curr_ic].cell.c_codes[8] = (data[16] + (data[17] << 8));
 1209              		.loc 1 443 7 is_stmt 1 view .LVU387
 1210              		.loc 1 443 45 is_stmt 0 view .LVU388
 1211 01bc 207C     		ldrb	r0, [r4, #16]	@ zero_extendqisi2
 1212              		.loc 1 443 57 view .LVU389
 1213 01be 657C     		ldrb	r5, [r4, #17]	@ zero_extendqisi2
 1214              		.loc 1 443 47 view .LVU390
 1215 01c0 00EB0520 		add	r0, r0, r5, lsl #8
 1216              		.loc 1 443 35 view .LVU391
 1217 01c4 1086     		strh	r0, [r2, #48]	@ movhi
 444:Core/Src/adBms6830ParseCreate.cpp ****       ic[curr_ic].cell.c_codes[9] =  (data[18] + (data[19] << 8));
 1218              		.loc 1 444 7 is_stmt 1 view .LVU392
 1219              		.loc 1 444 46 is_stmt 0 view .LVU393
 1220 01c6 A07C     		ldrb	r0, [r4, #18]	@ zero_extendqisi2
 1221              		.loc 1 444 58 view .LVU394
ARM GAS  C:\Users\huawei\AppData\Local\Temp\ccwYaMVL.s 			page 31


 1222 01c8 E57C     		ldrb	r5, [r4, #19]	@ zero_extendqisi2
 1223              		.loc 1 444 48 view .LVU395
 1224 01ca 00EB0520 		add	r0, r0, r5, lsl #8
 1225              		.loc 1 444 35 view .LVU396
 1226 01ce 5086     		strh	r0, [r2, #50]	@ movhi
 445:Core/Src/adBms6830ParseCreate.cpp ****       ic[curr_ic].cell.c_codes[10] = (data[20] + (data[21] << 8));
 1227              		.loc 1 445 7 is_stmt 1 view .LVU397
 1228              		.loc 1 445 46 is_stmt 0 view .LVU398
 1229 01d0 207D     		ldrb	r0, [r4, #20]	@ zero_extendqisi2
 1230              		.loc 1 445 58 view .LVU399
 1231 01d2 657D     		ldrb	r5, [r4, #21]	@ zero_extendqisi2
 1232              		.loc 1 445 48 view .LVU400
 1233 01d4 00EB0520 		add	r0, r0, r5, lsl #8
 1234              		.loc 1 445 36 view .LVU401
 1235 01d8 9086     		strh	r0, [r2, #52]	@ movhi
 446:Core/Src/adBms6830ParseCreate.cpp ****       ic[curr_ic].cell.c_codes[11] = (data[22] + (data[23] << 8));
 1236              		.loc 1 446 7 is_stmt 1 view .LVU402
 1237              		.loc 1 446 46 is_stmt 0 view .LVU403
 1238 01da A07D     		ldrb	r0, [r4, #22]	@ zero_extendqisi2
 1239              		.loc 1 446 58 view .LVU404
 1240 01dc E57D     		ldrb	r5, [r4, #23]	@ zero_extendqisi2
 1241              		.loc 1 446 48 view .LVU405
 1242 01de 00EB0520 		add	r0, r0, r5, lsl #8
 1243              		.loc 1 446 36 view .LVU406
 1244 01e2 D086     		strh	r0, [r2, #54]	@ movhi
 447:Core/Src/adBms6830ParseCreate.cpp ****       ic[curr_ic].cell.c_codes[12] = (data[24] + (data[25] << 8));
 1245              		.loc 1 447 7 is_stmt 1 view .LVU407
 1246              		.loc 1 447 46 is_stmt 0 view .LVU408
 1247 01e4 207E     		ldrb	r0, [r4, #24]	@ zero_extendqisi2
 1248              		.loc 1 447 58 view .LVU409
 1249 01e6 657E     		ldrb	r5, [r4, #25]	@ zero_extendqisi2
 1250              		.loc 1 447 48 view .LVU410
 1251 01e8 00EB0520 		add	r0, r0, r5, lsl #8
 1252              		.loc 1 447 36 view .LVU411
 1253 01ec 1087     		strh	r0, [r2, #56]	@ movhi
 448:Core/Src/adBms6830ParseCreate.cpp ****       ic[curr_ic].cell.c_codes[13] = (data[26] + (data[27] << 8));
 1254              		.loc 1 448 7 is_stmt 1 view .LVU412
 1255              		.loc 1 448 46 is_stmt 0 view .LVU413
 1256 01ee A07E     		ldrb	r0, [r4, #26]	@ zero_extendqisi2
 1257              		.loc 1 448 58 view .LVU414
 1258 01f0 E57E     		ldrb	r5, [r4, #27]	@ zero_extendqisi2
 1259              		.loc 1 448 48 view .LVU415
 1260 01f2 00EB0520 		add	r0, r0, r5, lsl #8
 1261              		.loc 1 448 36 view .LVU416
 1262 01f6 5087     		strh	r0, [r2, #58]	@ movhi
 449:Core/Src/adBms6830ParseCreate.cpp ****       ic[curr_ic].cell.c_codes[14] = (data[28] + (data[29] << 8));
 1263              		.loc 1 449 7 is_stmt 1 view .LVU417
 1264              		.loc 1 449 46 is_stmt 0 view .LVU418
 1265 01f8 207F     		ldrb	r0, [r4, #28]	@ zero_extendqisi2
 1266              		.loc 1 449 58 view .LVU419
 1267 01fa 657F     		ldrb	r5, [r4, #29]	@ zero_extendqisi2
 1268              		.loc 1 449 48 view .LVU420
 1269 01fc 00EB0520 		add	r0, r0, r5, lsl #8
 1270              		.loc 1 449 36 view .LVU421
 1271 0200 9087     		strh	r0, [r2, #60]	@ movhi
 450:Core/Src/adBms6830ParseCreate.cpp ****       ic[curr_ic].cell.c_codes[15] = (data[30] + (data[31] << 8));
 1272              		.loc 1 450 7 is_stmt 1 view .LVU422
ARM GAS  C:\Users\huawei\AppData\Local\Temp\ccwYaMVL.s 			page 32


 1273              		.loc 1 450 46 is_stmt 0 view .LVU423
 1274 0202 A07F     		ldrb	r0, [r4, #30]	@ zero_extendqisi2
 1275              		.loc 1 450 58 view .LVU424
 1276 0204 E57F     		ldrb	r5, [r4, #31]	@ zero_extendqisi2
 1277              		.loc 1 450 48 view .LVU425
 1278 0206 00EB0520 		add	r0, r0, r5, lsl #8
 1279              		.loc 1 450 36 view .LVU426
 1280 020a D087     		strh	r0, [r2, #62]	@ movhi
 451:Core/Src/adBms6830ParseCreate.cpp ****       break;
 1281              		.loc 1 451 7 is_stmt 1 view .LVU427
 1282 020c 28E7     		b	.L54
 1283              	.LVL95:
 1284              	.L69:
 1285              		.loc 1 451 7 is_stmt 0 view .LVU428
 1286              	.LBE13:
 452:Core/Src/adBms6830ParseCreate.cpp **** 
 453:Core/Src/adBms6830ParseCreate.cpp ****     default:
 454:Core/Src/adBms6830ParseCreate.cpp ****       break;
 455:Core/Src/adBms6830ParseCreate.cpp ****     }
 456:Core/Src/adBms6830ParseCreate.cpp ****   }
 457:Core/Src/adBms6830ParseCreate.cpp ****   free(data);
 1287              		.loc 1 457 3 is_stmt 1 view .LVU429
 1288              		.loc 1 457 7 is_stmt 0 view .LVU430
 1289 020e 2046     		mov	r0, r4
 1290 0210 FFF7FEFF 		bl	free
 1291              	.LVL96:
 458:Core/Src/adBms6830ParseCreate.cpp **** }
 1292              		.loc 1 458 1 view .LVU431
 1293 0214 BDE8F88F 		pop	{r3, r4, r5, r6, r7, r8, r9, r10, fp, pc}
 1294              	.LVL97:
 1295              	.L71:
 1296              		.loc 1 458 1 view .LVU432
 1297              		.align	2
 1298              	.L70:
 1299 0218 00000000 		.word	.LC0
 1300              		.cfi_endproc
 1301              	.LFE255:
 1302              		.fnend
 1304              		.section	.rodata._Z25adBms6830ParseAverageCellhP9cell_asic3GRPPh.str1.4,"aMS",%progbits,1
 1305              		.align	2
 1306              	.LC1:
 1307 0000 20466169 		.ascii	" Failed to allocate parse avg cell memory \000"
 1307      6C656420 
 1307      746F2061 
 1307      6C6C6F63 
 1307      61746520 
 1308              		.section	.text._Z25adBms6830ParseAverageCellhP9cell_asic3GRPPh,"ax",%progbits
 1309              		.align	1
 1310              		.global	_Z25adBms6830ParseAverageCellhP9cell_asic3GRPPh
 1311              		.syntax unified
 1312              		.thumb
 1313              		.thumb_func
 1315              	_Z25adBms6830ParseAverageCellhP9cell_asic3GRPPh:
 1316              		.fnstart
 1317              	.LVL98:
 1318              	.LFB256:
 459:Core/Src/adBms6830ParseCreate.cpp **** 
ARM GAS  C:\Users\huawei\AppData\Local\Temp\ccwYaMVL.s 			page 33


 460:Core/Src/adBms6830ParseCreate.cpp **** /**
 461:Core/Src/adBms6830ParseCreate.cpp ****  *******************************************************************************
 462:Core/Src/adBms6830ParseCreate.cpp ****  * Function: adBms6830ParseAverageCell
 463:Core/Src/adBms6830ParseCreate.cpp ****  * @brief Parse average cell voltages
 464:Core/Src/adBms6830ParseCreate.cpp ****  *
 465:Core/Src/adBms6830ParseCreate.cpp ****  * @details This function Parse the recived average cell register A,B,C,D,E and F data.
 466:Core/Src/adBms6830ParseCreate.cpp ****  *
 467:Core/Src/adBms6830ParseCreate.cpp ****  * Parameters:
 468:Core/Src/adBms6830ParseCreate.cpp ****  *
 469:Core/Src/adBms6830ParseCreate.cpp ****  * @param [in]  tIC                     Total IC
 470:Core/Src/adBms6830ParseCreate.cpp ****  *
 471:Core/Src/adBms6830ParseCreate.cpp ****  * @param [in]  *ic                     cell_asic ic structure pointer
 472:Core/Src/adBms6830ParseCreate.cpp ****  *
 473:Core/Src/adBms6830ParseCreate.cpp ****  * @param [in]  grp                     Enum type register group
 474:Core/Src/adBms6830ParseCreate.cpp ****  *
 475:Core/Src/adBms6830ParseCreate.cpp ****  * @param [in]  *acv_data               Average cell voltage data pointer
 476:Core/Src/adBms6830ParseCreate.cpp ****  *
 477:Core/Src/adBms6830ParseCreate.cpp ****  * @return None
 478:Core/Src/adBms6830ParseCreate.cpp ****  *
 479:Core/Src/adBms6830ParseCreate.cpp ****  *******************************************************************************
 480:Core/Src/adBms6830ParseCreate.cpp **** */
 481:Core/Src/adBms6830ParseCreate.cpp **** void adBms6830ParseAverageCell(uint8_t tIC, cell_asic *ic, GRP grp, uint8_t *acv_data)
 482:Core/Src/adBms6830ParseCreate.cpp **** {
 1319              		.loc 1 482 1 is_stmt 1 view -0
 1320              		.cfi_startproc
 1321              		@ args = 0, pretend = 0, frame = 0
 1322              		@ frame_needed = 0, uses_anonymous_args = 0
 1323              		.loc 1 482 1 is_stmt 0 view .LVU434
 1324 0000 2DE9F84F 		push	{r3, r4, r5, r6, r7, r8, r9, r10, fp, lr}
 1325              		.save {r3, r4, r5, r6, r7, r8, r9, r10, fp, lr}
 1326              	.LCFI8:
 1327              		.cfi_def_cfa_offset 40
 1328              		.cfi_offset 3, -40
 1329              		.cfi_offset 4, -36
 1330              		.cfi_offset 5, -32
 1331              		.cfi_offset 6, -28
 1332              		.cfi_offset 7, -24
 1333              		.cfi_offset 8, -20
 1334              		.cfi_offset 9, -16
 1335              		.cfi_offset 10, -12
 1336              		.cfi_offset 11, -8
 1337              		.cfi_offset 14, -4
 1338 0004 0746     		mov	r7, r0
 1339 0006 8A46     		mov	r10, r1
 1340 0008 9946     		mov	r9, r3
 483:Core/Src/adBms6830ParseCreate.cpp ****   uint8_t *data, data_size, address = 0;
 1341              		.loc 1 483 3 is_stmt 1 view .LVU435
 1342              	.LVL99:
 484:Core/Src/adBms6830ParseCreate.cpp ****   if(grp == ALL_GRP){data_size = RDACALL_SIZE;}
 1343              		.loc 1 484 3 view .LVU436
 1344 000a 1646     		mov	r6, r2
 1345 000c 5AB9     		cbnz	r2, .L85
 1346              		.loc 1 484 32 is_stmt 0 view .LVU437
 1347 000e 4FF02208 		mov	r8, #34
 1348              	.L73:
 1349              	.LVL100:
 485:Core/Src/adBms6830ParseCreate.cpp ****   else {data_size = RX_DATA;}
ARM GAS  C:\Users\huawei\AppData\Local\Temp\ccwYaMVL.s 			page 34


 486:Core/Src/adBms6830ParseCreate.cpp ****   data = (uint8_t *)calloc(data_size, sizeof(uint8_t));
 1350              		.loc 1 486 3 is_stmt 1 view .LVU438
 1351              		.loc 1 486 27 is_stmt 0 view .LVU439
 1352 0012 C346     		mov	fp, r8
 1353 0014 0121     		movs	r1, #1
 1354              	.LVL101:
 1355              		.loc 1 486 27 view .LVU440
 1356 0016 4046     		mov	r0, r8
 1357              	.LVL102:
 1358              		.loc 1 486 27 view .LVU441
 1359 0018 FFF7FEFF 		bl	calloc
 1360              	.LVL103:
 487:Core/Src/adBms6830ParseCreate.cpp ****   if(data == NULL)
 1361              		.loc 1 487 3 is_stmt 1 view .LVU442
 1362 001c 0446     		mov	r4, r0
 1363 001e 28B1     		cbz	r0, .L89
 1364              	.LBB14:
 488:Core/Src/adBms6830ParseCreate.cpp ****   {
 489:Core/Src/adBms6830ParseCreate.cpp ****     #ifdef MBED
 490:Core/Src/adBms6830ParseCreate.cpp ****     pc.printf(" Failed to allocate parse avg cell memory \n");
 491:Core/Src/adBms6830ParseCreate.cpp ****     #else
 492:Core/Src/adBms6830ParseCreate.cpp ****     printf(" Failed to allocate parse avg cell memory \n");
 493:Core/Src/adBms6830ParseCreate.cpp ****     #endif
 494:Core/Src/adBms6830ParseCreate.cpp ****     exit(0);
 495:Core/Src/adBms6830ParseCreate.cpp ****   }
 496:Core/Src/adBms6830ParseCreate.cpp ****   for(uint8_t curr_ic = 0; curr_ic < tIC; curr_ic++)
 1365              		.loc 1 496 15 is_stmt 0 view .LVU443
 1366 0020 0025     		movs	r5, #0
 1367              	.LBE14:
 483:Core/Src/adBms6830ParseCreate.cpp ****   if(grp == ALL_GRP){data_size = RDACALL_SIZE;}
 1368              		.loc 1 483 29 view .LVU444
 1369 0022 2946     		mov	r1, r5
 1370 0024 20E0     		b	.L74
 1371              	.LVL104:
 1372              	.L85:
 485:Core/Src/adBms6830ParseCreate.cpp ****   data = (uint8_t *)calloc(data_size, sizeof(uint8_t));
 1373              		.loc 1 485 19 view .LVU445
 1374 0026 4FF00808 		mov	r8, #8
 1375 002a F2E7     		b	.L73
 1376              	.LVL105:
 1377              	.L89:
 492:Core/Src/adBms6830ParseCreate.cpp ****     #endif
 1378              		.loc 1 492 5 is_stmt 1 view .LVU446
 492:Core/Src/adBms6830ParseCreate.cpp ****     #endif
 1379              		.loc 1 492 11 is_stmt 0 view .LVU447
 1380 002c 8A48     		ldr	r0, .L91
 1381              	.LVL106:
 492:Core/Src/adBms6830ParseCreate.cpp ****     #endif
 1382              		.loc 1 492 11 view .LVU448
 1383 002e FFF7FEFF 		bl	puts
 1384              	.LVL107:
 494:Core/Src/adBms6830ParseCreate.cpp ****   }
 1385              		.loc 1 494 5 is_stmt 1 view .LVU449
 494:Core/Src/adBms6830ParseCreate.cpp ****   }
 1386              		.loc 1 494 9 is_stmt 0 view .LVU450
 1387 0032 0020     		movs	r0, #0
 1388 0034 FFF7FEFF 		bl	exit
ARM GAS  C:\Users\huawei\AppData\Local\Temp\ccwYaMVL.s 			page 35


 1389              	.LVL108:
 1390              	.L82:
 1391              	.LBB15:
 497:Core/Src/adBms6830ParseCreate.cpp ****   {
 498:Core/Src/adBms6830ParseCreate.cpp ****     memcpy(&data[0], &acv_data[address], data_size); /* dst , src , size */
 499:Core/Src/adBms6830ParseCreate.cpp ****     address = ((curr_ic+1) * (data_size));
 500:Core/Src/adBms6830ParseCreate.cpp ****     switch (grp)
 501:Core/Src/adBms6830ParseCreate.cpp ****     {
 502:Core/Src/adBms6830ParseCreate.cpp ****     case A: /* Cell Register group A */
 1392              		.loc 1 502 5 is_stmt 1 view .LVU451
 503:Core/Src/adBms6830ParseCreate.cpp ****       ic[curr_ic].acell.ac_codes[0] = (data[0] + (data[1] << 8));
 1393              		.loc 1 503 7 view .LVU452
 1394              		.loc 1 503 46 is_stmt 0 view .LVU453
 1395 0038 2078     		ldrb	r0, [r4]	@ zero_extendqisi2
 1396              		.loc 1 503 57 view .LVU454
 1397 003a 94F801C0 		ldrb	ip, [r4, #1]	@ zero_extendqisi2
 1398              		.loc 1 503 17 view .LVU455
 1399 003e 4FF42872 		mov	r2, #672
 1400 0042 02FB05A2 		mla	r2, r2, r5, r10
 1401              		.loc 1 503 48 view .LVU456
 1402 0046 00EB0C20 		add	r0, r0, ip, lsl #8
 1403              		.loc 1 503 37 view .LVU457
 1404 004a A2F84000 		strh	r0, [r2, #64]	@ movhi
 504:Core/Src/adBms6830ParseCreate.cpp ****       ic[curr_ic].acell.ac_codes[1] = (data[2] + (data[3] << 8));
 1405              		.loc 1 504 7 is_stmt 1 view .LVU458
 1406              		.loc 1 504 46 is_stmt 0 view .LVU459
 1407 004e A078     		ldrb	r0, [r4, #2]	@ zero_extendqisi2
 1408              		.loc 1 504 57 view .LVU460
 1409 0050 E578     		ldrb	r5, [r4, #3]	@ zero_extendqisi2
 1410              	.LVL109:
 1411              		.loc 1 504 48 view .LVU461
 1412 0052 00EB0520 		add	r0, r0, r5, lsl #8
 1413              		.loc 1 504 37 view .LVU462
 1414 0056 A2F84200 		strh	r0, [r2, #66]	@ movhi
 505:Core/Src/adBms6830ParseCreate.cpp ****       ic[curr_ic].acell.ac_codes[2] = (data[4] + (data[5] << 8));
 1415              		.loc 1 505 7 is_stmt 1 view .LVU463
 1416              		.loc 1 505 46 is_stmt 0 view .LVU464
 1417 005a 2079     		ldrb	r0, [r4, #4]	@ zero_extendqisi2
 1418              		.loc 1 505 57 view .LVU465
 1419 005c 6579     		ldrb	r5, [r4, #5]	@ zero_extendqisi2
 1420              		.loc 1 505 48 view .LVU466
 1421 005e 00EB0520 		add	r0, r0, r5, lsl #8
 1422              		.loc 1 505 37 view .LVU467
 1423 0062 A2F84400 		strh	r0, [r2, #68]	@ movhi
 506:Core/Src/adBms6830ParseCreate.cpp ****       break;
 1424              		.loc 1 506 7 is_stmt 1 view .LVU468
 1425              	.L75:
 1426              		.loc 1 506 7 is_stmt 0 view .LVU469
 1427              	.LBE15:
 485:Core/Src/adBms6830ParseCreate.cpp ****   data = (uint8_t *)calloc(data_size, sizeof(uint8_t));
 1428              		.loc 1 485 19 discriminator 1 view .LVU470
 1429 0066 1D46     		mov	r5, r3
 1430              	.LVL110:
 1431              	.L74:
 1432              	.LBB16:
 496:Core/Src/adBms6830ParseCreate.cpp ****   {
 1433              		.loc 1 496 36 is_stmt 1 discriminator 1 view .LVU471
ARM GAS  C:\Users\huawei\AppData\Local\Temp\ccwYaMVL.s 			page 36


 1434 0068 BD42     		cmp	r5, r7
 1435 006a 80F0EF80 		bcs	.L90
 498:Core/Src/adBms6830ParseCreate.cpp ****     address = ((curr_ic+1) * (data_size));
 1436              		.loc 1 498 5 view .LVU472
 498:Core/Src/adBms6830ParseCreate.cpp ****     address = ((curr_ic+1) * (data_size));
 1437              		.loc 1 498 11 is_stmt 0 view .LVU473
 1438 006e 5A46     		mov	r2, fp
 1439 0070 4944     		add	r1, r1, r9
 1440              	.LVL111:
 498:Core/Src/adBms6830ParseCreate.cpp ****     address = ((curr_ic+1) * (data_size));
 1441              		.loc 1 498 11 view .LVU474
 1442 0072 2046     		mov	r0, r4
 1443 0074 FFF7FEFF 		bl	memcpy
 1444              	.LVL112:
 499:Core/Src/adBms6830ParseCreate.cpp ****     switch (grp)
 1445              		.loc 1 499 5 is_stmt 1 view .LVU475
 499:Core/Src/adBms6830ParseCreate.cpp ****     switch (grp)
 1446              		.loc 1 499 13 is_stmt 0 view .LVU476
 1447 0078 6B1C     		adds	r3, r5, #1
 1448 007a DBB2     		uxtb	r3, r3
 1449 007c 13FB08F1 		smulbb	r1, r3, r8
 1450 0080 C9B2     		uxtb	r1, r1
 1451              	.LVL113:
 500:Core/Src/adBms6830ParseCreate.cpp ****     {
 1452              		.loc 1 500 5 is_stmt 1 view .LVU477
 1453 0082 062E     		cmp	r6, #6
 1454 0084 EFD8     		bhi	.L75
 1455 0086 01A2     		adr	r2, .L77
 1456 0088 52F826F0 		ldr	pc, [r2, r6, lsl #2]
 1457              		.p2align 2
 1458              	.L77:
 1459 008c 81010000 		.word	.L83+1
 1460 0090 39000000 		.word	.L82+1
 1461 0094 A9000000 		.word	.L81+1
 1462 0098 D9000000 		.word	.L80+1
 1463 009c 09010000 		.word	.L79+1
 1464 00a0 39010000 		.word	.L78+1
 1465 00a4 69010000 		.word	.L76+1
 1466              		.p2align 1
 1467              	.L81:
 507:Core/Src/adBms6830ParseCreate.cpp **** 
 508:Core/Src/adBms6830ParseCreate.cpp ****     case B: /* Cell Register group B */
 1468              		.loc 1 508 5 view .LVU478
 509:Core/Src/adBms6830ParseCreate.cpp ****       ic[curr_ic].acell.ac_codes[3] = (data[0] + (data[1] << 8));
 1469              		.loc 1 509 7 view .LVU479
 1470              		.loc 1 509 46 is_stmt 0 view .LVU480
 1471 00a8 2078     		ldrb	r0, [r4]	@ zero_extendqisi2
 1472              		.loc 1 509 57 view .LVU481
 1473 00aa 94F801C0 		ldrb	ip, [r4, #1]	@ zero_extendqisi2
 1474              		.loc 1 509 17 view .LVU482
 1475 00ae 4FF42872 		mov	r2, #672
 1476 00b2 02FB05A2 		mla	r2, r2, r5, r10
 1477              		.loc 1 509 48 view .LVU483
 1478 00b6 00EB0C20 		add	r0, r0, ip, lsl #8
 1479              		.loc 1 509 37 view .LVU484
 1480 00ba A2F84600 		strh	r0, [r2, #70]	@ movhi
 510:Core/Src/adBms6830ParseCreate.cpp ****       ic[curr_ic].acell.ac_codes[4] = (data[2] + (data[3] << 8));
ARM GAS  C:\Users\huawei\AppData\Local\Temp\ccwYaMVL.s 			page 37


 1481              		.loc 1 510 7 is_stmt 1 view .LVU485
 1482              		.loc 1 510 46 is_stmt 0 view .LVU486
 1483 00be A078     		ldrb	r0, [r4, #2]	@ zero_extendqisi2
 1484              		.loc 1 510 57 view .LVU487
 1485 00c0 E578     		ldrb	r5, [r4, #3]	@ zero_extendqisi2
 1486              	.LVL114:
 1487              		.loc 1 510 48 view .LVU488
 1488 00c2 00EB0520 		add	r0, r0, r5, lsl #8
 1489              		.loc 1 510 37 view .LVU489
 1490 00c6 A2F84800 		strh	r0, [r2, #72]	@ movhi
 511:Core/Src/adBms6830ParseCreate.cpp ****       ic[curr_ic].acell.ac_codes[5] = (data[4] + (data[5] << 8));
 1491              		.loc 1 511 7 is_stmt 1 view .LVU490
 1492              		.loc 1 511 46 is_stmt 0 view .LVU491
 1493 00ca 2079     		ldrb	r0, [r4, #4]	@ zero_extendqisi2
 1494              		.loc 1 511 57 view .LVU492
 1495 00cc 6579     		ldrb	r5, [r4, #5]	@ zero_extendqisi2
 1496              		.loc 1 511 48 view .LVU493
 1497 00ce 00EB0520 		add	r0, r0, r5, lsl #8
 1498              		.loc 1 511 37 view .LVU494
 1499 00d2 A2F84A00 		strh	r0, [r2, #74]	@ movhi
 512:Core/Src/adBms6830ParseCreate.cpp ****       break;
 1500              		.loc 1 512 7 is_stmt 1 view .LVU495
 1501 00d6 C6E7     		b	.L75
 1502              	.LVL115:
 1503              	.L80:
 513:Core/Src/adBms6830ParseCreate.cpp **** 
 514:Core/Src/adBms6830ParseCreate.cpp ****     case C: /* Cell Register group C */
 1504              		.loc 1 514 5 view .LVU496
 515:Core/Src/adBms6830ParseCreate.cpp ****       ic[curr_ic].acell.ac_codes[6] = (data[0] + (data[1] << 8));
 1505              		.loc 1 515 7 view .LVU497
 1506              		.loc 1 515 46 is_stmt 0 view .LVU498
 1507 00d8 2078     		ldrb	r0, [r4]	@ zero_extendqisi2
 1508              		.loc 1 515 57 view .LVU499
 1509 00da 94F801C0 		ldrb	ip, [r4, #1]	@ zero_extendqisi2
 1510              		.loc 1 515 17 view .LVU500
 1511 00de 4FF42872 		mov	r2, #672
 1512 00e2 02FB05A2 		mla	r2, r2, r5, r10
 1513              		.loc 1 515 48 view .LVU501
 1514 00e6 00EB0C20 		add	r0, r0, ip, lsl #8
 1515              		.loc 1 515 37 view .LVU502
 1516 00ea A2F84C00 		strh	r0, [r2, #76]	@ movhi
 516:Core/Src/adBms6830ParseCreate.cpp ****       ic[curr_ic].acell.ac_codes[7] = (data[2] + (data[3] << 8));
 1517              		.loc 1 516 7 is_stmt 1 view .LVU503
 1518              		.loc 1 516 46 is_stmt 0 view .LVU504
 1519 00ee A078     		ldrb	r0, [r4, #2]	@ zero_extendqisi2
 1520              		.loc 1 516 57 view .LVU505
 1521 00f0 E578     		ldrb	r5, [r4, #3]	@ zero_extendqisi2
 1522              	.LVL116:
 1523              		.loc 1 516 48 view .LVU506
 1524 00f2 00EB0520 		add	r0, r0, r5, lsl #8
 1525              		.loc 1 516 37 view .LVU507
 1526 00f6 A2F84E00 		strh	r0, [r2, #78]	@ movhi
 517:Core/Src/adBms6830ParseCreate.cpp ****       ic[curr_ic].acell.ac_codes[8] = (data[4] + (data[5] << 8));
 1527              		.loc 1 517 7 is_stmt 1 view .LVU508
 1528              		.loc 1 517 46 is_stmt 0 view .LVU509
 1529 00fa 2079     		ldrb	r0, [r4, #4]	@ zero_extendqisi2
 1530              		.loc 1 517 57 view .LVU510
ARM GAS  C:\Users\huawei\AppData\Local\Temp\ccwYaMVL.s 			page 38


 1531 00fc 6579     		ldrb	r5, [r4, #5]	@ zero_extendqisi2
 1532              		.loc 1 517 48 view .LVU511
 1533 00fe 00EB0520 		add	r0, r0, r5, lsl #8
 1534              		.loc 1 517 37 view .LVU512
 1535 0102 A2F85000 		strh	r0, [r2, #80]	@ movhi
 518:Core/Src/adBms6830ParseCreate.cpp ****       break;
 1536              		.loc 1 518 7 is_stmt 1 view .LVU513
 1537 0106 AEE7     		b	.L75
 1538              	.LVL117:
 1539              	.L79:
 519:Core/Src/adBms6830ParseCreate.cpp **** 
 520:Core/Src/adBms6830ParseCreate.cpp ****     case D: /* Cell Register group D */
 1540              		.loc 1 520 5 view .LVU514
 521:Core/Src/adBms6830ParseCreate.cpp ****       ic[curr_ic].acell.ac_codes[9] =  (data[0] + (data[1] << 8));
 1541              		.loc 1 521 7 view .LVU515
 1542              		.loc 1 521 47 is_stmt 0 view .LVU516
 1543 0108 2078     		ldrb	r0, [r4]	@ zero_extendqisi2
 1544              		.loc 1 521 58 view .LVU517
 1545 010a 94F801C0 		ldrb	ip, [r4, #1]	@ zero_extendqisi2
 1546              		.loc 1 521 17 view .LVU518
 1547 010e 4FF42872 		mov	r2, #672
 1548 0112 02FB05A2 		mla	r2, r2, r5, r10
 1549              		.loc 1 521 49 view .LVU519
 1550 0116 00EB0C20 		add	r0, r0, ip, lsl #8
 1551              		.loc 1 521 37 view .LVU520
 1552 011a A2F85200 		strh	r0, [r2, #82]	@ movhi
 522:Core/Src/adBms6830ParseCreate.cpp ****       ic[curr_ic].acell.ac_codes[10] = (data[2] + (data[3] << 8));
 1553              		.loc 1 522 7 is_stmt 1 view .LVU521
 1554              		.loc 1 522 47 is_stmt 0 view .LVU522
 1555 011e A078     		ldrb	r0, [r4, #2]	@ zero_extendqisi2
 1556              		.loc 1 522 58 view .LVU523
 1557 0120 E578     		ldrb	r5, [r4, #3]	@ zero_extendqisi2
 1558              	.LVL118:
 1559              		.loc 1 522 49 view .LVU524
 1560 0122 00EB0520 		add	r0, r0, r5, lsl #8
 1561              		.loc 1 522 38 view .LVU525
 1562 0126 A2F85400 		strh	r0, [r2, #84]	@ movhi
 523:Core/Src/adBms6830ParseCreate.cpp ****       ic[curr_ic].acell.ac_codes[11] = (data[4] + (data[5] << 8));
 1563              		.loc 1 523 7 is_stmt 1 view .LVU526
 1564              		.loc 1 523 47 is_stmt 0 view .LVU527
 1565 012a 2079     		ldrb	r0, [r4, #4]	@ zero_extendqisi2
 1566              		.loc 1 523 58 view .LVU528
 1567 012c 6579     		ldrb	r5, [r4, #5]	@ zero_extendqisi2
 1568              		.loc 1 523 49 view .LVU529
 1569 012e 00EB0520 		add	r0, r0, r5, lsl #8
 1570              		.loc 1 523 38 view .LVU530
 1571 0132 A2F85600 		strh	r0, [r2, #86]	@ movhi
 524:Core/Src/adBms6830ParseCreate.cpp ****       break;
 1572              		.loc 1 524 7 is_stmt 1 view .LVU531
 1573 0136 96E7     		b	.L75
 1574              	.LVL119:
 1575              	.L78:
 525:Core/Src/adBms6830ParseCreate.cpp **** 
 526:Core/Src/adBms6830ParseCreate.cpp ****     case E: /* Cell Register group E */
 1576              		.loc 1 526 5 view .LVU532
 527:Core/Src/adBms6830ParseCreate.cpp ****       ic[curr_ic].acell.ac_codes[12] = (data[0] + (data[1] << 8));
 1577              		.loc 1 527 7 view .LVU533
ARM GAS  C:\Users\huawei\AppData\Local\Temp\ccwYaMVL.s 			page 39


 1578              		.loc 1 527 47 is_stmt 0 view .LVU534
 1579 0138 2078     		ldrb	r0, [r4]	@ zero_extendqisi2
 1580              		.loc 1 527 58 view .LVU535
 1581 013a 94F801C0 		ldrb	ip, [r4, #1]	@ zero_extendqisi2
 1582              		.loc 1 527 17 view .LVU536
 1583 013e 4FF42872 		mov	r2, #672
 1584 0142 02FB05A2 		mla	r2, r2, r5, r10
 1585              		.loc 1 527 49 view .LVU537
 1586 0146 00EB0C20 		add	r0, r0, ip, lsl #8
 1587              		.loc 1 527 38 view .LVU538
 1588 014a A2F85800 		strh	r0, [r2, #88]	@ movhi
 528:Core/Src/adBms6830ParseCreate.cpp ****       ic[curr_ic].acell.ac_codes[13] = (data[2] + (data[3] << 8));
 1589              		.loc 1 528 7 is_stmt 1 view .LVU539
 1590              		.loc 1 528 47 is_stmt 0 view .LVU540
 1591 014e A078     		ldrb	r0, [r4, #2]	@ zero_extendqisi2
 1592              		.loc 1 528 58 view .LVU541
 1593 0150 E578     		ldrb	r5, [r4, #3]	@ zero_extendqisi2
 1594              	.LVL120:
 1595              		.loc 1 528 49 view .LVU542
 1596 0152 00EB0520 		add	r0, r0, r5, lsl #8
 1597              		.loc 1 528 38 view .LVU543
 1598 0156 A2F85A00 		strh	r0, [r2, #90]	@ movhi
 529:Core/Src/adBms6830ParseCreate.cpp ****       ic[curr_ic].acell.ac_codes[14] = (data[4] + (data[5] << 8));
 1599              		.loc 1 529 7 is_stmt 1 view .LVU544
 1600              		.loc 1 529 47 is_stmt 0 view .LVU545
 1601 015a 2079     		ldrb	r0, [r4, #4]	@ zero_extendqisi2
 1602              		.loc 1 529 58 view .LVU546
 1603 015c 6579     		ldrb	r5, [r4, #5]	@ zero_extendqisi2
 1604              		.loc 1 529 49 view .LVU547
 1605 015e 00EB0520 		add	r0, r0, r5, lsl #8
 1606              		.loc 1 529 38 view .LVU548
 1607 0162 A2F85C00 		strh	r0, [r2, #92]	@ movhi
 530:Core/Src/adBms6830ParseCreate.cpp ****       break;
 1608              		.loc 1 530 7 is_stmt 1 view .LVU549
 1609 0166 7EE7     		b	.L75
 1610              	.LVL121:
 1611              	.L76:
 531:Core/Src/adBms6830ParseCreate.cpp **** 
 532:Core/Src/adBms6830ParseCreate.cpp ****     case F: /* Cell Register group F */
 1612              		.loc 1 532 5 view .LVU550
 533:Core/Src/adBms6830ParseCreate.cpp ****       ic[curr_ic].acell.ac_codes[15] = (data[0] + (data[1] << 8));
 1613              		.loc 1 533 7 view .LVU551
 1614              		.loc 1 533 47 is_stmt 0 view .LVU552
 1615 0168 2078     		ldrb	r0, [r4]	@ zero_extendqisi2
 1616              		.loc 1 533 58 view .LVU553
 1617 016a 94F801C0 		ldrb	ip, [r4, #1]	@ zero_extendqisi2
 1618              		.loc 1 533 17 view .LVU554
 1619 016e 4FF42872 		mov	r2, #672
 1620 0172 02FB05A2 		mla	r2, r2, r5, r10
 1621              		.loc 1 533 49 view .LVU555
 1622 0176 00EB0C20 		add	r0, r0, ip, lsl #8
 1623              		.loc 1 533 38 view .LVU556
 1624 017a A2F85E00 		strh	r0, [r2, #94]	@ movhi
 534:Core/Src/adBms6830ParseCreate.cpp ****       break;
 1625              		.loc 1 534 7 is_stmt 1 view .LVU557
 1626 017e 72E7     		b	.L75
 1627              	.L83:
ARM GAS  C:\Users\huawei\AppData\Local\Temp\ccwYaMVL.s 			page 40


 535:Core/Src/adBms6830ParseCreate.cpp **** 
 536:Core/Src/adBms6830ParseCreate.cpp ****     case ALL_GRP: /* Cell Register group ALL */
 1628              		.loc 1 536 5 view .LVU558
 537:Core/Src/adBms6830ParseCreate.cpp ****       ic[curr_ic].acell.ac_codes[0] = (data[0] + (data[1] << 8));
 1629              		.loc 1 537 7 view .LVU559
 1630              		.loc 1 537 46 is_stmt 0 view .LVU560
 1631 0180 2078     		ldrb	r0, [r4]	@ zero_extendqisi2
 1632              		.loc 1 537 57 view .LVU561
 1633 0182 94F801C0 		ldrb	ip, [r4, #1]	@ zero_extendqisi2
 1634              		.loc 1 537 17 view .LVU562
 1635 0186 4FF42872 		mov	r2, #672
 1636 018a 02FB05A2 		mla	r2, r2, r5, r10
 1637              		.loc 1 537 48 view .LVU563
 1638 018e 00EB0C20 		add	r0, r0, ip, lsl #8
 1639              		.loc 1 537 37 view .LVU564
 1640 0192 A2F84000 		strh	r0, [r2, #64]	@ movhi
 538:Core/Src/adBms6830ParseCreate.cpp ****       ic[curr_ic].acell.ac_codes[1] = (data[2] + (data[3] << 8));
 1641              		.loc 1 538 7 is_stmt 1 view .LVU565
 1642              		.loc 1 538 46 is_stmt 0 view .LVU566
 1643 0196 A078     		ldrb	r0, [r4, #2]	@ zero_extendqisi2
 1644              		.loc 1 538 57 view .LVU567
 1645 0198 E578     		ldrb	r5, [r4, #3]	@ zero_extendqisi2
 1646              	.LVL122:
 1647              		.loc 1 538 48 view .LVU568
 1648 019a 00EB0520 		add	r0, r0, r5, lsl #8
 1649              		.loc 1 538 37 view .LVU569
 1650 019e A2F84200 		strh	r0, [r2, #66]	@ movhi
 539:Core/Src/adBms6830ParseCreate.cpp ****       ic[curr_ic].acell.ac_codes[2] = (data[4] + (data[5] << 8));
 1651              		.loc 1 539 7 is_stmt 1 view .LVU570
 1652              		.loc 1 539 46 is_stmt 0 view .LVU571
 1653 01a2 2079     		ldrb	r0, [r4, #4]	@ zero_extendqisi2
 1654              		.loc 1 539 57 view .LVU572
 1655 01a4 6579     		ldrb	r5, [r4, #5]	@ zero_extendqisi2
 1656              		.loc 1 539 48 view .LVU573
 1657 01a6 00EB0520 		add	r0, r0, r5, lsl #8
 1658              		.loc 1 539 37 view .LVU574
 1659 01aa A2F84400 		strh	r0, [r2, #68]	@ movhi
 540:Core/Src/adBms6830ParseCreate.cpp ****       ic[curr_ic].acell.ac_codes[3] = (data[6] + (data[7] << 8));
 1660              		.loc 1 540 7 is_stmt 1 view .LVU575
 1661              		.loc 1 540 46 is_stmt 0 view .LVU576
 1662 01ae A079     		ldrb	r0, [r4, #6]	@ zero_extendqisi2
 1663              		.loc 1 540 57 view .LVU577
 1664 01b0 E579     		ldrb	r5, [r4, #7]	@ zero_extendqisi2
 1665              		.loc 1 540 48 view .LVU578
 1666 01b2 00EB0520 		add	r0, r0, r5, lsl #8
 1667              		.loc 1 540 37 view .LVU579
 1668 01b6 A2F84600 		strh	r0, [r2, #70]	@ movhi
 541:Core/Src/adBms6830ParseCreate.cpp ****       ic[curr_ic].acell.ac_codes[4] = (data[8] + (data[9] << 8));
 1669              		.loc 1 541 7 is_stmt 1 view .LVU580
 1670              		.loc 1 541 46 is_stmt 0 view .LVU581
 1671 01ba 207A     		ldrb	r0, [r4, #8]	@ zero_extendqisi2
 1672              		.loc 1 541 57 view .LVU582
 1673 01bc 657A     		ldrb	r5, [r4, #9]	@ zero_extendqisi2
 1674              		.loc 1 541 48 view .LVU583
 1675 01be 00EB0520 		add	r0, r0, r5, lsl #8
 1676              		.loc 1 541 37 view .LVU584
 1677 01c2 A2F84800 		strh	r0, [r2, #72]	@ movhi
ARM GAS  C:\Users\huawei\AppData\Local\Temp\ccwYaMVL.s 			page 41


 542:Core/Src/adBms6830ParseCreate.cpp ****       ic[curr_ic].acell.ac_codes[5] = (data[10] + (data[11] << 8));
 1678              		.loc 1 542 7 is_stmt 1 view .LVU585
 1679              		.loc 1 542 47 is_stmt 0 view .LVU586
 1680 01c6 A07A     		ldrb	r0, [r4, #10]	@ zero_extendqisi2
 1681              		.loc 1 542 59 view .LVU587
 1682 01c8 E57A     		ldrb	r5, [r4, #11]	@ zero_extendqisi2
 1683              		.loc 1 542 49 view .LVU588
 1684 01ca 00EB0520 		add	r0, r0, r5, lsl #8
 1685              		.loc 1 542 37 view .LVU589
 1686 01ce A2F84A00 		strh	r0, [r2, #74]	@ movhi
 543:Core/Src/adBms6830ParseCreate.cpp ****       ic[curr_ic].acell.ac_codes[6] = (data[12] + (data[13] << 8));
 1687              		.loc 1 543 7 is_stmt 1 view .LVU590
 1688              		.loc 1 543 47 is_stmt 0 view .LVU591
 1689 01d2 207B     		ldrb	r0, [r4, #12]	@ zero_extendqisi2
 1690              		.loc 1 543 59 view .LVU592
 1691 01d4 657B     		ldrb	r5, [r4, #13]	@ zero_extendqisi2
 1692              		.loc 1 543 49 view .LVU593
 1693 01d6 00EB0520 		add	r0, r0, r5, lsl #8
 1694              		.loc 1 543 37 view .LVU594
 1695 01da A2F84C00 		strh	r0, [r2, #76]	@ movhi
 544:Core/Src/adBms6830ParseCreate.cpp ****       ic[curr_ic].acell.ac_codes[7] = (data[14] + (data[15] << 8));
 1696              		.loc 1 544 7 is_stmt 1 view .LVU595
 1697              		.loc 1 544 47 is_stmt 0 view .LVU596
 1698 01de A07B     		ldrb	r0, [r4, #14]	@ zero_extendqisi2
 1699              		.loc 1 544 59 view .LVU597
 1700 01e0 E57B     		ldrb	r5, [r4, #15]	@ zero_extendqisi2
 1701              		.loc 1 544 49 view .LVU598
 1702 01e2 00EB0520 		add	r0, r0, r5, lsl #8
 1703              		.loc 1 544 37 view .LVU599
 1704 01e6 A2F84E00 		strh	r0, [r2, #78]	@ movhi
 545:Core/Src/adBms6830ParseCreate.cpp ****       ic[curr_ic].acell.ac_codes[8] = (data[16] + (data[17] << 8));
 1705              		.loc 1 545 7 is_stmt 1 view .LVU600
 1706              		.loc 1 545 47 is_stmt 0 view .LVU601
 1707 01ea 207C     		ldrb	r0, [r4, #16]	@ zero_extendqisi2
 1708              		.loc 1 545 59 view .LVU602
 1709 01ec 657C     		ldrb	r5, [r4, #17]	@ zero_extendqisi2
 1710              		.loc 1 545 49 view .LVU603
 1711 01ee 00EB0520 		add	r0, r0, r5, lsl #8
 1712              		.loc 1 545 37 view .LVU604
 1713 01f2 A2F85000 		strh	r0, [r2, #80]	@ movhi
 546:Core/Src/adBms6830ParseCreate.cpp ****       ic[curr_ic].acell.ac_codes[9] =  (data[18] + (data[19] << 8));
 1714              		.loc 1 546 7 is_stmt 1 view .LVU605
 1715              		.loc 1 546 48 is_stmt 0 view .LVU606
 1716 01f6 A07C     		ldrb	r0, [r4, #18]	@ zero_extendqisi2
 1717              		.loc 1 546 60 view .LVU607
 1718 01f8 E57C     		ldrb	r5, [r4, #19]	@ zero_extendqisi2
 1719              		.loc 1 546 50 view .LVU608
 1720 01fa 00EB0520 		add	r0, r0, r5, lsl #8
 1721              		.loc 1 546 37 view .LVU609
 1722 01fe A2F85200 		strh	r0, [r2, #82]	@ movhi
 547:Core/Src/adBms6830ParseCreate.cpp ****       ic[curr_ic].acell.ac_codes[10] = (data[20] + (data[21] << 8));
 1723              		.loc 1 547 7 is_stmt 1 view .LVU610
 1724              		.loc 1 547 48 is_stmt 0 view .LVU611
 1725 0202 207D     		ldrb	r0, [r4, #20]	@ zero_extendqisi2
 1726              		.loc 1 547 60 view .LVU612
 1727 0204 657D     		ldrb	r5, [r4, #21]	@ zero_extendqisi2
 1728              		.loc 1 547 50 view .LVU613
ARM GAS  C:\Users\huawei\AppData\Local\Temp\ccwYaMVL.s 			page 42


 1729 0206 00EB0520 		add	r0, r0, r5, lsl #8
 1730              		.loc 1 547 38 view .LVU614
 1731 020a A2F85400 		strh	r0, [r2, #84]	@ movhi
 548:Core/Src/adBms6830ParseCreate.cpp ****       ic[curr_ic].acell.ac_codes[11] = (data[22] + (data[23] << 8));
 1732              		.loc 1 548 7 is_stmt 1 view .LVU615
 1733              		.loc 1 548 48 is_stmt 0 view .LVU616
 1734 020e A07D     		ldrb	r0, [r4, #22]	@ zero_extendqisi2
 1735              		.loc 1 548 60 view .LVU617
 1736 0210 E57D     		ldrb	r5, [r4, #23]	@ zero_extendqisi2
 1737              		.loc 1 548 50 view .LVU618
 1738 0212 00EB0520 		add	r0, r0, r5, lsl #8
 1739              		.loc 1 548 38 view .LVU619
 1740 0216 A2F85600 		strh	r0, [r2, #86]	@ movhi
 549:Core/Src/adBms6830ParseCreate.cpp ****       ic[curr_ic].acell.ac_codes[12] = (data[24] + (data[25] << 8));
 1741              		.loc 1 549 7 is_stmt 1 view .LVU620
 1742              		.loc 1 549 48 is_stmt 0 view .LVU621
 1743 021a 207E     		ldrb	r0, [r4, #24]	@ zero_extendqisi2
 1744              		.loc 1 549 60 view .LVU622
 1745 021c 657E     		ldrb	r5, [r4, #25]	@ zero_extendqisi2
 1746              		.loc 1 549 50 view .LVU623
 1747 021e 00EB0520 		add	r0, r0, r5, lsl #8
 1748              		.loc 1 549 38 view .LVU624
 1749 0222 A2F85800 		strh	r0, [r2, #88]	@ movhi
 550:Core/Src/adBms6830ParseCreate.cpp ****       ic[curr_ic].acell.ac_codes[13] = (data[26] + (data[27] << 8));
 1750              		.loc 1 550 7 is_stmt 1 view .LVU625
 1751              		.loc 1 550 48 is_stmt 0 view .LVU626
 1752 0226 A07E     		ldrb	r0, [r4, #26]	@ zero_extendqisi2
 1753              		.loc 1 550 60 view .LVU627
 1754 0228 E57E     		ldrb	r5, [r4, #27]	@ zero_extendqisi2
 1755              		.loc 1 550 50 view .LVU628
 1756 022a 00EB0520 		add	r0, r0, r5, lsl #8
 1757              		.loc 1 550 38 view .LVU629
 1758 022e A2F85A00 		strh	r0, [r2, #90]	@ movhi
 551:Core/Src/adBms6830ParseCreate.cpp ****       ic[curr_ic].acell.ac_codes[14] = (data[28] + (data[29] << 8));
 1759              		.loc 1 551 7 is_stmt 1 view .LVU630
 1760              		.loc 1 551 48 is_stmt 0 view .LVU631
 1761 0232 207F     		ldrb	r0, [r4, #28]	@ zero_extendqisi2
 1762              		.loc 1 551 60 view .LVU632
 1763 0234 657F     		ldrb	r5, [r4, #29]	@ zero_extendqisi2
 1764              		.loc 1 551 50 view .LVU633
 1765 0236 00EB0520 		add	r0, r0, r5, lsl #8
 1766              		.loc 1 551 38 view .LVU634
 1767 023a A2F85C00 		strh	r0, [r2, #92]	@ movhi
 552:Core/Src/adBms6830ParseCreate.cpp ****       ic[curr_ic].acell.ac_codes[15] = (data[30] + (data[31] << 8));
 1768              		.loc 1 552 7 is_stmt 1 view .LVU635
 1769              		.loc 1 552 48 is_stmt 0 view .LVU636
 1770 023e A07F     		ldrb	r0, [r4, #30]	@ zero_extendqisi2
 1771              		.loc 1 552 60 view .LVU637
 1772 0240 E57F     		ldrb	r5, [r4, #31]	@ zero_extendqisi2
 1773              		.loc 1 552 50 view .LVU638
 1774 0242 00EB0520 		add	r0, r0, r5, lsl #8
 1775              		.loc 1 552 38 view .LVU639
 1776 0246 A2F85E00 		strh	r0, [r2, #94]	@ movhi
 553:Core/Src/adBms6830ParseCreate.cpp ****       break;
 1777              		.loc 1 553 7 is_stmt 1 view .LVU640
 1778 024a 0CE7     		b	.L75
 1779              	.LVL123:
ARM GAS  C:\Users\huawei\AppData\Local\Temp\ccwYaMVL.s 			page 43


 1780              	.L90:
 1781              		.loc 1 553 7 is_stmt 0 view .LVU641
 1782              	.LBE16:
 554:Core/Src/adBms6830ParseCreate.cpp **** 
 555:Core/Src/adBms6830ParseCreate.cpp ****     default:
 556:Core/Src/adBms6830ParseCreate.cpp ****       break;
 557:Core/Src/adBms6830ParseCreate.cpp ****     }
 558:Core/Src/adBms6830ParseCreate.cpp ****   }
 559:Core/Src/adBms6830ParseCreate.cpp ****   free(data);
 1783              		.loc 1 559 3 is_stmt 1 view .LVU642
 1784              		.loc 1 559 7 is_stmt 0 view .LVU643
 1785 024c 2046     		mov	r0, r4
 1786 024e FFF7FEFF 		bl	free
 1787              	.LVL124:
 560:Core/Src/adBms6830ParseCreate.cpp **** }
 1788              		.loc 1 560 1 view .LVU644
 1789 0252 BDE8F88F 		pop	{r3, r4, r5, r6, r7, r8, r9, r10, fp, pc}
 1790              	.LVL125:
 1791              	.L92:
 1792              		.loc 1 560 1 view .LVU645
 1793 0256 00BF     		.align	2
 1794              	.L91:
 1795 0258 00000000 		.word	.LC1
 1796              		.cfi_endproc
 1797              	.LFE256:
 1798              		.fnend
 1800              		.section	.rodata._Z19adBms6830ParseSCellhP9cell_asic3GRPPh.str1.4,"aMS",%progbits,1
 1801              		.align	2
 1802              	.LC2:
 1803 0000 20466169 		.ascii	" Failed to allocate parse scv memory \000"
 1803      6C656420 
 1803      746F2061 
 1803      6C6C6F63 
 1803      61746520 
 1804              		.section	.text._Z19adBms6830ParseSCellhP9cell_asic3GRPPh,"ax",%progbits
 1805              		.align	1
 1806              		.global	_Z19adBms6830ParseSCellhP9cell_asic3GRPPh
 1807              		.syntax unified
 1808              		.thumb
 1809              		.thumb_func
 1811              	_Z19adBms6830ParseSCellhP9cell_asic3GRPPh:
 1812              		.fnstart
 1813              	.LVL126:
 1814              	.LFB257:
 561:Core/Src/adBms6830ParseCreate.cpp **** 
 562:Core/Src/adBms6830ParseCreate.cpp **** /**
 563:Core/Src/adBms6830ParseCreate.cpp ****  *******************************************************************************
 564:Core/Src/adBms6830ParseCreate.cpp ****  * Function: adBms6830ParseSCell
 565:Core/Src/adBms6830ParseCreate.cpp ****  * @brief Parse S cell voltages
 566:Core/Src/adBms6830ParseCreate.cpp ****  *
 567:Core/Src/adBms6830ParseCreate.cpp ****  * @details This function Parse the recived S cell register A,B,C,D,E and F data.
 568:Core/Src/adBms6830ParseCreate.cpp ****  *
 569:Core/Src/adBms6830ParseCreate.cpp ****  * Parameters:
 570:Core/Src/adBms6830ParseCreate.cpp ****  *
 571:Core/Src/adBms6830ParseCreate.cpp ****  * @param [in]  tIC                     Total IC
 572:Core/Src/adBms6830ParseCreate.cpp ****  *
 573:Core/Src/adBms6830ParseCreate.cpp ****  * @param [in]  *ic                     cell_asic ic structure pointer
ARM GAS  C:\Users\huawei\AppData\Local\Temp\ccwYaMVL.s 			page 44


 574:Core/Src/adBms6830ParseCreate.cpp ****  *
 575:Core/Src/adBms6830ParseCreate.cpp ****  * @param [in]  grp                     Enum type register group
 576:Core/Src/adBms6830ParseCreate.cpp ****  *
 577:Core/Src/adBms6830ParseCreate.cpp ****  * @param [in]  *scv_data               S cell voltage data pointer
 578:Core/Src/adBms6830ParseCreate.cpp ****  *
 579:Core/Src/adBms6830ParseCreate.cpp ****  * @return None
 580:Core/Src/adBms6830ParseCreate.cpp ****  *
 581:Core/Src/adBms6830ParseCreate.cpp ****  *******************************************************************************
 582:Core/Src/adBms6830ParseCreate.cpp **** */
 583:Core/Src/adBms6830ParseCreate.cpp **** /* Parse S cell voltages */
 584:Core/Src/adBms6830ParseCreate.cpp **** void adBms6830ParseSCell(uint8_t tIC, cell_asic *ic, GRP grp, uint8_t *scv_data)
 585:Core/Src/adBms6830ParseCreate.cpp **** {
 1815              		.loc 1 585 1 is_stmt 1 view -0
 1816              		.cfi_startproc
 1817              		@ args = 0, pretend = 0, frame = 0
 1818              		@ frame_needed = 0, uses_anonymous_args = 0
 1819              		.loc 1 585 1 is_stmt 0 view .LVU647
 1820 0000 2DE9F84F 		push	{r3, r4, r5, r6, r7, r8, r9, r10, fp, lr}
 1821              		.save {r3, r4, r5, r6, r7, r8, r9, r10, fp, lr}
 1822              	.LCFI9:
 1823              		.cfi_def_cfa_offset 40
 1824              		.cfi_offset 3, -40
 1825              		.cfi_offset 4, -36
 1826              		.cfi_offset 5, -32
 1827              		.cfi_offset 6, -28
 1828              		.cfi_offset 7, -24
 1829              		.cfi_offset 8, -20
 1830              		.cfi_offset 9, -16
 1831              		.cfi_offset 10, -12
 1832              		.cfi_offset 11, -8
 1833              		.cfi_offset 14, -4
 1834 0004 0746     		mov	r7, r0
 1835 0006 8A46     		mov	r10, r1
 1836 0008 9946     		mov	r9, r3
 586:Core/Src/adBms6830ParseCreate.cpp ****   uint8_t *data, data_size, address = 0;
 1837              		.loc 1 586 3 is_stmt 1 view .LVU648
 1838              	.LVL127:
 587:Core/Src/adBms6830ParseCreate.cpp ****   if(grp == ALL_GRP){data_size = RDSALL_SIZE;}
 1839              		.loc 1 587 3 view .LVU649
 1840 000a 1646     		mov	r6, r2
 1841 000c 5AB9     		cbnz	r2, .L106
 1842              		.loc 1 587 32 is_stmt 0 view .LVU650
 1843 000e 4FF02208 		mov	r8, #34
 1844              	.L94:
 1845              	.LVL128:
 588:Core/Src/adBms6830ParseCreate.cpp ****   else {data_size = RX_DATA;}
 589:Core/Src/adBms6830ParseCreate.cpp ****   data = (uint8_t *)calloc(data_size, sizeof(uint8_t));
 1846              		.loc 1 589 3 is_stmt 1 view .LVU651
 1847              		.loc 1 589 27 is_stmt 0 view .LVU652
 1848 0012 C346     		mov	fp, r8
 1849 0014 0121     		movs	r1, #1
 1850              	.LVL129:
 1851              		.loc 1 589 27 view .LVU653
 1852 0016 4046     		mov	r0, r8
 1853              	.LVL130:
 1854              		.loc 1 589 27 view .LVU654
 1855 0018 FFF7FEFF 		bl	calloc
ARM GAS  C:\Users\huawei\AppData\Local\Temp\ccwYaMVL.s 			page 45


 1856              	.LVL131:
 590:Core/Src/adBms6830ParseCreate.cpp ****   if(data == NULL)
 1857              		.loc 1 590 3 is_stmt 1 view .LVU655
 1858 001c 0446     		mov	r4, r0
 1859 001e 28B1     		cbz	r0, .L110
 1860              	.LBB17:
 591:Core/Src/adBms6830ParseCreate.cpp ****   {
 592:Core/Src/adBms6830ParseCreate.cpp ****     #ifdef MBED
 593:Core/Src/adBms6830ParseCreate.cpp ****     pc.printf(" Failed to allocate parse scv memory \n");
 594:Core/Src/adBms6830ParseCreate.cpp ****     #else
 595:Core/Src/adBms6830ParseCreate.cpp ****     printf(" Failed to allocate parse scv memory \n");
 596:Core/Src/adBms6830ParseCreate.cpp ****     #endif
 597:Core/Src/adBms6830ParseCreate.cpp ****     exit(0);
 598:Core/Src/adBms6830ParseCreate.cpp ****   }
 599:Core/Src/adBms6830ParseCreate.cpp ****   for(uint8_t curr_ic = 0; curr_ic < tIC; curr_ic++)
 1861              		.loc 1 599 15 is_stmt 0 view .LVU656
 1862 0020 0025     		movs	r5, #0
 1863              	.LBE17:
 586:Core/Src/adBms6830ParseCreate.cpp ****   if(grp == ALL_GRP){data_size = RDSALL_SIZE;}
 1864              		.loc 1 586 29 view .LVU657
 1865 0022 2946     		mov	r1, r5
 1866 0024 20E0     		b	.L95
 1867              	.LVL132:
 1868              	.L106:
 588:Core/Src/adBms6830ParseCreate.cpp ****   data = (uint8_t *)calloc(data_size, sizeof(uint8_t));
 1869              		.loc 1 588 19 view .LVU658
 1870 0026 4FF00808 		mov	r8, #8
 1871 002a F2E7     		b	.L94
 1872              	.LVL133:
 1873              	.L110:
 595:Core/Src/adBms6830ParseCreate.cpp ****     #endif
 1874              		.loc 1 595 5 is_stmt 1 view .LVU659
 595:Core/Src/adBms6830ParseCreate.cpp ****     #endif
 1875              		.loc 1 595 11 is_stmt 0 view .LVU660
 1876 002c 8A48     		ldr	r0, .L112
 1877              	.LVL134:
 595:Core/Src/adBms6830ParseCreate.cpp ****     #endif
 1878              		.loc 1 595 11 view .LVU661
 1879 002e FFF7FEFF 		bl	puts
 1880              	.LVL135:
 597:Core/Src/adBms6830ParseCreate.cpp ****   }
 1881              		.loc 1 597 5 is_stmt 1 view .LVU662
 597:Core/Src/adBms6830ParseCreate.cpp ****   }
 1882              		.loc 1 597 9 is_stmt 0 view .LVU663
 1883 0032 0020     		movs	r0, #0
 1884 0034 FFF7FEFF 		bl	exit
 1885              	.LVL136:
 1886              	.L103:
 1887              	.LBB18:
 600:Core/Src/adBms6830ParseCreate.cpp ****   {
 601:Core/Src/adBms6830ParseCreate.cpp ****     memcpy(&data[0], &scv_data[address], data_size); /* dst , src , size */
 602:Core/Src/adBms6830ParseCreate.cpp ****     address = ((curr_ic+1) * (data_size));
 603:Core/Src/adBms6830ParseCreate.cpp ****     switch (grp)
 604:Core/Src/adBms6830ParseCreate.cpp ****     {
 605:Core/Src/adBms6830ParseCreate.cpp ****     case A: /* Cell Register group A */
 1888              		.loc 1 605 5 is_stmt 1 view .LVU664
 606:Core/Src/adBms6830ParseCreate.cpp ****       ic[curr_ic].scell.sc_codes[0] = (data[0] + (data[1] << 8));
ARM GAS  C:\Users\huawei\AppData\Local\Temp\ccwYaMVL.s 			page 46


 1889              		.loc 1 606 7 view .LVU665
 1890              		.loc 1 606 46 is_stmt 0 view .LVU666
 1891 0038 2078     		ldrb	r0, [r4]	@ zero_extendqisi2
 1892              		.loc 1 606 57 view .LVU667
 1893 003a 94F801C0 		ldrb	ip, [r4, #1]	@ zero_extendqisi2
 1894              		.loc 1 606 17 view .LVU668
 1895 003e 4FF42872 		mov	r2, #672
 1896 0042 02FB05A2 		mla	r2, r2, r5, r10
 1897              		.loc 1 606 48 view .LVU669
 1898 0046 00EB0C20 		add	r0, r0, ip, lsl #8
 1899              		.loc 1 606 37 view .LVU670
 1900 004a A2F86000 		strh	r0, [r2, #96]	@ movhi
 607:Core/Src/adBms6830ParseCreate.cpp ****       ic[curr_ic].scell.sc_codes[1] = (data[2] + (data[3] << 8));
 1901              		.loc 1 607 7 is_stmt 1 view .LVU671
 1902              		.loc 1 607 46 is_stmt 0 view .LVU672
 1903 004e A078     		ldrb	r0, [r4, #2]	@ zero_extendqisi2
 1904              		.loc 1 607 57 view .LVU673
 1905 0050 E578     		ldrb	r5, [r4, #3]	@ zero_extendqisi2
 1906              	.LVL137:
 1907              		.loc 1 607 48 view .LVU674
 1908 0052 00EB0520 		add	r0, r0, r5, lsl #8
 1909              		.loc 1 607 37 view .LVU675
 1910 0056 A2F86200 		strh	r0, [r2, #98]	@ movhi
 608:Core/Src/adBms6830ParseCreate.cpp ****       ic[curr_ic].scell.sc_codes[2] = (data[4] + (data[5] << 8));
 1911              		.loc 1 608 7 is_stmt 1 view .LVU676
 1912              		.loc 1 608 46 is_stmt 0 view .LVU677
 1913 005a 2079     		ldrb	r0, [r4, #4]	@ zero_extendqisi2
 1914              		.loc 1 608 57 view .LVU678
 1915 005c 6579     		ldrb	r5, [r4, #5]	@ zero_extendqisi2
 1916              		.loc 1 608 48 view .LVU679
 1917 005e 00EB0520 		add	r0, r0, r5, lsl #8
 1918              		.loc 1 608 37 view .LVU680
 1919 0062 A2F86400 		strh	r0, [r2, #100]	@ movhi
 609:Core/Src/adBms6830ParseCreate.cpp ****       break;
 1920              		.loc 1 609 7 is_stmt 1 view .LVU681
 1921              	.L96:
 1922              		.loc 1 609 7 is_stmt 0 view .LVU682
 1923              	.LBE18:
 588:Core/Src/adBms6830ParseCreate.cpp ****   data = (uint8_t *)calloc(data_size, sizeof(uint8_t));
 1924              		.loc 1 588 19 discriminator 1 view .LVU683
 1925 0066 1D46     		mov	r5, r3
 1926              	.LVL138:
 1927              	.L95:
 1928              	.LBB19:
 599:Core/Src/adBms6830ParseCreate.cpp ****   {
 1929              		.loc 1 599 36 is_stmt 1 discriminator 1 view .LVU684
 1930 0068 BD42     		cmp	r5, r7
 1931 006a 80F0EF80 		bcs	.L111
 601:Core/Src/adBms6830ParseCreate.cpp ****     address = ((curr_ic+1) * (data_size));
 1932              		.loc 1 601 5 view .LVU685
 601:Core/Src/adBms6830ParseCreate.cpp ****     address = ((curr_ic+1) * (data_size));
 1933              		.loc 1 601 11 is_stmt 0 view .LVU686
 1934 006e 5A46     		mov	r2, fp
 1935 0070 4944     		add	r1, r1, r9
 1936              	.LVL139:
 601:Core/Src/adBms6830ParseCreate.cpp ****     address = ((curr_ic+1) * (data_size));
 1937              		.loc 1 601 11 view .LVU687
ARM GAS  C:\Users\huawei\AppData\Local\Temp\ccwYaMVL.s 			page 47


 1938 0072 2046     		mov	r0, r4
 1939 0074 FFF7FEFF 		bl	memcpy
 1940              	.LVL140:
 602:Core/Src/adBms6830ParseCreate.cpp ****     switch (grp)
 1941              		.loc 1 602 5 is_stmt 1 view .LVU688
 602:Core/Src/adBms6830ParseCreate.cpp ****     switch (grp)
 1942              		.loc 1 602 13 is_stmt 0 view .LVU689
 1943 0078 6B1C     		adds	r3, r5, #1
 1944 007a DBB2     		uxtb	r3, r3
 1945 007c 13FB08F1 		smulbb	r1, r3, r8
 1946 0080 C9B2     		uxtb	r1, r1
 1947              	.LVL141:
 603:Core/Src/adBms6830ParseCreate.cpp ****     {
 1948              		.loc 1 603 5 is_stmt 1 view .LVU690
 1949 0082 062E     		cmp	r6, #6
 1950 0084 EFD8     		bhi	.L96
 1951 0086 01A2     		adr	r2, .L98
 1952 0088 52F826F0 		ldr	pc, [r2, r6, lsl #2]
 1953              		.p2align 2
 1954              	.L98:
 1955 008c 81010000 		.word	.L104+1
 1956 0090 39000000 		.word	.L103+1
 1957 0094 A9000000 		.word	.L102+1
 1958 0098 D9000000 		.word	.L101+1
 1959 009c 09010000 		.word	.L100+1
 1960 00a0 39010000 		.word	.L99+1
 1961 00a4 69010000 		.word	.L97+1
 1962              		.p2align 1
 1963              	.L102:
 610:Core/Src/adBms6830ParseCreate.cpp **** 
 611:Core/Src/adBms6830ParseCreate.cpp ****     case B: /* Cell Register group B */
 1964              		.loc 1 611 5 view .LVU691
 612:Core/Src/adBms6830ParseCreate.cpp ****       ic[curr_ic].scell.sc_codes[3] = (data[0] + (data[1] << 8));
 1965              		.loc 1 612 7 view .LVU692
 1966              		.loc 1 612 46 is_stmt 0 view .LVU693
 1967 00a8 2078     		ldrb	r0, [r4]	@ zero_extendqisi2
 1968              		.loc 1 612 57 view .LVU694
 1969 00aa 94F801C0 		ldrb	ip, [r4, #1]	@ zero_extendqisi2
 1970              		.loc 1 612 17 view .LVU695
 1971 00ae 4FF42872 		mov	r2, #672
 1972 00b2 02FB05A2 		mla	r2, r2, r5, r10
 1973              		.loc 1 612 48 view .LVU696
 1974 00b6 00EB0C20 		add	r0, r0, ip, lsl #8
 1975              		.loc 1 612 37 view .LVU697
 1976 00ba A2F86600 		strh	r0, [r2, #102]	@ movhi
 613:Core/Src/adBms6830ParseCreate.cpp ****       ic[curr_ic].scell.sc_codes[4] = (data[2] + (data[3] << 8));
 1977              		.loc 1 613 7 is_stmt 1 view .LVU698
 1978              		.loc 1 613 46 is_stmt 0 view .LVU699
 1979 00be A078     		ldrb	r0, [r4, #2]	@ zero_extendqisi2
 1980              		.loc 1 613 57 view .LVU700
 1981 00c0 E578     		ldrb	r5, [r4, #3]	@ zero_extendqisi2
 1982              	.LVL142:
 1983              		.loc 1 613 48 view .LVU701
 1984 00c2 00EB0520 		add	r0, r0, r5, lsl #8
 1985              		.loc 1 613 37 view .LVU702
 1986 00c6 A2F86800 		strh	r0, [r2, #104]	@ movhi
 614:Core/Src/adBms6830ParseCreate.cpp ****       ic[curr_ic].scell.sc_codes[5] = (data[4] + (data[5] << 8));
ARM GAS  C:\Users\huawei\AppData\Local\Temp\ccwYaMVL.s 			page 48


 1987              		.loc 1 614 7 is_stmt 1 view .LVU703
 1988              		.loc 1 614 46 is_stmt 0 view .LVU704
 1989 00ca 2079     		ldrb	r0, [r4, #4]	@ zero_extendqisi2
 1990              		.loc 1 614 57 view .LVU705
 1991 00cc 6579     		ldrb	r5, [r4, #5]	@ zero_extendqisi2
 1992              		.loc 1 614 48 view .LVU706
 1993 00ce 00EB0520 		add	r0, r0, r5, lsl #8
 1994              		.loc 1 614 37 view .LVU707
 1995 00d2 A2F86A00 		strh	r0, [r2, #106]	@ movhi
 615:Core/Src/adBms6830ParseCreate.cpp ****       break;
 1996              		.loc 1 615 7 is_stmt 1 view .LVU708
 1997 00d6 C6E7     		b	.L96
 1998              	.LVL143:
 1999              	.L101:
 616:Core/Src/adBms6830ParseCreate.cpp **** 
 617:Core/Src/adBms6830ParseCreate.cpp ****     case C: /* Cell Register group C */
 2000              		.loc 1 617 5 view .LVU709
 618:Core/Src/adBms6830ParseCreate.cpp ****       ic[curr_ic].scell.sc_codes[6] = (data[0] + (data[1] << 8));
 2001              		.loc 1 618 7 view .LVU710
 2002              		.loc 1 618 46 is_stmt 0 view .LVU711
 2003 00d8 2078     		ldrb	r0, [r4]	@ zero_extendqisi2
 2004              		.loc 1 618 57 view .LVU712
 2005 00da 94F801C0 		ldrb	ip, [r4, #1]	@ zero_extendqisi2
 2006              		.loc 1 618 17 view .LVU713
 2007 00de 4FF42872 		mov	r2, #672
 2008 00e2 02FB05A2 		mla	r2, r2, r5, r10
 2009              		.loc 1 618 48 view .LVU714
 2010 00e6 00EB0C20 		add	r0, r0, ip, lsl #8
 2011              		.loc 1 618 37 view .LVU715
 2012 00ea A2F86C00 		strh	r0, [r2, #108]	@ movhi
 619:Core/Src/adBms6830ParseCreate.cpp ****       ic[curr_ic].scell.sc_codes[7] = (data[2] + (data[3] << 8));
 2013              		.loc 1 619 7 is_stmt 1 view .LVU716
 2014              		.loc 1 619 46 is_stmt 0 view .LVU717
 2015 00ee A078     		ldrb	r0, [r4, #2]	@ zero_extendqisi2
 2016              		.loc 1 619 57 view .LVU718
 2017 00f0 E578     		ldrb	r5, [r4, #3]	@ zero_extendqisi2
 2018              	.LVL144:
 2019              		.loc 1 619 48 view .LVU719
 2020 00f2 00EB0520 		add	r0, r0, r5, lsl #8
 2021              		.loc 1 619 37 view .LVU720
 2022 00f6 A2F86E00 		strh	r0, [r2, #110]	@ movhi
 620:Core/Src/adBms6830ParseCreate.cpp ****       ic[curr_ic].scell.sc_codes[8] = (data[4] + (data[5] << 8));
 2023              		.loc 1 620 7 is_stmt 1 view .LVU721
 2024              		.loc 1 620 46 is_stmt 0 view .LVU722
 2025 00fa 2079     		ldrb	r0, [r4, #4]	@ zero_extendqisi2
 2026              		.loc 1 620 57 view .LVU723
 2027 00fc 6579     		ldrb	r5, [r4, #5]	@ zero_extendqisi2
 2028              		.loc 1 620 48 view .LVU724
 2029 00fe 00EB0520 		add	r0, r0, r5, lsl #8
 2030              		.loc 1 620 37 view .LVU725
 2031 0102 A2F87000 		strh	r0, [r2, #112]	@ movhi
 621:Core/Src/adBms6830ParseCreate.cpp ****       break;
 2032              		.loc 1 621 7 is_stmt 1 view .LVU726
 2033 0106 AEE7     		b	.L96
 2034              	.LVL145:
 2035              	.L100:
 622:Core/Src/adBms6830ParseCreate.cpp **** 
ARM GAS  C:\Users\huawei\AppData\Local\Temp\ccwYaMVL.s 			page 49


 623:Core/Src/adBms6830ParseCreate.cpp ****     case D: /* Cell Register group D */
 2036              		.loc 1 623 5 view .LVU727
 624:Core/Src/adBms6830ParseCreate.cpp ****       ic[curr_ic].scell.sc_codes[9] =  (data[0] + (data[1] << 8));
 2037              		.loc 1 624 7 view .LVU728
 2038              		.loc 1 624 47 is_stmt 0 view .LVU729
 2039 0108 2078     		ldrb	r0, [r4]	@ zero_extendqisi2
 2040              		.loc 1 624 58 view .LVU730
 2041 010a 94F801C0 		ldrb	ip, [r4, #1]	@ zero_extendqisi2
 2042              		.loc 1 624 17 view .LVU731
 2043 010e 4FF42872 		mov	r2, #672
 2044 0112 02FB05A2 		mla	r2, r2, r5, r10
 2045              		.loc 1 624 49 view .LVU732
 2046 0116 00EB0C20 		add	r0, r0, ip, lsl #8
 2047              		.loc 1 624 37 view .LVU733
 2048 011a A2F87200 		strh	r0, [r2, #114]	@ movhi
 625:Core/Src/adBms6830ParseCreate.cpp ****       ic[curr_ic].scell.sc_codes[10] = (data[2] + (data[3] << 8));
 2049              		.loc 1 625 7 is_stmt 1 view .LVU734
 2050              		.loc 1 625 47 is_stmt 0 view .LVU735
 2051 011e A078     		ldrb	r0, [r4, #2]	@ zero_extendqisi2
 2052              		.loc 1 625 58 view .LVU736
 2053 0120 E578     		ldrb	r5, [r4, #3]	@ zero_extendqisi2
 2054              	.LVL146:
 2055              		.loc 1 625 49 view .LVU737
 2056 0122 00EB0520 		add	r0, r0, r5, lsl #8
 2057              		.loc 1 625 38 view .LVU738
 2058 0126 A2F87400 		strh	r0, [r2, #116]	@ movhi
 626:Core/Src/adBms6830ParseCreate.cpp ****       ic[curr_ic].scell.sc_codes[11] = (data[4] + (data[5] << 8));
 2059              		.loc 1 626 7 is_stmt 1 view .LVU739
 2060              		.loc 1 626 47 is_stmt 0 view .LVU740
 2061 012a 2079     		ldrb	r0, [r4, #4]	@ zero_extendqisi2
 2062              		.loc 1 626 58 view .LVU741
 2063 012c 6579     		ldrb	r5, [r4, #5]	@ zero_extendqisi2
 2064              		.loc 1 626 49 view .LVU742
 2065 012e 00EB0520 		add	r0, r0, r5, lsl #8
 2066              		.loc 1 626 38 view .LVU743
 2067 0132 A2F87600 		strh	r0, [r2, #118]	@ movhi
 627:Core/Src/adBms6830ParseCreate.cpp ****       break;
 2068              		.loc 1 627 7 is_stmt 1 view .LVU744
 2069 0136 96E7     		b	.L96
 2070              	.LVL147:
 2071              	.L99:
 628:Core/Src/adBms6830ParseCreate.cpp **** 
 629:Core/Src/adBms6830ParseCreate.cpp ****     case E: /* Cell Register group E */
 2072              		.loc 1 629 5 view .LVU745
 630:Core/Src/adBms6830ParseCreate.cpp ****       ic[curr_ic].scell.sc_codes[12] = (data[0] + (data[1] << 8));
 2073              		.loc 1 630 7 view .LVU746
 2074              		.loc 1 630 47 is_stmt 0 view .LVU747
 2075 0138 2078     		ldrb	r0, [r4]	@ zero_extendqisi2
 2076              		.loc 1 630 58 view .LVU748
 2077 013a 94F801C0 		ldrb	ip, [r4, #1]	@ zero_extendqisi2
 2078              		.loc 1 630 17 view .LVU749
 2079 013e 4FF42872 		mov	r2, #672
 2080 0142 02FB05A2 		mla	r2, r2, r5, r10
 2081              		.loc 1 630 49 view .LVU750
 2082 0146 00EB0C20 		add	r0, r0, ip, lsl #8
 2083              		.loc 1 630 38 view .LVU751
 2084 014a A2F87800 		strh	r0, [r2, #120]	@ movhi
ARM GAS  C:\Users\huawei\AppData\Local\Temp\ccwYaMVL.s 			page 50


 631:Core/Src/adBms6830ParseCreate.cpp ****       ic[curr_ic].scell.sc_codes[13] = (data[2] + (data[3] << 8));
 2085              		.loc 1 631 7 is_stmt 1 view .LVU752
 2086              		.loc 1 631 47 is_stmt 0 view .LVU753
 2087 014e A078     		ldrb	r0, [r4, #2]	@ zero_extendqisi2
 2088              		.loc 1 631 58 view .LVU754
 2089 0150 E578     		ldrb	r5, [r4, #3]	@ zero_extendqisi2
 2090              	.LVL148:
 2091              		.loc 1 631 49 view .LVU755
 2092 0152 00EB0520 		add	r0, r0, r5, lsl #8
 2093              		.loc 1 631 38 view .LVU756
 2094 0156 A2F87A00 		strh	r0, [r2, #122]	@ movhi
 632:Core/Src/adBms6830ParseCreate.cpp ****       ic[curr_ic].scell.sc_codes[14] = (data[4] + (data[5] << 8));
 2095              		.loc 1 632 7 is_stmt 1 view .LVU757
 2096              		.loc 1 632 47 is_stmt 0 view .LVU758
 2097 015a 2079     		ldrb	r0, [r4, #4]	@ zero_extendqisi2
 2098              		.loc 1 632 58 view .LVU759
 2099 015c 6579     		ldrb	r5, [r4, #5]	@ zero_extendqisi2
 2100              		.loc 1 632 49 view .LVU760
 2101 015e 00EB0520 		add	r0, r0, r5, lsl #8
 2102              		.loc 1 632 38 view .LVU761
 2103 0162 A2F87C00 		strh	r0, [r2, #124]	@ movhi
 633:Core/Src/adBms6830ParseCreate.cpp ****       break;
 2104              		.loc 1 633 7 is_stmt 1 view .LVU762
 2105 0166 7EE7     		b	.L96
 2106              	.LVL149:
 2107              	.L97:
 634:Core/Src/adBms6830ParseCreate.cpp **** 
 635:Core/Src/adBms6830ParseCreate.cpp ****     case F: /* Cell Register group F */
 2108              		.loc 1 635 5 view .LVU763
 636:Core/Src/adBms6830ParseCreate.cpp ****       ic[curr_ic].scell.sc_codes[15] = (data[0] + (data[1] << 8));
 2109              		.loc 1 636 7 view .LVU764
 2110              		.loc 1 636 47 is_stmt 0 view .LVU765
 2111 0168 2078     		ldrb	r0, [r4]	@ zero_extendqisi2
 2112              		.loc 1 636 58 view .LVU766
 2113 016a 94F801C0 		ldrb	ip, [r4, #1]	@ zero_extendqisi2
 2114              		.loc 1 636 17 view .LVU767
 2115 016e 4FF42872 		mov	r2, #672
 2116 0172 02FB05A2 		mla	r2, r2, r5, r10
 2117              		.loc 1 636 49 view .LVU768
 2118 0176 00EB0C20 		add	r0, r0, ip, lsl #8
 2119              		.loc 1 636 38 view .LVU769
 2120 017a A2F87E00 		strh	r0, [r2, #126]	@ movhi
 637:Core/Src/adBms6830ParseCreate.cpp ****       break;
 2121              		.loc 1 637 7 is_stmt 1 view .LVU770
 2122 017e 72E7     		b	.L96
 2123              	.L104:
 638:Core/Src/adBms6830ParseCreate.cpp **** 
 639:Core/Src/adBms6830ParseCreate.cpp ****     case ALL_GRP: /* Cell Register group ALL */
 2124              		.loc 1 639 5 view .LVU771
 640:Core/Src/adBms6830ParseCreate.cpp ****       ic[curr_ic].scell.sc_codes[0] = (data[0] + (data[1] << 8));
 2125              		.loc 1 640 7 view .LVU772
 2126              		.loc 1 640 46 is_stmt 0 view .LVU773
 2127 0180 2078     		ldrb	r0, [r4]	@ zero_extendqisi2
 2128              		.loc 1 640 57 view .LVU774
 2129 0182 94F801C0 		ldrb	ip, [r4, #1]	@ zero_extendqisi2
 2130              		.loc 1 640 17 view .LVU775
 2131 0186 4FF42872 		mov	r2, #672
ARM GAS  C:\Users\huawei\AppData\Local\Temp\ccwYaMVL.s 			page 51


 2132 018a 02FB05A2 		mla	r2, r2, r5, r10
 2133              		.loc 1 640 48 view .LVU776
 2134 018e 00EB0C20 		add	r0, r0, ip, lsl #8
 2135              		.loc 1 640 37 view .LVU777
 2136 0192 A2F86000 		strh	r0, [r2, #96]	@ movhi
 641:Core/Src/adBms6830ParseCreate.cpp ****       ic[curr_ic].scell.sc_codes[1] = (data[2] + (data[3] << 8));
 2137              		.loc 1 641 7 is_stmt 1 view .LVU778
 2138              		.loc 1 641 46 is_stmt 0 view .LVU779
 2139 0196 A078     		ldrb	r0, [r4, #2]	@ zero_extendqisi2
 2140              		.loc 1 641 57 view .LVU780
 2141 0198 E578     		ldrb	r5, [r4, #3]	@ zero_extendqisi2
 2142              	.LVL150:
 2143              		.loc 1 641 48 view .LVU781
 2144 019a 00EB0520 		add	r0, r0, r5, lsl #8
 2145              		.loc 1 641 37 view .LVU782
 2146 019e A2F86200 		strh	r0, [r2, #98]	@ movhi
 642:Core/Src/adBms6830ParseCreate.cpp ****       ic[curr_ic].scell.sc_codes[2] = (data[4] + (data[5] << 8));
 2147              		.loc 1 642 7 is_stmt 1 view .LVU783
 2148              		.loc 1 642 46 is_stmt 0 view .LVU784
 2149 01a2 2079     		ldrb	r0, [r4, #4]	@ zero_extendqisi2
 2150              		.loc 1 642 57 view .LVU785
 2151 01a4 6579     		ldrb	r5, [r4, #5]	@ zero_extendqisi2
 2152              		.loc 1 642 48 view .LVU786
 2153 01a6 00EB0520 		add	r0, r0, r5, lsl #8
 2154              		.loc 1 642 37 view .LVU787
 2155 01aa A2F86400 		strh	r0, [r2, #100]	@ movhi
 643:Core/Src/adBms6830ParseCreate.cpp ****       ic[curr_ic].scell.sc_codes[3] = (data[6] + (data[7] << 8));
 2156              		.loc 1 643 7 is_stmt 1 view .LVU788
 2157              		.loc 1 643 46 is_stmt 0 view .LVU789
 2158 01ae A079     		ldrb	r0, [r4, #6]	@ zero_extendqisi2
 2159              		.loc 1 643 57 view .LVU790
 2160 01b0 E579     		ldrb	r5, [r4, #7]	@ zero_extendqisi2
 2161              		.loc 1 643 48 view .LVU791
 2162 01b2 00EB0520 		add	r0, r0, r5, lsl #8
 2163              		.loc 1 643 37 view .LVU792
 2164 01b6 A2F86600 		strh	r0, [r2, #102]	@ movhi
 644:Core/Src/adBms6830ParseCreate.cpp ****       ic[curr_ic].scell.sc_codes[4] = (data[8] + (data[9] << 8));
 2165              		.loc 1 644 7 is_stmt 1 view .LVU793
 2166              		.loc 1 644 46 is_stmt 0 view .LVU794
 2167 01ba 207A     		ldrb	r0, [r4, #8]	@ zero_extendqisi2
 2168              		.loc 1 644 57 view .LVU795
 2169 01bc 657A     		ldrb	r5, [r4, #9]	@ zero_extendqisi2
 2170              		.loc 1 644 48 view .LVU796
 2171 01be 00EB0520 		add	r0, r0, r5, lsl #8
 2172              		.loc 1 644 37 view .LVU797
 2173 01c2 A2F86800 		strh	r0, [r2, #104]	@ movhi
 645:Core/Src/adBms6830ParseCreate.cpp ****       ic[curr_ic].scell.sc_codes[5] = (data[10] + (data[11] << 8));
 2174              		.loc 1 645 7 is_stmt 1 view .LVU798
 2175              		.loc 1 645 47 is_stmt 0 view .LVU799
 2176 01c6 A07A     		ldrb	r0, [r4, #10]	@ zero_extendqisi2
 2177              		.loc 1 645 59 view .LVU800
 2178 01c8 E57A     		ldrb	r5, [r4, #11]	@ zero_extendqisi2
 2179              		.loc 1 645 49 view .LVU801
 2180 01ca 00EB0520 		add	r0, r0, r5, lsl #8
 2181              		.loc 1 645 37 view .LVU802
 2182 01ce A2F86A00 		strh	r0, [r2, #106]	@ movhi
 646:Core/Src/adBms6830ParseCreate.cpp ****       ic[curr_ic].scell.sc_codes[6] = (data[12] + (data[13] << 8));
ARM GAS  C:\Users\huawei\AppData\Local\Temp\ccwYaMVL.s 			page 52


 2183              		.loc 1 646 7 is_stmt 1 view .LVU803
 2184              		.loc 1 646 47 is_stmt 0 view .LVU804
 2185 01d2 207B     		ldrb	r0, [r4, #12]	@ zero_extendqisi2
 2186              		.loc 1 646 59 view .LVU805
 2187 01d4 657B     		ldrb	r5, [r4, #13]	@ zero_extendqisi2
 2188              		.loc 1 646 49 view .LVU806
 2189 01d6 00EB0520 		add	r0, r0, r5, lsl #8
 2190              		.loc 1 646 37 view .LVU807
 2191 01da A2F86C00 		strh	r0, [r2, #108]	@ movhi
 647:Core/Src/adBms6830ParseCreate.cpp ****       ic[curr_ic].scell.sc_codes[7] = (data[14] + (data[15] << 8));
 2192              		.loc 1 647 7 is_stmt 1 view .LVU808
 2193              		.loc 1 647 47 is_stmt 0 view .LVU809
 2194 01de A07B     		ldrb	r0, [r4, #14]	@ zero_extendqisi2
 2195              		.loc 1 647 59 view .LVU810
 2196 01e0 E57B     		ldrb	r5, [r4, #15]	@ zero_extendqisi2
 2197              		.loc 1 647 49 view .LVU811
 2198 01e2 00EB0520 		add	r0, r0, r5, lsl #8
 2199              		.loc 1 647 37 view .LVU812
 2200 01e6 A2F86E00 		strh	r0, [r2, #110]	@ movhi
 648:Core/Src/adBms6830ParseCreate.cpp ****       ic[curr_ic].scell.sc_codes[8] = (data[16] + (data[17] << 8));
 2201              		.loc 1 648 7 is_stmt 1 view .LVU813
 2202              		.loc 1 648 47 is_stmt 0 view .LVU814
 2203 01ea 207C     		ldrb	r0, [r4, #16]	@ zero_extendqisi2
 2204              		.loc 1 648 59 view .LVU815
 2205 01ec 657C     		ldrb	r5, [r4, #17]	@ zero_extendqisi2
 2206              		.loc 1 648 49 view .LVU816
 2207 01ee 00EB0520 		add	r0, r0, r5, lsl #8
 2208              		.loc 1 648 37 view .LVU817
 2209 01f2 A2F87000 		strh	r0, [r2, #112]	@ movhi
 649:Core/Src/adBms6830ParseCreate.cpp ****       ic[curr_ic].scell.sc_codes[9] = (data[18] + (data[19] << 8));
 2210              		.loc 1 649 7 is_stmt 1 view .LVU818
 2211              		.loc 1 649 47 is_stmt 0 view .LVU819
 2212 01f6 A07C     		ldrb	r0, [r4, #18]	@ zero_extendqisi2
 2213              		.loc 1 649 59 view .LVU820
 2214 01f8 E57C     		ldrb	r5, [r4, #19]	@ zero_extendqisi2
 2215              		.loc 1 649 49 view .LVU821
 2216 01fa 00EB0520 		add	r0, r0, r5, lsl #8
 2217              		.loc 1 649 37 view .LVU822
 2218 01fe A2F87200 		strh	r0, [r2, #114]	@ movhi
 650:Core/Src/adBms6830ParseCreate.cpp ****       ic[curr_ic].scell.sc_codes[10] = (data[20] + (data[21] << 8));
 2219              		.loc 1 650 7 is_stmt 1 view .LVU823
 2220              		.loc 1 650 48 is_stmt 0 view .LVU824
 2221 0202 207D     		ldrb	r0, [r4, #20]	@ zero_extendqisi2
 2222              		.loc 1 650 60 view .LVU825
 2223 0204 657D     		ldrb	r5, [r4, #21]	@ zero_extendqisi2
 2224              		.loc 1 650 50 view .LVU826
 2225 0206 00EB0520 		add	r0, r0, r5, lsl #8
 2226              		.loc 1 650 38 view .LVU827
 2227 020a A2F87400 		strh	r0, [r2, #116]	@ movhi
 651:Core/Src/adBms6830ParseCreate.cpp ****       ic[curr_ic].scell.sc_codes[11] = (data[22] + (data[23] << 8));
 2228              		.loc 1 651 7 is_stmt 1 view .LVU828
 2229              		.loc 1 651 48 is_stmt 0 view .LVU829
 2230 020e A07D     		ldrb	r0, [r4, #22]	@ zero_extendqisi2
 2231              		.loc 1 651 60 view .LVU830
 2232 0210 E57D     		ldrb	r5, [r4, #23]	@ zero_extendqisi2
 2233              		.loc 1 651 50 view .LVU831
 2234 0212 00EB0520 		add	r0, r0, r5, lsl #8
ARM GAS  C:\Users\huawei\AppData\Local\Temp\ccwYaMVL.s 			page 53


 2235              		.loc 1 651 38 view .LVU832
 2236 0216 A2F87600 		strh	r0, [r2, #118]	@ movhi
 652:Core/Src/adBms6830ParseCreate.cpp ****       ic[curr_ic].scell.sc_codes[12] = (data[24] + (data[25] << 8));
 2237              		.loc 1 652 7 is_stmt 1 view .LVU833
 2238              		.loc 1 652 48 is_stmt 0 view .LVU834
 2239 021a 207E     		ldrb	r0, [r4, #24]	@ zero_extendqisi2
 2240              		.loc 1 652 60 view .LVU835
 2241 021c 657E     		ldrb	r5, [r4, #25]	@ zero_extendqisi2
 2242              		.loc 1 652 50 view .LVU836
 2243 021e 00EB0520 		add	r0, r0, r5, lsl #8
 2244              		.loc 1 652 38 view .LVU837
 2245 0222 A2F87800 		strh	r0, [r2, #120]	@ movhi
 653:Core/Src/adBms6830ParseCreate.cpp ****       ic[curr_ic].scell.sc_codes[13] = (data[26] + (data[27] << 8));
 2246              		.loc 1 653 7 is_stmt 1 view .LVU838
 2247              		.loc 1 653 48 is_stmt 0 view .LVU839
 2248 0226 A07E     		ldrb	r0, [r4, #26]	@ zero_extendqisi2
 2249              		.loc 1 653 60 view .LVU840
 2250 0228 E57E     		ldrb	r5, [r4, #27]	@ zero_extendqisi2
 2251              		.loc 1 653 50 view .LVU841
 2252 022a 00EB0520 		add	r0, r0, r5, lsl #8
 2253              		.loc 1 653 38 view .LVU842
 2254 022e A2F87A00 		strh	r0, [r2, #122]	@ movhi
 654:Core/Src/adBms6830ParseCreate.cpp ****       ic[curr_ic].scell.sc_codes[14] = (data[28] + (data[29] << 8));
 2255              		.loc 1 654 7 is_stmt 1 view .LVU843
 2256              		.loc 1 654 48 is_stmt 0 view .LVU844
 2257 0232 207F     		ldrb	r0, [r4, #28]	@ zero_extendqisi2
 2258              		.loc 1 654 60 view .LVU845
 2259 0234 657F     		ldrb	r5, [r4, #29]	@ zero_extendqisi2
 2260              		.loc 1 654 50 view .LVU846
 2261 0236 00EB0520 		add	r0, r0, r5, lsl #8
 2262              		.loc 1 654 38 view .LVU847
 2263 023a A2F87C00 		strh	r0, [r2, #124]	@ movhi
 655:Core/Src/adBms6830ParseCreate.cpp ****       ic[curr_ic].scell.sc_codes[15] = (data[30] + (data[31] << 8));
 2264              		.loc 1 655 7 is_stmt 1 view .LVU848
 2265              		.loc 1 655 48 is_stmt 0 view .LVU849
 2266 023e A07F     		ldrb	r0, [r4, #30]	@ zero_extendqisi2
 2267              		.loc 1 655 60 view .LVU850
 2268 0240 E57F     		ldrb	r5, [r4, #31]	@ zero_extendqisi2
 2269              		.loc 1 655 50 view .LVU851
 2270 0242 00EB0520 		add	r0, r0, r5, lsl #8
 2271              		.loc 1 655 38 view .LVU852
 2272 0246 A2F87E00 		strh	r0, [r2, #126]	@ movhi
 656:Core/Src/adBms6830ParseCreate.cpp ****       break;
 2273              		.loc 1 656 7 is_stmt 1 view .LVU853
 2274 024a 0CE7     		b	.L96
 2275              	.LVL151:
 2276              	.L111:
 2277              		.loc 1 656 7 is_stmt 0 view .LVU854
 2278              	.LBE19:
 657:Core/Src/adBms6830ParseCreate.cpp **** 
 658:Core/Src/adBms6830ParseCreate.cpp ****     default:
 659:Core/Src/adBms6830ParseCreate.cpp ****       break;
 660:Core/Src/adBms6830ParseCreate.cpp ****     }
 661:Core/Src/adBms6830ParseCreate.cpp ****   }
 662:Core/Src/adBms6830ParseCreate.cpp ****   free(data);
 2279              		.loc 1 662 3 is_stmt 1 view .LVU855
 2280              		.loc 1 662 7 is_stmt 0 view .LVU856
ARM GAS  C:\Users\huawei\AppData\Local\Temp\ccwYaMVL.s 			page 54


 2281 024c 2046     		mov	r0, r4
 2282 024e FFF7FEFF 		bl	free
 2283              	.LVL152:
 663:Core/Src/adBms6830ParseCreate.cpp **** }
 2284              		.loc 1 663 1 view .LVU857
 2285 0252 BDE8F88F 		pop	{r3, r4, r5, r6, r7, r8, r9, r10, fp, pc}
 2286              	.LVL153:
 2287              	.L113:
 2288              		.loc 1 663 1 view .LVU858
 2289 0256 00BF     		.align	2
 2290              	.L112:
 2291 0258 00000000 		.word	.LC2
 2292              		.cfi_endproc
 2293              	.LFE257:
 2294              		.fnend
 2296              		.section	.rodata._Z19adBms6830ParseFCellhP9cell_asic3GRPPh.str1.4,"aMS",%progbits,1
 2297              		.align	2
 2298              	.LC3:
 2299 0000 20466169 		.ascii	" Failed to allocate parse fcell memory \000"
 2299      6C656420 
 2299      746F2061 
 2299      6C6C6F63 
 2299      61746520 
 2300              		.section	.text._Z19adBms6830ParseFCellhP9cell_asic3GRPPh,"ax",%progbits
 2301              		.align	1
 2302              		.global	_Z19adBms6830ParseFCellhP9cell_asic3GRPPh
 2303              		.syntax unified
 2304              		.thumb
 2305              		.thumb_func
 2307              	_Z19adBms6830ParseFCellhP9cell_asic3GRPPh:
 2308              		.fnstart
 2309              	.LVL154:
 2310              	.LFB258:
 664:Core/Src/adBms6830ParseCreate.cpp **** 
 665:Core/Src/adBms6830ParseCreate.cpp **** /**
 666:Core/Src/adBms6830ParseCreate.cpp ****  *******************************************************************************
 667:Core/Src/adBms6830ParseCreate.cpp ****  * Function: adBms6830ParseFCell
 668:Core/Src/adBms6830ParseCreate.cpp ****  * @brief Parse Filtered cell voltages
 669:Core/Src/adBms6830ParseCreate.cpp ****  *
 670:Core/Src/adBms6830ParseCreate.cpp ****  * @details This function Parse the recived filtered cell register A,B,C,D,E and F data.
 671:Core/Src/adBms6830ParseCreate.cpp ****  *
 672:Core/Src/adBms6830ParseCreate.cpp ****  * Parameters:
 673:Core/Src/adBms6830ParseCreate.cpp ****  *
 674:Core/Src/adBms6830ParseCreate.cpp ****  * @param [in]  tIC                     Total IC
 675:Core/Src/adBms6830ParseCreate.cpp ****  *
 676:Core/Src/adBms6830ParseCreate.cpp ****  * @param [in]  *ic                     cell_asic ic structure pointer
 677:Core/Src/adBms6830ParseCreate.cpp ****  *
 678:Core/Src/adBms6830ParseCreate.cpp ****  * @param [in]  grp                     Enum type register group
 679:Core/Src/adBms6830ParseCreate.cpp ****  *
 680:Core/Src/adBms6830ParseCreate.cpp ****  * @param [in]  *fcv_data               Filtered cell voltage data pointer
 681:Core/Src/adBms6830ParseCreate.cpp ****  *
 682:Core/Src/adBms6830ParseCreate.cpp ****  * @return None
 683:Core/Src/adBms6830ParseCreate.cpp ****  *
 684:Core/Src/adBms6830ParseCreate.cpp ****  *******************************************************************************
 685:Core/Src/adBms6830ParseCreate.cpp **** */
 686:Core/Src/adBms6830ParseCreate.cpp **** void adBms6830ParseFCell(uint8_t tIC, cell_asic *ic, GRP grp, uint8_t *fcv_data)
 687:Core/Src/adBms6830ParseCreate.cpp **** {
ARM GAS  C:\Users\huawei\AppData\Local\Temp\ccwYaMVL.s 			page 55


 2311              		.loc 1 687 1 is_stmt 1 view -0
 2312              		.cfi_startproc
 2313              		@ args = 0, pretend = 0, frame = 0
 2314              		@ frame_needed = 0, uses_anonymous_args = 0
 2315              		.loc 1 687 1 is_stmt 0 view .LVU860
 2316 0000 2DE9F84F 		push	{r3, r4, r5, r6, r7, r8, r9, r10, fp, lr}
 2317              		.save {r3, r4, r5, r6, r7, r8, r9, r10, fp, lr}
 2318              	.LCFI10:
 2319              		.cfi_def_cfa_offset 40
 2320              		.cfi_offset 3, -40
 2321              		.cfi_offset 4, -36
 2322              		.cfi_offset 5, -32
 2323              		.cfi_offset 6, -28
 2324              		.cfi_offset 7, -24
 2325              		.cfi_offset 8, -20
 2326              		.cfi_offset 9, -16
 2327              		.cfi_offset 10, -12
 2328              		.cfi_offset 11, -8
 2329              		.cfi_offset 14, -4
 2330 0004 0746     		mov	r7, r0
 2331 0006 8A46     		mov	r10, r1
 2332 0008 9946     		mov	r9, r3
 688:Core/Src/adBms6830ParseCreate.cpp ****   uint8_t *data, data_size, address = 0;
 2333              		.loc 1 688 3 is_stmt 1 view .LVU861
 2334              	.LVL155:
 689:Core/Src/adBms6830ParseCreate.cpp ****   if(grp == ALL_GRP){data_size = RDFCALL_SIZE;}
 2335              		.loc 1 689 3 view .LVU862
 2336 000a 1646     		mov	r6, r2
 2337 000c 5AB9     		cbnz	r2, .L127
 2338              		.loc 1 689 32 is_stmt 0 view .LVU863
 2339 000e 4FF02208 		mov	r8, #34
 2340              	.L115:
 2341              	.LVL156:
 690:Core/Src/adBms6830ParseCreate.cpp ****   else {data_size = RX_DATA;}
 691:Core/Src/adBms6830ParseCreate.cpp ****   data = (uint8_t *)calloc(data_size, sizeof(uint8_t));
 2342              		.loc 1 691 3 is_stmt 1 view .LVU864
 2343              		.loc 1 691 27 is_stmt 0 view .LVU865
 2344 0012 C346     		mov	fp, r8
 2345 0014 0121     		movs	r1, #1
 2346              	.LVL157:
 2347              		.loc 1 691 27 view .LVU866
 2348 0016 4046     		mov	r0, r8
 2349              	.LVL158:
 2350              		.loc 1 691 27 view .LVU867
 2351 0018 FFF7FEFF 		bl	calloc
 2352              	.LVL159:
 692:Core/Src/adBms6830ParseCreate.cpp ****   if(data == NULL)
 2353              		.loc 1 692 3 is_stmt 1 view .LVU868
 2354 001c 0446     		mov	r4, r0
 2355 001e 28B1     		cbz	r0, .L131
 2356              	.LBB20:
 693:Core/Src/adBms6830ParseCreate.cpp ****   {
 694:Core/Src/adBms6830ParseCreate.cpp ****     #ifdef MBED
 695:Core/Src/adBms6830ParseCreate.cpp ****     pc.printf(" Failed to allocate parse fcell memory \n");
 696:Core/Src/adBms6830ParseCreate.cpp ****     #else
 697:Core/Src/adBms6830ParseCreate.cpp ****     printf(" Failed to allocate parse fcell memory \n");
 698:Core/Src/adBms6830ParseCreate.cpp ****     #endif
ARM GAS  C:\Users\huawei\AppData\Local\Temp\ccwYaMVL.s 			page 56


 699:Core/Src/adBms6830ParseCreate.cpp ****     exit(0);
 700:Core/Src/adBms6830ParseCreate.cpp ****   }
 701:Core/Src/adBms6830ParseCreate.cpp ****   for(uint8_t curr_ic = 0; curr_ic < tIC; curr_ic++)
 2357              		.loc 1 701 15 is_stmt 0 view .LVU869
 2358 0020 0025     		movs	r5, #0
 2359              	.LBE20:
 688:Core/Src/adBms6830ParseCreate.cpp ****   if(grp == ALL_GRP){data_size = RDFCALL_SIZE;}
 2360              		.loc 1 688 29 view .LVU870
 2361 0022 2946     		mov	r1, r5
 2362 0024 20E0     		b	.L116
 2363              	.LVL160:
 2364              	.L127:
 690:Core/Src/adBms6830ParseCreate.cpp ****   data = (uint8_t *)calloc(data_size, sizeof(uint8_t));
 2365              		.loc 1 690 19 view .LVU871
 2366 0026 4FF00808 		mov	r8, #8
 2367 002a F2E7     		b	.L115
 2368              	.LVL161:
 2369              	.L131:
 697:Core/Src/adBms6830ParseCreate.cpp ****     #endif
 2370              		.loc 1 697 5 is_stmt 1 view .LVU872
 697:Core/Src/adBms6830ParseCreate.cpp ****     #endif
 2371              		.loc 1 697 11 is_stmt 0 view .LVU873
 2372 002c 8A48     		ldr	r0, .L133
 2373              	.LVL162:
 697:Core/Src/adBms6830ParseCreate.cpp ****     #endif
 2374              		.loc 1 697 11 view .LVU874
 2375 002e FFF7FEFF 		bl	puts
 2376              	.LVL163:
 699:Core/Src/adBms6830ParseCreate.cpp ****   }
 2377              		.loc 1 699 5 is_stmt 1 view .LVU875
 699:Core/Src/adBms6830ParseCreate.cpp ****   }
 2378              		.loc 1 699 9 is_stmt 0 view .LVU876
 2379 0032 0020     		movs	r0, #0
 2380 0034 FFF7FEFF 		bl	exit
 2381              	.LVL164:
 2382              	.L124:
 2383              	.LBB21:
 702:Core/Src/adBms6830ParseCreate.cpp ****   {
 703:Core/Src/adBms6830ParseCreate.cpp ****     memcpy(&data[0], &fcv_data[address], data_size); /* dst , src , size */
 704:Core/Src/adBms6830ParseCreate.cpp ****     address = ((curr_ic+1) * (data_size));
 705:Core/Src/adBms6830ParseCreate.cpp ****     switch (grp)
 706:Core/Src/adBms6830ParseCreate.cpp ****     {
 707:Core/Src/adBms6830ParseCreate.cpp ****     case A: /* Cell Register group A */
 2384              		.loc 1 707 5 is_stmt 1 view .LVU877
 708:Core/Src/adBms6830ParseCreate.cpp ****       ic[curr_ic].fcell.fc_codes[0] = (data[0] + (data[1] << 8));
 2385              		.loc 1 708 7 view .LVU878
 2386              		.loc 1 708 46 is_stmt 0 view .LVU879
 2387 0038 2078     		ldrb	r0, [r4]	@ zero_extendqisi2
 2388              		.loc 1 708 57 view .LVU880
 2389 003a 94F801C0 		ldrb	ip, [r4, #1]	@ zero_extendqisi2
 2390              		.loc 1 708 17 view .LVU881
 2391 003e 4FF42872 		mov	r2, #672
 2392 0042 02FB05A2 		mla	r2, r2, r5, r10
 2393              		.loc 1 708 48 view .LVU882
 2394 0046 00EB0C20 		add	r0, r0, ip, lsl #8
 2395              		.loc 1 708 37 view .LVU883
 2396 004a A2F88000 		strh	r0, [r2, #128]	@ movhi
ARM GAS  C:\Users\huawei\AppData\Local\Temp\ccwYaMVL.s 			page 57


 709:Core/Src/adBms6830ParseCreate.cpp ****       ic[curr_ic].fcell.fc_codes[1] = (data[2] + (data[3] << 8));
 2397              		.loc 1 709 7 is_stmt 1 view .LVU884
 2398              		.loc 1 709 46 is_stmt 0 view .LVU885
 2399 004e A078     		ldrb	r0, [r4, #2]	@ zero_extendqisi2
 2400              		.loc 1 709 57 view .LVU886
 2401 0050 E578     		ldrb	r5, [r4, #3]	@ zero_extendqisi2
 2402              	.LVL165:
 2403              		.loc 1 709 48 view .LVU887
 2404 0052 00EB0520 		add	r0, r0, r5, lsl #8
 2405              		.loc 1 709 37 view .LVU888
 2406 0056 A2F88200 		strh	r0, [r2, #130]	@ movhi
 710:Core/Src/adBms6830ParseCreate.cpp ****       ic[curr_ic].fcell.fc_codes[2] = (data[4] + (data[5] << 8));
 2407              		.loc 1 710 7 is_stmt 1 view .LVU889
 2408              		.loc 1 710 46 is_stmt 0 view .LVU890
 2409 005a 2079     		ldrb	r0, [r4, #4]	@ zero_extendqisi2
 2410              		.loc 1 710 57 view .LVU891
 2411 005c 6579     		ldrb	r5, [r4, #5]	@ zero_extendqisi2
 2412              		.loc 1 710 48 view .LVU892
 2413 005e 00EB0520 		add	r0, r0, r5, lsl #8
 2414              		.loc 1 710 37 view .LVU893
 2415 0062 A2F88400 		strh	r0, [r2, #132]	@ movhi
 711:Core/Src/adBms6830ParseCreate.cpp ****       break;
 2416              		.loc 1 711 7 is_stmt 1 view .LVU894
 2417              	.L117:
 2418              		.loc 1 711 7 is_stmt 0 view .LVU895
 2419              	.LBE21:
 690:Core/Src/adBms6830ParseCreate.cpp ****   data = (uint8_t *)calloc(data_size, sizeof(uint8_t));
 2420              		.loc 1 690 19 discriminator 1 view .LVU896
 2421 0066 1D46     		mov	r5, r3
 2422              	.LVL166:
 2423              	.L116:
 2424              	.LBB22:
 701:Core/Src/adBms6830ParseCreate.cpp ****   {
 2425              		.loc 1 701 36 is_stmt 1 discriminator 1 view .LVU897
 2426 0068 BD42     		cmp	r5, r7
 2427 006a 80F0EF80 		bcs	.L132
 703:Core/Src/adBms6830ParseCreate.cpp ****     address = ((curr_ic+1) * (data_size));
 2428              		.loc 1 703 5 view .LVU898
 703:Core/Src/adBms6830ParseCreate.cpp ****     address = ((curr_ic+1) * (data_size));
 2429              		.loc 1 703 11 is_stmt 0 view .LVU899
 2430 006e 5A46     		mov	r2, fp
 2431 0070 4944     		add	r1, r1, r9
 2432              	.LVL167:
 703:Core/Src/adBms6830ParseCreate.cpp ****     address = ((curr_ic+1) * (data_size));
 2433              		.loc 1 703 11 view .LVU900
 2434 0072 2046     		mov	r0, r4
 2435 0074 FFF7FEFF 		bl	memcpy
 2436              	.LVL168:
 704:Core/Src/adBms6830ParseCreate.cpp ****     switch (grp)
 2437              		.loc 1 704 5 is_stmt 1 view .LVU901
 704:Core/Src/adBms6830ParseCreate.cpp ****     switch (grp)
 2438              		.loc 1 704 13 is_stmt 0 view .LVU902
 2439 0078 6B1C     		adds	r3, r5, #1
 2440 007a DBB2     		uxtb	r3, r3
 2441 007c 13FB08F1 		smulbb	r1, r3, r8
 2442 0080 C9B2     		uxtb	r1, r1
 2443              	.LVL169:
ARM GAS  C:\Users\huawei\AppData\Local\Temp\ccwYaMVL.s 			page 58


 705:Core/Src/adBms6830ParseCreate.cpp ****     {
 2444              		.loc 1 705 5 is_stmt 1 view .LVU903
 2445 0082 062E     		cmp	r6, #6
 2446 0084 EFD8     		bhi	.L117
 2447 0086 01A2     		adr	r2, .L119
 2448 0088 52F826F0 		ldr	pc, [r2, r6, lsl #2]
 2449              		.p2align 2
 2450              	.L119:
 2451 008c 81010000 		.word	.L125+1
 2452 0090 39000000 		.word	.L124+1
 2453 0094 A9000000 		.word	.L123+1
 2454 0098 D9000000 		.word	.L122+1
 2455 009c 09010000 		.word	.L121+1
 2456 00a0 39010000 		.word	.L120+1
 2457 00a4 69010000 		.word	.L118+1
 2458              		.p2align 1
 2459              	.L123:
 712:Core/Src/adBms6830ParseCreate.cpp **** 
 713:Core/Src/adBms6830ParseCreate.cpp ****     case B: /* Cell Register group B */
 2460              		.loc 1 713 5 view .LVU904
 714:Core/Src/adBms6830ParseCreate.cpp ****       ic[curr_ic].fcell.fc_codes[3] = (data[0] + (data[1] << 8));
 2461              		.loc 1 714 7 view .LVU905
 2462              		.loc 1 714 46 is_stmt 0 view .LVU906
 2463 00a8 2078     		ldrb	r0, [r4]	@ zero_extendqisi2
 2464              		.loc 1 714 57 view .LVU907
 2465 00aa 94F801C0 		ldrb	ip, [r4, #1]	@ zero_extendqisi2
 2466              		.loc 1 714 17 view .LVU908
 2467 00ae 4FF42872 		mov	r2, #672
 2468 00b2 02FB05A2 		mla	r2, r2, r5, r10
 2469              		.loc 1 714 48 view .LVU909
 2470 00b6 00EB0C20 		add	r0, r0, ip, lsl #8
 2471              		.loc 1 714 37 view .LVU910
 2472 00ba A2F88600 		strh	r0, [r2, #134]	@ movhi
 715:Core/Src/adBms6830ParseCreate.cpp ****       ic[curr_ic].fcell.fc_codes[4] = (data[2] + (data[3] << 8));
 2473              		.loc 1 715 7 is_stmt 1 view .LVU911
 2474              		.loc 1 715 46 is_stmt 0 view .LVU912
 2475 00be A078     		ldrb	r0, [r4, #2]	@ zero_extendqisi2
 2476              		.loc 1 715 57 view .LVU913
 2477 00c0 E578     		ldrb	r5, [r4, #3]	@ zero_extendqisi2
 2478              	.LVL170:
 2479              		.loc 1 715 48 view .LVU914
 2480 00c2 00EB0520 		add	r0, r0, r5, lsl #8
 2481              		.loc 1 715 37 view .LVU915
 2482 00c6 A2F88800 		strh	r0, [r2, #136]	@ movhi
 716:Core/Src/adBms6830ParseCreate.cpp ****       ic[curr_ic].fcell.fc_codes[5] = (data[4] + (data[5] << 8));
 2483              		.loc 1 716 7 is_stmt 1 view .LVU916
 2484              		.loc 1 716 46 is_stmt 0 view .LVU917
 2485 00ca 2079     		ldrb	r0, [r4, #4]	@ zero_extendqisi2
 2486              		.loc 1 716 57 view .LVU918
 2487 00cc 6579     		ldrb	r5, [r4, #5]	@ zero_extendqisi2
 2488              		.loc 1 716 48 view .LVU919
 2489 00ce 00EB0520 		add	r0, r0, r5, lsl #8
 2490              		.loc 1 716 37 view .LVU920
 2491 00d2 A2F88A00 		strh	r0, [r2, #138]	@ movhi
 717:Core/Src/adBms6830ParseCreate.cpp ****       break;
 2492              		.loc 1 717 7 is_stmt 1 view .LVU921
 2493 00d6 C6E7     		b	.L117
ARM GAS  C:\Users\huawei\AppData\Local\Temp\ccwYaMVL.s 			page 59


 2494              	.LVL171:
 2495              	.L122:
 718:Core/Src/adBms6830ParseCreate.cpp **** 
 719:Core/Src/adBms6830ParseCreate.cpp ****     case C: /* Cell Register group C */
 2496              		.loc 1 719 5 view .LVU922
 720:Core/Src/adBms6830ParseCreate.cpp ****       ic[curr_ic].fcell.fc_codes[6] = (data[0] + (data[1] << 8));
 2497              		.loc 1 720 7 view .LVU923
 2498              		.loc 1 720 46 is_stmt 0 view .LVU924
 2499 00d8 2078     		ldrb	r0, [r4]	@ zero_extendqisi2
 2500              		.loc 1 720 57 view .LVU925
 2501 00da 94F801C0 		ldrb	ip, [r4, #1]	@ zero_extendqisi2
 2502              		.loc 1 720 17 view .LVU926
 2503 00de 4FF42872 		mov	r2, #672
 2504 00e2 02FB05A2 		mla	r2, r2, r5, r10
 2505              		.loc 1 720 48 view .LVU927
 2506 00e6 00EB0C20 		add	r0, r0, ip, lsl #8
 2507              		.loc 1 720 37 view .LVU928
 2508 00ea A2F88C00 		strh	r0, [r2, #140]	@ movhi
 721:Core/Src/adBms6830ParseCreate.cpp ****       ic[curr_ic].fcell.fc_codes[7] = (data[2] + (data[3] << 8));
 2509              		.loc 1 721 7 is_stmt 1 view .LVU929
 2510              		.loc 1 721 46 is_stmt 0 view .LVU930
 2511 00ee A078     		ldrb	r0, [r4, #2]	@ zero_extendqisi2
 2512              		.loc 1 721 57 view .LVU931
 2513 00f0 E578     		ldrb	r5, [r4, #3]	@ zero_extendqisi2
 2514              	.LVL172:
 2515              		.loc 1 721 48 view .LVU932
 2516 00f2 00EB0520 		add	r0, r0, r5, lsl #8
 2517              		.loc 1 721 37 view .LVU933
 2518 00f6 A2F88E00 		strh	r0, [r2, #142]	@ movhi
 722:Core/Src/adBms6830ParseCreate.cpp ****       ic[curr_ic].fcell.fc_codes[8] = (data[4] + (data[5] << 8));
 2519              		.loc 1 722 7 is_stmt 1 view .LVU934
 2520              		.loc 1 722 46 is_stmt 0 view .LVU935
 2521 00fa 2079     		ldrb	r0, [r4, #4]	@ zero_extendqisi2
 2522              		.loc 1 722 57 view .LVU936
 2523 00fc 6579     		ldrb	r5, [r4, #5]	@ zero_extendqisi2
 2524              		.loc 1 722 48 view .LVU937
 2525 00fe 00EB0520 		add	r0, r0, r5, lsl #8
 2526              		.loc 1 722 37 view .LVU938
 2527 0102 A2F89000 		strh	r0, [r2, #144]	@ movhi
 723:Core/Src/adBms6830ParseCreate.cpp ****       break;
 2528              		.loc 1 723 7 is_stmt 1 view .LVU939
 2529 0106 AEE7     		b	.L117
 2530              	.LVL173:
 2531              	.L121:
 724:Core/Src/adBms6830ParseCreate.cpp **** 
 725:Core/Src/adBms6830ParseCreate.cpp ****     case D: /* Cell Register group D */
 2532              		.loc 1 725 5 view .LVU940
 726:Core/Src/adBms6830ParseCreate.cpp ****       ic[curr_ic].fcell.fc_codes[9] =  (data[0] + (data[1] << 8));
 2533              		.loc 1 726 7 view .LVU941
 2534              		.loc 1 726 47 is_stmt 0 view .LVU942
 2535 0108 2078     		ldrb	r0, [r4]	@ zero_extendqisi2
 2536              		.loc 1 726 58 view .LVU943
 2537 010a 94F801C0 		ldrb	ip, [r4, #1]	@ zero_extendqisi2
 2538              		.loc 1 726 17 view .LVU944
 2539 010e 4FF42872 		mov	r2, #672
 2540 0112 02FB05A2 		mla	r2, r2, r5, r10
 2541              		.loc 1 726 49 view .LVU945
ARM GAS  C:\Users\huawei\AppData\Local\Temp\ccwYaMVL.s 			page 60


 2542 0116 00EB0C20 		add	r0, r0, ip, lsl #8
 2543              		.loc 1 726 37 view .LVU946
 2544 011a A2F89200 		strh	r0, [r2, #146]	@ movhi
 727:Core/Src/adBms6830ParseCreate.cpp ****       ic[curr_ic].fcell.fc_codes[10] = (data[2] + (data[3] << 8));
 2545              		.loc 1 727 7 is_stmt 1 view .LVU947
 2546              		.loc 1 727 47 is_stmt 0 view .LVU948
 2547 011e A078     		ldrb	r0, [r4, #2]	@ zero_extendqisi2
 2548              		.loc 1 727 58 view .LVU949
 2549 0120 E578     		ldrb	r5, [r4, #3]	@ zero_extendqisi2
 2550              	.LVL174:
 2551              		.loc 1 727 49 view .LVU950
 2552 0122 00EB0520 		add	r0, r0, r5, lsl #8
 2553              		.loc 1 727 38 view .LVU951
 2554 0126 A2F89400 		strh	r0, [r2, #148]	@ movhi
 728:Core/Src/adBms6830ParseCreate.cpp ****       ic[curr_ic].fcell.fc_codes[11] = (data[4] + (data[5] << 8));
 2555              		.loc 1 728 7 is_stmt 1 view .LVU952
 2556              		.loc 1 728 47 is_stmt 0 view .LVU953
 2557 012a 2079     		ldrb	r0, [r4, #4]	@ zero_extendqisi2
 2558              		.loc 1 728 58 view .LVU954
 2559 012c 6579     		ldrb	r5, [r4, #5]	@ zero_extendqisi2
 2560              		.loc 1 728 49 view .LVU955
 2561 012e 00EB0520 		add	r0, r0, r5, lsl #8
 2562              		.loc 1 728 38 view .LVU956
 2563 0132 A2F89600 		strh	r0, [r2, #150]	@ movhi
 729:Core/Src/adBms6830ParseCreate.cpp ****       break;
 2564              		.loc 1 729 7 is_stmt 1 view .LVU957
 2565 0136 96E7     		b	.L117
 2566              	.LVL175:
 2567              	.L120:
 730:Core/Src/adBms6830ParseCreate.cpp **** 
 731:Core/Src/adBms6830ParseCreate.cpp ****     case E: /* Cell Register group E */
 2568              		.loc 1 731 5 view .LVU958
 732:Core/Src/adBms6830ParseCreate.cpp ****       ic[curr_ic].fcell.fc_codes[12] = (data[0] + (data[1] << 8));
 2569              		.loc 1 732 7 view .LVU959
 2570              		.loc 1 732 47 is_stmt 0 view .LVU960
 2571 0138 2078     		ldrb	r0, [r4]	@ zero_extendqisi2
 2572              		.loc 1 732 58 view .LVU961
 2573 013a 94F801C0 		ldrb	ip, [r4, #1]	@ zero_extendqisi2
 2574              		.loc 1 732 17 view .LVU962
 2575 013e 4FF42872 		mov	r2, #672
 2576 0142 02FB05A2 		mla	r2, r2, r5, r10
 2577              		.loc 1 732 49 view .LVU963
 2578 0146 00EB0C20 		add	r0, r0, ip, lsl #8
 2579              		.loc 1 732 38 view .LVU964
 2580 014a A2F89800 		strh	r0, [r2, #152]	@ movhi
 733:Core/Src/adBms6830ParseCreate.cpp ****       ic[curr_ic].fcell.fc_codes[13] = (data[2] + (data[3] << 8));
 2581              		.loc 1 733 7 is_stmt 1 view .LVU965
 2582              		.loc 1 733 47 is_stmt 0 view .LVU966
 2583 014e A078     		ldrb	r0, [r4, #2]	@ zero_extendqisi2
 2584              		.loc 1 733 58 view .LVU967
 2585 0150 E578     		ldrb	r5, [r4, #3]	@ zero_extendqisi2
 2586              	.LVL176:
 2587              		.loc 1 733 49 view .LVU968
 2588 0152 00EB0520 		add	r0, r0, r5, lsl #8
 2589              		.loc 1 733 38 view .LVU969
 2590 0156 A2F89A00 		strh	r0, [r2, #154]	@ movhi
 734:Core/Src/adBms6830ParseCreate.cpp ****       ic[curr_ic].fcell.fc_codes[14] = (data[4] + (data[5] << 8));
ARM GAS  C:\Users\huawei\AppData\Local\Temp\ccwYaMVL.s 			page 61


 2591              		.loc 1 734 7 is_stmt 1 view .LVU970
 2592              		.loc 1 734 47 is_stmt 0 view .LVU971
 2593 015a 2079     		ldrb	r0, [r4, #4]	@ zero_extendqisi2
 2594              		.loc 1 734 58 view .LVU972
 2595 015c 6579     		ldrb	r5, [r4, #5]	@ zero_extendqisi2
 2596              		.loc 1 734 49 view .LVU973
 2597 015e 00EB0520 		add	r0, r0, r5, lsl #8
 2598              		.loc 1 734 38 view .LVU974
 2599 0162 A2F89C00 		strh	r0, [r2, #156]	@ movhi
 735:Core/Src/adBms6830ParseCreate.cpp ****       break;
 2600              		.loc 1 735 7 is_stmt 1 view .LVU975
 2601 0166 7EE7     		b	.L117
 2602              	.LVL177:
 2603              	.L118:
 736:Core/Src/adBms6830ParseCreate.cpp **** 
 737:Core/Src/adBms6830ParseCreate.cpp ****     case F: /* Cell Register group F */
 2604              		.loc 1 737 5 view .LVU976
 738:Core/Src/adBms6830ParseCreate.cpp ****       ic[curr_ic].fcell.fc_codes[15] = (data[0] + (data[1] << 8));
 2605              		.loc 1 738 7 view .LVU977
 2606              		.loc 1 738 47 is_stmt 0 view .LVU978
 2607 0168 2078     		ldrb	r0, [r4]	@ zero_extendqisi2
 2608              		.loc 1 738 58 view .LVU979
 2609 016a 94F801C0 		ldrb	ip, [r4, #1]	@ zero_extendqisi2
 2610              		.loc 1 738 17 view .LVU980
 2611 016e 4FF42872 		mov	r2, #672
 2612 0172 02FB05A2 		mla	r2, r2, r5, r10
 2613              		.loc 1 738 49 view .LVU981
 2614 0176 00EB0C20 		add	r0, r0, ip, lsl #8
 2615              		.loc 1 738 38 view .LVU982
 2616 017a A2F89E00 		strh	r0, [r2, #158]	@ movhi
 739:Core/Src/adBms6830ParseCreate.cpp ****       break;
 2617              		.loc 1 739 7 is_stmt 1 view .LVU983
 2618 017e 72E7     		b	.L117
 2619              	.L125:
 740:Core/Src/adBms6830ParseCreate.cpp **** 
 741:Core/Src/adBms6830ParseCreate.cpp ****     case ALL_GRP: /* Cell Register group ALL */
 2620              		.loc 1 741 5 view .LVU984
 742:Core/Src/adBms6830ParseCreate.cpp ****       ic[curr_ic].fcell.fc_codes[0] = (data[0] + (data[1] << 8));
 2621              		.loc 1 742 7 view .LVU985
 2622              		.loc 1 742 46 is_stmt 0 view .LVU986
 2623 0180 2078     		ldrb	r0, [r4]	@ zero_extendqisi2
 2624              		.loc 1 742 57 view .LVU987
 2625 0182 94F801C0 		ldrb	ip, [r4, #1]	@ zero_extendqisi2
 2626              		.loc 1 742 17 view .LVU988
 2627 0186 4FF42872 		mov	r2, #672
 2628 018a 02FB05A2 		mla	r2, r2, r5, r10
 2629              		.loc 1 742 48 view .LVU989
 2630 018e 00EB0C20 		add	r0, r0, ip, lsl #8
 2631              		.loc 1 742 37 view .LVU990
 2632 0192 A2F88000 		strh	r0, [r2, #128]	@ movhi
 743:Core/Src/adBms6830ParseCreate.cpp ****       ic[curr_ic].fcell.fc_codes[1] = (data[2] + (data[3] << 8));
 2633              		.loc 1 743 7 is_stmt 1 view .LVU991
 2634              		.loc 1 743 46 is_stmt 0 view .LVU992
 2635 0196 A078     		ldrb	r0, [r4, #2]	@ zero_extendqisi2
 2636              		.loc 1 743 57 view .LVU993
 2637 0198 E578     		ldrb	r5, [r4, #3]	@ zero_extendqisi2
 2638              	.LVL178:
ARM GAS  C:\Users\huawei\AppData\Local\Temp\ccwYaMVL.s 			page 62


 2639              		.loc 1 743 48 view .LVU994
 2640 019a 00EB0520 		add	r0, r0, r5, lsl #8
 2641              		.loc 1 743 37 view .LVU995
 2642 019e A2F88200 		strh	r0, [r2, #130]	@ movhi
 744:Core/Src/adBms6830ParseCreate.cpp ****       ic[curr_ic].fcell.fc_codes[2] = (data[4] + (data[5] << 8));
 2643              		.loc 1 744 7 is_stmt 1 view .LVU996
 2644              		.loc 1 744 46 is_stmt 0 view .LVU997
 2645 01a2 2079     		ldrb	r0, [r4, #4]	@ zero_extendqisi2
 2646              		.loc 1 744 57 view .LVU998
 2647 01a4 6579     		ldrb	r5, [r4, #5]	@ zero_extendqisi2
 2648              		.loc 1 744 48 view .LVU999
 2649 01a6 00EB0520 		add	r0, r0, r5, lsl #8
 2650              		.loc 1 744 37 view .LVU1000
 2651 01aa A2F88400 		strh	r0, [r2, #132]	@ movhi
 745:Core/Src/adBms6830ParseCreate.cpp ****       ic[curr_ic].fcell.fc_codes[3] = (data[6] + (data[7] << 8));
 2652              		.loc 1 745 7 is_stmt 1 view .LVU1001
 2653              		.loc 1 745 46 is_stmt 0 view .LVU1002
 2654 01ae A079     		ldrb	r0, [r4, #6]	@ zero_extendqisi2
 2655              		.loc 1 745 57 view .LVU1003
 2656 01b0 E579     		ldrb	r5, [r4, #7]	@ zero_extendqisi2
 2657              		.loc 1 745 48 view .LVU1004
 2658 01b2 00EB0520 		add	r0, r0, r5, lsl #8
 2659              		.loc 1 745 37 view .LVU1005
 2660 01b6 A2F88600 		strh	r0, [r2, #134]	@ movhi
 746:Core/Src/adBms6830ParseCreate.cpp ****       ic[curr_ic].fcell.fc_codes[4] = (data[8] + (data[9] << 8));
 2661              		.loc 1 746 7 is_stmt 1 view .LVU1006
 2662              		.loc 1 746 46 is_stmt 0 view .LVU1007
 2663 01ba 207A     		ldrb	r0, [r4, #8]	@ zero_extendqisi2
 2664              		.loc 1 746 57 view .LVU1008
 2665 01bc 657A     		ldrb	r5, [r4, #9]	@ zero_extendqisi2
 2666              		.loc 1 746 48 view .LVU1009
 2667 01be 00EB0520 		add	r0, r0, r5, lsl #8
 2668              		.loc 1 746 37 view .LVU1010
 2669 01c2 A2F88800 		strh	r0, [r2, #136]	@ movhi
 747:Core/Src/adBms6830ParseCreate.cpp ****       ic[curr_ic].fcell.fc_codes[5] = (data[10] + (data[11] << 8));
 2670              		.loc 1 747 7 is_stmt 1 view .LVU1011
 2671              		.loc 1 747 47 is_stmt 0 view .LVU1012
 2672 01c6 A07A     		ldrb	r0, [r4, #10]	@ zero_extendqisi2
 2673              		.loc 1 747 59 view .LVU1013
 2674 01c8 E57A     		ldrb	r5, [r4, #11]	@ zero_extendqisi2
 2675              		.loc 1 747 49 view .LVU1014
 2676 01ca 00EB0520 		add	r0, r0, r5, lsl #8
 2677              		.loc 1 747 37 view .LVU1015
 2678 01ce A2F88A00 		strh	r0, [r2, #138]	@ movhi
 748:Core/Src/adBms6830ParseCreate.cpp ****       ic[curr_ic].fcell.fc_codes[6] = (data[12] + (data[13] << 8));
 2679              		.loc 1 748 7 is_stmt 1 view .LVU1016
 2680              		.loc 1 748 47 is_stmt 0 view .LVU1017
 2681 01d2 207B     		ldrb	r0, [r4, #12]	@ zero_extendqisi2
 2682              		.loc 1 748 59 view .LVU1018
 2683 01d4 657B     		ldrb	r5, [r4, #13]	@ zero_extendqisi2
 2684              		.loc 1 748 49 view .LVU1019
 2685 01d6 00EB0520 		add	r0, r0, r5, lsl #8
 2686              		.loc 1 748 37 view .LVU1020
 2687 01da A2F88C00 		strh	r0, [r2, #140]	@ movhi
 749:Core/Src/adBms6830ParseCreate.cpp ****       ic[curr_ic].fcell.fc_codes[7] = (data[14] + (data[15] << 8));
 2688              		.loc 1 749 7 is_stmt 1 view .LVU1021
 2689              		.loc 1 749 47 is_stmt 0 view .LVU1022
ARM GAS  C:\Users\huawei\AppData\Local\Temp\ccwYaMVL.s 			page 63


 2690 01de A07B     		ldrb	r0, [r4, #14]	@ zero_extendqisi2
 2691              		.loc 1 749 59 view .LVU1023
 2692 01e0 E57B     		ldrb	r5, [r4, #15]	@ zero_extendqisi2
 2693              		.loc 1 749 49 view .LVU1024
 2694 01e2 00EB0520 		add	r0, r0, r5, lsl #8
 2695              		.loc 1 749 37 view .LVU1025
 2696 01e6 A2F88E00 		strh	r0, [r2, #142]	@ movhi
 750:Core/Src/adBms6830ParseCreate.cpp ****       ic[curr_ic].fcell.fc_codes[8] = (data[16] + (data[17] << 8));
 2697              		.loc 1 750 7 is_stmt 1 view .LVU1026
 2698              		.loc 1 750 47 is_stmt 0 view .LVU1027
 2699 01ea 207C     		ldrb	r0, [r4, #16]	@ zero_extendqisi2
 2700              		.loc 1 750 59 view .LVU1028
 2701 01ec 657C     		ldrb	r5, [r4, #17]	@ zero_extendqisi2
 2702              		.loc 1 750 49 view .LVU1029
 2703 01ee 00EB0520 		add	r0, r0, r5, lsl #8
 2704              		.loc 1 750 37 view .LVU1030
 2705 01f2 A2F89000 		strh	r0, [r2, #144]	@ movhi
 751:Core/Src/adBms6830ParseCreate.cpp ****       ic[curr_ic].fcell.fc_codes[9] =  (data[18] + (data[19] << 8));
 2706              		.loc 1 751 7 is_stmt 1 view .LVU1031
 2707              		.loc 1 751 48 is_stmt 0 view .LVU1032
 2708 01f6 A07C     		ldrb	r0, [r4, #18]	@ zero_extendqisi2
 2709              		.loc 1 751 60 view .LVU1033
 2710 01f8 E57C     		ldrb	r5, [r4, #19]	@ zero_extendqisi2
 2711              		.loc 1 751 50 view .LVU1034
 2712 01fa 00EB0520 		add	r0, r0, r5, lsl #8
 2713              		.loc 1 751 37 view .LVU1035
 2714 01fe A2F89200 		strh	r0, [r2, #146]	@ movhi
 752:Core/Src/adBms6830ParseCreate.cpp ****       ic[curr_ic].fcell.fc_codes[10] = (data[20] + (data[21] << 8));
 2715              		.loc 1 752 7 is_stmt 1 view .LVU1036
 2716              		.loc 1 752 48 is_stmt 0 view .LVU1037
 2717 0202 207D     		ldrb	r0, [r4, #20]	@ zero_extendqisi2
 2718              		.loc 1 752 60 view .LVU1038
 2719 0204 657D     		ldrb	r5, [r4, #21]	@ zero_extendqisi2
 2720              		.loc 1 752 50 view .LVU1039
 2721 0206 00EB0520 		add	r0, r0, r5, lsl #8
 2722              		.loc 1 752 38 view .LVU1040
 2723 020a A2F89400 		strh	r0, [r2, #148]	@ movhi
 753:Core/Src/adBms6830ParseCreate.cpp ****       ic[curr_ic].fcell.fc_codes[11] = (data[22] + (data[23] << 8));
 2724              		.loc 1 753 7 is_stmt 1 view .LVU1041
 2725              		.loc 1 753 48 is_stmt 0 view .LVU1042
 2726 020e A07D     		ldrb	r0, [r4, #22]	@ zero_extendqisi2
 2727              		.loc 1 753 60 view .LVU1043
 2728 0210 E57D     		ldrb	r5, [r4, #23]	@ zero_extendqisi2
 2729              		.loc 1 753 50 view .LVU1044
 2730 0212 00EB0520 		add	r0, r0, r5, lsl #8
 2731              		.loc 1 753 38 view .LVU1045
 2732 0216 A2F89600 		strh	r0, [r2, #150]	@ movhi
 754:Core/Src/adBms6830ParseCreate.cpp ****       ic[curr_ic].fcell.fc_codes[12] = (data[24] + (data[25] << 8));
 2733              		.loc 1 754 7 is_stmt 1 view .LVU1046
 2734              		.loc 1 754 48 is_stmt 0 view .LVU1047
 2735 021a 207E     		ldrb	r0, [r4, #24]	@ zero_extendqisi2
 2736              		.loc 1 754 60 view .LVU1048
 2737 021c 657E     		ldrb	r5, [r4, #25]	@ zero_extendqisi2
 2738              		.loc 1 754 50 view .LVU1049
 2739 021e 00EB0520 		add	r0, r0, r5, lsl #8
 2740              		.loc 1 754 38 view .LVU1050
 2741 0222 A2F89800 		strh	r0, [r2, #152]	@ movhi
ARM GAS  C:\Users\huawei\AppData\Local\Temp\ccwYaMVL.s 			page 64


 755:Core/Src/adBms6830ParseCreate.cpp ****       ic[curr_ic].fcell.fc_codes[13] = (data[26] + (data[27] << 8));
 2742              		.loc 1 755 7 is_stmt 1 view .LVU1051
 2743              		.loc 1 755 48 is_stmt 0 view .LVU1052
 2744 0226 A07E     		ldrb	r0, [r4, #26]	@ zero_extendqisi2
 2745              		.loc 1 755 60 view .LVU1053
 2746 0228 E57E     		ldrb	r5, [r4, #27]	@ zero_extendqisi2
 2747              		.loc 1 755 50 view .LVU1054
 2748 022a 00EB0520 		add	r0, r0, r5, lsl #8
 2749              		.loc 1 755 38 view .LVU1055
 2750 022e A2F89A00 		strh	r0, [r2, #154]	@ movhi
 756:Core/Src/adBms6830ParseCreate.cpp ****       ic[curr_ic].fcell.fc_codes[14] = (data[28] + (data[29] << 8));
 2751              		.loc 1 756 7 is_stmt 1 view .LVU1056
 2752              		.loc 1 756 48 is_stmt 0 view .LVU1057
 2753 0232 207F     		ldrb	r0, [r4, #28]	@ zero_extendqisi2
 2754              		.loc 1 756 60 view .LVU1058
 2755 0234 657F     		ldrb	r5, [r4, #29]	@ zero_extendqisi2
 2756              		.loc 1 756 50 view .LVU1059
 2757 0236 00EB0520 		add	r0, r0, r5, lsl #8
 2758              		.loc 1 756 38 view .LVU1060
 2759 023a A2F89C00 		strh	r0, [r2, #156]	@ movhi
 757:Core/Src/adBms6830ParseCreate.cpp ****       ic[curr_ic].fcell.fc_codes[15] = (data[30] + (data[31] << 8));
 2760              		.loc 1 757 7 is_stmt 1 view .LVU1061
 2761              		.loc 1 757 48 is_stmt 0 view .LVU1062
 2762 023e A07F     		ldrb	r0, [r4, #30]	@ zero_extendqisi2
 2763              		.loc 1 757 60 view .LVU1063
 2764 0240 E57F     		ldrb	r5, [r4, #31]	@ zero_extendqisi2
 2765              		.loc 1 757 50 view .LVU1064
 2766 0242 00EB0520 		add	r0, r0, r5, lsl #8
 2767              		.loc 1 757 38 view .LVU1065
 2768 0246 A2F89E00 		strh	r0, [r2, #158]	@ movhi
 758:Core/Src/adBms6830ParseCreate.cpp ****       break;
 2769              		.loc 1 758 7 is_stmt 1 view .LVU1066
 2770 024a 0CE7     		b	.L117
 2771              	.LVL179:
 2772              	.L132:
 2773              		.loc 1 758 7 is_stmt 0 view .LVU1067
 2774              	.LBE22:
 759:Core/Src/adBms6830ParseCreate.cpp **** 
 760:Core/Src/adBms6830ParseCreate.cpp ****     default:
 761:Core/Src/adBms6830ParseCreate.cpp ****       break;
 762:Core/Src/adBms6830ParseCreate.cpp ****     }
 763:Core/Src/adBms6830ParseCreate.cpp ****   }
 764:Core/Src/adBms6830ParseCreate.cpp ****   free(data);
 2775              		.loc 1 764 3 is_stmt 1 view .LVU1068
 2776              		.loc 1 764 7 is_stmt 0 view .LVU1069
 2777 024c 2046     		mov	r0, r4
 2778 024e FFF7FEFF 		bl	free
 2779              	.LVL180:
 765:Core/Src/adBms6830ParseCreate.cpp **** }
 2780              		.loc 1 765 1 view .LVU1070
 2781 0252 BDE8F88F 		pop	{r3, r4, r5, r6, r7, r8, r9, r10, fp, pc}
 2782              	.LVL181:
 2783              	.L134:
 2784              		.loc 1 765 1 view .LVU1071
 2785 0256 00BF     		.align	2
 2786              	.L133:
 2787 0258 00000000 		.word	.LC3
ARM GAS  C:\Users\huawei\AppData\Local\Temp\ccwYaMVL.s 			page 65


 2788              		.cfi_endproc
 2789              	.LFE258:
 2790              		.fnend
 2792              		.section	.rodata._Z17adBms6830ParseAuxhP9cell_asic3GRPPh.str1.4,"aMS",%progbits,1
 2793              		.align	2
 2794              	.LC4:
 2795 0000 20466169 		.ascii	" Failed to allocate parse aux memory \000"
 2795      6C656420 
 2795      746F2061 
 2795      6C6C6F63 
 2795      61746520 
 2796              		.section	.text._Z17adBms6830ParseAuxhP9cell_asic3GRPPh,"ax",%progbits
 2797              		.align	1
 2798              		.global	_Z17adBms6830ParseAuxhP9cell_asic3GRPPh
 2799              		.syntax unified
 2800              		.thumb
 2801              		.thumb_func
 2803              	_Z17adBms6830ParseAuxhP9cell_asic3GRPPh:
 2804              		.fnstart
 2805              	.LVL182:
 2806              	.LFB259:
 766:Core/Src/adBms6830ParseCreate.cpp **** 
 767:Core/Src/adBms6830ParseCreate.cpp **** /**
 768:Core/Src/adBms6830ParseCreate.cpp ****  *******************************************************************************
 769:Core/Src/adBms6830ParseCreate.cpp ****  * Function: adBms6830ParseAux
 770:Core/Src/adBms6830ParseCreate.cpp ****  * @brief Parse aux voltages
 771:Core/Src/adBms6830ParseCreate.cpp ****  *
 772:Core/Src/adBms6830ParseCreate.cpp ****  * @details This function Parse the recived aux voltages register A,B,C and D data.
 773:Core/Src/adBms6830ParseCreate.cpp ****  *
 774:Core/Src/adBms6830ParseCreate.cpp ****  * Parameters:
 775:Core/Src/adBms6830ParseCreate.cpp ****  *
 776:Core/Src/adBms6830ParseCreate.cpp ****  * @param [in]  tIC                     Total IC
 777:Core/Src/adBms6830ParseCreate.cpp ****  *
 778:Core/Src/adBms6830ParseCreate.cpp ****  * @param [in]  *ic                     cell_asic ic structure pointer
 779:Core/Src/adBms6830ParseCreate.cpp ****  *
 780:Core/Src/adBms6830ParseCreate.cpp ****  * @param [in]  grp                     Enum type register group
 781:Core/Src/adBms6830ParseCreate.cpp ****  *
 782:Core/Src/adBms6830ParseCreate.cpp ****  * @param [in]  *aux_data               Aux voltages data pointer
 783:Core/Src/adBms6830ParseCreate.cpp ****  *
 784:Core/Src/adBms6830ParseCreate.cpp ****  * @return None
 785:Core/Src/adBms6830ParseCreate.cpp ****  *
 786:Core/Src/adBms6830ParseCreate.cpp ****  *******************************************************************************
 787:Core/Src/adBms6830ParseCreate.cpp **** */
 788:Core/Src/adBms6830ParseCreate.cpp **** void adBms6830ParseAux(uint8_t tIC, cell_asic *ic, GRP grp, uint8_t *aux_data)
 789:Core/Src/adBms6830ParseCreate.cpp **** {
 2807              		.loc 1 789 1 is_stmt 1 view -0
 2808              		.cfi_startproc
 2809              		@ args = 0, pretend = 0, frame = 0
 2810              		@ frame_needed = 0, uses_anonymous_args = 0
 2811              		.loc 1 789 1 is_stmt 0 view .LVU1073
 2812 0000 2DE9F84F 		push	{r3, r4, r5, r6, r7, r8, r9, r10, fp, lr}
 2813              		.save {r3, r4, r5, r6, r7, r8, r9, r10, fp, lr}
 2814              	.LCFI11:
 2815              		.cfi_def_cfa_offset 40
 2816              		.cfi_offset 3, -40
 2817              		.cfi_offset 4, -36
 2818              		.cfi_offset 5, -32
ARM GAS  C:\Users\huawei\AppData\Local\Temp\ccwYaMVL.s 			page 66


 2819              		.cfi_offset 6, -28
 2820              		.cfi_offset 7, -24
 2821              		.cfi_offset 8, -20
 2822              		.cfi_offset 9, -16
 2823              		.cfi_offset 10, -12
 2824              		.cfi_offset 11, -8
 2825              		.cfi_offset 14, -4
 2826 0004 0746     		mov	r7, r0
 2827 0006 8A46     		mov	r10, r1
 2828 0008 9946     		mov	r9, r3
 790:Core/Src/adBms6830ParseCreate.cpp ****   uint8_t *data, data_size, address = 0;
 2829              		.loc 1 790 3 is_stmt 1 view .LVU1074
 2830              	.LVL183:
 791:Core/Src/adBms6830ParseCreate.cpp ****   if(grp == ALL_GRP){data_size = (RDASALL_SIZE-44);}  /* RDASALL_SIZE 68 byte - (RAUX 20 byte + STA
 2831              		.loc 1 791 3 view .LVU1075
 2832 000a 1646     		mov	r6, r2
 2833 000c 5AB9     		cbnz	r2, .L146
 2834              		.loc 1 791 32 is_stmt 0 view .LVU1076
 2835 000e 4FF01A08 		mov	r8, #26
 2836              	.L136:
 2837              	.LVL184:
 792:Core/Src/adBms6830ParseCreate.cpp ****   else {data_size = RX_DATA;}
 793:Core/Src/adBms6830ParseCreate.cpp ****   data = (uint8_t *)calloc(data_size, sizeof(uint8_t));
 2838              		.loc 1 793 3 is_stmt 1 view .LVU1077
 2839              		.loc 1 793 27 is_stmt 0 view .LVU1078
 2840 0012 C346     		mov	fp, r8
 2841 0014 0121     		movs	r1, #1
 2842              	.LVL185:
 2843              		.loc 1 793 27 view .LVU1079
 2844 0016 4046     		mov	r0, r8
 2845              	.LVL186:
 2846              		.loc 1 793 27 view .LVU1080
 2847 0018 FFF7FEFF 		bl	calloc
 2848              	.LVL187:
 794:Core/Src/adBms6830ParseCreate.cpp ****   if(data == NULL)
 2849              		.loc 1 794 3 is_stmt 1 view .LVU1081
 2850 001c 0446     		mov	r4, r0
 2851 001e 28B1     		cbz	r0, .L150
 2852              	.LBB23:
 795:Core/Src/adBms6830ParseCreate.cpp ****   {
 796:Core/Src/adBms6830ParseCreate.cpp ****     #ifdef MBED
 797:Core/Src/adBms6830ParseCreate.cpp ****     pc.printf(" Failed to allocate parse aux memory \n");
 798:Core/Src/adBms6830ParseCreate.cpp ****     #else
 799:Core/Src/adBms6830ParseCreate.cpp ****     printf(" Failed to allocate parse aux memory \n");
 800:Core/Src/adBms6830ParseCreate.cpp ****     #endif
 801:Core/Src/adBms6830ParseCreate.cpp ****     exit(0);
 802:Core/Src/adBms6830ParseCreate.cpp ****   }
 803:Core/Src/adBms6830ParseCreate.cpp ****   for(uint8_t curr_ic = 0; curr_ic < tIC; curr_ic++)
 2853              		.loc 1 803 15 is_stmt 0 view .LVU1082
 2854 0020 0025     		movs	r5, #0
 2855              	.LBE23:
 790:Core/Src/adBms6830ParseCreate.cpp ****   if(grp == ALL_GRP){data_size = (RDASALL_SIZE-44);}  /* RDASALL_SIZE 68 byte - (RAUX 20 byte + STA
 2856              		.loc 1 790 29 view .LVU1083
 2857 0022 2946     		mov	r1, r5
 2858 0024 20E0     		b	.L137
 2859              	.LVL188:
 2860              	.L146:
ARM GAS  C:\Users\huawei\AppData\Local\Temp\ccwYaMVL.s 			page 67


 792:Core/Src/adBms6830ParseCreate.cpp ****   data = (uint8_t *)calloc(data_size, sizeof(uint8_t));
 2861              		.loc 1 792 19 view .LVU1084
 2862 0026 4FF00808 		mov	r8, #8
 2863 002a F2E7     		b	.L136
 2864              	.LVL189:
 2865              	.L150:
 799:Core/Src/adBms6830ParseCreate.cpp ****     #endif
 2866              		.loc 1 799 5 is_stmt 1 view .LVU1085
 799:Core/Src/adBms6830ParseCreate.cpp ****     #endif
 2867              		.loc 1 799 11 is_stmt 0 view .LVU1086
 2868 002c 6A48     		ldr	r0, .L152
 2869              	.LVL190:
 799:Core/Src/adBms6830ParseCreate.cpp ****     #endif
 2870              		.loc 1 799 11 view .LVU1087
 2871 002e FFF7FEFF 		bl	puts
 2872              	.LVL191:
 801:Core/Src/adBms6830ParseCreate.cpp ****   }
 2873              		.loc 1 801 5 is_stmt 1 view .LVU1088
 801:Core/Src/adBms6830ParseCreate.cpp ****   }
 2874              		.loc 1 801 9 is_stmt 0 view .LVU1089
 2875 0032 0020     		movs	r0, #0
 2876 0034 FFF7FEFF 		bl	exit
 2877              	.LVL192:
 2878              	.L143:
 2879              	.LBB24:
 804:Core/Src/adBms6830ParseCreate.cpp ****   {
 805:Core/Src/adBms6830ParseCreate.cpp ****     memcpy(&data[0], &aux_data[address], data_size); /* dst , src , size */
 806:Core/Src/adBms6830ParseCreate.cpp ****     address = ((curr_ic+1) * (data_size));
 807:Core/Src/adBms6830ParseCreate.cpp ****     switch (grp)
 808:Core/Src/adBms6830ParseCreate.cpp ****     {
 809:Core/Src/adBms6830ParseCreate.cpp ****     case A: /* Aux Register group A */
 2880              		.loc 1 809 5 is_stmt 1 view .LVU1090
 810:Core/Src/adBms6830ParseCreate.cpp ****       ic[curr_ic].aux.a_codes[0] = (data[0] + (data[1] << 8));
 2881              		.loc 1 810 7 view .LVU1091
 2882              		.loc 1 810 43 is_stmt 0 view .LVU1092
 2883 0038 2078     		ldrb	r0, [r4]	@ zero_extendqisi2
 2884              		.loc 1 810 54 view .LVU1093
 2885 003a 94F801C0 		ldrb	ip, [r4, #1]	@ zero_extendqisi2
 2886              		.loc 1 810 17 view .LVU1094
 2887 003e 4FF42872 		mov	r2, #672
 2888 0042 02FB05A2 		mla	r2, r2, r5, r10
 2889              		.loc 1 810 45 view .LVU1095
 2890 0046 00EB0C20 		add	r0, r0, ip, lsl #8
 2891              		.loc 1 810 34 view .LVU1096
 2892 004a A2F8A000 		strh	r0, [r2, #160]	@ movhi
 811:Core/Src/adBms6830ParseCreate.cpp ****       ic[curr_ic].aux.a_codes[1] = (data[2] + (data[3] << 8));
 2893              		.loc 1 811 7 is_stmt 1 view .LVU1097
 2894              		.loc 1 811 43 is_stmt 0 view .LVU1098
 2895 004e A078     		ldrb	r0, [r4, #2]	@ zero_extendqisi2
 2896              		.loc 1 811 54 view .LVU1099
 2897 0050 E578     		ldrb	r5, [r4, #3]	@ zero_extendqisi2
 2898              	.LVL193:
 2899              		.loc 1 811 45 view .LVU1100
 2900 0052 00EB0520 		add	r0, r0, r5, lsl #8
 2901              		.loc 1 811 34 view .LVU1101
 2902 0056 A2F8A200 		strh	r0, [r2, #162]	@ movhi
 812:Core/Src/adBms6830ParseCreate.cpp ****       ic[curr_ic].aux.a_codes[2] = (data[4] + (data[5] << 8));
ARM GAS  C:\Users\huawei\AppData\Local\Temp\ccwYaMVL.s 			page 68


 2903              		.loc 1 812 7 is_stmt 1 view .LVU1102
 2904              		.loc 1 812 43 is_stmt 0 view .LVU1103
 2905 005a 2079     		ldrb	r0, [r4, #4]	@ zero_extendqisi2
 2906              		.loc 1 812 54 view .LVU1104
 2907 005c 6579     		ldrb	r5, [r4, #5]	@ zero_extendqisi2
 2908              		.loc 1 812 45 view .LVU1105
 2909 005e 00EB0520 		add	r0, r0, r5, lsl #8
 2910              		.loc 1 812 34 view .LVU1106
 2911 0062 A2F8A400 		strh	r0, [r2, #164]	@ movhi
 813:Core/Src/adBms6830ParseCreate.cpp ****       break;
 2912              		.loc 1 813 7 is_stmt 1 view .LVU1107
 2913              	.L138:
 2914              		.loc 1 813 7 is_stmt 0 view .LVU1108
 2915              	.LBE24:
 792:Core/Src/adBms6830ParseCreate.cpp ****   data = (uint8_t *)calloc(data_size, sizeof(uint8_t));
 2916              		.loc 1 792 19 discriminator 1 view .LVU1109
 2917 0066 1D46     		mov	r5, r3
 2918              	.LVL194:
 2919              	.L137:
 2920              	.LBB25:
 803:Core/Src/adBms6830ParseCreate.cpp ****   {
 2921              		.loc 1 803 36 is_stmt 1 discriminator 1 view .LVU1110
 2922 0068 BD42     		cmp	r5, r7
 2923 006a 80F0AF80 		bcs	.L151
 805:Core/Src/adBms6830ParseCreate.cpp ****     address = ((curr_ic+1) * (data_size));
 2924              		.loc 1 805 5 view .LVU1111
 805:Core/Src/adBms6830ParseCreate.cpp ****     address = ((curr_ic+1) * (data_size));
 2925              		.loc 1 805 11 is_stmt 0 view .LVU1112
 2926 006e 5A46     		mov	r2, fp
 2927 0070 4944     		add	r1, r1, r9
 2928              	.LVL195:
 805:Core/Src/adBms6830ParseCreate.cpp ****     address = ((curr_ic+1) * (data_size));
 2929              		.loc 1 805 11 view .LVU1113
 2930 0072 2046     		mov	r0, r4
 2931 0074 FFF7FEFF 		bl	memcpy
 2932              	.LVL196:
 806:Core/Src/adBms6830ParseCreate.cpp ****     switch (grp)
 2933              		.loc 1 806 5 is_stmt 1 view .LVU1114
 806:Core/Src/adBms6830ParseCreate.cpp ****     switch (grp)
 2934              		.loc 1 806 13 is_stmt 0 view .LVU1115
 2935 0078 6B1C     		adds	r3, r5, #1
 2936 007a DBB2     		uxtb	r3, r3
 2937 007c 13FB08F1 		smulbb	r1, r3, r8
 2938 0080 C9B2     		uxtb	r1, r1
 2939              	.LVL197:
 807:Core/Src/adBms6830ParseCreate.cpp ****     {
 2940              		.loc 1 807 5 is_stmt 1 view .LVU1116
 2941 0082 042E     		cmp	r6, #4
 2942 0084 EFD8     		bhi	.L138
 2943 0086 01A2     		adr	r2, .L140
 2944 0088 52F826F0 		ldr	pc, [r2, r6, lsl #2]
 2945              		.p2align 2
 2946              	.L140:
 2947 008c 31010000 		.word	.L144+1
 2948 0090 39000000 		.word	.L143+1
 2949 0094 A1000000 		.word	.L142+1
 2950 0098 D1000000 		.word	.L141+1
ARM GAS  C:\Users\huawei\AppData\Local\Temp\ccwYaMVL.s 			page 69


 2951 009c 01010000 		.word	.L139+1
 2952              		.p2align 1
 2953              	.L142:
 814:Core/Src/adBms6830ParseCreate.cpp **** 
 815:Core/Src/adBms6830ParseCreate.cpp ****     case B: /* Aux Register group B */
 2954              		.loc 1 815 5 view .LVU1117
 816:Core/Src/adBms6830ParseCreate.cpp ****       ic[curr_ic].aux.a_codes[3] = (data[0] + (data[1] << 8));
 2955              		.loc 1 816 7 view .LVU1118
 2956              		.loc 1 816 43 is_stmt 0 view .LVU1119
 2957 00a0 2078     		ldrb	r0, [r4]	@ zero_extendqisi2
 2958              		.loc 1 816 54 view .LVU1120
 2959 00a2 94F801C0 		ldrb	ip, [r4, #1]	@ zero_extendqisi2
 2960              		.loc 1 816 17 view .LVU1121
 2961 00a6 4FF42872 		mov	r2, #672
 2962 00aa 02FB05A2 		mla	r2, r2, r5, r10
 2963              		.loc 1 816 45 view .LVU1122
 2964 00ae 00EB0C20 		add	r0, r0, ip, lsl #8
 2965              		.loc 1 816 34 view .LVU1123
 2966 00b2 A2F8A600 		strh	r0, [r2, #166]	@ movhi
 817:Core/Src/adBms6830ParseCreate.cpp ****       ic[curr_ic].aux.a_codes[4] = (data[2] + (data[3] << 8));
 2967              		.loc 1 817 7 is_stmt 1 view .LVU1124
 2968              		.loc 1 817 43 is_stmt 0 view .LVU1125
 2969 00b6 A078     		ldrb	r0, [r4, #2]	@ zero_extendqisi2
 2970              		.loc 1 817 54 view .LVU1126
 2971 00b8 E578     		ldrb	r5, [r4, #3]	@ zero_extendqisi2
 2972              	.LVL198:
 2973              		.loc 1 817 45 view .LVU1127
 2974 00ba 00EB0520 		add	r0, r0, r5, lsl #8
 2975              		.loc 1 817 34 view .LVU1128
 2976 00be A2F8A800 		strh	r0, [r2, #168]	@ movhi
 818:Core/Src/adBms6830ParseCreate.cpp ****       ic[curr_ic].aux.a_codes[5] = (data[4] + (data[5] << 8));
 2977              		.loc 1 818 7 is_stmt 1 view .LVU1129
 2978              		.loc 1 818 43 is_stmt 0 view .LVU1130
 2979 00c2 2079     		ldrb	r0, [r4, #4]	@ zero_extendqisi2
 2980              		.loc 1 818 54 view .LVU1131
 2981 00c4 6579     		ldrb	r5, [r4, #5]	@ zero_extendqisi2
 2982              		.loc 1 818 45 view .LVU1132
 2983 00c6 00EB0520 		add	r0, r0, r5, lsl #8
 2984              		.loc 1 818 34 view .LVU1133
 2985 00ca A2F8AA00 		strh	r0, [r2, #170]	@ movhi
 819:Core/Src/adBms6830ParseCreate.cpp ****       break;
 2986              		.loc 1 819 7 is_stmt 1 view .LVU1134
 2987 00ce CAE7     		b	.L138
 2988              	.LVL199:
 2989              	.L141:
 820:Core/Src/adBms6830ParseCreate.cpp **** 
 821:Core/Src/adBms6830ParseCreate.cpp ****     case C: /* Aux Register group C */
 2990              		.loc 1 821 5 view .LVU1135
 822:Core/Src/adBms6830ParseCreate.cpp ****       ic[curr_ic].aux.a_codes[6] = (data[0] + (data[1] << 8));
 2991              		.loc 1 822 7 view .LVU1136
 2992              		.loc 1 822 43 is_stmt 0 view .LVU1137
 2993 00d0 2078     		ldrb	r0, [r4]	@ zero_extendqisi2
 2994              		.loc 1 822 54 view .LVU1138
 2995 00d2 94F801C0 		ldrb	ip, [r4, #1]	@ zero_extendqisi2
 2996              		.loc 1 822 17 view .LVU1139
 2997 00d6 4FF42872 		mov	r2, #672
 2998 00da 02FB05A2 		mla	r2, r2, r5, r10
ARM GAS  C:\Users\huawei\AppData\Local\Temp\ccwYaMVL.s 			page 70


 2999              		.loc 1 822 45 view .LVU1140
 3000 00de 00EB0C20 		add	r0, r0, ip, lsl #8
 3001              		.loc 1 822 34 view .LVU1141
 3002 00e2 A2F8AC00 		strh	r0, [r2, #172]	@ movhi
 823:Core/Src/adBms6830ParseCreate.cpp ****       ic[curr_ic].aux.a_codes[7] = (data[2] + (data[3] << 8));
 3003              		.loc 1 823 7 is_stmt 1 view .LVU1142
 3004              		.loc 1 823 43 is_stmt 0 view .LVU1143
 3005 00e6 A078     		ldrb	r0, [r4, #2]	@ zero_extendqisi2
 3006              		.loc 1 823 54 view .LVU1144
 3007 00e8 E578     		ldrb	r5, [r4, #3]	@ zero_extendqisi2
 3008              	.LVL200:
 3009              		.loc 1 823 45 view .LVU1145
 3010 00ea 00EB0520 		add	r0, r0, r5, lsl #8
 3011              		.loc 1 823 34 view .LVU1146
 3012 00ee A2F8AE00 		strh	r0, [r2, #174]	@ movhi
 824:Core/Src/adBms6830ParseCreate.cpp ****       ic[curr_ic].aux.a_codes[8] = (data[4] + (data[5] << 8));
 3013              		.loc 1 824 7 is_stmt 1 view .LVU1147
 3014              		.loc 1 824 43 is_stmt 0 view .LVU1148
 3015 00f2 2079     		ldrb	r0, [r4, #4]	@ zero_extendqisi2
 3016              		.loc 1 824 54 view .LVU1149
 3017 00f4 6579     		ldrb	r5, [r4, #5]	@ zero_extendqisi2
 3018              		.loc 1 824 45 view .LVU1150
 3019 00f6 00EB0520 		add	r0, r0, r5, lsl #8
 3020              		.loc 1 824 34 view .LVU1151
 3021 00fa A2F8B000 		strh	r0, [r2, #176]	@ movhi
 825:Core/Src/adBms6830ParseCreate.cpp ****       break;
 3022              		.loc 1 825 7 is_stmt 1 view .LVU1152
 3023 00fe B2E7     		b	.L138
 3024              	.LVL201:
 3025              	.L139:
 826:Core/Src/adBms6830ParseCreate.cpp **** 
 827:Core/Src/adBms6830ParseCreate.cpp ****     case D: /* Aux Register group D */
 3026              		.loc 1 827 5 view .LVU1153
 828:Core/Src/adBms6830ParseCreate.cpp ****       ic[curr_ic].aux.a_codes[9] =  (data[0] + (data[1] << 8));
 3027              		.loc 1 828 7 view .LVU1154
 3028              		.loc 1 828 44 is_stmt 0 view .LVU1155
 3029 0100 2078     		ldrb	r0, [r4]	@ zero_extendqisi2
 3030              		.loc 1 828 55 view .LVU1156
 3031 0102 94F801C0 		ldrb	ip, [r4, #1]	@ zero_extendqisi2
 3032              		.loc 1 828 17 view .LVU1157
 3033 0106 4FF42872 		mov	r2, #672
 3034 010a 02FB05A2 		mla	r2, r2, r5, r10
 3035              		.loc 1 828 46 view .LVU1158
 3036 010e 00EB0C20 		add	r0, r0, ip, lsl #8
 3037              		.loc 1 828 34 view .LVU1159
 3038 0112 A2F8B200 		strh	r0, [r2, #178]	@ movhi
 829:Core/Src/adBms6830ParseCreate.cpp ****       ic[curr_ic].aux.a_codes[10] =  (data[2] + (data[3] << 8));
 3039              		.loc 1 829 7 is_stmt 1 view .LVU1160
 3040              		.loc 1 829 45 is_stmt 0 view .LVU1161
 3041 0116 A078     		ldrb	r0, [r4, #2]	@ zero_extendqisi2
 3042              		.loc 1 829 56 view .LVU1162
 3043 0118 E578     		ldrb	r5, [r4, #3]	@ zero_extendqisi2
 3044              	.LVL202:
 3045              		.loc 1 829 47 view .LVU1163
 3046 011a 00EB0520 		add	r0, r0, r5, lsl #8
 3047              		.loc 1 829 35 view .LVU1164
 3048 011e A2F8B400 		strh	r0, [r2, #180]	@ movhi
ARM GAS  C:\Users\huawei\AppData\Local\Temp\ccwYaMVL.s 			page 71


 830:Core/Src/adBms6830ParseCreate.cpp ****       ic[curr_ic].aux.a_codes[11] =  (data[4] + (data[5] << 8));
 3049              		.loc 1 830 7 is_stmt 1 view .LVU1165
 3050              		.loc 1 830 45 is_stmt 0 view .LVU1166
 3051 0122 2079     		ldrb	r0, [r4, #4]	@ zero_extendqisi2
 3052              		.loc 1 830 56 view .LVU1167
 3053 0124 6579     		ldrb	r5, [r4, #5]	@ zero_extendqisi2
 3054              		.loc 1 830 47 view .LVU1168
 3055 0126 00EB0520 		add	r0, r0, r5, lsl #8
 3056              		.loc 1 830 35 view .LVU1169
 3057 012a A2F8B600 		strh	r0, [r2, #182]	@ movhi
 831:Core/Src/adBms6830ParseCreate.cpp ****       break;
 3058              		.loc 1 831 7 is_stmt 1 view .LVU1170
 3059 012e 9AE7     		b	.L138
 3060              	.LVL203:
 3061              	.L144:
 832:Core/Src/adBms6830ParseCreate.cpp **** 
 833:Core/Src/adBms6830ParseCreate.cpp ****    case ALL_GRP: /* Aux Register group ALL */
 3062              		.loc 1 833 4 view .LVU1171
 834:Core/Src/adBms6830ParseCreate.cpp ****       ic[curr_ic].aux.a_codes[0]  = (data[0] + (data[1] << 8));
 3063              		.loc 1 834 7 view .LVU1172
 3064              		.loc 1 834 44 is_stmt 0 view .LVU1173
 3065 0130 2078     		ldrb	r0, [r4]	@ zero_extendqisi2
 3066              		.loc 1 834 55 view .LVU1174
 3067 0132 94F801C0 		ldrb	ip, [r4, #1]	@ zero_extendqisi2
 3068              		.loc 1 834 17 view .LVU1175
 3069 0136 4FF42872 		mov	r2, #672
 3070 013a 02FB05A2 		mla	r2, r2, r5, r10
 3071              		.loc 1 834 46 view .LVU1176
 3072 013e 00EB0C20 		add	r0, r0, ip, lsl #8
 3073              		.loc 1 834 35 view .LVU1177
 3074 0142 A2F8A000 		strh	r0, [r2, #160]	@ movhi
 835:Core/Src/adBms6830ParseCreate.cpp ****       ic[curr_ic].aux.a_codes[1]  = (data[2] + (data[3] << 8));
 3075              		.loc 1 835 7 is_stmt 1 view .LVU1178
 3076              		.loc 1 835 44 is_stmt 0 view .LVU1179
 3077 0146 A078     		ldrb	r0, [r4, #2]	@ zero_extendqisi2
 3078              		.loc 1 835 55 view .LVU1180
 3079 0148 E578     		ldrb	r5, [r4, #3]	@ zero_extendqisi2
 3080              	.LVL204:
 3081              		.loc 1 835 46 view .LVU1181
 3082 014a 00EB0520 		add	r0, r0, r5, lsl #8
 3083              		.loc 1 835 35 view .LVU1182
 3084 014e A2F8A200 		strh	r0, [r2, #162]	@ movhi
 836:Core/Src/adBms6830ParseCreate.cpp ****       ic[curr_ic].aux.a_codes[2]  = (data[4] + (data[5] << 8));
 3085              		.loc 1 836 7 is_stmt 1 view .LVU1183
 3086              		.loc 1 836 44 is_stmt 0 view .LVU1184
 3087 0152 2079     		ldrb	r0, [r4, #4]	@ zero_extendqisi2
 3088              		.loc 1 836 55 view .LVU1185
 3089 0154 6579     		ldrb	r5, [r4, #5]	@ zero_extendqisi2
 3090              		.loc 1 836 46 view .LVU1186
 3091 0156 00EB0520 		add	r0, r0, r5, lsl #8
 3092              		.loc 1 836 35 view .LVU1187
 3093 015a A2F8A400 		strh	r0, [r2, #164]	@ movhi
 837:Core/Src/adBms6830ParseCreate.cpp ****       ic[curr_ic].aux.a_codes[3]  = (data[6] + (data[7] << 8));
 3094              		.loc 1 837 7 is_stmt 1 view .LVU1188
 3095              		.loc 1 837 44 is_stmt 0 view .LVU1189
 3096 015e A079     		ldrb	r0, [r4, #6]	@ zero_extendqisi2
 3097              		.loc 1 837 55 view .LVU1190
ARM GAS  C:\Users\huawei\AppData\Local\Temp\ccwYaMVL.s 			page 72


 3098 0160 E579     		ldrb	r5, [r4, #7]	@ zero_extendqisi2
 3099              		.loc 1 837 46 view .LVU1191
 3100 0162 00EB0520 		add	r0, r0, r5, lsl #8
 3101              		.loc 1 837 35 view .LVU1192
 3102 0166 A2F8A600 		strh	r0, [r2, #166]	@ movhi
 838:Core/Src/adBms6830ParseCreate.cpp ****       ic[curr_ic].aux.a_codes[4]  = (data[8] + (data[9] << 8));
 3103              		.loc 1 838 7 is_stmt 1 view .LVU1193
 3104              		.loc 1 838 44 is_stmt 0 view .LVU1194
 3105 016a 207A     		ldrb	r0, [r4, #8]	@ zero_extendqisi2
 3106              		.loc 1 838 55 view .LVU1195
 3107 016c 657A     		ldrb	r5, [r4, #9]	@ zero_extendqisi2
 3108              		.loc 1 838 46 view .LVU1196
 3109 016e 00EB0520 		add	r0, r0, r5, lsl #8
 3110              		.loc 1 838 35 view .LVU1197
 3111 0172 A2F8A800 		strh	r0, [r2, #168]	@ movhi
 839:Core/Src/adBms6830ParseCreate.cpp ****       ic[curr_ic].aux.a_codes[5]  = (data[10] + (data[11] << 8));
 3112              		.loc 1 839 7 is_stmt 1 view .LVU1198
 3113              		.loc 1 839 45 is_stmt 0 view .LVU1199
 3114 0176 A07A     		ldrb	r0, [r4, #10]	@ zero_extendqisi2
 3115              		.loc 1 839 57 view .LVU1200
 3116 0178 E57A     		ldrb	r5, [r4, #11]	@ zero_extendqisi2
 3117              		.loc 1 839 47 view .LVU1201
 3118 017a 00EB0520 		add	r0, r0, r5, lsl #8
 3119              		.loc 1 839 35 view .LVU1202
 3120 017e A2F8AA00 		strh	r0, [r2, #170]	@ movhi
 840:Core/Src/adBms6830ParseCreate.cpp ****       ic[curr_ic].aux.a_codes[6]  = (data[12] + (data[13] << 8));
 3121              		.loc 1 840 7 is_stmt 1 view .LVU1203
 3122              		.loc 1 840 45 is_stmt 0 view .LVU1204
 3123 0182 207B     		ldrb	r0, [r4, #12]	@ zero_extendqisi2
 3124              		.loc 1 840 57 view .LVU1205
 3125 0184 657B     		ldrb	r5, [r4, #13]	@ zero_extendqisi2
 3126              		.loc 1 840 47 view .LVU1206
 3127 0186 00EB0520 		add	r0, r0, r5, lsl #8
 3128              		.loc 1 840 35 view .LVU1207
 3129 018a A2F8AC00 		strh	r0, [r2, #172]	@ movhi
 841:Core/Src/adBms6830ParseCreate.cpp ****       ic[curr_ic].aux.a_codes[7]  = (data[14] + (data[15] << 8));
 3130              		.loc 1 841 7 is_stmt 1 view .LVU1208
 3131              		.loc 1 841 45 is_stmt 0 view .LVU1209
 3132 018e A07B     		ldrb	r0, [r4, #14]	@ zero_extendqisi2
 3133              		.loc 1 841 57 view .LVU1210
 3134 0190 E57B     		ldrb	r5, [r4, #15]	@ zero_extendqisi2
 3135              		.loc 1 841 47 view .LVU1211
 3136 0192 00EB0520 		add	r0, r0, r5, lsl #8
 3137              		.loc 1 841 35 view .LVU1212
 3138 0196 A2F8AE00 		strh	r0, [r2, #174]	@ movhi
 842:Core/Src/adBms6830ParseCreate.cpp ****       ic[curr_ic].aux.a_codes[8]  = (data[16] + (data[17] << 8));
 3139              		.loc 1 842 7 is_stmt 1 view .LVU1213
 3140              		.loc 1 842 45 is_stmt 0 view .LVU1214
 3141 019a 207C     		ldrb	r0, [r4, #16]	@ zero_extendqisi2
 3142              		.loc 1 842 57 view .LVU1215
 3143 019c 657C     		ldrb	r5, [r4, #17]	@ zero_extendqisi2
 3144              		.loc 1 842 47 view .LVU1216
 3145 019e 00EB0520 		add	r0, r0, r5, lsl #8
 3146              		.loc 1 842 35 view .LVU1217
 3147 01a2 A2F8B000 		strh	r0, [r2, #176]	@ movhi
 843:Core/Src/adBms6830ParseCreate.cpp ****       ic[curr_ic].aux.a_codes[9]  = (data[18] + (data[19] << 8));
 3148              		.loc 1 843 7 is_stmt 1 view .LVU1218
ARM GAS  C:\Users\huawei\AppData\Local\Temp\ccwYaMVL.s 			page 73


 3149              		.loc 1 843 45 is_stmt 0 view .LVU1219
 3150 01a6 A07C     		ldrb	r0, [r4, #18]	@ zero_extendqisi2
 3151              		.loc 1 843 57 view .LVU1220
 3152 01a8 E57C     		ldrb	r5, [r4, #19]	@ zero_extendqisi2
 3153              		.loc 1 843 47 view .LVU1221
 3154 01aa 00EB0520 		add	r0, r0, r5, lsl #8
 3155              		.loc 1 843 35 view .LVU1222
 3156 01ae A2F8B200 		strh	r0, [r2, #178]	@ movhi
 844:Core/Src/adBms6830ParseCreate.cpp ****       ic[curr_ic].aux.a_codes[10] = (data[20] + (data[21] << 8));
 3157              		.loc 1 844 7 is_stmt 1 view .LVU1223
 3158              		.loc 1 844 45 is_stmt 0 view .LVU1224
 3159 01b2 207D     		ldrb	r0, [r4, #20]	@ zero_extendqisi2
 3160              		.loc 1 844 57 view .LVU1225
 3161 01b4 657D     		ldrb	r5, [r4, #21]	@ zero_extendqisi2
 3162              		.loc 1 844 47 view .LVU1226
 3163 01b6 00EB0520 		add	r0, r0, r5, lsl #8
 3164              		.loc 1 844 35 view .LVU1227
 3165 01ba A2F8B400 		strh	r0, [r2, #180]	@ movhi
 845:Core/Src/adBms6830ParseCreate.cpp ****       ic[curr_ic].aux.a_codes[11] = (data[22] + (data[23] << 8));
 3166              		.loc 1 845 7 is_stmt 1 view .LVU1228
 3167              		.loc 1 845 45 is_stmt 0 view .LVU1229
 3168 01be A07D     		ldrb	r0, [r4, #22]	@ zero_extendqisi2
 3169              		.loc 1 845 57 view .LVU1230
 3170 01c0 E57D     		ldrb	r5, [r4, #23]	@ zero_extendqisi2
 3171              		.loc 1 845 47 view .LVU1231
 3172 01c2 00EB0520 		add	r0, r0, r5, lsl #8
 3173              		.loc 1 845 35 view .LVU1232
 3174 01c6 A2F8B600 		strh	r0, [r2, #182]	@ movhi
 846:Core/Src/adBms6830ParseCreate.cpp ****      break;
 3175              		.loc 1 846 6 is_stmt 1 view .LVU1233
 3176 01ca 4CE7     		b	.L138
 3177              	.LVL205:
 3178              	.L151:
 3179              		.loc 1 846 6 is_stmt 0 view .LVU1234
 3180              	.LBE25:
 847:Core/Src/adBms6830ParseCreate.cpp **** 
 848:Core/Src/adBms6830ParseCreate.cpp ****     default:
 849:Core/Src/adBms6830ParseCreate.cpp ****       break;
 850:Core/Src/adBms6830ParseCreate.cpp ****     }
 851:Core/Src/adBms6830ParseCreate.cpp ****   }
 852:Core/Src/adBms6830ParseCreate.cpp ****   free(data);
 3181              		.loc 1 852 3 is_stmt 1 view .LVU1235
 3182              		.loc 1 852 7 is_stmt 0 view .LVU1236
 3183 01cc 2046     		mov	r0, r4
 3184 01ce FFF7FEFF 		bl	free
 3185              	.LVL206:
 853:Core/Src/adBms6830ParseCreate.cpp **** }
 3186              		.loc 1 853 1 view .LVU1237
 3187 01d2 BDE8F88F 		pop	{r3, r4, r5, r6, r7, r8, r9, r10, fp, pc}
 3188              	.LVL207:
 3189              	.L153:
 3190              		.loc 1 853 1 view .LVU1238
 3191 01d6 00BF     		.align	2
 3192              	.L152:
 3193 01d8 00000000 		.word	.LC4
 3194              		.cfi_endproc
 3195              	.LFE259:
ARM GAS  C:\Users\huawei\AppData\Local\Temp\ccwYaMVL.s 			page 74


 3196              		.fnend
 3198              		.section	.rodata._Z18adBms6830ParseRAuxhP9cell_asic3GRPPh.str1.4,"aMS",%progbits,1
 3199              		.align	2
 3200              	.LC5:
 3201 0000 20466169 		.ascii	" Failed to allocate parse raux memory \000"
 3201      6C656420 
 3201      746F2061 
 3201      6C6C6F63 
 3201      61746520 
 3202              		.section	.text._Z18adBms6830ParseRAuxhP9cell_asic3GRPPh,"ax",%progbits
 3203              		.align	1
 3204              		.global	_Z18adBms6830ParseRAuxhP9cell_asic3GRPPh
 3205              		.syntax unified
 3206              		.thumb
 3207              		.thumb_func
 3209              	_Z18adBms6830ParseRAuxhP9cell_asic3GRPPh:
 3210              		.fnstart
 3211              	.LVL208:
 3212              	.LFB260:
 854:Core/Src/adBms6830ParseCreate.cpp **** 
 855:Core/Src/adBms6830ParseCreate.cpp **** /**
 856:Core/Src/adBms6830ParseCreate.cpp ****  *******************************************************************************
 857:Core/Src/adBms6830ParseCreate.cpp ****  * Function: adBms6830ParseRAux
 858:Core/Src/adBms6830ParseCreate.cpp ****  * @brief Parse raux voltages
 859:Core/Src/adBms6830ParseCreate.cpp ****  *
 860:Core/Src/adBms6830ParseCreate.cpp ****  * @details This function Parse the recived raux voltages register A,B,C and D data.
 861:Core/Src/adBms6830ParseCreate.cpp ****  *
 862:Core/Src/adBms6830ParseCreate.cpp ****  * Parameters:
 863:Core/Src/adBms6830ParseCreate.cpp ****  *
 864:Core/Src/adBms6830ParseCreate.cpp ****  * @param [in]  tIC                     Total IC
 865:Core/Src/adBms6830ParseCreate.cpp ****  *
 866:Core/Src/adBms6830ParseCreate.cpp ****  * @param [in]  *ic                     cell_asic ic structure pointer
 867:Core/Src/adBms6830ParseCreate.cpp ****  *
 868:Core/Src/adBms6830ParseCreate.cpp ****  * @param [in]  grp                     Enum type register group
 869:Core/Src/adBms6830ParseCreate.cpp ****  *
 870:Core/Src/adBms6830ParseCreate.cpp ****  * @param [in]  *raux_data              Raux voltages data pointer
 871:Core/Src/adBms6830ParseCreate.cpp ****  *
 872:Core/Src/adBms6830ParseCreate.cpp ****  * @return None
 873:Core/Src/adBms6830ParseCreate.cpp ****  *
 874:Core/Src/adBms6830ParseCreate.cpp ****  *******************************************************************************
 875:Core/Src/adBms6830ParseCreate.cpp **** */
 876:Core/Src/adBms6830ParseCreate.cpp **** void adBms6830ParseRAux(uint8_t tIC, cell_asic *ic, GRP grp, uint8_t *raux_data)
 877:Core/Src/adBms6830ParseCreate.cpp **** {
 3213              		.loc 1 877 1 is_stmt 1 view -0
 3214              		.cfi_startproc
 3215              		@ args = 0, pretend = 0, frame = 0
 3216              		@ frame_needed = 0, uses_anonymous_args = 0
 3217              		.loc 1 877 1 is_stmt 0 view .LVU1240
 3218 0000 2DE9F84F 		push	{r3, r4, r5, r6, r7, r8, r9, r10, fp, lr}
 3219              		.save {r3, r4, r5, r6, r7, r8, r9, r10, fp, lr}
 3220              	.LCFI12:
 3221              		.cfi_def_cfa_offset 40
 3222              		.cfi_offset 3, -40
 3223              		.cfi_offset 4, -36
 3224              		.cfi_offset 5, -32
 3225              		.cfi_offset 6, -28
 3226              		.cfi_offset 7, -24
ARM GAS  C:\Users\huawei\AppData\Local\Temp\ccwYaMVL.s 			page 75


 3227              		.cfi_offset 8, -20
 3228              		.cfi_offset 9, -16
 3229              		.cfi_offset 10, -12
 3230              		.cfi_offset 11, -8
 3231              		.cfi_offset 14, -4
 3232 0004 0746     		mov	r7, r0
 3233 0006 8A46     		mov	r10, r1
 3234 0008 9946     		mov	r9, r3
 878:Core/Src/adBms6830ParseCreate.cpp ****   uint8_t *data, data_size, address = 0;
 3235              		.loc 1 878 3 is_stmt 1 view .LVU1241
 3236              	.LVL209:
 879:Core/Src/adBms6830ParseCreate.cpp ****   if(grp == ALL_GRP){data_size = (RDASALL_SIZE-48);}  /* RDASALL_SIZE 68 byte - (AUX 24 byte + STAT
 3237              		.loc 1 879 3 view .LVU1242
 3238 000a 1646     		mov	r6, r2
 3239 000c 5AB9     		cbnz	r2, .L165
 3240              		.loc 1 879 32 is_stmt 0 view .LVU1243
 3241 000e 4FF01608 		mov	r8, #22
 3242              	.L155:
 3243              	.LVL210:
 880:Core/Src/adBms6830ParseCreate.cpp ****   else {data_size = RX_DATA;}
 881:Core/Src/adBms6830ParseCreate.cpp ****   data = (uint8_t *)calloc(data_size, sizeof(uint8_t));
 3244              		.loc 1 881 3 is_stmt 1 view .LVU1244
 3245              		.loc 1 881 27 is_stmt 0 view .LVU1245
 3246 0012 C346     		mov	fp, r8
 3247 0014 0121     		movs	r1, #1
 3248              	.LVL211:
 3249              		.loc 1 881 27 view .LVU1246
 3250 0016 4046     		mov	r0, r8
 3251              	.LVL212:
 3252              		.loc 1 881 27 view .LVU1247
 3253 0018 FFF7FEFF 		bl	calloc
 3254              	.LVL213:
 882:Core/Src/adBms6830ParseCreate.cpp ****   if(data == NULL)
 3255              		.loc 1 882 3 is_stmt 1 view .LVU1248
 3256 001c 0446     		mov	r4, r0
 3257 001e 28B1     		cbz	r0, .L169
 3258              	.LBB26:
 883:Core/Src/adBms6830ParseCreate.cpp ****   {
 884:Core/Src/adBms6830ParseCreate.cpp ****     #ifdef MBED
 885:Core/Src/adBms6830ParseCreate.cpp ****     pc.printf(" Failed to allocate parse raux memory \n");
 886:Core/Src/adBms6830ParseCreate.cpp ****     #else
 887:Core/Src/adBms6830ParseCreate.cpp ****     printf(" Failed to allocate parse raux memory \n");
 888:Core/Src/adBms6830ParseCreate.cpp ****     #endif
 889:Core/Src/adBms6830ParseCreate.cpp ****     exit(0);
 890:Core/Src/adBms6830ParseCreate.cpp ****   }
 891:Core/Src/adBms6830ParseCreate.cpp ****   for(uint8_t curr_ic = 0; curr_ic < tIC; curr_ic++)
 3259              		.loc 1 891 15 is_stmt 0 view .LVU1249
 3260 0020 0025     		movs	r5, #0
 3261              	.LBE26:
 878:Core/Src/adBms6830ParseCreate.cpp ****   if(grp == ALL_GRP){data_size = (RDASALL_SIZE-48);}  /* RDASALL_SIZE 68 byte - (AUX 24 byte + STAT
 3262              		.loc 1 878 29 view .LVU1250
 3263 0022 2946     		mov	r1, r5
 3264 0024 20E0     		b	.L156
 3265              	.LVL214:
 3266              	.L165:
 880:Core/Src/adBms6830ParseCreate.cpp ****   data = (uint8_t *)calloc(data_size, sizeof(uint8_t));
 3267              		.loc 1 880 19 view .LVU1251
ARM GAS  C:\Users\huawei\AppData\Local\Temp\ccwYaMVL.s 			page 76


 3268 0026 4FF00808 		mov	r8, #8
 3269 002a F2E7     		b	.L155
 3270              	.LVL215:
 3271              	.L169:
 887:Core/Src/adBms6830ParseCreate.cpp ****     #endif
 3272              		.loc 1 887 5 is_stmt 1 view .LVU1252
 887:Core/Src/adBms6830ParseCreate.cpp ****     #endif
 3273              		.loc 1 887 11 is_stmt 0 view .LVU1253
 3274 002c 5E48     		ldr	r0, .L171
 3275              	.LVL216:
 887:Core/Src/adBms6830ParseCreate.cpp ****     #endif
 3276              		.loc 1 887 11 view .LVU1254
 3277 002e FFF7FEFF 		bl	puts
 3278              	.LVL217:
 889:Core/Src/adBms6830ParseCreate.cpp ****   }
 3279              		.loc 1 889 5 is_stmt 1 view .LVU1255
 889:Core/Src/adBms6830ParseCreate.cpp ****   }
 3280              		.loc 1 889 9 is_stmt 0 view .LVU1256
 3281 0032 0020     		movs	r0, #0
 3282 0034 FFF7FEFF 		bl	exit
 3283              	.LVL218:
 3284              	.L162:
 3285              	.LBB27:
 892:Core/Src/adBms6830ParseCreate.cpp ****   {
 893:Core/Src/adBms6830ParseCreate.cpp ****     memcpy(&data[0], &raux_data[address], data_size); /* dst , src , size */
 894:Core/Src/adBms6830ParseCreate.cpp ****     address = ((curr_ic+1) * (data_size));
 895:Core/Src/adBms6830ParseCreate.cpp ****     switch (grp)
 896:Core/Src/adBms6830ParseCreate.cpp ****     {
 897:Core/Src/adBms6830ParseCreate.cpp ****     case A: /* RAux Register group A */
 3286              		.loc 1 897 5 is_stmt 1 view .LVU1257
 898:Core/Src/adBms6830ParseCreate.cpp ****       ic[curr_ic].raux.ra_codes[0] = (data[0] + (data[1] << 8));
 3287              		.loc 1 898 7 view .LVU1258
 3288              		.loc 1 898 45 is_stmt 0 view .LVU1259
 3289 0038 2078     		ldrb	r0, [r4]	@ zero_extendqisi2
 3290              		.loc 1 898 56 view .LVU1260
 3291 003a 94F801C0 		ldrb	ip, [r4, #1]	@ zero_extendqisi2
 3292              		.loc 1 898 17 view .LVU1261
 3293 003e 4FF42872 		mov	r2, #672
 3294 0042 02FB05A2 		mla	r2, r2, r5, r10
 3295              		.loc 1 898 47 view .LVU1262
 3296 0046 00EB0C20 		add	r0, r0, ip, lsl #8
 3297              		.loc 1 898 36 view .LVU1263
 3298 004a A2F8B800 		strh	r0, [r2, #184]	@ movhi
 899:Core/Src/adBms6830ParseCreate.cpp ****       ic[curr_ic].raux.ra_codes[1] = (data[2] + (data[3] << 8));
 3299              		.loc 1 899 7 is_stmt 1 view .LVU1264
 3300              		.loc 1 899 45 is_stmt 0 view .LVU1265
 3301 004e A078     		ldrb	r0, [r4, #2]	@ zero_extendqisi2
 3302              		.loc 1 899 56 view .LVU1266
 3303 0050 E578     		ldrb	r5, [r4, #3]	@ zero_extendqisi2
 3304              	.LVL219:
 3305              		.loc 1 899 47 view .LVU1267
 3306 0052 00EB0520 		add	r0, r0, r5, lsl #8
 3307              		.loc 1 899 36 view .LVU1268
 3308 0056 A2F8BA00 		strh	r0, [r2, #186]	@ movhi
 900:Core/Src/adBms6830ParseCreate.cpp ****       ic[curr_ic].raux.ra_codes[2] = (data[4] + (data[5] << 8));
 3309              		.loc 1 900 7 is_stmt 1 view .LVU1269
 3310              		.loc 1 900 45 is_stmt 0 view .LVU1270
ARM GAS  C:\Users\huawei\AppData\Local\Temp\ccwYaMVL.s 			page 77


 3311 005a 2079     		ldrb	r0, [r4, #4]	@ zero_extendqisi2
 3312              		.loc 1 900 56 view .LVU1271
 3313 005c 6579     		ldrb	r5, [r4, #5]	@ zero_extendqisi2
 3314              		.loc 1 900 47 view .LVU1272
 3315 005e 00EB0520 		add	r0, r0, r5, lsl #8
 3316              		.loc 1 900 36 view .LVU1273
 3317 0062 A2F8BC00 		strh	r0, [r2, #188]	@ movhi
 901:Core/Src/adBms6830ParseCreate.cpp ****       break;
 3318              		.loc 1 901 7 is_stmt 1 view .LVU1274
 3319              	.L157:
 3320              		.loc 1 901 7 is_stmt 0 view .LVU1275
 3321              	.LBE27:
 880:Core/Src/adBms6830ParseCreate.cpp ****   data = (uint8_t *)calloc(data_size, sizeof(uint8_t));
 3322              		.loc 1 880 19 discriminator 1 view .LVU1276
 3323 0066 1D46     		mov	r5, r3
 3324              	.LVL220:
 3325              	.L156:
 3326              	.LBB28:
 891:Core/Src/adBms6830ParseCreate.cpp ****   {
 3327              		.loc 1 891 36 is_stmt 1 discriminator 1 view .LVU1277
 3328 0068 BD42     		cmp	r5, r7
 3329 006a 80F09780 		bcs	.L170
 893:Core/Src/adBms6830ParseCreate.cpp ****     address = ((curr_ic+1) * (data_size));
 3330              		.loc 1 893 5 view .LVU1278
 893:Core/Src/adBms6830ParseCreate.cpp ****     address = ((curr_ic+1) * (data_size));
 3331              		.loc 1 893 11 is_stmt 0 view .LVU1279
 3332 006e 5A46     		mov	r2, fp
 3333 0070 4944     		add	r1, r1, r9
 3334              	.LVL221:
 893:Core/Src/adBms6830ParseCreate.cpp ****     address = ((curr_ic+1) * (data_size));
 3335              		.loc 1 893 11 view .LVU1280
 3336 0072 2046     		mov	r0, r4
 3337 0074 FFF7FEFF 		bl	memcpy
 3338              	.LVL222:
 894:Core/Src/adBms6830ParseCreate.cpp ****     switch (grp)
 3339              		.loc 1 894 5 is_stmt 1 view .LVU1281
 894:Core/Src/adBms6830ParseCreate.cpp ****     switch (grp)
 3340              		.loc 1 894 13 is_stmt 0 view .LVU1282
 3341 0078 6B1C     		adds	r3, r5, #1
 3342 007a DBB2     		uxtb	r3, r3
 3343 007c 13FB08F1 		smulbb	r1, r3, r8
 3344 0080 C9B2     		uxtb	r1, r1
 3345              	.LVL223:
 895:Core/Src/adBms6830ParseCreate.cpp ****     {
 3346              		.loc 1 895 5 is_stmt 1 view .LVU1283
 3347 0082 042E     		cmp	r6, #4
 3348 0084 EFD8     		bhi	.L157
 3349 0086 01A2     		adr	r2, .L159
 3350 0088 52F826F0 		ldr	pc, [r2, r6, lsl #2]
 3351              		.p2align 2
 3352              	.L159:
 3353 008c 19010000 		.word	.L163+1
 3354 0090 39000000 		.word	.L162+1
 3355 0094 A1000000 		.word	.L161+1
 3356 0098 D1000000 		.word	.L160+1
 3357 009c 01010000 		.word	.L158+1
 3358              		.p2align 1
ARM GAS  C:\Users\huawei\AppData\Local\Temp\ccwYaMVL.s 			page 78


 3359              	.L161:
 902:Core/Src/adBms6830ParseCreate.cpp **** 
 903:Core/Src/adBms6830ParseCreate.cpp ****     case B: /* RAux Register group B */
 3360              		.loc 1 903 5 view .LVU1284
 904:Core/Src/adBms6830ParseCreate.cpp ****       ic[curr_ic].raux.ra_codes[3] = (data[0] + (data[1] << 8));
 3361              		.loc 1 904 7 view .LVU1285
 3362              		.loc 1 904 45 is_stmt 0 view .LVU1286
 3363 00a0 2078     		ldrb	r0, [r4]	@ zero_extendqisi2
 3364              		.loc 1 904 56 view .LVU1287
 3365 00a2 94F801C0 		ldrb	ip, [r4, #1]	@ zero_extendqisi2
 3366              		.loc 1 904 17 view .LVU1288
 3367 00a6 4FF42872 		mov	r2, #672
 3368 00aa 02FB05A2 		mla	r2, r2, r5, r10
 3369              		.loc 1 904 47 view .LVU1289
 3370 00ae 00EB0C20 		add	r0, r0, ip, lsl #8
 3371              		.loc 1 904 36 view .LVU1290
 3372 00b2 A2F8BE00 		strh	r0, [r2, #190]	@ movhi
 905:Core/Src/adBms6830ParseCreate.cpp ****       ic[curr_ic].raux.ra_codes[4] = (data[2] + (data[3] << 8));
 3373              		.loc 1 905 7 is_stmt 1 view .LVU1291
 3374              		.loc 1 905 45 is_stmt 0 view .LVU1292
 3375 00b6 A078     		ldrb	r0, [r4, #2]	@ zero_extendqisi2
 3376              		.loc 1 905 56 view .LVU1293
 3377 00b8 E578     		ldrb	r5, [r4, #3]	@ zero_extendqisi2
 3378              	.LVL224:
 3379              		.loc 1 905 47 view .LVU1294
 3380 00ba 00EB0520 		add	r0, r0, r5, lsl #8
 3381              		.loc 1 905 36 view .LVU1295
 3382 00be A2F8C000 		strh	r0, [r2, #192]	@ movhi
 906:Core/Src/adBms6830ParseCreate.cpp ****       ic[curr_ic].raux.ra_codes[5] = (data[4] + (data[5] << 8));
 3383              		.loc 1 906 7 is_stmt 1 view .LVU1296
 3384              		.loc 1 906 45 is_stmt 0 view .LVU1297
 3385 00c2 2079     		ldrb	r0, [r4, #4]	@ zero_extendqisi2
 3386              		.loc 1 906 56 view .LVU1298
 3387 00c4 6579     		ldrb	r5, [r4, #5]	@ zero_extendqisi2
 3388              		.loc 1 906 47 view .LVU1299
 3389 00c6 00EB0520 		add	r0, r0, r5, lsl #8
 3390              		.loc 1 906 36 view .LVU1300
 3391 00ca A2F8C200 		strh	r0, [r2, #194]	@ movhi
 907:Core/Src/adBms6830ParseCreate.cpp ****       break;
 3392              		.loc 1 907 7 is_stmt 1 view .LVU1301
 3393 00ce CAE7     		b	.L157
 3394              	.LVL225:
 3395              	.L160:
 908:Core/Src/adBms6830ParseCreate.cpp **** 
 909:Core/Src/adBms6830ParseCreate.cpp ****     case C: /* RAux Register group C */
 3396              		.loc 1 909 5 view .LVU1302
 910:Core/Src/adBms6830ParseCreate.cpp ****       ic[curr_ic].raux.ra_codes[6] = (data[0] + (data[1] << 8));
 3397              		.loc 1 910 7 view .LVU1303
 3398              		.loc 1 910 45 is_stmt 0 view .LVU1304
 3399 00d0 2078     		ldrb	r0, [r4]	@ zero_extendqisi2
 3400              		.loc 1 910 56 view .LVU1305
 3401 00d2 94F801C0 		ldrb	ip, [r4, #1]	@ zero_extendqisi2
 3402              		.loc 1 910 17 view .LVU1306
 3403 00d6 4FF42872 		mov	r2, #672
 3404 00da 02FB05A2 		mla	r2, r2, r5, r10
 3405              		.loc 1 910 47 view .LVU1307
 3406 00de 00EB0C20 		add	r0, r0, ip, lsl #8
ARM GAS  C:\Users\huawei\AppData\Local\Temp\ccwYaMVL.s 			page 79


 3407              		.loc 1 910 36 view .LVU1308
 3408 00e2 A2F8C400 		strh	r0, [r2, #196]	@ movhi
 911:Core/Src/adBms6830ParseCreate.cpp ****       ic[curr_ic].raux.ra_codes[7] = (data[2] + (data[3] << 8));
 3409              		.loc 1 911 7 is_stmt 1 view .LVU1309
 3410              		.loc 1 911 45 is_stmt 0 view .LVU1310
 3411 00e6 A078     		ldrb	r0, [r4, #2]	@ zero_extendqisi2
 3412              		.loc 1 911 56 view .LVU1311
 3413 00e8 E578     		ldrb	r5, [r4, #3]	@ zero_extendqisi2
 3414              	.LVL226:
 3415              		.loc 1 911 47 view .LVU1312
 3416 00ea 00EB0520 		add	r0, r0, r5, lsl #8
 3417              		.loc 1 911 36 view .LVU1313
 3418 00ee A2F8C600 		strh	r0, [r2, #198]	@ movhi
 912:Core/Src/adBms6830ParseCreate.cpp ****       ic[curr_ic].raux.ra_codes[8] = (data[4] + (data[5] << 8));
 3419              		.loc 1 912 7 is_stmt 1 view .LVU1314
 3420              		.loc 1 912 45 is_stmt 0 view .LVU1315
 3421 00f2 2079     		ldrb	r0, [r4, #4]	@ zero_extendqisi2
 3422              		.loc 1 912 56 view .LVU1316
 3423 00f4 6579     		ldrb	r5, [r4, #5]	@ zero_extendqisi2
 3424              		.loc 1 912 47 view .LVU1317
 3425 00f6 00EB0520 		add	r0, r0, r5, lsl #8
 3426              		.loc 1 912 36 view .LVU1318
 3427 00fa A2F8C800 		strh	r0, [r2, #200]	@ movhi
 913:Core/Src/adBms6830ParseCreate.cpp ****       break;
 3428              		.loc 1 913 7 is_stmt 1 view .LVU1319
 3429 00fe B2E7     		b	.L157
 3430              	.LVL227:
 3431              	.L158:
 914:Core/Src/adBms6830ParseCreate.cpp **** 
 915:Core/Src/adBms6830ParseCreate.cpp ****     case D: /* RAux Register group D */
 3432              		.loc 1 915 5 view .LVU1320
 916:Core/Src/adBms6830ParseCreate.cpp ****       ic[curr_ic].raux.ra_codes[9] =  (data[0] + (data[1] << 8));
 3433              		.loc 1 916 7 view .LVU1321
 3434              		.loc 1 916 46 is_stmt 0 view .LVU1322
 3435 0100 2078     		ldrb	r0, [r4]	@ zero_extendqisi2
 3436              		.loc 1 916 57 view .LVU1323
 3437 0102 94F801C0 		ldrb	ip, [r4, #1]	@ zero_extendqisi2
 3438              		.loc 1 916 17 view .LVU1324
 3439 0106 4FF42872 		mov	r2, #672
 3440 010a 02FB05A2 		mla	r2, r2, r5, r10
 3441              		.loc 1 916 48 view .LVU1325
 3442 010e 00EB0C20 		add	r0, r0, ip, lsl #8
 3443              		.loc 1 916 36 view .LVU1326
 3444 0112 A2F8CA00 		strh	r0, [r2, #202]	@ movhi
 917:Core/Src/adBms6830ParseCreate.cpp ****       break;
 3445              		.loc 1 917 7 is_stmt 1 view .LVU1327
 3446 0116 A6E7     		b	.L157
 3447              	.L163:
 918:Core/Src/adBms6830ParseCreate.cpp **** 
 919:Core/Src/adBms6830ParseCreate.cpp ****     case ALL_GRP: /* RAux Register group ALL */
 3448              		.loc 1 919 5 view .LVU1328
 920:Core/Src/adBms6830ParseCreate.cpp ****       ic[curr_ic].raux.ra_codes[0]  = (data[0] + (data[1] << 8));
 3449              		.loc 1 920 7 view .LVU1329
 3450              		.loc 1 920 46 is_stmt 0 view .LVU1330
 3451 0118 2078     		ldrb	r0, [r4]	@ zero_extendqisi2
 3452              		.loc 1 920 57 view .LVU1331
 3453 011a 94F801C0 		ldrb	ip, [r4, #1]	@ zero_extendqisi2
ARM GAS  C:\Users\huawei\AppData\Local\Temp\ccwYaMVL.s 			page 80


 3454              		.loc 1 920 17 view .LVU1332
 3455 011e 4FF42872 		mov	r2, #672
 3456 0122 02FB05A2 		mla	r2, r2, r5, r10
 3457              		.loc 1 920 48 view .LVU1333
 3458 0126 00EB0C20 		add	r0, r0, ip, lsl #8
 3459              		.loc 1 920 37 view .LVU1334
 3460 012a A2F8B800 		strh	r0, [r2, #184]	@ movhi
 921:Core/Src/adBms6830ParseCreate.cpp ****       ic[curr_ic].raux.ra_codes[1]  = (data[2] + (data[3] << 8));
 3461              		.loc 1 921 7 is_stmt 1 view .LVU1335
 3462              		.loc 1 921 46 is_stmt 0 view .LVU1336
 3463 012e A078     		ldrb	r0, [r4, #2]	@ zero_extendqisi2
 3464              		.loc 1 921 57 view .LVU1337
 3465 0130 E578     		ldrb	r5, [r4, #3]	@ zero_extendqisi2
 3466              	.LVL228:
 3467              		.loc 1 921 48 view .LVU1338
 3468 0132 00EB0520 		add	r0, r0, r5, lsl #8
 3469              		.loc 1 921 37 view .LVU1339
 3470 0136 A2F8BA00 		strh	r0, [r2, #186]	@ movhi
 922:Core/Src/adBms6830ParseCreate.cpp ****       ic[curr_ic].raux.ra_codes[2]  = (data[4] + (data[5] << 8));
 3471              		.loc 1 922 7 is_stmt 1 view .LVU1340
 3472              		.loc 1 922 46 is_stmt 0 view .LVU1341
 3473 013a 2079     		ldrb	r0, [r4, #4]	@ zero_extendqisi2
 3474              		.loc 1 922 57 view .LVU1342
 3475 013c 6579     		ldrb	r5, [r4, #5]	@ zero_extendqisi2
 3476              		.loc 1 922 48 view .LVU1343
 3477 013e 00EB0520 		add	r0, r0, r5, lsl #8
 3478              		.loc 1 922 37 view .LVU1344
 3479 0142 A2F8BC00 		strh	r0, [r2, #188]	@ movhi
 923:Core/Src/adBms6830ParseCreate.cpp ****       ic[curr_ic].raux.ra_codes[3]  = (data[6] + (data[7] << 8));
 3480              		.loc 1 923 7 is_stmt 1 view .LVU1345
 3481              		.loc 1 923 46 is_stmt 0 view .LVU1346
 3482 0146 A079     		ldrb	r0, [r4, #6]	@ zero_extendqisi2
 3483              		.loc 1 923 57 view .LVU1347
 3484 0148 E579     		ldrb	r5, [r4, #7]	@ zero_extendqisi2
 3485              		.loc 1 923 48 view .LVU1348
 3486 014a 00EB0520 		add	r0, r0, r5, lsl #8
 3487              		.loc 1 923 37 view .LVU1349
 3488 014e A2F8BE00 		strh	r0, [r2, #190]	@ movhi
 924:Core/Src/adBms6830ParseCreate.cpp ****       ic[curr_ic].raux.ra_codes[4]  = (data[8] + (data[9] << 8));
 3489              		.loc 1 924 7 is_stmt 1 view .LVU1350
 3490              		.loc 1 924 46 is_stmt 0 view .LVU1351
 3491 0152 207A     		ldrb	r0, [r4, #8]	@ zero_extendqisi2
 3492              		.loc 1 924 57 view .LVU1352
 3493 0154 657A     		ldrb	r5, [r4, #9]	@ zero_extendqisi2
 3494              		.loc 1 924 48 view .LVU1353
 3495 0156 00EB0520 		add	r0, r0, r5, lsl #8
 3496              		.loc 1 924 37 view .LVU1354
 3497 015a A2F8C000 		strh	r0, [r2, #192]	@ movhi
 925:Core/Src/adBms6830ParseCreate.cpp ****       ic[curr_ic].raux.ra_codes[5]  = (data[10] + (data[11] << 8));
 3498              		.loc 1 925 7 is_stmt 1 view .LVU1355
 3499              		.loc 1 925 47 is_stmt 0 view .LVU1356
 3500 015e A07A     		ldrb	r0, [r4, #10]	@ zero_extendqisi2
 3501              		.loc 1 925 59 view .LVU1357
 3502 0160 E57A     		ldrb	r5, [r4, #11]	@ zero_extendqisi2
 3503              		.loc 1 925 49 view .LVU1358
 3504 0162 00EB0520 		add	r0, r0, r5, lsl #8
 3505              		.loc 1 925 37 view .LVU1359
ARM GAS  C:\Users\huawei\AppData\Local\Temp\ccwYaMVL.s 			page 81


 3506 0166 A2F8C200 		strh	r0, [r2, #194]	@ movhi
 926:Core/Src/adBms6830ParseCreate.cpp ****       ic[curr_ic].raux.ra_codes[6]  = (data[12] + (data[13] << 8));
 3507              		.loc 1 926 7 is_stmt 1 view .LVU1360
 3508              		.loc 1 926 47 is_stmt 0 view .LVU1361
 3509 016a 207B     		ldrb	r0, [r4, #12]	@ zero_extendqisi2
 3510              		.loc 1 926 59 view .LVU1362
 3511 016c 657B     		ldrb	r5, [r4, #13]	@ zero_extendqisi2
 3512              		.loc 1 926 49 view .LVU1363
 3513 016e 00EB0520 		add	r0, r0, r5, lsl #8
 3514              		.loc 1 926 37 view .LVU1364
 3515 0172 A2F8C400 		strh	r0, [r2, #196]	@ movhi
 927:Core/Src/adBms6830ParseCreate.cpp ****       ic[curr_ic].raux.ra_codes[7]  = (data[14] + (data[15] << 8));
 3516              		.loc 1 927 7 is_stmt 1 view .LVU1365
 3517              		.loc 1 927 47 is_stmt 0 view .LVU1366
 3518 0176 A07B     		ldrb	r0, [r4, #14]	@ zero_extendqisi2
 3519              		.loc 1 927 59 view .LVU1367
 3520 0178 E57B     		ldrb	r5, [r4, #15]	@ zero_extendqisi2
 3521              		.loc 1 927 49 view .LVU1368
 3522 017a 00EB0520 		add	r0, r0, r5, lsl #8
 3523              		.loc 1 927 37 view .LVU1369
 3524 017e A2F8C600 		strh	r0, [r2, #198]	@ movhi
 928:Core/Src/adBms6830ParseCreate.cpp ****       ic[curr_ic].raux.ra_codes[8]  = (data[16] + (data[17] << 8));
 3525              		.loc 1 928 7 is_stmt 1 view .LVU1370
 3526              		.loc 1 928 47 is_stmt 0 view .LVU1371
 3527 0182 207C     		ldrb	r0, [r4, #16]	@ zero_extendqisi2
 3528              		.loc 1 928 59 view .LVU1372
 3529 0184 657C     		ldrb	r5, [r4, #17]	@ zero_extendqisi2
 3530              		.loc 1 928 49 view .LVU1373
 3531 0186 00EB0520 		add	r0, r0, r5, lsl #8
 3532              		.loc 1 928 37 view .LVU1374
 3533 018a A2F8C800 		strh	r0, [r2, #200]	@ movhi
 929:Core/Src/adBms6830ParseCreate.cpp ****       ic[curr_ic].raux.ra_codes[9]  = (data[18] + (data[19] << 8));
 3534              		.loc 1 929 7 is_stmt 1 view .LVU1375
 3535              		.loc 1 929 47 is_stmt 0 view .LVU1376
 3536 018e A07C     		ldrb	r0, [r4, #18]	@ zero_extendqisi2
 3537              		.loc 1 929 59 view .LVU1377
 3538 0190 E57C     		ldrb	r5, [r4, #19]	@ zero_extendqisi2
 3539              		.loc 1 929 49 view .LVU1378
 3540 0192 00EB0520 		add	r0, r0, r5, lsl #8
 3541              		.loc 1 929 37 view .LVU1379
 3542 0196 A2F8CA00 		strh	r0, [r2, #202]	@ movhi
 930:Core/Src/adBms6830ParseCreate.cpp ****      break;
 3543              		.loc 1 930 6 is_stmt 1 view .LVU1380
 3544 019a 64E7     		b	.L157
 3545              	.LVL229:
 3546              	.L170:
 3547              		.loc 1 930 6 is_stmt 0 view .LVU1381
 3548              	.LBE28:
 931:Core/Src/adBms6830ParseCreate.cpp **** 
 932:Core/Src/adBms6830ParseCreate.cpp ****     default:
 933:Core/Src/adBms6830ParseCreate.cpp ****       break;
 934:Core/Src/adBms6830ParseCreate.cpp ****     }
 935:Core/Src/adBms6830ParseCreate.cpp ****   }
 936:Core/Src/adBms6830ParseCreate.cpp ****   free(data);
 3549              		.loc 1 936 3 is_stmt 1 view .LVU1382
 3550              		.loc 1 936 7 is_stmt 0 view .LVU1383
 3551 019c 2046     		mov	r0, r4
ARM GAS  C:\Users\huawei\AppData\Local\Temp\ccwYaMVL.s 			page 82


 3552 019e FFF7FEFF 		bl	free
 3553              	.LVL230:
 937:Core/Src/adBms6830ParseCreate.cpp **** }
 3554              		.loc 1 937 1 view .LVU1384
