ARM GAS  C:\Users\huawei\AppData\Local\Temp\ccpVCJY0.s 			page 1


   1              		.cpu cortex-m4
   2              		.arch armv7e-m
   3              		.fpu fpv4-sp-d16
   4              		.eabi_attribute 27, 1
   5              		.eabi_attribute 28, 1
   6              		.eabi_attribute 20, 1
   7              		.eabi_attribute 21, 1
   8              		.eabi_attribute 23, 3
   9              		.eabi_attribute 24, 1
  10              		.eabi_attribute 25, 1
  11              		.eabi_attribute 26, 1
  12              		.eabi_attribute 30, 1
  13              		.eabi_attribute 34, 1
  14              		.eabi_attribute 18, 4
  15              		.file	"ADBMS.cpp"
  16              		.text
  17              	.Ltext0:
  18              		.cfi_sections	.debug_frame
  19              		.file 1 "Core/Src/ADBMS.cpp"
  20              		.section	.text._Z10adBmsCsLowv,"ax",%progbits
  21              		.align	1
  22              		.global	_Z10adBmsCsLowv
  23              		.syntax unified
  24              		.thumb
  25              		.thumb_func
  27              	_Z10adBmsCsLowv:
  28              		.fnstart
  29              	.LFB245:
   1:Core/Src/ADBMS.cpp **** 
   2:Core/Src/ADBMS.cpp **** #include "ADBMS.h"
   3:Core/Src/ADBMS.cpp **** 
   4:Core/Src/ADBMS.cpp **** #define TOTAL_IC 2
   5:Core/Src/ADBMS.cpp **** cell_asic IC[TOTAL_IC];
   6:Core/Src/ADBMS.cpp **** 
   7:Core/Src/ADBMS.cpp **** const float OV_THRESHOLD = 4.2;                 /* Volt */
   8:Core/Src/ADBMS.cpp **** const float UV_THRESHOLD = 3.0;                 /* Volt */
   9:Core/Src/ADBMS.cpp **** const int OWC_Threshold = 2000;                 /* Cell Open wire threshold(mili volt) */
  10:Core/Src/ADBMS.cpp **** const int OWA_Threshold = 50000;                /* Aux Open wire threshold(mili volt) */
  11:Core/Src/ADBMS.cpp **** const uint32_t LOOP_MEASUREMENT_COUNT = 2;      /* Loop measurment count */
  12:Core/Src/ADBMS.cpp **** const uint16_t MEASUREMENT_LOOP_TIME  = 10;     /* milliseconds(mS)*/
  13:Core/Src/ADBMS.cpp **** uint32_t loop_count = 0;
  14:Core/Src/ADBMS.cpp **** uint32_t pladc_count;
  15:Core/Src/ADBMS.cpp **** /**
  16:Core/Src/ADBMS.cpp ****  *******************************************************************************
  17:Core/Src/ADBMS.cpp ****  * Function: adBmsCsLow
  18:Core/Src/ADBMS.cpp ****  * @brief Select chip select low
  19:Core/Src/ADBMS.cpp ****  *
  20:Core/Src/ADBMS.cpp ****  * @details This function does spi chip select low.
  21:Core/Src/ADBMS.cpp ****  *
  22:Core/Src/ADBMS.cpp ****  * @return None
  23:Core/Src/ADBMS.cpp ****  *
  24:Core/Src/ADBMS.cpp ****  *******************************************************************************
  25:Core/Src/ADBMS.cpp **** */
  26:Core/Src/ADBMS.cpp **** void adBmsCsLow()
  27:Core/Src/ADBMS.cpp **** {
  30              		.loc 1 27 1 view -0
  31              		.cfi_startproc
ARM GAS  C:\Users\huawei\AppData\Local\Temp\ccpVCJY0.s 			page 2


  32              		@ args = 0, pretend = 0, frame = 0
  33              		@ frame_needed = 0, uses_anonymous_args = 0
  34 0000 08B5     		push	{r3, lr}
  35              		.save {r3, lr}
  36              	.LCFI0:
  37              		.cfi_def_cfa_offset 8
  38              		.cfi_offset 3, -8
  39              		.cfi_offset 14, -4
  28:Core/Src/ADBMS.cpp ****   HAL_GPIO_WritePin(SPI2_CS_GPIO_Port, SPI2_CS_Pin, GPIO_PIN_RESET);
  40              		.loc 1 28 3 view .LVU1
  41              		.loc 1 28 20 is_stmt 0 view .LVU2
  42 0002 0022     		movs	r2, #0
  43 0004 0121     		movs	r1, #1
  44 0006 0248     		ldr	r0, .L3
  45 0008 FFF7FEFF 		bl	HAL_GPIO_WritePin
  46              	.LVL0:
  29:Core/Src/ADBMS.cpp **** }
  47              		.loc 1 29 1 view .LVU3
  48 000c 08BD     		pop	{r3, pc}
  49              	.L4:
  50 000e 00BF     		.align	2
  51              	.L3:
  52 0010 00080240 		.word	1073874944
  53              		.cfi_endproc
  54              	.LFE245:
  55              		.fnend
  57              		.section	.text._Z11adBmsCsHighv,"ax",%progbits
  58              		.align	1
  59              		.global	_Z11adBmsCsHighv
  60              		.syntax unified
  61              		.thumb
  62              		.thumb_func
  64              	_Z11adBmsCsHighv:
  65              		.fnstart
  66              	.LFB246:
  30:Core/Src/ADBMS.cpp **** 
  31:Core/Src/ADBMS.cpp **** /**
  32:Core/Src/ADBMS.cpp ****  *******************************************************************************
  33:Core/Src/ADBMS.cpp ****  * Function: adBmsCsHigh
  34:Core/Src/ADBMS.cpp ****  * @brief Select chip select High
  35:Core/Src/ADBMS.cpp ****  *
  36:Core/Src/ADBMS.cpp ****  * @details This function does spi chip select high.
  37:Core/Src/ADBMS.cpp ****  *
  38:Core/Src/ADBMS.cpp ****  * @return None
  39:Core/Src/ADBMS.cpp ****  *
  40:Core/Src/ADBMS.cpp ****  *******************************************************************************
  41:Core/Src/ADBMS.cpp **** */
  42:Core/Src/ADBMS.cpp **** void adBmsCsHigh()
  43:Core/Src/ADBMS.cpp **** {
  67              		.loc 1 43 1 is_stmt 1 view -0
  68              		.cfi_startproc
  69              		@ args = 0, pretend = 0, frame = 0
  70              		@ frame_needed = 0, uses_anonymous_args = 0
  71 0000 08B5     		push	{r3, lr}
  72              		.save {r3, lr}
  73              	.LCFI1:
  74              		.cfi_def_cfa_offset 8
ARM GAS  C:\Users\huawei\AppData\Local\Temp\ccpVCJY0.s 			page 3


  75              		.cfi_offset 3, -8
  76              		.cfi_offset 14, -4
  44:Core/Src/ADBMS.cpp ****   HAL_GPIO_WritePin(SPI2_CS_GPIO_Port, SPI2_CS_Pin, GPIO_PIN_SET);
  77              		.loc 1 44 3 view .LVU5
  78              		.loc 1 44 20 is_stmt 0 view .LVU6
  79 0002 0122     		movs	r2, #1
  80 0004 1146     		mov	r1, r2
  81 0006 0248     		ldr	r0, .L7
  82 0008 FFF7FEFF 		bl	HAL_GPIO_WritePin
  83              	.LVL1:
  45:Core/Src/ADBMS.cpp **** }
  84              		.loc 1 45 1 view .LVU7
  85 000c 08BD     		pop	{r3, pc}
  86              	.L8:
  87 000e 00BF     		.align	2
  88              	.L7:
  89 0010 00080240 		.word	1073874944
  90              		.cfi_endproc
  91              	.LFE246:
  92              		.fnend
  94              		.section	.text._Z13adBmsWakeupIch,"ax",%progbits
  95              		.align	1
  96              		.global	_Z13adBmsWakeupIch
  97              		.syntax unified
  98              		.thumb
  99              		.thumb_func
 101              	_Z13adBmsWakeupIch:
 102              		.fnstart
 103              	.LVL2:
 104              	.LFB247:
  46:Core/Src/ADBMS.cpp **** 
  47:Core/Src/ADBMS.cpp **** /**
  48:Core/Src/ADBMS.cpp ****  *******************************************************************************
  49:Core/Src/ADBMS.cpp ****  * Function: adBmsWakeupIc
  50:Core/Src/ADBMS.cpp ****  * @brief Wakeup bms ic using chip select
  51:Core/Src/ADBMS.cpp ****  *
  52:Core/Src/ADBMS.cpp ****  * @details This function wakeup thr bms ic using chip select.
  53:Core/Src/ADBMS.cpp ****  *
  54:Core/Src/ADBMS.cpp ****  * @param [in]  total_ic    Total_ic
  55:Core/Src/ADBMS.cpp ****  *
  56:Core/Src/ADBMS.cpp ****  * @return None
  57:Core/Src/ADBMS.cpp ****  *
  58:Core/Src/ADBMS.cpp ****  *******************************************************************************
  59:Core/Src/ADBMS.cpp **** */
  60:Core/Src/ADBMS.cpp **** void adBmsWakeupIc(uint8_t total_ic)
  61:Core/Src/ADBMS.cpp **** {
 105              		.loc 1 61 1 is_stmt 1 view -0
 106              		.cfi_startproc
 107              		@ args = 0, pretend = 0, frame = 0
 108              		@ frame_needed = 0, uses_anonymous_args = 0
 109              		.loc 1 61 1 is_stmt 0 view .LVU9
 110 0000 38B5     		push	{r3, r4, r5, lr}
 111              		.save {r3, r4, r5, lr}
 112              	.LCFI2:
 113              		.cfi_def_cfa_offset 16
 114              		.cfi_offset 3, -16
 115              		.cfi_offset 4, -12
ARM GAS  C:\Users\huawei\AppData\Local\Temp\ccpVCJY0.s 			page 4


 116              		.cfi_offset 5, -8
 117              		.cfi_offset 14, -4
 118 0002 0546     		mov	r5, r0
  62:Core/Src/ADBMS.cpp ****   for (uint8_t ic = 0; ic < total_ic; ic++)
 119              		.loc 1 62 3 is_stmt 1 view .LVU10
 120              	.LVL3:
 121              	.LBB2:
 122              		.loc 1 62 16 is_stmt 0 view .LVU11
 123 0004 0024     		movs	r4, #0
 124              		.loc 1 62 3 view .LVU12
 125 0006 0BE0     		b	.L10
 126              	.LVL4:
 127              	.L11:
  63:Core/Src/ADBMS.cpp ****   {
  64:Core/Src/ADBMS.cpp ****     adBmsCsLow();
 128              		.loc 1 64 5 is_stmt 1 discriminator 3 view .LVU13
 129              		.loc 1 64 15 is_stmt 0 discriminator 3 view .LVU14
 130 0008 FFF7FEFF 		bl	_Z10adBmsCsLowv
 131              	.LVL5:
  65:Core/Src/ADBMS.cpp ****     HAL_Delay(WAKEUP_DELAY);
 132              		.loc 1 65 5 is_stmt 1 discriminator 3 view .LVU15
 133              		.loc 1 65 14 is_stmt 0 discriminator 3 view .LVU16
 134 000c 0420     		movs	r0, #4
 135 000e FFF7FEFF 		bl	HAL_Delay
 136              	.LVL6:
  66:Core/Src/ADBMS.cpp ****     adBmsCsHigh();
 137              		.loc 1 66 5 is_stmt 1 discriminator 3 view .LVU17
 138              		.loc 1 66 16 is_stmt 0 discriminator 3 view .LVU18
 139 0012 FFF7FEFF 		bl	_Z11adBmsCsHighv
 140              	.LVL7:
  67:Core/Src/ADBMS.cpp ****     HAL_Delay(WAKEUP_DELAY);
 141              		.loc 1 67 5 is_stmt 1 discriminator 3 view .LVU19
 142              		.loc 1 67 14 is_stmt 0 discriminator 3 view .LVU20
 143 0016 0420     		movs	r0, #4
 144 0018 FFF7FEFF 		bl	HAL_Delay
 145              	.LVL8:
  62:Core/Src/ADBMS.cpp ****   {
 146              		.loc 1 62 3 is_stmt 1 discriminator 3 view .LVU21
 147 001c 0134     		adds	r4, r4, #1
 148              	.LVL9:
  62:Core/Src/ADBMS.cpp ****   {
 149              		.loc 1 62 3 is_stmt 0 discriminator 3 view .LVU22
 150 001e E4B2     		uxtb	r4, r4
 151              	.LVL10:
 152              	.L10:
  62:Core/Src/ADBMS.cpp ****   {
 153              		.loc 1 62 27 is_stmt 1 discriminator 1 view .LVU23
 154 0020 AC42     		cmp	r4, r5
 155 0022 F1D3     		bcc	.L11
 156              	.LBE2:
  68:Core/Src/ADBMS.cpp ****   }
  69:Core/Src/ADBMS.cpp **** }
 157              		.loc 1 69 1 is_stmt 0 view .LVU24
 158 0024 38BD     		pop	{r3, r4, r5, pc}
 159              		.loc 1 69 1 view .LVU25
 160              		.cfi_endproc
 161              	.LFE247:
ARM GAS  C:\Users\huawei\AppData\Local\Temp\ccpVCJY0.s 			page 5


 162              		.fnend
 164              		.section	.text._Z10Pec15_CalchPh,"ax",%progbits
 165              		.align	1
 166              		.global	_Z10Pec15_CalchPh
 167              		.syntax unified
 168              		.thumb
 169              		.thumb_func
 171              	_Z10Pec15_CalchPh:
 172              		.fnstart
 173              	.LVL11:
 174              	.LFB252:
  70:Core/Src/ADBMS.cpp **** 
  71:Core/Src/ADBMS.cpp **** /**
  72:Core/Src/ADBMS.cpp **** *******************************************************************************
  73:Core/Src/ADBMS.cpp **** * Function: adBmsReadData
  74:Core/Src/ADBMS.cpp **** * @brief Adbms Read Data From Bms ic.
  75:Core/Src/ADBMS.cpp **** *
  76:Core/Src/ADBMS.cpp **** * @details This function send bms command, read payload data parse into function and check pec erro
  77:Core/Src/ADBMS.cpp **** *
  78:Core/Src/ADBMS.cpp **** * Parameters:
  79:Core/Src/ADBMS.cpp **** * @param [in]	tIC      Total IC
  80:Core/Src/ADBMS.cpp **** *
  81:Core/Src/ADBMS.cpp **** * @param [in]  *ic      cell_asic stucture pointer
  82:Core/Src/ADBMS.cpp **** *
  83:Core/Src/ADBMS.cpp **** * @param [in]  cmd_arg   command bytes
  84:Core/Src/ADBMS.cpp **** *
  85:Core/Src/ADBMS.cpp **** * @param [in]  TYPE   Enum type of resistor
  86:Core/Src/ADBMS.cpp **** *
  87:Core/Src/ADBMS.cpp **** * @param [in]  GRP   Enum type of resistor group
  88:Core/Src/ADBMS.cpp **** *
  89:Core/Src/ADBMS.cpp **** * @return None
  90:Core/Src/ADBMS.cpp **** *
  91:Core/Src/ADBMS.cpp **** *******************************************************************************
  92:Core/Src/ADBMS.cpp **** */
  93:Core/Src/ADBMS.cpp **** void adBmsReadData(uint8_t tIC, cell_asic *ic, uint8_t cmd_arg[2], TYPE type, GRP group)
  94:Core/Src/ADBMS.cpp **** {
  95:Core/Src/ADBMS.cpp ****   uint16_t rBuff_size;
  96:Core/Src/ADBMS.cpp ****   uint8_t regData_size;
  97:Core/Src/ADBMS.cpp ****   if(group == ALL_GRP)
  98:Core/Src/ADBMS.cpp ****   {
  99:Core/Src/ADBMS.cpp ****     if(type == Rdcvall){rBuff_size = RDCVALL_SIZE; regData_size = RDCVALL_SIZE;}
 100:Core/Src/ADBMS.cpp ****     else if(type == Rdsall){rBuff_size = RDSALL_SIZE; regData_size = RDSALL_SIZE;}
 101:Core/Src/ADBMS.cpp ****     else if(type == Rdacall){rBuff_size = RDACALL_SIZE; regData_size = RDACALL_SIZE;}
 102:Core/Src/ADBMS.cpp ****     else if(type == Rdfcall){rBuff_size = RDFCALL_SIZE; regData_size = RDFCALL_SIZE;}
 103:Core/Src/ADBMS.cpp ****     else if(type == Rdcsall){rBuff_size = RDCSALL_SIZE; regData_size = RDCSALL_SIZE;}
 104:Core/Src/ADBMS.cpp ****     else if(type == Rdasall){rBuff_size = RDASALL_SIZE; regData_size = RDASALL_SIZE;}
 105:Core/Src/ADBMS.cpp ****     else if(type == Rdacsall){rBuff_size = RDACSALL_SIZE; regData_size = RDACSALL_SIZE;}
 106:Core/Src/ADBMS.cpp ****     else{printf("Read All cmd wrong type select \n");}
 107:Core/Src/ADBMS.cpp ****   }
 108:Core/Src/ADBMS.cpp ****   else{rBuff_size = (tIC * RX_DATA); regData_size = RX_DATA;}
 109:Core/Src/ADBMS.cpp ****   uint8_t *read_buffer, *pec_error, *cmd_count;
 110:Core/Src/ADBMS.cpp ****   read_buffer = (uint8_t *)calloc(rBuff_size, sizeof(uint8_t));
 111:Core/Src/ADBMS.cpp ****   pec_error = (uint8_t *)calloc(tIC, sizeof(uint8_t));
 112:Core/Src/ADBMS.cpp ****   cmd_count = (uint8_t *)calloc(tIC, sizeof(uint8_t));
 113:Core/Src/ADBMS.cpp ****   if((pec_error == NULL) || (cmd_count == NULL) || (read_buffer == NULL))
 114:Core/Src/ADBMS.cpp ****   {
 115:Core/Src/ADBMS.cpp ****     printf(" Failed to allocate memory \n");
ARM GAS  C:\Users\huawei\AppData\Local\Temp\ccpVCJY0.s 			page 6


 116:Core/Src/ADBMS.cpp **** 
 117:Core/Src/ADBMS.cpp ****     exit(0);
 118:Core/Src/ADBMS.cpp ****   }
 119:Core/Src/ADBMS.cpp ****   else
 120:Core/Src/ADBMS.cpp ****   {
 121:Core/Src/ADBMS.cpp ****     spiReadData(tIC, &cmd_arg[0], &read_buffer[0], &pec_error[0], &cmd_count[0], regData_size);
 122:Core/Src/ADBMS.cpp ****     switch (type)
 123:Core/Src/ADBMS.cpp ****     {
 124:Core/Src/ADBMS.cpp ****     case Config:
 125:Core/Src/ADBMS.cpp ****       adBms6830ParseConfig(tIC, ic, group, &read_buffer[0]);
 126:Core/Src/ADBMS.cpp ****       for (uint8_t cic = 0; cic < tIC; cic++)
 127:Core/Src/ADBMS.cpp ****       {
 128:Core/Src/ADBMS.cpp ****         ic[cic].cccrc.cfgr_pec = pec_error[cic];
 129:Core/Src/ADBMS.cpp ****         ic[cic].cccrc.cmd_cntr = cmd_count[cic];
 130:Core/Src/ADBMS.cpp ****       }
 131:Core/Src/ADBMS.cpp ****       break;
 132:Core/Src/ADBMS.cpp **** 
 133:Core/Src/ADBMS.cpp ****     case Cell:
 134:Core/Src/ADBMS.cpp ****       adBms6830ParseCell(tIC, ic, group, &read_buffer[0]);
 135:Core/Src/ADBMS.cpp ****       for (uint8_t cic = 0; cic < tIC; cic++)
 136:Core/Src/ADBMS.cpp ****       {
 137:Core/Src/ADBMS.cpp ****         ic[cic].cccrc.cell_pec = pec_error[cic];
 138:Core/Src/ADBMS.cpp ****         ic[cic].cccrc.cmd_cntr = cmd_count[cic];
 139:Core/Src/ADBMS.cpp ****       }
 140:Core/Src/ADBMS.cpp ****       break;
 141:Core/Src/ADBMS.cpp **** 
 142:Core/Src/ADBMS.cpp ****     case AvgCell:
 143:Core/Src/ADBMS.cpp ****       adBms6830ParseAverageCell(tIC, ic, group, &read_buffer[0]);
 144:Core/Src/ADBMS.cpp ****       for (uint8_t cic = 0; cic < tIC; cic++)
 145:Core/Src/ADBMS.cpp ****       {
 146:Core/Src/ADBMS.cpp ****         ic[cic].cccrc.acell_pec = pec_error[cic];
 147:Core/Src/ADBMS.cpp ****         ic[cic].cccrc.cmd_cntr = cmd_count[cic];
 148:Core/Src/ADBMS.cpp ****       }
 149:Core/Src/ADBMS.cpp ****       break;
 150:Core/Src/ADBMS.cpp **** 
 151:Core/Src/ADBMS.cpp ****     case S_volt:
 152:Core/Src/ADBMS.cpp ****       adBms6830ParseSCell(tIC, ic, group, &read_buffer[0]);
 153:Core/Src/ADBMS.cpp ****       for (uint8_t cic = 0; cic < tIC; cic++)
 154:Core/Src/ADBMS.cpp ****       {
 155:Core/Src/ADBMS.cpp ****         ic[cic].cccrc.scell_pec = pec_error[cic];
 156:Core/Src/ADBMS.cpp ****         ic[cic].cccrc.cmd_cntr = cmd_count[cic];
 157:Core/Src/ADBMS.cpp ****       }
 158:Core/Src/ADBMS.cpp ****       break;
 159:Core/Src/ADBMS.cpp **** 
 160:Core/Src/ADBMS.cpp ****     case F_volt:
 161:Core/Src/ADBMS.cpp ****       adBms6830ParseFCell(tIC, ic, group, &read_buffer[0]);
 162:Core/Src/ADBMS.cpp ****       for (uint8_t cic = 0; cic < tIC; cic++)
 163:Core/Src/ADBMS.cpp ****       {
 164:Core/Src/ADBMS.cpp ****         ic[cic].cccrc.fcell_pec = pec_error[cic];
 165:Core/Src/ADBMS.cpp ****         ic[cic].cccrc.cmd_cntr = cmd_count[cic];
 166:Core/Src/ADBMS.cpp ****       }
 167:Core/Src/ADBMS.cpp ****       break;
 168:Core/Src/ADBMS.cpp **** 
 169:Core/Src/ADBMS.cpp ****     case Aux:
 170:Core/Src/ADBMS.cpp ****       adBms6830ParseAux(tIC, ic, group, &read_buffer[0]);
 171:Core/Src/ADBMS.cpp ****       for (uint8_t cic = 0; cic < tIC; cic++)
 172:Core/Src/ADBMS.cpp ****       {
ARM GAS  C:\Users\huawei\AppData\Local\Temp\ccpVCJY0.s 			page 7


 173:Core/Src/ADBMS.cpp ****         ic[cic].cccrc.aux_pec = pec_error[cic];
 174:Core/Src/ADBMS.cpp ****         ic[cic].cccrc.cmd_cntr = cmd_count[cic];
 175:Core/Src/ADBMS.cpp ****       }
 176:Core/Src/ADBMS.cpp ****       break;
 177:Core/Src/ADBMS.cpp **** 
 178:Core/Src/ADBMS.cpp ****     case RAux:
 179:Core/Src/ADBMS.cpp ****       adBms6830ParseRAux(tIC, ic, group, &read_buffer[0]);
 180:Core/Src/ADBMS.cpp ****       for (uint8_t cic = 0; cic < tIC; cic++)
 181:Core/Src/ADBMS.cpp ****       {
 182:Core/Src/ADBMS.cpp ****         ic[cic].cccrc.raux_pec = pec_error[cic];
 183:Core/Src/ADBMS.cpp ****         ic[cic].cccrc.cmd_cntr = cmd_count[cic];
 184:Core/Src/ADBMS.cpp ****       }
 185:Core/Src/ADBMS.cpp ****       break;
 186:Core/Src/ADBMS.cpp **** 
 187:Core/Src/ADBMS.cpp ****     case Status:
 188:Core/Src/ADBMS.cpp ****       adBms6830ParseStatus(tIC, ic, group, &read_buffer[0]);
 189:Core/Src/ADBMS.cpp ****       for (uint8_t cic = 0; cic < tIC; cic++)
 190:Core/Src/ADBMS.cpp ****       {
 191:Core/Src/ADBMS.cpp ****         ic[cic].cccrc.stat_pec = pec_error[cic];
 192:Core/Src/ADBMS.cpp ****         ic[cic].cccrc.cmd_cntr = cmd_count[cic];
 193:Core/Src/ADBMS.cpp ****       }
 194:Core/Src/ADBMS.cpp ****       break;
 195:Core/Src/ADBMS.cpp **** 
 196:Core/Src/ADBMS.cpp ****     case Comm:
 197:Core/Src/ADBMS.cpp ****       adBms6830ParseComm(tIC, ic, &read_buffer[0]);
 198:Core/Src/ADBMS.cpp ****       for (uint8_t cic = 0; cic < tIC; cic++)
 199:Core/Src/ADBMS.cpp ****       {
 200:Core/Src/ADBMS.cpp ****         ic[cic].cccrc.comm_pec = pec_error[cic];
 201:Core/Src/ADBMS.cpp ****         ic[cic].cccrc.cmd_cntr = cmd_count[cic];
 202:Core/Src/ADBMS.cpp ****       }
 203:Core/Src/ADBMS.cpp ****       break;
 204:Core/Src/ADBMS.cpp **** 
 205:Core/Src/ADBMS.cpp ****     case Pwm:
 206:Core/Src/ADBMS.cpp ****       adBms6830ParsePwm(tIC, ic, group, &read_buffer[0]);
 207:Core/Src/ADBMS.cpp ****       for (uint8_t cic = 0; cic < tIC; cic++)
 208:Core/Src/ADBMS.cpp ****       {
 209:Core/Src/ADBMS.cpp ****         ic[cic].cccrc.pwm_pec = pec_error[cic];
 210:Core/Src/ADBMS.cpp ****         ic[cic].cccrc.cmd_cntr = cmd_count[cic];
 211:Core/Src/ADBMS.cpp ****       }
 212:Core/Src/ADBMS.cpp ****       break;
 213:Core/Src/ADBMS.cpp **** 
 214:Core/Src/ADBMS.cpp ****     case Sid:
 215:Core/Src/ADBMS.cpp ****       adBms6830ParseSID(tIC, ic, &read_buffer[0]);
 216:Core/Src/ADBMS.cpp ****       for (uint8_t cic = 0; cic < tIC; cic++)
 217:Core/Src/ADBMS.cpp ****       {
 218:Core/Src/ADBMS.cpp ****         ic[cic].cccrc.sid_pec = pec_error[cic];
 219:Core/Src/ADBMS.cpp ****         ic[cic].cccrc.cmd_cntr = cmd_count[cic];
 220:Core/Src/ADBMS.cpp ****       }
 221:Core/Src/ADBMS.cpp ****       break;
 222:Core/Src/ADBMS.cpp **** 
 223:Core/Src/ADBMS.cpp ****     case Rdcvall:
 224:Core/Src/ADBMS.cpp ****       /* 32 byte cell data + 2 byte pec */
 225:Core/Src/ADBMS.cpp ****       adBms6830ParseCell(tIC, ic, group, &read_buffer[0]);
 226:Core/Src/ADBMS.cpp ****       for (uint8_t cic = 0; cic < tIC; cic++)
 227:Core/Src/ADBMS.cpp ****       {
 228:Core/Src/ADBMS.cpp ****         ic[cic].cccrc.cell_pec = pec_error[cic];
 229:Core/Src/ADBMS.cpp ****         ic[cic].cccrc.cmd_cntr = cmd_count[cic];
ARM GAS  C:\Users\huawei\AppData\Local\Temp\ccpVCJY0.s 			page 8


 230:Core/Src/ADBMS.cpp ****       }
 231:Core/Src/ADBMS.cpp ****       break;
 232:Core/Src/ADBMS.cpp **** 
 233:Core/Src/ADBMS.cpp ****     case Rdacall:
 234:Core/Src/ADBMS.cpp ****       /* 32 byte avg cell data + 2 byte pec */
 235:Core/Src/ADBMS.cpp ****       adBms6830ParseAverageCell(tIC, ic, group, &read_buffer[0]);
 236:Core/Src/ADBMS.cpp ****       for (uint8_t cic = 0; cic < tIC; cic++)
 237:Core/Src/ADBMS.cpp ****       {
 238:Core/Src/ADBMS.cpp ****         ic[cic].cccrc.acell_pec = pec_error[cic];
 239:Core/Src/ADBMS.cpp ****         ic[cic].cccrc.cmd_cntr = cmd_count[cic];
 240:Core/Src/ADBMS.cpp ****       }
 241:Core/Src/ADBMS.cpp ****       break;
 242:Core/Src/ADBMS.cpp **** 
 243:Core/Src/ADBMS.cpp ****     case Rdsall:
 244:Core/Src/ADBMS.cpp ****       /* 32 byte scell volt data + 2 byte pec */
 245:Core/Src/ADBMS.cpp ****       adBms6830ParseSCell(tIC, ic, group, &read_buffer[0]);
 246:Core/Src/ADBMS.cpp ****       for (uint8_t cic = 0; cic < tIC; cic++)
 247:Core/Src/ADBMS.cpp ****       {
 248:Core/Src/ADBMS.cpp ****         ic[cic].cccrc.scell_pec = pec_error[cic];
 249:Core/Src/ADBMS.cpp ****         ic[cic].cccrc.cmd_cntr = cmd_count[cic];
 250:Core/Src/ADBMS.cpp ****       }
 251:Core/Src/ADBMS.cpp ****       break;
 252:Core/Src/ADBMS.cpp **** 
 253:Core/Src/ADBMS.cpp ****     case Rdfcall:
 254:Core/Src/ADBMS.cpp ****       /* 32 byte fcell data + 2 byte pec */
 255:Core/Src/ADBMS.cpp ****       adBms6830ParseFCell(tIC, ic, group, &read_buffer[0]);
 256:Core/Src/ADBMS.cpp ****       for (uint8_t cic = 0; cic < tIC; cic++)
 257:Core/Src/ADBMS.cpp ****       {
 258:Core/Src/ADBMS.cpp ****         ic[cic].cccrc.fcell_pec = pec_error[cic];
 259:Core/Src/ADBMS.cpp ****         ic[cic].cccrc.cmd_cntr = cmd_count[cic];
 260:Core/Src/ADBMS.cpp ****       }
 261:Core/Src/ADBMS.cpp ****       break;
 262:Core/Src/ADBMS.cpp **** 
 263:Core/Src/ADBMS.cpp ****     case Rdcsall:
 264:Core/Src/ADBMS.cpp ****       /* 64 byte + 2 byte pec = 32 byte cell data + 32 byte scell volt data */
 265:Core/Src/ADBMS.cpp ****       adBms6830ParseCell(tIC, ic, group, &read_buffer[0]);
 266:Core/Src/ADBMS.cpp ****       for (uint8_t cic = 0; cic < tIC; cic++)
 267:Core/Src/ADBMS.cpp ****       {
 268:Core/Src/ADBMS.cpp ****         ic[cic].cccrc.cell_pec = pec_error[cic];
 269:Core/Src/ADBMS.cpp ****         ic[cic].cccrc.cmd_cntr = cmd_count[cic];
 270:Core/Src/ADBMS.cpp ****       }
 271:Core/Src/ADBMS.cpp ****       adBms6830ParseSCell(tIC, ic, group, &read_buffer[32]);
 272:Core/Src/ADBMS.cpp ****       for (uint8_t cic = 0; cic < tIC; cic++)
 273:Core/Src/ADBMS.cpp ****       {
 274:Core/Src/ADBMS.cpp ****         ic[cic].cccrc.scell_pec = pec_error[cic];
 275:Core/Src/ADBMS.cpp ****         ic[cic].cccrc.cmd_cntr = cmd_count[cic];
 276:Core/Src/ADBMS.cpp ****       }
 277:Core/Src/ADBMS.cpp ****       break;
 278:Core/Src/ADBMS.cpp **** 
 279:Core/Src/ADBMS.cpp ****     case Rdacsall:
 280:Core/Src/ADBMS.cpp ****       /* 64 byte + 2 byte pec = 32 byte avg cell data + 32 byte scell volt data */
 281:Core/Src/ADBMS.cpp ****       adBms6830ParseAverageCell(tIC, ic, group, &read_buffer[0]);
 282:Core/Src/ADBMS.cpp ****       for (uint8_t cic = 0; cic < tIC; cic++)
 283:Core/Src/ADBMS.cpp ****       {
 284:Core/Src/ADBMS.cpp ****         ic[cic].cccrc.acell_pec = pec_error[cic];
 285:Core/Src/ADBMS.cpp ****         ic[cic].cccrc.cmd_cntr = cmd_count[cic];
 286:Core/Src/ADBMS.cpp ****       }
ARM GAS  C:\Users\huawei\AppData\Local\Temp\ccpVCJY0.s 			page 9


 287:Core/Src/ADBMS.cpp ****       adBms6830ParseSCell(tIC, ic, group, &read_buffer[32]);
 288:Core/Src/ADBMS.cpp ****       for (uint8_t cic = 0; cic < tIC; cic++)
 289:Core/Src/ADBMS.cpp ****       {
 290:Core/Src/ADBMS.cpp ****         ic[cic].cccrc.scell_pec = pec_error[cic];
 291:Core/Src/ADBMS.cpp ****         ic[cic].cccrc.cmd_cntr = cmd_count[cic];
 292:Core/Src/ADBMS.cpp ****       }
 293:Core/Src/ADBMS.cpp ****       break;
 294:Core/Src/ADBMS.cpp **** 
 295:Core/Src/ADBMS.cpp ****     case Rdasall:
 296:Core/Src/ADBMS.cpp ****       /* 68 byte + 2 byte pec:
 297:Core/Src/ADBMS.cpp ****       24 byte gpio data + 20 byte Redundant gpio data +
 298:Core/Src/ADBMS.cpp ****       24 byte status A(6 byte), B(6 byte), C(4 byte), D(6 byte) & E(2 byte)
 299:Core/Src/ADBMS.cpp ****       */
 300:Core/Src/ADBMS.cpp ****       adBms6830ParseAux(tIC, ic, group, &read_buffer[0]);
 301:Core/Src/ADBMS.cpp ****       for (uint8_t cic = 0; cic < tIC; cic++)
 302:Core/Src/ADBMS.cpp ****       {
 303:Core/Src/ADBMS.cpp ****         ic[cic].cccrc.aux_pec = pec_error[cic];
 304:Core/Src/ADBMS.cpp ****         ic[cic].cccrc.cmd_cntr = cmd_count[cic];
 305:Core/Src/ADBMS.cpp ****       }
 306:Core/Src/ADBMS.cpp ****       adBms6830ParseRAux(tIC, ic, group, &read_buffer[24]);
 307:Core/Src/ADBMS.cpp ****       for (uint8_t cic = 0; cic < tIC; cic++)
 308:Core/Src/ADBMS.cpp ****       {
 309:Core/Src/ADBMS.cpp ****         ic[cic].cccrc.raux_pec = pec_error[cic];
 310:Core/Src/ADBMS.cpp ****         ic[cic].cccrc.cmd_cntr = cmd_count[cic];
 311:Core/Src/ADBMS.cpp ****       }
 312:Core/Src/ADBMS.cpp ****       adBms6830ParseStatus(tIC, ic, group, &read_buffer[44]);
 313:Core/Src/ADBMS.cpp ****       for (uint8_t cic = 0; cic < tIC; cic++)
 314:Core/Src/ADBMS.cpp ****       {
 315:Core/Src/ADBMS.cpp ****         ic[cic].cccrc.stat_pec = pec_error[cic];
 316:Core/Src/ADBMS.cpp ****         ic[cic].cccrc.cmd_cntr = cmd_count[cic];
 317:Core/Src/ADBMS.cpp ****       }
 318:Core/Src/ADBMS.cpp ****       break;
 319:Core/Src/ADBMS.cpp **** 
 320:Core/Src/ADBMS.cpp ****     default:
 321:Core/Src/ADBMS.cpp ****       break;
 322:Core/Src/ADBMS.cpp ****     }
 323:Core/Src/ADBMS.cpp ****   }
 324:Core/Src/ADBMS.cpp ****   free(read_buffer);
 325:Core/Src/ADBMS.cpp ****   free(pec_error);
 326:Core/Src/ADBMS.cpp ****   free(cmd_count);
 327:Core/Src/ADBMS.cpp **** }
 328:Core/Src/ADBMS.cpp **** 
 329:Core/Src/ADBMS.cpp **** /**
 330:Core/Src/ADBMS.cpp **** *******************************************************************************
 331:Core/Src/ADBMS.cpp **** * Function: adBmsWriteData
 332:Core/Src/ADBMS.cpp **** * @brief Adbms Write Data into Bms ic.
 333:Core/Src/ADBMS.cpp **** *
 334:Core/Src/ADBMS.cpp **** * @details This function write the data into bms ic.
 335:Core/Src/ADBMS.cpp **** *
 336:Core/Src/ADBMS.cpp **** * Parameters:
 337:Core/Src/ADBMS.cpp **** * @param [in]	tIC      Total IC
 338:Core/Src/ADBMS.cpp **** *
 339:Core/Src/ADBMS.cpp **** * @param [in]  *ic      cell_asic stucture pointer
 340:Core/Src/ADBMS.cpp **** *
 341:Core/Src/ADBMS.cpp **** * @param [in]  cmd_arg   command bytes
 342:Core/Src/ADBMS.cpp **** *
 343:Core/Src/ADBMS.cpp **** * @param [in]  TYPE   Enum type of resistor
ARM GAS  C:\Users\huawei\AppData\Local\Temp\ccpVCJY0.s 			page 10


 344:Core/Src/ADBMS.cpp **** *
 345:Core/Src/ADBMS.cpp **** * @param [in]  GRP   Enum type of resistor group
 346:Core/Src/ADBMS.cpp **** *
 347:Core/Src/ADBMS.cpp **** * @return None
 348:Core/Src/ADBMS.cpp **** *
 349:Core/Src/ADBMS.cpp **** *******************************************************************************
 350:Core/Src/ADBMS.cpp **** */
 351:Core/Src/ADBMS.cpp **** void adBmsWriteData(uint8_t tIC, cell_asic *ic, uint8_t cmd_arg[2], TYPE type, GRP group)
 352:Core/Src/ADBMS.cpp **** {
 353:Core/Src/ADBMS.cpp ****   uint8_t data_len = TX_DATA, write_size = (TX_DATA * tIC);
 354:Core/Src/ADBMS.cpp ****   uint8_t *write_buffer = (uint8_t *)calloc(write_size, sizeof(uint8_t));
 355:Core/Src/ADBMS.cpp ****   if(write_buffer == NULL)
 356:Core/Src/ADBMS.cpp ****   {
 357:Core/Src/ADBMS.cpp ****     printf(" Failed to allocate write_buffer array memory \n");
 358:Core/Src/ADBMS.cpp ****     exit(0);
 359:Core/Src/ADBMS.cpp ****   }
 360:Core/Src/ADBMS.cpp ****   else
 361:Core/Src/ADBMS.cpp ****   {
 362:Core/Src/ADBMS.cpp ****     switch (type)
 363:Core/Src/ADBMS.cpp ****     {
 364:Core/Src/ADBMS.cpp ****     case Config:
 365:Core/Src/ADBMS.cpp ****       switch (group)
 366:Core/Src/ADBMS.cpp ****       {
 367:Core/Src/ADBMS.cpp ****       case A:
 368:Core/Src/ADBMS.cpp ****         adBms6830CreateConfiga(tIC, &ic[0]);
 369:Core/Src/ADBMS.cpp ****         for (uint8_t cic = 0; cic < tIC; cic++)
 370:Core/Src/ADBMS.cpp ****         {
 371:Core/Src/ADBMS.cpp ****           for (uint8_t data = 0; data < data_len; data++)
 372:Core/Src/ADBMS.cpp ****           {
 373:Core/Src/ADBMS.cpp ****             write_buffer[(cic * data_len) + data] = ic[cic].configa.tx_data[data];
 374:Core/Src/ADBMS.cpp ****           }
 375:Core/Src/ADBMS.cpp ****         }
 376:Core/Src/ADBMS.cpp ****         break;
 377:Core/Src/ADBMS.cpp ****       case B:
 378:Core/Src/ADBMS.cpp ****         adBms6830CreateConfigb(tIC, &ic[0]);
 379:Core/Src/ADBMS.cpp ****         for (uint8_t cic = 0; cic < tIC; cic++)
 380:Core/Src/ADBMS.cpp ****         {
 381:Core/Src/ADBMS.cpp ****           for (uint8_t data = 0; data < data_len; data++)
 382:Core/Src/ADBMS.cpp ****           {
 383:Core/Src/ADBMS.cpp ****             write_buffer[(cic * data_len) + data] = ic[cic].configb.tx_data[data];
 384:Core/Src/ADBMS.cpp ****           }
 385:Core/Src/ADBMS.cpp ****         }
 386:Core/Src/ADBMS.cpp ****         break;
 387:Core/Src/ADBMS.cpp ****       }
 388:Core/Src/ADBMS.cpp ****       break;
 389:Core/Src/ADBMS.cpp **** 
 390:Core/Src/ADBMS.cpp ****     case Comm:
 391:Core/Src/ADBMS.cpp ****       adBms6830CreateComm(tIC, &ic[0]);
 392:Core/Src/ADBMS.cpp ****       for (uint8_t cic = 0; cic < tIC; cic++)
 393:Core/Src/ADBMS.cpp ****       {
 394:Core/Src/ADBMS.cpp ****         for (uint8_t data = 0; data < data_len; data++)
 395:Core/Src/ADBMS.cpp ****         {
 396:Core/Src/ADBMS.cpp ****           write_buffer[(cic * data_len) + data] = ic[cic].com.tx_data[data];
 397:Core/Src/ADBMS.cpp ****         }
 398:Core/Src/ADBMS.cpp ****       }
 399:Core/Src/ADBMS.cpp ****       break;
 400:Core/Src/ADBMS.cpp **** 
ARM GAS  C:\Users\huawei\AppData\Local\Temp\ccpVCJY0.s 			page 11


 401:Core/Src/ADBMS.cpp ****     case Pwm:
 402:Core/Src/ADBMS.cpp ****       switch (group)
 403:Core/Src/ADBMS.cpp ****       {
 404:Core/Src/ADBMS.cpp ****       case A:
 405:Core/Src/ADBMS.cpp ****         adBms6830CreatePwma(tIC, &ic[0]);
 406:Core/Src/ADBMS.cpp ****         for (uint8_t cic = 0; cic < tIC; cic++)
 407:Core/Src/ADBMS.cpp ****         {
 408:Core/Src/ADBMS.cpp ****           for (uint8_t data = 0; data < data_len; data++)
 409:Core/Src/ADBMS.cpp ****           {
 410:Core/Src/ADBMS.cpp ****             write_buffer[(cic * data_len) + data] = ic[cic].pwma.tx_data[data];
 411:Core/Src/ADBMS.cpp ****           }
 412:Core/Src/ADBMS.cpp ****         }
 413:Core/Src/ADBMS.cpp ****         break;
 414:Core/Src/ADBMS.cpp ****       case B:
 415:Core/Src/ADBMS.cpp ****         adBms6830CreatePwmb(tIC, &ic[0]);
 416:Core/Src/ADBMS.cpp ****         for (uint8_t cic = 0; cic < tIC; cic++)
 417:Core/Src/ADBMS.cpp ****         {
 418:Core/Src/ADBMS.cpp ****           for (uint8_t data = 0; data < data_len; data++)
 419:Core/Src/ADBMS.cpp ****           {
 420:Core/Src/ADBMS.cpp ****             write_buffer[(cic * data_len) + data] = ic[cic].pwmb.tx_data[data];
 421:Core/Src/ADBMS.cpp ****           }
 422:Core/Src/ADBMS.cpp ****         }
 423:Core/Src/ADBMS.cpp ****         break;
 424:Core/Src/ADBMS.cpp ****       }
 425:Core/Src/ADBMS.cpp ****       break;
 426:Core/Src/ADBMS.cpp **** 
 427:Core/Src/ADBMS.cpp ****     case Clrflag:
 428:Core/Src/ADBMS.cpp ****       adBms6830CreateClrflagData(tIC, &ic[0]);
 429:Core/Src/ADBMS.cpp ****       for (uint8_t cic = 0; cic < tIC; cic++)
 430:Core/Src/ADBMS.cpp ****       {
 431:Core/Src/ADBMS.cpp ****         for (uint8_t data = 0; data < data_len; data++)
 432:Core/Src/ADBMS.cpp ****         {
 433:Core/Src/ADBMS.cpp ****           write_buffer[(cic * data_len) + data] = ic[cic].clrflag.tx_data[data];
 434:Core/Src/ADBMS.cpp ****         }
 435:Core/Src/ADBMS.cpp ****       }
 436:Core/Src/ADBMS.cpp ****       break;
 437:Core/Src/ADBMS.cpp **** 
 438:Core/Src/ADBMS.cpp ****     default:
 439:Core/Src/ADBMS.cpp ****       break;
 440:Core/Src/ADBMS.cpp ****     }
 441:Core/Src/ADBMS.cpp ****   }
 442:Core/Src/ADBMS.cpp ****   spiWriteData(tIC, cmd_arg, &write_buffer[0]);
 443:Core/Src/ADBMS.cpp **** 
 444:Core/Src/ADBMS.cpp ****   free(write_buffer);
 445:Core/Src/ADBMS.cpp **** }
 446:Core/Src/ADBMS.cpp **** 
 447:Core/Src/ADBMS.cpp **** /**
 448:Core/Src/ADBMS.cpp **** *******************************************************************************
 449:Core/Src/ADBMS.cpp **** * Function: spiReadData
 450:Core/Src/ADBMS.cpp **** * @brief Spi Read Bms Data
 451:Core/Src/ADBMS.cpp **** *
 452:Core/Src/ADBMS.cpp **** * @details This function send bms command in spi line and read command corrospond data byte.
 453:Core/Src/ADBMS.cpp **** *
 454:Core/Src/ADBMS.cpp **** * Parameters:
 455:Core/Src/ADBMS.cpp **** * @param [in]	tIC     Total IC
 456:Core/Src/ADBMS.cpp **** *
 457:Core/Src/ADBMS.cpp **** * @param [in]  tx_cmd   Tx command bytes
ARM GAS  C:\Users\huawei\AppData\Local\Temp\ccpVCJY0.s 			page 12


 458:Core/Src/ADBMS.cpp **** *
 459:Core/Src/ADBMS.cpp **** * @param [in]  *rx_data Rx data pointer
 460:Core/Src/ADBMS.cpp **** *
 461:Core/Src/ADBMS.cpp **** * @param [in]  *pec_error Pec error pointer
 462:Core/Src/ADBMS.cpp **** *
 463:Core/Src/ADBMS.cpp **** * @param [in]  *cmd_cntr command counter pointer
 464:Core/Src/ADBMS.cpp **** *
 465:Core/Src/ADBMS.cpp **** * @return None
 466:Core/Src/ADBMS.cpp **** *
 467:Core/Src/ADBMS.cpp **** *******************************************************************************
 468:Core/Src/ADBMS.cpp **** */
 469:Core/Src/ADBMS.cpp **** void spiReadData
 470:Core/Src/ADBMS.cpp **** (
 471:Core/Src/ADBMS.cpp **** uint8_t tIC,
 472:Core/Src/ADBMS.cpp **** uint8_t tx_cmd[2],
 473:Core/Src/ADBMS.cpp **** uint8_t *rx_data,
 474:Core/Src/ADBMS.cpp **** uint8_t *pec_error,
 475:Core/Src/ADBMS.cpp **** uint8_t *cmd_cntr,
 476:Core/Src/ADBMS.cpp **** uint8_t regData_size
 477:Core/Src/ADBMS.cpp **** )
 478:Core/Src/ADBMS.cpp **** {
 479:Core/Src/ADBMS.cpp ****   uint8_t *data, *copyArray, src_address = 0;
 480:Core/Src/ADBMS.cpp ****   uint16_t cmd_pec, received_pec, calculated_pec;
 481:Core/Src/ADBMS.cpp ****   uint8_t BYTES_IN_REG = regData_size;
 482:Core/Src/ADBMS.cpp ****   uint8_t RX_BUFFER = (regData_size * tIC);
 483:Core/Src/ADBMS.cpp **** 
 484:Core/Src/ADBMS.cpp ****   data = (uint8_t *)calloc(RX_BUFFER, sizeof(uint8_t));
 485:Core/Src/ADBMS.cpp ****   copyArray = (uint8_t *)calloc(BYTES_IN_REG, sizeof(uint8_t));
 486:Core/Src/ADBMS.cpp ****   if((data == NULL) || (copyArray == NULL))
 487:Core/Src/ADBMS.cpp ****   {
 488:Core/Src/ADBMS.cpp ****     printf(" Failed to allocate spi read data memory \n");
 489:Core/Src/ADBMS.cpp **** 
 490:Core/Src/ADBMS.cpp ****     exit(0);
 491:Core/Src/ADBMS.cpp ****   }
 492:Core/Src/ADBMS.cpp ****   else
 493:Core/Src/ADBMS.cpp ****   {
 494:Core/Src/ADBMS.cpp ****     uint8_t cmd[4];
 495:Core/Src/ADBMS.cpp ****     cmd[0] = tx_cmd[0];
 496:Core/Src/ADBMS.cpp ****     cmd[1] = tx_cmd[1];
 497:Core/Src/ADBMS.cpp ****     cmd_pec = Pec15_Calc(2, cmd);
 498:Core/Src/ADBMS.cpp ****     cmd[2] = (uint8_t)(cmd_pec >> 8);
 499:Core/Src/ADBMS.cpp ****     cmd[3] = (uint8_t)(cmd_pec);
 500:Core/Src/ADBMS.cpp ****     adBmsCsLow();
 501:Core/Src/ADBMS.cpp ****     HAL_SPI_Transmit(hspi, &cmd[0], 4, SPI_TIME_OUT);
 502:Core/Src/ADBMS.cpp ****     HAL_SPI_Receive(hspi, &data[0], RX_BUFFER, SPI_TIME_OUT);
 503:Core/Src/ADBMS.cpp ****     adBmsCsHigh();
 504:Core/Src/ADBMS.cpp ****     for (uint8_t current_ic = 0; current_ic < tIC; current_ic++)     /* executes for each ic in the
 505:Core/Src/ADBMS.cpp ****     {																																      /* Into the r_comm array as well as check the received d
 506:Core/Src/ADBMS.cpp ****       for (uint8_t current_byte = 0; current_byte < (BYTES_IN_REG-2); current_byte++)
 507:Core/Src/ADBMS.cpp ****       {
 508:Core/Src/ADBMS.cpp ****         rx_data[(current_ic*BYTES_IN_REG)+current_byte] = data[current_byte + (current_ic*BYTES_IN_
 509:Core/Src/ADBMS.cpp ****       }
 510:Core/Src/ADBMS.cpp ****       /* Get command counter value */
 511:Core/Src/ADBMS.cpp ****       cmd_cntr[current_ic] = (data[(current_ic * BYTES_IN_REG) + (BYTES_IN_REG - 2)] >> 2);
 512:Core/Src/ADBMS.cpp ****       /* Get received pec value from ic*/
 513:Core/Src/ADBMS.cpp ****       received_pec = (uint16_t)(((data[(current_ic * BYTES_IN_REG) + (BYTES_IN_REG - 2)] & 0x03) <<
 514:Core/Src/ADBMS.cpp ****       /* Copy each ic correspond data + pec value for calculate data pec */
ARM GAS  C:\Users\huawei\AppData\Local\Temp\ccpVCJY0.s 			page 13


 515:Core/Src/ADBMS.cpp ****       memcpy(&copyArray[0], &data[src_address], BYTES_IN_REG);
 516:Core/Src/ADBMS.cpp ****       src_address = ((current_ic+1) * (regData_size));
 517:Core/Src/ADBMS.cpp ****       /* Calculate data pec */
 518:Core/Src/ADBMS.cpp ****       calculated_pec = (uint16_t)pec10_calc(true, (BYTES_IN_REG-2), &copyArray[0]);
 519:Core/Src/ADBMS.cpp ****       /* Match received pec with calculated pec */
 520:Core/Src/ADBMS.cpp ****       if (received_pec == calculated_pec){ pec_error[current_ic] = 0; }/* If no error is there valu
 521:Core/Src/ADBMS.cpp ****       else{ pec_error[current_ic] = 1; }                               /* If error is there value s
 522:Core/Src/ADBMS.cpp ****     }
 523:Core/Src/ADBMS.cpp ****   }
 524:Core/Src/ADBMS.cpp ****   free(data);
 525:Core/Src/ADBMS.cpp ****   free(copyArray);
 526:Core/Src/ADBMS.cpp **** }
 527:Core/Src/ADBMS.cpp **** 
 528:Core/Src/ADBMS.cpp **** /**
 529:Core/Src/ADBMS.cpp **** *******************************************************************************
 530:Core/Src/ADBMS.cpp **** * Function: spiWriteData
 531:Core/Src/ADBMS.cpp **** * @brief Spi Write Bms Data
 532:Core/Src/ADBMS.cpp **** *
 533:Core/Src/ADBMS.cpp **** * @details This function write the data into bms ic.
 534:Core/Src/ADBMS.cpp **** *
 535:Core/Src/ADBMS.cpp **** * Parameters:
 536:Core/Src/ADBMS.cpp **** * @param [in]	tIC      Total IC
 537:Core/Src/ADBMS.cpp **** *
 538:Core/Src/ADBMS.cpp **** * @param [in]  tx_cmd   Tx command bytes
 539:Core/Src/ADBMS.cpp **** *
 540:Core/Src/ADBMS.cpp **** * @param [in]  *data   Data pointer
 541:Core/Src/ADBMS.cpp **** *
 542:Core/Src/ADBMS.cpp **** * @return None
 543:Core/Src/ADBMS.cpp **** *
 544:Core/Src/ADBMS.cpp **** *******************************************************************************
 545:Core/Src/ADBMS.cpp **** */
 546:Core/Src/ADBMS.cpp **** void spiWriteData
 547:Core/Src/ADBMS.cpp **** (
 548:Core/Src/ADBMS.cpp **** uint8_t tIC,
 549:Core/Src/ADBMS.cpp **** uint8_t tx_cmd[2],
 550:Core/Src/ADBMS.cpp **** uint8_t *data
 551:Core/Src/ADBMS.cpp **** )
 552:Core/Src/ADBMS.cpp **** {
 553:Core/Src/ADBMS.cpp ****   uint8_t BYTES_IN_REG = TX_DATA;
 554:Core/Src/ADBMS.cpp ****   uint8_t CMD_LEN = 4 + (RX_DATA * tIC);
 555:Core/Src/ADBMS.cpp ****   uint16_t data_pec, cmd_pec;
 556:Core/Src/ADBMS.cpp ****   uint8_t *cmd, copyArray[TX_DATA], src_address = 0;
 557:Core/Src/ADBMS.cpp ****   uint8_t cmd_index;
 558:Core/Src/ADBMS.cpp ****   cmd = (uint8_t *)calloc(CMD_LEN, sizeof(uint8_t));
 559:Core/Src/ADBMS.cpp ****   if(cmd == NULL)
 560:Core/Src/ADBMS.cpp ****   {
 561:Core/Src/ADBMS.cpp ****     printf(" Failed to allocate cmd array memory \n");
 562:Core/Src/ADBMS.cpp ****     exit(0);
 563:Core/Src/ADBMS.cpp ****   }
 564:Core/Src/ADBMS.cpp ****   else
 565:Core/Src/ADBMS.cpp ****   {
 566:Core/Src/ADBMS.cpp ****     cmd[0] = tx_cmd[0];
 567:Core/Src/ADBMS.cpp ****     cmd[1] = tx_cmd[1];
 568:Core/Src/ADBMS.cpp ****     cmd_pec = Pec15_Calc(2, cmd);
 569:Core/Src/ADBMS.cpp ****     cmd[2] = (uint8_t)(cmd_pec >> 8);
 570:Core/Src/ADBMS.cpp ****     cmd[3] = (uint8_t)(cmd_pec);
 571:Core/Src/ADBMS.cpp ****     cmd_index = 4;
ARM GAS  C:\Users\huawei\AppData\Local\Temp\ccpVCJY0.s 			page 14


 572:Core/Src/ADBMS.cpp ****     /* executes for each LTC68xx, this loops starts with the last IC on the stack */
 573:Core/Src/ADBMS.cpp ****     for (uint8_t current_ic = tIC; current_ic > 0; current_ic--)
 574:Core/Src/ADBMS.cpp ****     {
 575:Core/Src/ADBMS.cpp ****       src_address = ((current_ic-1) * TX_DATA);
 576:Core/Src/ADBMS.cpp ****       /* The first configuration written is received by the last IC in the daisy chain */
 577:Core/Src/ADBMS.cpp ****       for (uint8_t current_byte = 0; current_byte < BYTES_IN_REG; current_byte++)
 578:Core/Src/ADBMS.cpp ****       {
 579:Core/Src/ADBMS.cpp ****         cmd[cmd_index] = data[((current_ic-1)*6)+current_byte];
 580:Core/Src/ADBMS.cpp ****         cmd_index = cmd_index + 1;
 581:Core/Src/ADBMS.cpp ****       }
 582:Core/Src/ADBMS.cpp ****       /* Copy each ic correspond data + pec value for calculate data pec */
 583:Core/Src/ADBMS.cpp ****       memcpy(&copyArray[0], &data[src_address], TX_DATA); /* dst, src, size */
 584:Core/Src/ADBMS.cpp ****       /* calculating the PEC for each Ics configuration register data */
 585:Core/Src/ADBMS.cpp ****       data_pec = (uint16_t)pec10_calc(true,BYTES_IN_REG, &copyArray[0]);
 586:Core/Src/ADBMS.cpp ****       cmd[cmd_index] = (uint8_t)(data_pec >> 8);
 587:Core/Src/ADBMS.cpp ****       cmd_index = cmd_index + 1;
 588:Core/Src/ADBMS.cpp ****       cmd[cmd_index] = (uint8_t)data_pec;
 589:Core/Src/ADBMS.cpp ****       cmd_index = cmd_index + 1;
 590:Core/Src/ADBMS.cpp ****     }
 591:Core/Src/ADBMS.cpp ****     adBmsCsLow();
 592:Core/Src/ADBMS.cpp ****     HAL_SPI_Transmit(hspi, &cmd[0], CMD_LEN, SPI_TIME_OUT); /* SPI1 , data, size, timeout */
 593:Core/Src/ADBMS.cpp ****     adBmsCsHigh();
 594:Core/Src/ADBMS.cpp ****   }
 595:Core/Src/ADBMS.cpp ****   free(cmd);
 596:Core/Src/ADBMS.cpp **** }
 597:Core/Src/ADBMS.cpp **** 
 598:Core/Src/ADBMS.cpp **** /* Precomputed CRC15 Table */
 599:Core/Src/ADBMS.cpp **** const uint16_t Crc15Table[256] =
 600:Core/Src/ADBMS.cpp **** {
 601:Core/Src/ADBMS.cpp ****   0x0000,0xc599, 0xceab, 0xb32, 0xd8cf, 0x1d56, 0x1664, 0xd3fd, 0xf407, 0x319e, 0x3aac,
 602:Core/Src/ADBMS.cpp ****   0xff35, 0x2cc8, 0xe951, 0xe263, 0x27fa, 0xad97, 0x680e, 0x633c, 0xa6a5, 0x7558, 0xb0c1,
 603:Core/Src/ADBMS.cpp ****   0xbbf3, 0x7e6a, 0x5990, 0x9c09, 0x973b, 0x52a2, 0x815f, 0x44c6, 0x4ff4, 0x8a6d, 0x5b2e,
 604:Core/Src/ADBMS.cpp ****   0x9eb7, 0x9585, 0x501c, 0x83e1, 0x4678, 0x4d4a, 0x88d3, 0xaf29, 0x6ab0, 0x6182, 0xa41b,
 605:Core/Src/ADBMS.cpp ****   0x77e6, 0xb27f, 0xb94d, 0x7cd4, 0xf6b9, 0x3320, 0x3812, 0xfd8b, 0x2e76, 0xebef, 0xe0dd,
 606:Core/Src/ADBMS.cpp ****   0x2544, 0x2be, 0xc727, 0xcc15, 0x98c, 0xda71, 0x1fe8, 0x14da, 0xd143, 0xf3c5, 0x365c,
 607:Core/Src/ADBMS.cpp ****   0x3d6e, 0xf8f7,0x2b0a, 0xee93, 0xe5a1, 0x2038, 0x7c2, 0xc25b, 0xc969, 0xcf0, 0xdf0d,
 608:Core/Src/ADBMS.cpp ****   0x1a94, 0x11a6, 0xd43f, 0x5e52, 0x9bcb, 0x90f9, 0x5560, 0x869d, 0x4304, 0x4836, 0x8daf,
 609:Core/Src/ADBMS.cpp ****   0xaa55, 0x6fcc, 0x64fe, 0xa167, 0x729a, 0xb703, 0xbc31, 0x79a8, 0xa8eb, 0x6d72, 0x6640,
 610:Core/Src/ADBMS.cpp ****   0xa3d9, 0x7024, 0xb5bd, 0xbe8f, 0x7b16, 0x5cec, 0x9975, 0x9247, 0x57de, 0x8423, 0x41ba,
 611:Core/Src/ADBMS.cpp ****   0x4a88, 0x8f11, 0x57c, 0xc0e5, 0xcbd7, 0xe4e, 0xddb3, 0x182a, 0x1318, 0xd681, 0xf17b,
 612:Core/Src/ADBMS.cpp ****   0x34e2, 0x3fd0, 0xfa49, 0x29b4, 0xec2d, 0xe71f, 0x2286, 0xa213, 0x678a, 0x6cb8, 0xa921,
 613:Core/Src/ADBMS.cpp ****   0x7adc, 0xbf45, 0xb477, 0x71ee, 0x5614, 0x938d, 0x98bf, 0x5d26, 0x8edb, 0x4b42, 0x4070,
 614:Core/Src/ADBMS.cpp ****   0x85e9, 0xf84, 0xca1d, 0xc12f, 0x4b6, 0xd74b, 0x12d2, 0x19e0, 0xdc79, 0xfb83, 0x3e1a, 0x3528,
 615:Core/Src/ADBMS.cpp ****   0xf0b1, 0x234c, 0xe6d5, 0xede7, 0x287e, 0xf93d, 0x3ca4, 0x3796, 0xf20f, 0x21f2, 0xe46b, 0xef59,
 616:Core/Src/ADBMS.cpp ****   0x2ac0, 0xd3a, 0xc8a3, 0xc391, 0x608, 0xd5f5, 0x106c, 0x1b5e, 0xdec7, 0x54aa, 0x9133, 0x9a01,
 617:Core/Src/ADBMS.cpp ****   0x5f98, 0x8c65, 0x49fc, 0x42ce, 0x8757, 0xa0ad, 0x6534, 0x6e06, 0xab9f, 0x7862, 0xbdfb, 0xb6c9,
 618:Core/Src/ADBMS.cpp ****   0x7350, 0x51d6, 0x944f, 0x9f7d, 0x5ae4, 0x8919, 0x4c80, 0x47b2, 0x822b, 0xa5d1, 0x6048, 0x6b7a,
 619:Core/Src/ADBMS.cpp ****   0xaee3, 0x7d1e, 0xb887, 0xb3b5, 0x762c, 0xfc41, 0x39d8, 0x32ea, 0xf773, 0x248e, 0xe117, 0xea25,
 620:Core/Src/ADBMS.cpp ****   0x2fbc, 0x846, 0xcddf, 0xc6ed, 0x374, 0xd089, 0x1510, 0x1e22, 0xdbbb, 0xaf8, 0xcf61, 0xc453,
 621:Core/Src/ADBMS.cpp ****   0x1ca, 0xd237, 0x17ae, 0x1c9c, 0xd905, 0xfeff, 0x3b66, 0x3054, 0xf5cd, 0x2630, 0xe3a9, 0xe89b,
 622:Core/Src/ADBMS.cpp ****   0x2d02, 0xa76f, 0x62f6, 0x69c4, 0xac5d, 0x7fa0, 0xba39, 0xb10b, 0x7492, 0x5368, 0x96f1, 0x9dc3,
 623:Core/Src/ADBMS.cpp ****   0x585a, 0x8ba7, 0x4e3e, 0x450c, 0x8095
 624:Core/Src/ADBMS.cpp **** };
 625:Core/Src/ADBMS.cpp **** 
 626:Core/Src/ADBMS.cpp **** /**
 627:Core/Src/ADBMS.cpp **** *******************************************************************************
 628:Core/Src/ADBMS.cpp **** * Function: Pec15_Calc
ARM GAS  C:\Users\huawei\AppData\Local\Temp\ccpVCJY0.s 			page 15


 629:Core/Src/ADBMS.cpp **** * @brief CRC15 Pec Calculation Function
 630:Core/Src/ADBMS.cpp **** *
 631:Core/Src/ADBMS.cpp **** * @details This function calculates and return the CRC15 value
 632:Core/Src/ADBMS.cpp **** *
 633:Core/Src/ADBMS.cpp **** * Parameters:
 634:Core/Src/ADBMS.cpp **** * @param [in]	Len	Data length
 635:Core/Src/ADBMS.cpp **** *
 636:Core/Src/ADBMS.cpp **** * @param [in] *data    Data pointer
 637:Core/Src/ADBMS.cpp **** *
 638:Core/Src/ADBMS.cpp **** * @return CRC15_Value
 639:Core/Src/ADBMS.cpp **** *
 640:Core/Src/ADBMS.cpp **** *******************************************************************************
 641:Core/Src/ADBMS.cpp **** */
 642:Core/Src/ADBMS.cpp **** uint16_t Pec15_Calc
 643:Core/Src/ADBMS.cpp **** (
 644:Core/Src/ADBMS.cpp **** uint8_t len, /* Number of bytes that will be used to calculate a PEC */
 645:Core/Src/ADBMS.cpp **** uint8_t *data /* Array of data that will be used to calculate  a PEC */
 646:Core/Src/ADBMS.cpp **** )
 647:Core/Src/ADBMS.cpp **** {
 175              		.loc 1 647 1 is_stmt 1 view -0
 176              		.cfi_startproc
 177              		@ args = 0, pretend = 0, frame = 0
 178              		@ frame_needed = 0, uses_anonymous_args = 0
 179              		@ link register save eliminated.
 648:Core/Src/ADBMS.cpp ****   uint16_t remainder,addr;
 180              		.loc 1 648 3 view .LVU27
 649:Core/Src/ADBMS.cpp ****   remainder = 16; /* initialize the PEC */
 181              		.loc 1 649 3 view .LVU28
 650:Core/Src/ADBMS.cpp ****   for (uint8_t i = 0; i<len; i++) /* loops for each byte in data array */
 182              		.loc 1 650 3 view .LVU29
 183              	.LBB3:
 184              		.loc 1 650 16 is_stmt 0 view .LVU30
 185 0000 0023     		movs	r3, #0
 186              	.LBE3:
 649:Core/Src/ADBMS.cpp ****   remainder = 16; /* initialize the PEC */
 187              		.loc 1 649 13 view .LVU31
 188 0002 4FF0100C 		mov	ip, #16
 189              	.LVL12:
 190              	.LBB4:
 191              		.loc 1 650 24 is_stmt 1 view .LVU32
 192 0006 8342     		cmp	r3, r0
 193 0008 15D2     		bcs	.L20
 194              	.LBE4:
 647:Core/Src/ADBMS.cpp ****   uint16_t remainder,addr;
 195              		.loc 1 647 1 is_stmt 0 view .LVU33
 196 000a 10B4     		push	{r4}
 197              	.LCFI3:
 198              		.cfi_def_cfa_offset 4
 199              		.cfi_offset 4, -4
 200              	.L15:
 201              	.LBB5:
 651:Core/Src/ADBMS.cpp ****   {
 652:Core/Src/ADBMS.cpp ****     addr = (((remainder>>7)^data[i])&0xff);/* calculate PEC table address */
 202              		.loc 1 652 5 is_stmt 1 discriminator 3 view .LVU34
 203              		.loc 1 652 35 is_stmt 0 discriminator 3 view .LVU35
 204 000c CA5C     		ldrb	r2, [r1, r3]	@ zero_extendqisi2
 205              		.loc 1 652 28 discriminator 3 view .LVU36
ARM GAS  C:\Users\huawei\AppData\Local\Temp\ccpVCJY0.s 			page 16


 206 000e 82EADC12 		eor	r2, r2, ip, lsr #7
 207              		.loc 1 652 10 discriminator 3 view .LVU37
 208 0012 D2B2     		uxtb	r2, r2
 209              	.LVL13:
 653:Core/Src/ADBMS.cpp ****     remainder = ((remainder<<8)^Crc15Table[addr]);
 210              		.loc 1 653 5 is_stmt 1 discriminator 3 view .LVU38
 211              		.loc 1 653 48 is_stmt 0 discriminator 3 view .LVU39
 212 0014 0A4C     		ldr	r4, .L21
 213 0016 34F81220 		ldrh	r2, [r4, r2, lsl #1]
 214              	.LVL14:
 215              		.loc 1 653 15 discriminator 3 view .LVU40
 216 001a 82EA0C2C 		eor	ip, r2, ip, lsl #8
 217              	.LVL15:
 218              		.loc 1 653 15 discriminator 3 view .LVU41
 219 001e 1FFA8CFC 		uxth	ip, ip
 220              	.LVL16:
 650:Core/Src/ADBMS.cpp ****   {
 221              		.loc 1 650 3 is_stmt 1 discriminator 3 view .LVU42
 222 0022 0133     		adds	r3, r3, #1
 223              	.LVL17:
 650:Core/Src/ADBMS.cpp ****   {
 224              		.loc 1 650 3 is_stmt 0 discriminator 3 view .LVU43
 225 0024 DBB2     		uxtb	r3, r3
 226              	.LVL18:
 650:Core/Src/ADBMS.cpp ****   {
 227              		.loc 1 650 24 is_stmt 1 discriminator 3 view .LVU44
 228 0026 8342     		cmp	r3, r0
 229 0028 F0D3     		bcc	.L15
 230              	.LBE5:
 654:Core/Src/ADBMS.cpp ****   }
 655:Core/Src/ADBMS.cpp ****   return(remainder*2);/* The CRC15 has a 0 in the LSB so the remainder must be multiplied by 2 */
 231              		.loc 1 655 3 view .LVU45
 232              		.loc 1 655 21 is_stmt 0 view .LVU46
 233 002a 4FEA4C00 		lsl	r0, ip, #1
 234              	.LVL19:
 235              		.loc 1 655 21 view .LVU47
 236 002e 80B2     		uxth	r0, r0
 656:Core/Src/ADBMS.cpp **** }
 237              		.loc 1 656 1 view .LVU48
 238 0030 5DF8044B 		ldr	r4, [sp], #4
 239              	.LCFI4:
 240              		.cfi_restore 4
 241              		.cfi_def_cfa_offset 0
 242 0034 7047     		bx	lr
 243              	.LVL20:
 244              	.L20:
 655:Core/Src/ADBMS.cpp **** }
 245              		.loc 1 655 3 is_stmt 1 view .LVU49
 655:Core/Src/ADBMS.cpp **** }
 246              		.loc 1 655 21 is_stmt 0 view .LVU50
 247 0036 4FEA4C00 		lsl	r0, ip, #1
 248              	.LVL21:
 655:Core/Src/ADBMS.cpp **** }
 249              		.loc 1 655 21 view .LVU51
 250 003a 80B2     		uxth	r0, r0
 251              		.loc 1 656 1 view .LVU52
 252 003c 7047     		bx	lr
ARM GAS  C:\Users\huawei\AppData\Local\Temp\ccpVCJY0.s 			page 17


 253              	.L22:
 254 003e 00BF     		.align	2
 255              	.L21:
 256 0040 00000000 		.word	_ZL10Crc15Table
 257              		.cfi_endproc
 258              	.LFE252:
 259              		.cantunwind
 260              		.fnend
 262              		.section	.text._Z10pec10_calcbiPh,"ax",%progbits
 263              		.align	1
 264              		.global	_Z10pec10_calcbiPh
 265              		.syntax unified
 266              		.thumb
 267              		.thumb_func
 269              	_Z10pec10_calcbiPh:
 270              		.fnstart
 271              	.LVL22:
 272              	.LFB253:
 657:Core/Src/ADBMS.cpp **** 
 658:Core/Src/ADBMS.cpp **** uint16_t pec10_calc(bool rx_cmd, int len, uint8_t *data)
 659:Core/Src/ADBMS.cpp **** {
 273              		.loc 1 659 1 is_stmt 1 view -0
 274              		.cfi_startproc
 275              		@ args = 0, pretend = 0, frame = 0
 276              		@ frame_needed = 0, uses_anonymous_args = 0
 277              		.loc 1 659 1 is_stmt 0 view .LVU54
 278 0000 10B5     		push	{r4, lr}
 279              	.LCFI5:
 280              		.cfi_def_cfa_offset 8
 281              		.cfi_offset 4, -8
 282              		.cfi_offset 14, -4
 283 0002 0446     		mov	r4, r0
 660:Core/Src/ADBMS.cpp ****   uint16_t remainder = 16; /* PEC_SEED;   0000010000 */
 284              		.loc 1 660 3 is_stmt 1 view .LVU55
 285              	.LVL23:
 661:Core/Src/ADBMS.cpp ****   uint16_t polynom = 0x8F; /* x10 + x7 + x3 + x2 + x + 1 <- the CRC15 polynomial         100 1000 1
 286              		.loc 1 661 3 view .LVU56
 662:Core/Src/ADBMS.cpp **** 
 663:Core/Src/ADBMS.cpp ****   /* Perform modulo-2 division, a byte at a time. */
 664:Core/Src/ADBMS.cpp ****   for (uint8_t pbyte = 0; pbyte < len; ++pbyte)
 287              		.loc 1 664 3 view .LVU57
 288              	.LBB6:
 289              		.loc 1 664 16 is_stmt 0 view .LVU58
 290 0004 4FF0000C 		mov	ip, #0
 291              	.LBE6:
 660:Core/Src/ADBMS.cpp ****   uint16_t polynom = 0x8F; /* x10 + x7 + x3 + x2 + x + 1 <- the CRC15 polynomial         100 1000 1
 292              		.loc 1 660 12 view .LVU59
 293 0008 1023     		movs	r3, #16
 294              	.LBB11:
 295              		.loc 1 664 3 view .LVU60
 296 000a 10E0     		b	.L24
 297              	.LVL24:
 298              	.L26:
 299              	.LBB7:
 300              	.LBB8:
 665:Core/Src/ADBMS.cpp ****   {
 666:Core/Src/ADBMS.cpp ****     /* Bring the next byte into the remainder. */
ARM GAS  C:\Users\huawei\AppData\Local\Temp\ccpVCJY0.s 			page 18


 667:Core/Src/ADBMS.cpp ****     remainder ^= (uint16_t)(data[pbyte] << 2);
 668:Core/Src/ADBMS.cpp ****     /* Perform modulo-2 division, a bit at a time.*/
 669:Core/Src/ADBMS.cpp ****     for (uint8_t bit_ = 8; bit_ > 0; --bit_)
 670:Core/Src/ADBMS.cpp ****     {
 671:Core/Src/ADBMS.cpp ****       /* Try to divide the current data bit. */
 672:Core/Src/ADBMS.cpp ****       if ((remainder & 0x200) > 0)//equivalent to remainder & 2^14 simply check for MSB
 673:Core/Src/ADBMS.cpp ****       {
 674:Core/Src/ADBMS.cpp ****         remainder = (uint16_t)((remainder << 1));
 675:Core/Src/ADBMS.cpp ****         remainder = (uint16_t)(remainder ^ polynom);
 676:Core/Src/ADBMS.cpp ****       }
 677:Core/Src/ADBMS.cpp ****       else
 678:Core/Src/ADBMS.cpp ****       {
 679:Core/Src/ADBMS.cpp ****         remainder = (uint16_t)(remainder << 1);
 301              		.loc 1 679 9 is_stmt 1 view .LVU61
 302              		.loc 1 679 19 is_stmt 0 view .LVU62
 303 000c 5B00     		lsls	r3, r3, #1
 304              	.LVL25:
 305              		.loc 1 679 19 view .LVU63
 306 000e 9BB2     		uxth	r3, r3
 307              	.LVL26:
 308              	.L27:
 669:Core/Src/ADBMS.cpp ****     {
 309              		.loc 1 669 5 is_stmt 1 discriminator 2 view .LVU64
 310 0010 0138     		subs	r0, r0, #1
 311              	.LVL27:
 669:Core/Src/ADBMS.cpp ****     {
 312              		.loc 1 669 5 is_stmt 0 discriminator 2 view .LVU65
 313 0012 C0B2     		uxtb	r0, r0
 314              	.LVL28:
 315              	.L25:
 669:Core/Src/ADBMS.cpp ****     {
 316              		.loc 1 669 33 is_stmt 1 discriminator 1 view .LVU66
 317 0014 38B1     		cbz	r0, .L36
 672:Core/Src/ADBMS.cpp ****       {
 318              		.loc 1 672 7 view .LVU67
 319 0016 13F4007F 		tst	r3, #512
 320 001a F7D0     		beq	.L26
 674:Core/Src/ADBMS.cpp ****         remainder = (uint16_t)(remainder ^ polynom);
 321              		.loc 1 674 9 view .LVU68
 674:Core/Src/ADBMS.cpp ****         remainder = (uint16_t)(remainder ^ polynom);
 322              		.loc 1 674 19 is_stmt 0 view .LVU69
 323 001c 5B00     		lsls	r3, r3, #1
 324              	.LVL29:
 674:Core/Src/ADBMS.cpp ****         remainder = (uint16_t)(remainder ^ polynom);
 325              		.loc 1 674 19 view .LVU70
 326 001e 9BB2     		uxth	r3, r3
 327              	.LVL30:
 675:Core/Src/ADBMS.cpp ****       }
 328              		.loc 1 675 9 is_stmt 1 view .LVU71
 675:Core/Src/ADBMS.cpp ****       }
 329              		.loc 1 675 19 is_stmt 0 view .LVU72
 330 0020 83F08F03 		eor	r3, r3, #143
 331              	.LVL31:
 675:Core/Src/ADBMS.cpp ****       }
 332              		.loc 1 675 19 view .LVU73
 333 0024 F4E7     		b	.L27
 334              	.L36:
ARM GAS  C:\Users\huawei\AppData\Local\Temp\ccpVCJY0.s 			page 19


 675:Core/Src/ADBMS.cpp ****       }
 335              		.loc 1 675 19 view .LVU74
 336              	.LBE8:
 337              	.LBE7:
 664:Core/Src/ADBMS.cpp ****   {
 338              		.loc 1 664 3 is_stmt 1 discriminator 2 view .LVU75
 339 0026 0CF1010C 		add	ip, ip, #1
 340              	.LVL32:
 664:Core/Src/ADBMS.cpp ****   {
 341              		.loc 1 664 3 is_stmt 0 discriminator 2 view .LVU76
 342 002a 5FFA8CFC 		uxtb	ip, ip
 343              	.LVL33:
 344              	.L24:
 664:Core/Src/ADBMS.cpp ****   {
 345              		.loc 1 664 33 is_stmt 1 discriminator 1 view .LVU77
 346 002e 8C45     		cmp	ip, r1
 347 0030 05DA     		bge	.L37
 348              	.LBB10:
 667:Core/Src/ADBMS.cpp ****     /* Perform modulo-2 division, a bit at a time.*/
 349              		.loc 1 667 5 view .LVU78
 667:Core/Src/ADBMS.cpp ****     /* Perform modulo-2 division, a bit at a time.*/
 350              		.loc 1 667 39 is_stmt 0 view .LVU79
 351 0032 12F80CE0 		ldrb	lr, [r2, ip]	@ zero_extendqisi2
 667:Core/Src/ADBMS.cpp ****     /* Perform modulo-2 division, a bit at a time.*/
 352              		.loc 1 667 15 view .LVU80
 353 0036 83EA8E03 		eor	r3, r3, lr, lsl #2
 354              	.LVL34:
 669:Core/Src/ADBMS.cpp ****     {
 355              		.loc 1 669 5 is_stmt 1 view .LVU81
 356              	.LBB9:
 669:Core/Src/ADBMS.cpp ****     {
 357              		.loc 1 669 18 is_stmt 0 view .LVU82
 358 003a 0820     		movs	r0, #8
 669:Core/Src/ADBMS.cpp ****     {
 359              		.loc 1 669 5 view .LVU83
 360 003c EAE7     		b	.L25
 361              	.LVL35:
 362              	.L37:
 669:Core/Src/ADBMS.cpp ****     {
 363              		.loc 1 669 5 view .LVU84
 364              	.LBE9:
 365              	.LBE10:
 366              	.LBE11:
 680:Core/Src/ADBMS.cpp ****       }
 681:Core/Src/ADBMS.cpp ****     }
 682:Core/Src/ADBMS.cpp ****   }
 683:Core/Src/ADBMS.cpp ****   if (rx_cmd == true)
 367              		.loc 1 683 3 is_stmt 1 view .LVU85
 368              	.LBB12:
 369 003e 9CB1     		cbz	r4, .L30
 370              	.LBB13:
 684:Core/Src/ADBMS.cpp ****   {
 685:Core/Src/ADBMS.cpp ****     remainder ^= (uint16_t)((data[len] & 0xFC) << 2);
 371              		.loc 1 685 5 view .LVU86
 372              		.loc 1 685 38 is_stmt 0 view .LVU87
 373 0040 525C     		ldrb	r2, [r2, r1]	@ zero_extendqisi2
 374              	.LVL36:
ARM GAS  C:\Users\huawei\AppData\Local\Temp\ccpVCJY0.s 			page 20


 375              		.loc 1 685 48 view .LVU88
 376 0042 9200     		lsls	r2, r2, #2
 377              		.loc 1 685 18 view .LVU89
 378 0044 02F47C72 		and	r2, r2, #1008
 379              		.loc 1 685 15 view .LVU90
 380 0048 5340     		eors	r3, r3, r2
 381              	.LVL37:
 686:Core/Src/ADBMS.cpp ****     /* Perform modulo-2 division, a bit at a time */
 687:Core/Src/ADBMS.cpp ****     for (uint8_t bit_ = 6; bit_ > 0; --bit_)
 382              		.loc 1 687 5 is_stmt 1 view .LVU91
 383              	.LBB14:
 384              		.loc 1 687 18 is_stmt 0 view .LVU92
 385 004a 0622     		movs	r2, #6
 386              		.loc 1 687 5 view .LVU93
 387 004c 03E0     		b	.L31
 388              	.LVL38:
 389              	.L32:
 688:Core/Src/ADBMS.cpp ****     {
 689:Core/Src/ADBMS.cpp ****       /* Try to divide the current data bit */
 690:Core/Src/ADBMS.cpp ****       if ((remainder & 0x200) > 0)//equivalent to remainder & 2^14 simply check for MSB
 691:Core/Src/ADBMS.cpp ****       {
 692:Core/Src/ADBMS.cpp ****         remainder = (uint16_t)((remainder << 1));
 693:Core/Src/ADBMS.cpp ****         remainder = (uint16_t)(remainder ^ polynom);
 694:Core/Src/ADBMS.cpp ****       }
 695:Core/Src/ADBMS.cpp ****       else
 696:Core/Src/ADBMS.cpp ****       {
 697:Core/Src/ADBMS.cpp ****         remainder = (uint16_t)((remainder << 1));
 390              		.loc 1 697 9 is_stmt 1 view .LVU94
 391              		.loc 1 697 19 is_stmt 0 view .LVU95
 392 004e 5B00     		lsls	r3, r3, #1
 393              	.LVL39:
 394              		.loc 1 697 19 view .LVU96
 395 0050 9BB2     		uxth	r3, r3
 396              	.LVL40:
 397              	.L33:
 687:Core/Src/ADBMS.cpp ****     {
 398              		.loc 1 687 5 is_stmt 1 discriminator 2 view .LVU97
 399 0052 013A     		subs	r2, r2, #1
 400              	.LVL41:
 687:Core/Src/ADBMS.cpp ****     {
 401              		.loc 1 687 5 is_stmt 0 discriminator 2 view .LVU98
 402 0054 D2B2     		uxtb	r2, r2
 403              	.LVL42:
 404              	.L31:
 687:Core/Src/ADBMS.cpp ****     {
 405              		.loc 1 687 33 is_stmt 1 discriminator 1 view .LVU99
 406 0056 3AB1     		cbz	r2, .L30
 690:Core/Src/ADBMS.cpp ****       {
 407              		.loc 1 690 7 view .LVU100
 408 0058 13F4007F 		tst	r3, #512
 409 005c F7D0     		beq	.L32
 692:Core/Src/ADBMS.cpp ****         remainder = (uint16_t)(remainder ^ polynom);
 410              		.loc 1 692 9 view .LVU101
 692:Core/Src/ADBMS.cpp ****         remainder = (uint16_t)(remainder ^ polynom);
 411              		.loc 1 692 19 is_stmt 0 view .LVU102
 412 005e 5B00     		lsls	r3, r3, #1
 413              	.LVL43:
ARM GAS  C:\Users\huawei\AppData\Local\Temp\ccpVCJY0.s 			page 21


 692:Core/Src/ADBMS.cpp ****         remainder = (uint16_t)(remainder ^ polynom);
 414              		.loc 1 692 19 view .LVU103
 415 0060 9BB2     		uxth	r3, r3
 416              	.LVL44:
 693:Core/Src/ADBMS.cpp ****       }
 417              		.loc 1 693 9 is_stmt 1 view .LVU104
 693:Core/Src/ADBMS.cpp ****       }
 418              		.loc 1 693 19 is_stmt 0 view .LVU105
 419 0062 83F08F03 		eor	r3, r3, #143
 420              	.LVL45:
 693:Core/Src/ADBMS.cpp ****       }
 421              		.loc 1 693 19 view .LVU106
 422 0066 F4E7     		b	.L33
 423              	.LVL46:
 424              	.L30:
 693:Core/Src/ADBMS.cpp ****       }
 425              		.loc 1 693 19 view .LVU107
 426              	.LBE14:
 427              	.LBE13:
 428              	.LBE12:
 698:Core/Src/ADBMS.cpp ****       }
 699:Core/Src/ADBMS.cpp ****     }
 700:Core/Src/ADBMS.cpp ****   }
 701:Core/Src/ADBMS.cpp ****   return ((uint16_t)(remainder & 0x3FF));
 429              		.loc 1 701 3 is_stmt 1 view .LVU108
 702:Core/Src/ADBMS.cpp **** }
 430              		.loc 1 702 1 is_stmt 0 view .LVU109
 431 0068 C3F30900 		ubfx	r0, r3, #0, #10
 432 006c 10BD     		pop	{r4, pc}
 433              		.cfi_endproc
 434              	.LFE253:
 435              		.cantunwind
 436              		.fnend
 438              		.section	.rodata._Z11spiReadDatahPhS_S_S_h.str1.4,"aMS",%progbits,1
 439              		.align	2
 440              	.LC0:
 441 0000 20466169 		.ascii	" Failed to allocate spi read data memory \000"
 441      6C656420 
 441      746F2061 
 441      6C6C6F63 
 441      61746520 
 442              		.section	.text._Z11spiReadDatahPhS_S_S_h,"ax",%progbits
 443              		.align	1
 444              		.global	_Z11spiReadDatahPhS_S_S_h
 445              		.syntax unified
 446              		.thumb
 447              		.thumb_func
 449              	_Z11spiReadDatahPhS_S_S_h:
 450              		.fnstart
 451              	.LVL47:
 452              	.LFB250:
 478:Core/Src/ADBMS.cpp ****   uint8_t *data, *copyArray, src_address = 0;
 453              		.loc 1 478 1 is_stmt 1 view -0
 454              		.cfi_startproc
 455              		@ args = 8, pretend = 0, frame = 24
 456              		@ frame_needed = 0, uses_anonymous_args = 0
 478:Core/Src/ADBMS.cpp ****   uint8_t *data, *copyArray, src_address = 0;
ARM GAS  C:\Users\huawei\AppData\Local\Temp\ccpVCJY0.s 			page 22


 457              		.loc 1 478 1 is_stmt 0 view .LVU111
 458 0000 2DE9F04F 		push	{r4, r5, r6, r7, r8, r9, r10, fp, lr}
 459              		.save {r4, r5, r6, r7, r8, r9, r10, fp, lr}
 460              	.LCFI6:
 461              		.cfi_def_cfa_offset 36
 462              		.cfi_offset 4, -36
 463              		.cfi_offset 5, -32
 464              		.cfi_offset 6, -28
 465              		.cfi_offset 7, -24
 466              		.cfi_offset 8, -20
 467              		.cfi_offset 9, -16
 468              		.cfi_offset 10, -12
 469              		.cfi_offset 11, -8
 470              		.cfi_offset 14, -4
 471              		.pad #28
 472 0004 87B0     		sub	sp, sp, #28
 473              	.LCFI7:
 474              		.cfi_def_cfa_offset 64
 475 0006 0290     		str	r0, [sp, #8]
 476 0008 0D46     		mov	r5, r1
 477 000a 9146     		mov	r9, r2
 478 000c 0393     		str	r3, [sp, #12]
 479 000e 9DF84440 		ldrb	r4, [sp, #68]	@ zero_extendqisi2
 479:Core/Src/ADBMS.cpp ****   uint16_t cmd_pec, received_pec, calculated_pec;
 480              		.loc 1 479 3 is_stmt 1 view .LVU112
 481              	.LVL48:
 480:Core/Src/ADBMS.cpp ****   uint8_t BYTES_IN_REG = regData_size;
 482              		.loc 1 480 3 view .LVU113
 481:Core/Src/ADBMS.cpp ****   uint8_t RX_BUFFER = (regData_size * tIC);
 483              		.loc 1 481 3 view .LVU114
 482:Core/Src/ADBMS.cpp **** 
 484              		.loc 1 482 3 view .LVU115
 482:Core/Src/ADBMS.cpp **** 
 485              		.loc 1 482 11 is_stmt 0 view .LVU116
 486 0012 14FB00F3 		smulbb	r3, r4, r0
 487              	.LVL49:
 482:Core/Src/ADBMS.cpp **** 
 488              		.loc 1 482 11 view .LVU117
 489 0016 DEB2     		uxtb	r6, r3
 490              	.LVL50:
 484:Core/Src/ADBMS.cpp ****   copyArray = (uint8_t *)calloc(BYTES_IN_REG, sizeof(uint8_t));
 491              		.loc 1 484 3 is_stmt 1 view .LVU118
 484:Core/Src/ADBMS.cpp ****   copyArray = (uint8_t *)calloc(BYTES_IN_REG, sizeof(uint8_t));
 492              		.loc 1 484 27 is_stmt 0 view .LVU119
 493 0018 0121     		movs	r1, #1
 494              	.LVL51:
 484:Core/Src/ADBMS.cpp ****   copyArray = (uint8_t *)calloc(BYTES_IN_REG, sizeof(uint8_t));
 495              		.loc 1 484 27 view .LVU120
 496 001a 3046     		mov	r0, r6
 497              	.LVL52:
 484:Core/Src/ADBMS.cpp ****   copyArray = (uint8_t *)calloc(BYTES_IN_REG, sizeof(uint8_t));
 498              		.loc 1 484 27 view .LVU121
 499 001c FFF7FEFF 		bl	calloc
 500              	.LVL53:
 484:Core/Src/ADBMS.cpp ****   copyArray = (uint8_t *)calloc(BYTES_IN_REG, sizeof(uint8_t));
 501              		.loc 1 484 27 view .LVU122
 502 0020 0746     		mov	r7, r0
ARM GAS  C:\Users\huawei\AppData\Local\Temp\ccpVCJY0.s 			page 23


 503              	.LVL54:
 485:Core/Src/ADBMS.cpp ****   if((data == NULL) || (copyArray == NULL))
 504              		.loc 1 485 3 is_stmt 1 view .LVU123
 485:Core/Src/ADBMS.cpp ****   if((data == NULL) || (copyArray == NULL))
 505              		.loc 1 485 32 is_stmt 0 view .LVU124
 506 0022 0121     		movs	r1, #1
 507 0024 2046     		mov	r0, r4
 508              	.LVL55:
 485:Core/Src/ADBMS.cpp ****   if((data == NULL) || (copyArray == NULL))
 509              		.loc 1 485 32 view .LVU125
 510 0026 FFF7FEFF 		bl	calloc
 511              	.LVL56:
 486:Core/Src/ADBMS.cpp ****   {
 512              		.loc 1 486 3 is_stmt 1 view .LVU126
 513              	.LBB15:
 514 002a 3FB3     		cbz	r7, .L39
 515 002c 8346     		mov	fp, r0
 486:Core/Src/ADBMS.cpp ****   {
 516              		.loc 1 486 21 is_stmt 0 discriminator 1 view .LVU127
 517 002e 28B3     		cbz	r0, .L39
 518              	.LBB16:
 494:Core/Src/ADBMS.cpp ****     cmd[0] = tx_cmd[0];
 519              		.loc 1 494 5 is_stmt 1 view .LVU128
 495:Core/Src/ADBMS.cpp ****     cmd[1] = tx_cmd[1];
 520              		.loc 1 495 5 view .LVU129
 495:Core/Src/ADBMS.cpp ****     cmd[1] = tx_cmd[1];
 521              		.loc 1 495 22 is_stmt 0 view .LVU130
 522 0030 2B78     		ldrb	r3, [r5]	@ zero_extendqisi2
 495:Core/Src/ADBMS.cpp ****     cmd[1] = tx_cmd[1];
 523              		.loc 1 495 12 view .LVU131
 524 0032 8DF81430 		strb	r3, [sp, #20]
 496:Core/Src/ADBMS.cpp ****     cmd_pec = Pec15_Calc(2, cmd);
 525              		.loc 1 496 5 is_stmt 1 view .LVU132
 496:Core/Src/ADBMS.cpp ****     cmd_pec = Pec15_Calc(2, cmd);
 526              		.loc 1 496 12 is_stmt 0 view .LVU133
 527 0036 6B78     		ldrb	r3, [r5, #1]	@ zero_extendqisi2
 528 0038 8DF81530 		strb	r3, [sp, #21]
 497:Core/Src/ADBMS.cpp ****     cmd[2] = (uint8_t)(cmd_pec >> 8);
 529              		.loc 1 497 5 is_stmt 1 view .LVU134
 497:Core/Src/ADBMS.cpp ****     cmd[2] = (uint8_t)(cmd_pec >> 8);
 530              		.loc 1 497 25 is_stmt 0 view .LVU135
 531 003c 05A9     		add	r1, sp, #20
 532 003e 0220     		movs	r0, #2
 533              	.LVL57:
 497:Core/Src/ADBMS.cpp ****     cmd[2] = (uint8_t)(cmd_pec >> 8);
 534              		.loc 1 497 25 view .LVU136
 535 0040 FFF7FEFF 		bl	_Z10Pec15_CalchPh
 536              	.LVL58:
 498:Core/Src/ADBMS.cpp ****     cmd[3] = (uint8_t)(cmd_pec);
 537              		.loc 1 498 5 is_stmt 1 view .LVU137
 498:Core/Src/ADBMS.cpp ****     cmd[3] = (uint8_t)(cmd_pec);
 538              		.loc 1 498 32 is_stmt 0 view .LVU138
 539 0044 C0F30F23 		ubfx	r3, r0, #8, #16
 498:Core/Src/ADBMS.cpp ****     cmd[3] = (uint8_t)(cmd_pec);
 540              		.loc 1 498 12 view .LVU139
 541 0048 8DF81630 		strb	r3, [sp, #22]
 499:Core/Src/ADBMS.cpp ****     adBmsCsLow();
ARM GAS  C:\Users\huawei\AppData\Local\Temp\ccpVCJY0.s 			page 24


 542              		.loc 1 499 5 is_stmt 1 view .LVU140
 499:Core/Src/ADBMS.cpp ****     adBmsCsLow();
 543              		.loc 1 499 12 is_stmt 0 view .LVU141
 544 004c 8DF81700 		strb	r0, [sp, #23]
 500:Core/Src/ADBMS.cpp ****     HAL_SPI_Transmit(hspi, &cmd[0], 4, SPI_TIME_OUT);
 545              		.loc 1 500 5 is_stmt 1 view .LVU142
 500:Core/Src/ADBMS.cpp ****     HAL_SPI_Transmit(hspi, &cmd[0], 4, SPI_TIME_OUT);
 546              		.loc 1 500 15 is_stmt 0 view .LVU143
 547 0050 FFF7FEFF 		bl	_Z10adBmsCsLowv
 548              	.LVL59:
 501:Core/Src/ADBMS.cpp ****     HAL_SPI_Receive(hspi, &data[0], RX_BUFFER, SPI_TIME_OUT);
 549              		.loc 1 501 5 is_stmt 1 view .LVU144
 501:Core/Src/ADBMS.cpp ****     HAL_SPI_Receive(hspi, &data[0], RX_BUFFER, SPI_TIME_OUT);
 550              		.loc 1 501 21 is_stmt 0 view .LVU145
 551 0054 304D     		ldr	r5, .L50
 552              	.LVL60:
 501:Core/Src/ADBMS.cpp ****     HAL_SPI_Receive(hspi, &data[0], RX_BUFFER, SPI_TIME_OUT);
 553              		.loc 1 501 21 view .LVU146
 554 0056 4FF0FF33 		mov	r3, #-1
 555 005a 0422     		movs	r2, #4
 556 005c 05A9     		add	r1, sp, #20
 557 005e 2868     		ldr	r0, [r5]
 558 0060 FFF7FEFF 		bl	HAL_SPI_Transmit
 559              	.LVL61:
 502:Core/Src/ADBMS.cpp ****     adBmsCsHigh();
 560              		.loc 1 502 5 is_stmt 1 view .LVU147
 502:Core/Src/ADBMS.cpp ****     adBmsCsHigh();
 561              		.loc 1 502 20 is_stmt 0 view .LVU148
 562 0064 4FF0FF33 		mov	r3, #-1
 563 0068 3246     		mov	r2, r6
 564 006a 3946     		mov	r1, r7
 565 006c 2868     		ldr	r0, [r5]
 566 006e FFF7FEFF 		bl	HAL_SPI_Receive
 567              	.LVL62:
 503:Core/Src/ADBMS.cpp ****     for (uint8_t current_ic = 0; current_ic < tIC; current_ic++)     /* executes for each ic in the
 568              		.loc 1 503 5 is_stmt 1 view .LVU149
 503:Core/Src/ADBMS.cpp ****     for (uint8_t current_ic = 0; current_ic < tIC; current_ic++)     /* executes for each ic in the
 569              		.loc 1 503 16 is_stmt 0 view .LVU150
 570 0072 FFF7FEFF 		bl	_Z11adBmsCsHighv
 571              	.LVL63:
 572              	.LBB17:
 504:Core/Src/ADBMS.cpp ****     {																																      /* Into the r_comm array as well as check the received d
 573              		.loc 1 504 18 view .LVU151
 574 0076 0026     		movs	r6, #0
 575              	.LVL64:
 504:Core/Src/ADBMS.cpp ****     {																																      /* Into the r_comm array as well as check the received d
 576              		.loc 1 504 18 view .LVU152
 577              	.LBE17:
 578              	.LBE16:
 579              	.LBE15:
 479:Core/Src/ADBMS.cpp ****   uint16_t cmd_pec, received_pec, calculated_pec;
 580              		.loc 1 479 30 view .LVU153
 581 0078 B246     		mov	r10, r6
 582 007a 39E0     		b	.L41
 583              	.LVL65:
 584              	.L39:
 585              	.LBB24:
ARM GAS  C:\Users\huawei\AppData\Local\Temp\ccpVCJY0.s 			page 25


 488:Core/Src/ADBMS.cpp **** 
 586              		.loc 1 488 5 is_stmt 1 view .LVU154
 488:Core/Src/ADBMS.cpp **** 
 587              		.loc 1 488 11 is_stmt 0 view .LVU155
 588 007c 2748     		ldr	r0, .L50+4
 589              	.LVL66:
 488:Core/Src/ADBMS.cpp **** 
 590              		.loc 1 488 11 view .LVU156
 591 007e FFF7FEFF 		bl	puts
 592              	.LVL67:
 490:Core/Src/ADBMS.cpp ****   }
 593              		.loc 1 490 5 is_stmt 1 view .LVU157
 490:Core/Src/ADBMS.cpp ****   }
 594              		.loc 1 490 9 is_stmt 0 view .LVU158
 595 0082 0020     		movs	r0, #0
 596 0084 FFF7FEFF 		bl	exit
 597              	.LVL68:
 598              	.L42:
 599              	.LBB23:
 600              	.LBB22:
 601              	.LBB18:
 602              	.LBB19:
 508:Core/Src/ADBMS.cpp ****       }
 603              		.loc 1 508 9 is_stmt 1 discriminator 3 view .LVU159
 508:Core/Src/ADBMS.cpp ****       }
 604              		.loc 1 508 77 is_stmt 0 discriminator 3 view .LVU160
 605 0088 04FB0632 		mla	r2, r4, r6, r3
 508:Core/Src/ADBMS.cpp ****       }
 606              		.loc 1 508 104 discriminator 3 view .LVU161
 607 008c B95C     		ldrb	r1, [r7, r2]	@ zero_extendqisi2
 508:Core/Src/ADBMS.cpp ****       }
 608              		.loc 1 508 57 discriminator 3 view .LVU162
 609 008e 09F80210 		strb	r1, [r9, r2]
 506:Core/Src/ADBMS.cpp ****       {
 610              		.loc 1 506 7 is_stmt 1 discriminator 3 view .LVU163
 611 0092 0133     		adds	r3, r3, #1
 612              	.LVL69:
 506:Core/Src/ADBMS.cpp ****       {
 613              		.loc 1 506 7 is_stmt 0 discriminator 3 view .LVU164
 614 0094 DBB2     		uxtb	r3, r3
 615              	.LVL70:
 616              	.L45:
 506:Core/Src/ADBMS.cpp ****       {
 617              		.loc 1 506 51 is_stmt 1 discriminator 1 view .LVU165
 506:Core/Src/ADBMS.cpp ****       {
 618              		.loc 1 506 66 is_stmt 0 discriminator 1 view .LVU166
 619 0096 A51E     		subs	r5, r4, #2
 506:Core/Src/ADBMS.cpp ****       {
 620              		.loc 1 506 51 discriminator 1 view .LVU167
 621 0098 AB42     		cmp	r3, r5
 622 009a F5DB     		blt	.L42
 623              	.LBE19:
 511:Core/Src/ADBMS.cpp ****       /* Get received pec value from ic*/
 624              		.loc 1 511 7 is_stmt 1 view .LVU168
 511:Core/Src/ADBMS.cpp ****       /* Get received pec value from ic*/
 625              		.loc 1 511 48 is_stmt 0 view .LVU169
 626 009c 06FB04F3 		mul	r3, r6, r4
ARM GAS  C:\Users\huawei\AppData\Local\Temp\ccpVCJY0.s 			page 26


 627              	.LVL71:
 511:Core/Src/ADBMS.cpp ****       /* Get received pec value from ic*/
 628              		.loc 1 511 64 view .LVU170
 629 00a0 EA18     		adds	r2, r5, r3
 511:Core/Src/ADBMS.cpp ****       /* Get received pec value from ic*/
 630              		.loc 1 511 84 view .LVU171
 631 00a2 17F80280 		ldrb	r8, [r7, r2]	@ zero_extendqisi2
 511:Core/Src/ADBMS.cpp ****       /* Get received pec value from ic*/
 632              		.loc 1 511 16 view .LVU172
 633 00a6 0196     		str	r6, [sp, #4]
 511:Core/Src/ADBMS.cpp ****       /* Get received pec value from ic*/
 634              		.loc 1 511 86 view .LVU173
 635 00a8 4FEA9802 		lsr	r2, r8, #2
 511:Core/Src/ADBMS.cpp ****       /* Get received pec value from ic*/
 636              		.loc 1 511 28 view .LVU174
 637 00ac 1099     		ldr	r1, [sp, #64]
 638 00ae 8A55     		strb	r2, [r1, r6]
 513:Core/Src/ADBMS.cpp ****       /* Copy each ic correspond data + pec value for calculate data pec */
 639              		.loc 1 513 7 is_stmt 1 view .LVU175
 513:Core/Src/ADBMS.cpp ****       /* Copy each ic correspond data + pec value for calculate data pec */
 640              		.loc 1 513 98 is_stmt 0 view .LVU176
 641 00b0 4FEA0828 		lsl	r8, r8, #8
 642 00b4 08F44078 		and	r8, r8, #768
 513:Core/Src/ADBMS.cpp ****       /* Copy each ic correspond data + pec value for calculate data pec */
 643              		.loc 1 513 155 view .LVU177
 644 00b8 621E     		subs	r2, r4, #1
 513:Core/Src/ADBMS.cpp ****       /* Copy each ic correspond data + pec value for calculate data pec */
 645              		.loc 1 513 139 view .LVU178
 646 00ba 1344     		add	r3, r3, r2
 513:Core/Src/ADBMS.cpp ****       /* Copy each ic correspond data + pec value for calculate data pec */
 647              		.loc 1 513 159 view .LVU179
 648 00bc FB5C     		ldrb	r3, [r7, r3]	@ zero_extendqisi2
 513:Core/Src/ADBMS.cpp ****       /* Copy each ic correspond data + pec value for calculate data pec */
 649              		.loc 1 513 20 view .LVU180
 650 00be 48EA0308 		orr	r8, r8, r3
 651              	.LVL72:
 515:Core/Src/ADBMS.cpp ****       src_address = ((current_ic+1) * (regData_size));
 652              		.loc 1 515 7 is_stmt 1 view .LVU181
 515:Core/Src/ADBMS.cpp ****       src_address = ((current_ic+1) * (regData_size));
 653              		.loc 1 515 13 is_stmt 0 view .LVU182
 654 00c2 2246     		mov	r2, r4
 655 00c4 07EB0A01 		add	r1, r7, r10
 656 00c8 5846     		mov	r0, fp
 657 00ca FFF7FEFF 		bl	memcpy
 658              	.LVL73:
 516:Core/Src/ADBMS.cpp ****       /* Calculate data pec */
 659              		.loc 1 516 7 is_stmt 1 view .LVU183
 516:Core/Src/ADBMS.cpp ****       /* Calculate data pec */
 660              		.loc 1 516 19 is_stmt 0 view .LVU184
 661 00ce 0136     		adds	r6, r6, #1
 662              	.LVL74:
 516:Core/Src/ADBMS.cpp ****       /* Calculate data pec */
 663              		.loc 1 516 19 view .LVU185
 664 00d0 F6B2     		uxtb	r6, r6
 665 00d2 16FB04FA 		smulbb	r10, r6, r4
 666              	.LVL75:
 516:Core/Src/ADBMS.cpp ****       /* Calculate data pec */
ARM GAS  C:\Users\huawei\AppData\Local\Temp\ccpVCJY0.s 			page 27


 667              		.loc 1 516 19 view .LVU186
 668 00d6 5FFA8AFA 		uxtb	r10, r10
 669              	.LVL76:
 518:Core/Src/ADBMS.cpp ****       /* Match received pec with calculated pec */
 670              		.loc 1 518 7 is_stmt 1 view .LVU187
 518:Core/Src/ADBMS.cpp ****       /* Match received pec with calculated pec */
 671              		.loc 1 518 44 is_stmt 0 view .LVU188
 672 00da 5A46     		mov	r2, fp
 673 00dc 2946     		mov	r1, r5
 674 00de 0120     		movs	r0, #1
 675 00e0 FFF7FEFF 		bl	_Z10pec10_calcbiPh
 676              	.LVL77:
 520:Core/Src/ADBMS.cpp ****       else{ pec_error[current_ic] = 1; }                               /* If error is there value s
 677              		.loc 1 520 7 is_stmt 1 view .LVU189
 678 00e4 8045     		cmp	r8, r0
 679 00e6 08D0     		beq	.L48
 521:Core/Src/ADBMS.cpp ****     }
 680              		.loc 1 521 13 view .LVU190
 521:Core/Src/ADBMS.cpp ****     }
 681              		.loc 1 521 35 is_stmt 0 view .LVU191
 682 00e8 0123     		movs	r3, #1
 683 00ea 039A     		ldr	r2, [sp, #12]
 684 00ec 0199     		ldr	r1, [sp, #4]
 685 00ee 5354     		strb	r3, [r2, r1]
 686              	.LVL78:
 687              	.L41:
 521:Core/Src/ADBMS.cpp ****     }
 688              		.loc 1 521 35 view .LVU192
 689              	.LBE18:
 504:Core/Src/ADBMS.cpp ****     {																																      /* Into the r_comm array as well as check the received d
 690              		.loc 1 504 45 is_stmt 1 discriminator 1 view .LVU193
 691 00f0 029B     		ldr	r3, [sp, #8]
 692 00f2 9E42     		cmp	r6, r3
 693 00f4 06D2     		bcs	.L49
 694              	.LBB21:
 695              	.LBB20:
 506:Core/Src/ADBMS.cpp ****       {
 696              		.loc 1 506 20 is_stmt 0 view .LVU194
 697 00f6 0023     		movs	r3, #0
 698 00f8 CDE7     		b	.L45
 699              	.LVL79:
 700              	.L48:
 506:Core/Src/ADBMS.cpp ****       {
 701              		.loc 1 506 20 view .LVU195
 702              	.LBE20:
 520:Core/Src/ADBMS.cpp ****       else{ pec_error[current_ic] = 1; }                               /* If error is there value s
 703              		.loc 1 520 44 is_stmt 1 discriminator 1 view .LVU196
 520:Core/Src/ADBMS.cpp ****       else{ pec_error[current_ic] = 1; }                               /* If error is there value s
 704              		.loc 1 520 66 is_stmt 0 discriminator 1 view .LVU197
 705 00fa 0023     		movs	r3, #0
 706 00fc 039A     		ldr	r2, [sp, #12]
 707 00fe 0199     		ldr	r1, [sp, #4]
 708 0100 5354     		strb	r3, [r2, r1]
 709 0102 F5E7     		b	.L41
 710              	.LVL80:
 711              	.L49:
 520:Core/Src/ADBMS.cpp ****       else{ pec_error[current_ic] = 1; }                               /* If error is there value s
ARM GAS  C:\Users\huawei\AppData\Local\Temp\ccpVCJY0.s 			page 28


 712              		.loc 1 520 66 discriminator 1 view .LVU198
 713              	.LBE21:
 714              	.LBE22:
 715              	.LBE23:
 716              	.LBE24:
 524:Core/Src/ADBMS.cpp ****   free(copyArray);
 717              		.loc 1 524 3 is_stmt 1 view .LVU199
 524:Core/Src/ADBMS.cpp ****   free(copyArray);
 718              		.loc 1 524 7 is_stmt 0 view .LVU200
 719 0104 3846     		mov	r0, r7
 720 0106 FFF7FEFF 		bl	free
 721              	.LVL81:
 525:Core/Src/ADBMS.cpp **** }
 722              		.loc 1 525 3 is_stmt 1 view .LVU201
 525:Core/Src/ADBMS.cpp **** }
 723              		.loc 1 525 7 is_stmt 0 view .LVU202
 724 010a 5846     		mov	r0, fp
 725 010c FFF7FEFF 		bl	free
 726              	.LVL82:
 526:Core/Src/ADBMS.cpp **** 
 727              		.loc 1 526 1 view .LVU203
 728 0110 07B0     		add	sp, sp, #28
 729              	.LCFI8:
 730              		.cfi_def_cfa_offset 36
 731              		@ sp needed
 732 0112 BDE8F08F 		pop	{r4, r5, r6, r7, r8, r9, r10, fp, pc}
 733              	.LVL83:
 734              	.L51:
 526:Core/Src/ADBMS.cpp **** 
 735              		.loc 1 526 1 view .LVU204
 736 0116 00BF     		.align	2
 737              	.L50:
 738 0118 00000000 		.word	hspi
 739 011c 00000000 		.word	.LC0
 740              		.cfi_endproc
 741              	.LFE250:
 742              		.fnend
 744              		.section	.rodata._Z13adBmsReadDatahP9cell_asicPh4TYPE3GRP.str1.4,"aMS",%progbits,1
 745              		.align	2
 746              	.LC1:
 747 0000 52656164 		.ascii	"Read All cmd wrong type select \000"
 747      20416C6C 
 747      20636D64 
 747      2077726F 
 747      6E672074 
 748              		.align	2
 749              	.LC2:
 750 0020 20466169 		.ascii	" Failed to allocate memory \000"
 750      6C656420 
 750      746F2061 
 750      6C6C6F63 
 750      61746520 
 751              		.section	.text._Z13adBmsReadDatahP9cell_asicPh4TYPE3GRP,"ax",%progbits
 752              		.align	1
 753              		.global	_Z13adBmsReadDatahP9cell_asicPh4TYPE3GRP
 754              		.syntax unified
 755              		.thumb
ARM GAS  C:\Users\huawei\AppData\Local\Temp\ccpVCJY0.s 			page 29


 756              		.thumb_func
 758              	_Z13adBmsReadDatahP9cell_asicPh4TYPE3GRP:
 759              		.fnstart
 760              	.LVL84:
 761              	.LFB248:
  94:Core/Src/ADBMS.cpp ****   uint16_t rBuff_size;
 762              		.loc 1 94 1 is_stmt 1 view -0
 763              		.cfi_startproc
 764              		@ args = 4, pretend = 0, frame = 8
 765              		@ frame_needed = 0, uses_anonymous_args = 0
  94:Core/Src/ADBMS.cpp ****   uint16_t rBuff_size;
 766              		.loc 1 94 1 is_stmt 0 view .LVU206
 767 0000 2DE9F04F 		push	{r4, r5, r6, r7, r8, r9, r10, fp, lr}
 768              		.save {r4, r5, r6, r7, r8, r9, r10, fp, lr}
 769              	.LCFI9:
 770              		.cfi_def_cfa_offset 36
 771              		.cfi_offset 4, -36
 772              		.cfi_offset 5, -32
 773              		.cfi_offset 6, -28
 774              		.cfi_offset 7, -24
 775              		.cfi_offset 8, -20
 776              		.cfi_offset 9, -16
 777              		.cfi_offset 10, -12
 778              		.cfi_offset 11, -8
 779              		.cfi_offset 14, -4
 780              		.pad #20
 781 0004 85B0     		sub	sp, sp, #20
 782              	.LCFI10:
 783              		.cfi_def_cfa_offset 56
 784 0006 0446     		mov	r4, r0
 785 0008 0F46     		mov	r7, r1
 786 000a 0392     		str	r2, [sp, #12]
 787 000c 9846     		mov	r8, r3
 788 000e 9DF838B0 		ldrb	fp, [sp, #56]	@ zero_extendqisi2
  95:Core/Src/ADBMS.cpp ****   uint8_t regData_size;
 789              		.loc 1 95 3 is_stmt 1 view .LVU207
  96:Core/Src/ADBMS.cpp ****   if(group == ALL_GRP)
 790              		.loc 1 96 3 view .LVU208
  97:Core/Src/ADBMS.cpp ****   {
 791              		.loc 1 97 3 view .LVU209
 792 0012 BBF1000F 		cmp	fp, #0
 793 0016 16D1     		bne	.L53
 794 0018 0025     		movs	r5, #0
 795 001a AA46     		mov	r10, r5
  99:Core/Src/ADBMS.cpp ****     else if(type == Rdsall){rBuff_size = RDSALL_SIZE; regData_size = RDSALL_SIZE;}
 796              		.loc 1 99 5 view .LVU210
 797 001c 0C3B     		subs	r3, r3, #12
 798              	.LVL85:
  99:Core/Src/ADBMS.cpp ****     else if(type == Rdsall){rBuff_size = RDSALL_SIZE; regData_size = RDSALL_SIZE;}
 799              		.loc 1 99 5 is_stmt 0 view .LVU211
 800 001e 062B     		cmp	r3, #6
 801 0020 0DD8     		bhi	.L54
 802 0022 DFE803F0 		tbb	[pc, r3]
 803              	.LVL86:
 804              	.L56:
 805 0026 04       		.byte	(.L57-.L56)/2
 806 0027 04       		.byte	(.L57-.L56)/2
ARM GAS  C:\Users\huawei\AppData\Local\Temp\ccpVCJY0.s 			page 30


 807 0028 04       		.byte	(.L57-.L56)/2
 808 0029 48       		.byte	(.L125-.L56)/2
 809 002a 48       		.byte	(.L125-.L56)/2
 810 002b 04       		.byte	(.L57-.L56)/2
 811 002c 08       		.byte	(.L55-.L56)/2
 812 002d 00       		.p2align 1
 813              	.L57:
  97:Core/Src/ADBMS.cpp ****   {
 814              		.loc 1 97 3 view .LVU212
 815 002e 4FF0220A 		mov	r10, #34
 816 0032 5546     		mov	r5, r10
 817 0034 0AE0     		b	.L58
 818              	.L55:
 819 0036 4FF0460A 		mov	r10, #70
 820 003a 5546     		mov	r5, r10
 821 003c 06E0     		b	.L58
 822              	.L54:
 106:Core/Src/ADBMS.cpp ****   }
 823              		.loc 1 106 10 is_stmt 1 view .LVU213
 106:Core/Src/ADBMS.cpp ****   }
 824              		.loc 1 106 16 is_stmt 0 view .LVU214
 825 003e BE48     		ldr	r0, .L128
 826              	.LVL87:
 106:Core/Src/ADBMS.cpp ****   }
 827              		.loc 1 106 16 view .LVU215
 828 0040 FFF7FEFF 		bl	puts
 829              	.LVL88:
 106:Core/Src/ADBMS.cpp ****   }
 830              		.loc 1 106 16 view .LVU216
 831 0044 02E0     		b	.L58
 832              	.LVL89:
 833              	.L53:
 108:Core/Src/ADBMS.cpp ****   uint8_t *read_buffer, *pec_error, *cmd_count;
 834              		.loc 1 108 8 is_stmt 1 view .LVU217
 108:Core/Src/ADBMS.cpp ****   uint8_t *read_buffer, *pec_error, *cmd_count;
 835              		.loc 1 108 19 is_stmt 0 view .LVU218
 836 0046 C500     		lsls	r5, r0, #3
 837              	.LVL90:
 108:Core/Src/ADBMS.cpp ****   uint8_t *read_buffer, *pec_error, *cmd_count;
 838              		.loc 1 108 38 is_stmt 1 view .LVU219
 108:Core/Src/ADBMS.cpp ****   uint8_t *read_buffer, *pec_error, *cmd_count;
 839              		.loc 1 108 51 is_stmt 0 view .LVU220
 840 0048 4FF0080A 		mov	r10, #8
 841              	.LVL91:
 842              	.L58:
 109:Core/Src/ADBMS.cpp ****   read_buffer = (uint8_t *)calloc(rBuff_size, sizeof(uint8_t));
 843              		.loc 1 109 3 is_stmt 1 view .LVU221
 110:Core/Src/ADBMS.cpp ****   pec_error = (uint8_t *)calloc(tIC, sizeof(uint8_t));
 844              		.loc 1 110 3 view .LVU222
 110:Core/Src/ADBMS.cpp ****   pec_error = (uint8_t *)calloc(tIC, sizeof(uint8_t));
 845              		.loc 1 110 34 is_stmt 0 view .LVU223
 846 004c 0121     		movs	r1, #1
 847 004e 2846     		mov	r0, r5
 848 0050 FFF7FEFF 		bl	calloc
 849              	.LVL92:
 850 0054 8146     		mov	r9, r0
 851              	.LVL93:
ARM GAS  C:\Users\huawei\AppData\Local\Temp\ccpVCJY0.s 			page 31


 111:Core/Src/ADBMS.cpp ****   cmd_count = (uint8_t *)calloc(tIC, sizeof(uint8_t));
 852              		.loc 1 111 3 is_stmt 1 view .LVU224
 111:Core/Src/ADBMS.cpp ****   cmd_count = (uint8_t *)calloc(tIC, sizeof(uint8_t));
 853              		.loc 1 111 32 is_stmt 0 view .LVU225
 854 0056 0121     		movs	r1, #1
 855 0058 2046     		mov	r0, r4
 856              	.LVL94:
 111:Core/Src/ADBMS.cpp ****   cmd_count = (uint8_t *)calloc(tIC, sizeof(uint8_t));
 857              		.loc 1 111 32 view .LVU226
 858 005a FFF7FEFF 		bl	calloc
 859              	.LVL95:
 860 005e 0546     		mov	r5, r0
 861              	.LVL96:
 112:Core/Src/ADBMS.cpp ****   if((pec_error == NULL) || (cmd_count == NULL) || (read_buffer == NULL))
 862              		.loc 1 112 3 is_stmt 1 view .LVU227
 112:Core/Src/ADBMS.cpp ****   if((pec_error == NULL) || (cmd_count == NULL) || (read_buffer == NULL))
 863              		.loc 1 112 32 is_stmt 0 view .LVU228
 864 0060 0121     		movs	r1, #1
 865 0062 2046     		mov	r0, r4
 866              	.LVL97:
 112:Core/Src/ADBMS.cpp ****   if((pec_error == NULL) || (cmd_count == NULL) || (read_buffer == NULL))
 867              		.loc 1 112 32 view .LVU229
 868 0064 FFF7FEFF 		bl	calloc
 869              	.LVL98:
 870 0068 0646     		mov	r6, r0
 871              	.LVL99:
 113:Core/Src/ADBMS.cpp ****   {
 872              		.loc 1 113 3 is_stmt 1 view .LVU230
 873              	.LBB25:
 874 006a 45B3     		cbz	r5, .L59
 113:Core/Src/ADBMS.cpp ****   {
 875              		.loc 1 113 26 is_stmt 0 discriminator 1 view .LVU231
 876 006c 38B3     		cbz	r0, .L59
 113:Core/Src/ADBMS.cpp ****   {
 877              		.loc 1 113 49 discriminator 2 view .LVU232
 878 006e B9F1000F 		cmp	r9, #0
 879 0072 24D0     		beq	.L59
 880              	.LBB26:
 121:Core/Src/ADBMS.cpp ****     switch (type)
 881              		.loc 1 121 5 is_stmt 1 view .LVU233
 121:Core/Src/ADBMS.cpp ****     switch (type)
 882              		.loc 1 121 16 is_stmt 0 view .LVU234
 883 0074 CDF804A0 		str	r10, [sp, #4]
 884 0078 0090     		str	r0, [sp]
 885 007a 2B46     		mov	r3, r5
 886 007c 4A46     		mov	r2, r9
 887 007e 0399     		ldr	r1, [sp, #12]
 888 0080 2046     		mov	r0, r4
 889              	.LVL100:
 121:Core/Src/ADBMS.cpp ****     switch (type)
 890              		.loc 1 121 16 view .LVU235
 891 0082 FFF7FEFF 		bl	_Z11spiReadDatahPhS_S_S_h
 892              	.LVL101:
 122:Core/Src/ADBMS.cpp ****     {
 893              		.loc 1 122 5 is_stmt 1 view .LVU236
 894              	.LBB27:
 895 0086 B8F1120F 		cmp	r8, #18
ARM GAS  C:\Users\huawei\AppData\Local\Temp\ccpVCJY0.s 			page 32


 896 008a 34D8     		bhi	.L61
 897 008c DFE818F0 		tbh	[pc, r8, lsl #1]
 898              	.L63:
 899 0090 3F00     		.2byte	(.L80-.L63)/2
 900 0092 9E00     		.2byte	(.L79-.L63)/2
 901 0094 B500     		.2byte	(.L78-.L63)/2
 902 0096 CC00     		.2byte	(.L77-.L63)/2
 903 0098 F900     		.2byte	(.L76-.L63)/2
 904 009a 5900     		.2byte	(.L75-.L63)/2
 905 009c 7000     		.2byte	(.L74-.L63)/2
 906 009e 8700     		.2byte	(.L73-.L63)/2
 907 00a0 1D00     		.2byte	(.L72-.L63)/2
 908 00a2 E300     		.2byte	(.L71-.L63)/2
 909 00a4 1001     		.2byte	(.L70-.L63)/2
 910 00a6 3300     		.2byte	(.L61-.L63)/2
 911 00a8 2601     		.2byte	(.L69-.L63)/2
 912 00aa 3D01     		.2byte	(.L68-.L63)/2
 913 00ac 5801     		.2byte	(.L67-.L63)/2
 914 00ae 8601     		.2byte	(.L66-.L63)/2
 915 00b0 B401     		.2byte	(.L65-.L63)/2
 916 00b2 6F01     		.2byte	(.L64-.L63)/2
 917 00b4 E201     		.2byte	(.L62-.L63)/2
 918              	.LVL102:
 919              		.p2align 1
 920              	.L125:
 122:Core/Src/ADBMS.cpp ****     {
 921              		.loc 1 122 5 is_stmt 0 view .LVU237
 922              	.LBE27:
 923              	.LBE26:
 924              	.LBE25:
  97:Core/Src/ADBMS.cpp ****   {
 925              		.loc 1 97 3 view .LVU238
 926 00b6 4FF0420A 		mov	r10, #66
 927 00ba 5546     		mov	r5, r10
 928 00bc C6E7     		b	.L58
 929              	.LVL103:
 930              	.L59:
 931              	.LBB56:
 115:Core/Src/ADBMS.cpp **** 
 932              		.loc 1 115 5 is_stmt 1 view .LVU239
 115:Core/Src/ADBMS.cpp **** 
 933              		.loc 1 115 11 is_stmt 0 view .LVU240
 934 00be 9F48     		ldr	r0, .L128+4
 935              	.LVL104:
 115:Core/Src/ADBMS.cpp **** 
 936              		.loc 1 115 11 view .LVU241
 937 00c0 FFF7FEFF 		bl	puts
 938              	.LVL105:
 117:Core/Src/ADBMS.cpp ****   }
 939              		.loc 1 117 5 is_stmt 1 view .LVU242
 117:Core/Src/ADBMS.cpp ****   }
 940              		.loc 1 117 9 is_stmt 0 view .LVU243
 941 00c4 0020     		movs	r0, #0
 942 00c6 FFF7FEFF 		bl	exit
 943              	.LVL106:
 944              	.L72:
 945              	.LBB54:
ARM GAS  C:\Users\huawei\AppData\Local\Temp\ccpVCJY0.s 			page 33


 946              	.LBB52:
 947              	.LBB28:
 124:Core/Src/ADBMS.cpp ****       adBms6830ParseConfig(tIC, ic, group, &read_buffer[0]);
 948              		.loc 1 124 5 is_stmt 1 view .LVU244
 125:Core/Src/ADBMS.cpp ****       for (uint8_t cic = 0; cic < tIC; cic++)
 949              		.loc 1 125 7 view .LVU245
 125:Core/Src/ADBMS.cpp ****       for (uint8_t cic = 0; cic < tIC; cic++)
 950              		.loc 1 125 27 is_stmt 0 view .LVU246
 951 00ca 4B46     		mov	r3, r9
 952 00cc 5A46     		mov	r2, fp
 953 00ce 3946     		mov	r1, r7
 954 00d0 2046     		mov	r0, r4
 955 00d2 FFF7FEFF 		bl	_Z20adBms6830ParseConfighP9cell_asic3GRPPh
 956              	.LVL107:
 126:Core/Src/ADBMS.cpp ****       {
 957              		.loc 1 126 7 is_stmt 1 view .LVU247
 958              	.LBB29:
 126:Core/Src/ADBMS.cpp ****       {
 959              		.loc 1 126 20 is_stmt 0 view .LVU248
 960 00d6 0023     		movs	r3, #0
 126:Core/Src/ADBMS.cpp ****       {
 961              		.loc 1 126 7 view .LVU249
 962 00d8 0BE0     		b	.L81
 963              	.LVL108:
 964              	.L82:
 128:Core/Src/ADBMS.cpp ****         ic[cic].cccrc.cmd_cntr = cmd_count[cic];
 965              		.loc 1 128 9 is_stmt 1 discriminator 3 view .LVU250
 128:Core/Src/ADBMS.cpp ****         ic[cic].cccrc.cmd_cntr = cmd_count[cic];
 966              		.loc 1 128 15 is_stmt 0 discriminator 3 view .LVU251
 967 00da 4FF42872 		mov	r2, #672
 968 00de 02FB0372 		mla	r2, r2, r3, r7
 128:Core/Src/ADBMS.cpp ****         ic[cic].cccrc.cmd_cntr = cmd_count[cic];
 969              		.loc 1 128 47 discriminator 3 view .LVU252
 970 00e2 E95C     		ldrb	r1, [r5, r3]	@ zero_extendqisi2
 128:Core/Src/ADBMS.cpp ****         ic[cic].cccrc.cmd_cntr = cmd_count[cic];
 971              		.loc 1 128 32 discriminator 3 view .LVU253
 972 00e4 82F89011 		strb	r1, [r2, #400]
 129:Core/Src/ADBMS.cpp ****       }
 973              		.loc 1 129 9 is_stmt 1 discriminator 3 view .LVU254
 129:Core/Src/ADBMS.cpp ****       }
 974              		.loc 1 129 47 is_stmt 0 discriminator 3 view .LVU255
 975 00e8 F15C     		ldrb	r1, [r6, r3]	@ zero_extendqisi2
 129:Core/Src/ADBMS.cpp ****       }
 976              		.loc 1 129 32 discriminator 3 view .LVU256
 977 00ea 82F88F11 		strb	r1, [r2, #399]
 126:Core/Src/ADBMS.cpp ****       {
 978              		.loc 1 126 7 is_stmt 1 discriminator 3 view .LVU257
 979 00ee 0133     		adds	r3, r3, #1
 980              	.LVL109:
 126:Core/Src/ADBMS.cpp ****       {
 981              		.loc 1 126 7 is_stmt 0 discriminator 3 view .LVU258
 982 00f0 DBB2     		uxtb	r3, r3
 983              	.LVL110:
 984              	.L81:
 126:Core/Src/ADBMS.cpp ****       {
 985              		.loc 1 126 33 is_stmt 1 discriminator 1 view .LVU259
 986 00f2 A342     		cmp	r3, r4
ARM GAS  C:\Users\huawei\AppData\Local\Temp\ccpVCJY0.s 			page 34


 987 00f4 F1D3     		bcc	.L82
 988              	.LVL111:
 989              	.L61:
 126:Core/Src/ADBMS.cpp ****       {
 990              		.loc 1 126 33 is_stmt 0 discriminator 1 view .LVU260
 991              	.LBE29:
 992              	.LBE28:
 993              	.LBE52:
 994              	.LBE54:
 995              	.LBE56:
 324:Core/Src/ADBMS.cpp ****   free(pec_error);
 996              		.loc 1 324 3 is_stmt 1 view .LVU261
 324:Core/Src/ADBMS.cpp ****   free(pec_error);
 997              		.loc 1 324 7 is_stmt 0 view .LVU262
 998 00f6 4846     		mov	r0, r9
 999 00f8 FFF7FEFF 		bl	free
 1000              	.LVL112:
 325:Core/Src/ADBMS.cpp ****   free(cmd_count);
 1001              		.loc 1 325 3 is_stmt 1 view .LVU263
 325:Core/Src/ADBMS.cpp ****   free(cmd_count);
 1002              		.loc 1 325 7 is_stmt 0 view .LVU264
 1003 00fc 2846     		mov	r0, r5
 1004 00fe FFF7FEFF 		bl	free
 1005              	.LVL113:
 326:Core/Src/ADBMS.cpp **** }
 1006              		.loc 1 326 3 is_stmt 1 view .LVU265
 326:Core/Src/ADBMS.cpp **** }
 1007              		.loc 1 326 7 is_stmt 0 view .LVU266
 1008 0102 3046     		mov	r0, r6
 1009 0104 FFF7FEFF 		bl	free
 1010              	.LVL114:
 327:Core/Src/ADBMS.cpp **** 
 1011              		.loc 1 327 1 view .LVU267
 1012 0108 05B0     		add	sp, sp, #20
 1013              	.LCFI11:
 1014              		.cfi_remember_state
 1015              		.cfi_def_cfa_offset 36
 1016              		@ sp needed
 1017 010a BDE8F08F 		pop	{r4, r5, r6, r7, r8, r9, r10, fp, pc}
 1018              	.LVL115:
 1019              	.L80:
 1020              	.LCFI12:
 1021              		.cfi_restore_state
 1022              	.LBB57:
 1023              	.LBB55:
 1024              	.LBB53:
 1025              	.LBB51:
 133:Core/Src/ADBMS.cpp ****       adBms6830ParseCell(tIC, ic, group, &read_buffer[0]);
 1026              		.loc 1 133 5 is_stmt 1 view .LVU268
 134:Core/Src/ADBMS.cpp ****       for (uint8_t cic = 0; cic < tIC; cic++)
 1027              		.loc 1 134 7 view .LVU269
 134:Core/Src/ADBMS.cpp ****       for (uint8_t cic = 0; cic < tIC; cic++)
 1028              		.loc 1 134 25 is_stmt 0 view .LVU270
 1029 010e 4B46     		mov	r3, r9
 1030 0110 5A46     		mov	r2, fp
 1031 0112 3946     		mov	r1, r7
 1032 0114 2046     		mov	r0, r4
ARM GAS  C:\Users\huawei\AppData\Local\Temp\ccpVCJY0.s 			page 35


 1033 0116 FFF7FEFF 		bl	_Z18adBms6830ParseCellhP9cell_asic3GRPPh
 1034              	.LVL116:
 135:Core/Src/ADBMS.cpp ****       {
 1035              		.loc 1 135 7 is_stmt 1 view .LVU271
 1036              	.LBB30:
 135:Core/Src/ADBMS.cpp ****       {
 1037              		.loc 1 135 7 is_stmt 0 view .LVU272
 1038 011a 0FE0     		b	.L83
 1039              	.LVL117:
 1040              	.L84:
 137:Core/Src/ADBMS.cpp ****         ic[cic].cccrc.cmd_cntr = cmd_count[cic];
 1041              		.loc 1 137 9 is_stmt 1 discriminator 3 view .LVU273
 137:Core/Src/ADBMS.cpp ****         ic[cic].cccrc.cmd_cntr = cmd_count[cic];
 1042              		.loc 1 137 15 is_stmt 0 discriminator 3 view .LVU274
 1043 011c 4FF42873 		mov	r3, #672
 1044 0120 03FB0873 		mla	r3, r3, r8, r7
 137:Core/Src/ADBMS.cpp ****         ic[cic].cccrc.cmd_cntr = cmd_count[cic];
 1045              		.loc 1 137 47 discriminator 3 view .LVU275
 1046 0124 15F80820 		ldrb	r2, [r5, r8]	@ zero_extendqisi2
 137:Core/Src/ADBMS.cpp ****         ic[cic].cccrc.cmd_cntr = cmd_count[cic];
 1047              		.loc 1 137 32 discriminator 3 view .LVU276
 1048 0128 83F89121 		strb	r2, [r3, #401]
 138:Core/Src/ADBMS.cpp ****       }
 1049              		.loc 1 138 9 is_stmt 1 discriminator 3 view .LVU277
 138:Core/Src/ADBMS.cpp ****       }
 1050              		.loc 1 138 47 is_stmt 0 discriminator 3 view .LVU278
 1051 012c 16F80820 		ldrb	r2, [r6, r8]	@ zero_extendqisi2
 138:Core/Src/ADBMS.cpp ****       }
 1052              		.loc 1 138 32 discriminator 3 view .LVU279
 1053 0130 83F88F21 		strb	r2, [r3, #399]
 135:Core/Src/ADBMS.cpp ****       {
 1054              		.loc 1 135 7 is_stmt 1 discriminator 3 view .LVU280
 1055 0134 08F10108 		add	r8, r8, #1
 1056              	.LVL118:
 135:Core/Src/ADBMS.cpp ****       {
 1057              		.loc 1 135 7 is_stmt 0 discriminator 3 view .LVU281
 1058 0138 5FFA88F8 		uxtb	r8, r8
 1059              	.LVL119:
 1060              	.L83:
 135:Core/Src/ADBMS.cpp ****       {
 1061              		.loc 1 135 33 is_stmt 1 discriminator 1 view .LVU282
 1062 013c A045     		cmp	r8, r4
 1063 013e EDD3     		bcc	.L84
 1064 0140 D9E7     		b	.L61
 1065              	.LVL120:
 1066              	.L75:
 135:Core/Src/ADBMS.cpp ****       {
 1067              		.loc 1 135 33 is_stmt 0 discriminator 1 view .LVU283
 1068              	.LBE30:
 142:Core/Src/ADBMS.cpp ****       adBms6830ParseAverageCell(tIC, ic, group, &read_buffer[0]);
 1069              		.loc 1 142 5 is_stmt 1 view .LVU284
 143:Core/Src/ADBMS.cpp ****       for (uint8_t cic = 0; cic < tIC; cic++)
 1070              		.loc 1 143 7 view .LVU285
 143:Core/Src/ADBMS.cpp ****       for (uint8_t cic = 0; cic < tIC; cic++)
 1071              		.loc 1 143 32 is_stmt 0 view .LVU286
 1072 0142 4B46     		mov	r3, r9
 1073 0144 5A46     		mov	r2, fp
ARM GAS  C:\Users\huawei\AppData\Local\Temp\ccpVCJY0.s 			page 36


 1074 0146 3946     		mov	r1, r7
 1075 0148 2046     		mov	r0, r4
 1076 014a FFF7FEFF 		bl	_Z25adBms6830ParseAverageCellhP9cell_asic3GRPPh
 1077              	.LVL121:
 144:Core/Src/ADBMS.cpp ****       {
 1078              		.loc 1 144 7 is_stmt 1 view .LVU287
 1079              	.LBB31:
 144:Core/Src/ADBMS.cpp ****       {
 1080              		.loc 1 144 20 is_stmt 0 view .LVU288
 1081 014e 0023     		movs	r3, #0
 144:Core/Src/ADBMS.cpp ****       {
 1082              		.loc 1 144 7 view .LVU289
 1083 0150 0BE0     		b	.L85
 1084              	.LVL122:
 1085              	.L86:
 146:Core/Src/ADBMS.cpp ****         ic[cic].cccrc.cmd_cntr = cmd_count[cic];
 1086              		.loc 1 146 9 is_stmt 1 discriminator 3 view .LVU290
 146:Core/Src/ADBMS.cpp ****         ic[cic].cccrc.cmd_cntr = cmd_count[cic];
 1087              		.loc 1 146 15 is_stmt 0 discriminator 3 view .LVU291
 1088 0152 4FF42872 		mov	r2, #672
 1089 0156 02FB0372 		mla	r2, r2, r3, r7
 146:Core/Src/ADBMS.cpp ****         ic[cic].cccrc.cmd_cntr = cmd_count[cic];
 1090              		.loc 1 146 48 discriminator 3 view .LVU292
 1091 015a E95C     		ldrb	r1, [r5, r3]	@ zero_extendqisi2
 146:Core/Src/ADBMS.cpp ****         ic[cic].cccrc.cmd_cntr = cmd_count[cic];
 1092              		.loc 1 146 33 discriminator 3 view .LVU293
 1093 015c 82F89211 		strb	r1, [r2, #402]
 147:Core/Src/ADBMS.cpp ****       }
 1094              		.loc 1 147 9 is_stmt 1 discriminator 3 view .LVU294
 147:Core/Src/ADBMS.cpp ****       }
 1095              		.loc 1 147 47 is_stmt 0 discriminator 3 view .LVU295
 1096 0160 F15C     		ldrb	r1, [r6, r3]	@ zero_extendqisi2
 147:Core/Src/ADBMS.cpp ****       }
 1097              		.loc 1 147 32 discriminator 3 view .LVU296
 1098 0162 82F88F11 		strb	r1, [r2, #399]
 144:Core/Src/ADBMS.cpp ****       {
 1099              		.loc 1 144 7 is_stmt 1 discriminator 3 view .LVU297
 1100 0166 0133     		adds	r3, r3, #1
 1101              	.LVL123:
 144:Core/Src/ADBMS.cpp ****       {
 1102              		.loc 1 144 7 is_stmt 0 discriminator 3 view .LVU298
 1103 0168 DBB2     		uxtb	r3, r3
 1104              	.LVL124:
 1105              	.L85:
 144:Core/Src/ADBMS.cpp ****       {
 1106              		.loc 1 144 33 is_stmt 1 discriminator 1 view .LVU299
 1107 016a A342     		cmp	r3, r4
 1108 016c F1D3     		bcc	.L86
 1109 016e C2E7     		b	.L61
 1110              	.LVL125:
 1111              	.L74:
 144:Core/Src/ADBMS.cpp ****       {
 1112              		.loc 1 144 33 is_stmt 0 discriminator 1 view .LVU300
 1113              	.LBE31:
 151:Core/Src/ADBMS.cpp ****       adBms6830ParseSCell(tIC, ic, group, &read_buffer[0]);
 1114              		.loc 1 151 5 is_stmt 1 view .LVU301
 152:Core/Src/ADBMS.cpp ****       for (uint8_t cic = 0; cic < tIC; cic++)
ARM GAS  C:\Users\huawei\AppData\Local\Temp\ccpVCJY0.s 			page 37


 1115              		.loc 1 152 7 view .LVU302
 152:Core/Src/ADBMS.cpp ****       for (uint8_t cic = 0; cic < tIC; cic++)
 1116              		.loc 1 152 26 is_stmt 0 view .LVU303
 1117 0170 4B46     		mov	r3, r9
 1118 0172 5A46     		mov	r2, fp
 1119 0174 3946     		mov	r1, r7
 1120 0176 2046     		mov	r0, r4
 1121 0178 FFF7FEFF 		bl	_Z19adBms6830ParseSCellhP9cell_asic3GRPPh
 1122              	.LVL126:
 153:Core/Src/ADBMS.cpp ****       {
 1123              		.loc 1 153 7 is_stmt 1 view .LVU304
 1124              	.LBB32:
 153:Core/Src/ADBMS.cpp ****       {
 1125              		.loc 1 153 20 is_stmt 0 view .LVU305
 1126 017c 0023     		movs	r3, #0
 153:Core/Src/ADBMS.cpp ****       {
 1127              		.loc 1 153 7 view .LVU306
 1128 017e 0BE0     		b	.L87
 1129              	.LVL127:
 1130              	.L88:
 155:Core/Src/ADBMS.cpp ****         ic[cic].cccrc.cmd_cntr = cmd_count[cic];
 1131              		.loc 1 155 9 is_stmt 1 discriminator 3 view .LVU307
 155:Core/Src/ADBMS.cpp ****         ic[cic].cccrc.cmd_cntr = cmd_count[cic];
 1132              		.loc 1 155 15 is_stmt 0 discriminator 3 view .LVU308
 1133 0180 4FF42872 		mov	r2, #672
 1134 0184 02FB0372 		mla	r2, r2, r3, r7
 155:Core/Src/ADBMS.cpp ****         ic[cic].cccrc.cmd_cntr = cmd_count[cic];
 1135              		.loc 1 155 48 discriminator 3 view .LVU309
 1136 0188 E95C     		ldrb	r1, [r5, r3]	@ zero_extendqisi2
 155:Core/Src/ADBMS.cpp ****         ic[cic].cccrc.cmd_cntr = cmd_count[cic];
 1137              		.loc 1 155 33 discriminator 3 view .LVU310
 1138 018a 82F89311 		strb	r1, [r2, #403]
 156:Core/Src/ADBMS.cpp ****       }
 1139              		.loc 1 156 9 is_stmt 1 discriminator 3 view .LVU311
 156:Core/Src/ADBMS.cpp ****       }
 1140              		.loc 1 156 47 is_stmt 0 discriminator 3 view .LVU312
 1141 018e F15C     		ldrb	r1, [r6, r3]	@ zero_extendqisi2
 156:Core/Src/ADBMS.cpp ****       }
 1142              		.loc 1 156 32 discriminator 3 view .LVU313
 1143 0190 82F88F11 		strb	r1, [r2, #399]
 153:Core/Src/ADBMS.cpp ****       {
 1144              		.loc 1 153 7 is_stmt 1 discriminator 3 view .LVU314
 1145 0194 0133     		adds	r3, r3, #1
 1146              	.LVL128:
 153:Core/Src/ADBMS.cpp ****       {
 1147              		.loc 1 153 7 is_stmt 0 discriminator 3 view .LVU315
 1148 0196 DBB2     		uxtb	r3, r3
 1149              	.LVL129:
 1150              	.L87:
 153:Core/Src/ADBMS.cpp ****       {
 1151              		.loc 1 153 33 is_stmt 1 discriminator 1 view .LVU316
 1152 0198 A342     		cmp	r3, r4
 1153 019a F1D3     		bcc	.L88
 1154 019c ABE7     		b	.L61
 1155              	.LVL130:
 1156              	.L73:
 153:Core/Src/ADBMS.cpp ****       {
ARM GAS  C:\Users\huawei\AppData\Local\Temp\ccpVCJY0.s 			page 38


 1157              		.loc 1 153 33 is_stmt 0 discriminator 1 view .LVU317
 1158              	.LBE32:
 160:Core/Src/ADBMS.cpp ****       adBms6830ParseFCell(tIC, ic, group, &read_buffer[0]);
 1159              		.loc 1 160 5 is_stmt 1 view .LVU318
 161:Core/Src/ADBMS.cpp ****       for (uint8_t cic = 0; cic < tIC; cic++)
 1160              		.loc 1 161 7 view .LVU319
 161:Core/Src/ADBMS.cpp ****       for (uint8_t cic = 0; cic < tIC; cic++)
 1161              		.loc 1 161 26 is_stmt 0 view .LVU320
 1162 019e 4B46     		mov	r3, r9
 1163 01a0 5A46     		mov	r2, fp
 1164 01a2 3946     		mov	r1, r7
 1165 01a4 2046     		mov	r0, r4
 1166 01a6 FFF7FEFF 		bl	_Z19adBms6830ParseFCellhP9cell_asic3GRPPh
 1167              	.LVL131:
 162:Core/Src/ADBMS.cpp ****       {
 1168              		.loc 1 162 7 is_stmt 1 view .LVU321
 1169              	.LBB33:
 162:Core/Src/ADBMS.cpp ****       {
 1170              		.loc 1 162 20 is_stmt 0 view .LVU322
 1171 01aa 0023     		movs	r3, #0
 162:Core/Src/ADBMS.cpp ****       {
 1172              		.loc 1 162 7 view .LVU323
 1173 01ac 0BE0     		b	.L89
 1174              	.LVL132:
 1175              	.L90:
 164:Core/Src/ADBMS.cpp ****         ic[cic].cccrc.cmd_cntr = cmd_count[cic];
 1176              		.loc 1 164 9 is_stmt 1 discriminator 3 view .LVU324
 164:Core/Src/ADBMS.cpp ****         ic[cic].cccrc.cmd_cntr = cmd_count[cic];
 1177              		.loc 1 164 15 is_stmt 0 discriminator 3 view .LVU325
 1178 01ae 4FF42872 		mov	r2, #672
 1179 01b2 02FB0372 		mla	r2, r2, r3, r7
 164:Core/Src/ADBMS.cpp ****         ic[cic].cccrc.cmd_cntr = cmd_count[cic];
 1180              		.loc 1 164 48 discriminator 3 view .LVU326
 1181 01b6 E95C     		ldrb	r1, [r5, r3]	@ zero_extendqisi2
 164:Core/Src/ADBMS.cpp ****         ic[cic].cccrc.cmd_cntr = cmd_count[cic];
 1182              		.loc 1 164 33 discriminator 3 view .LVU327
 1183 01b8 82F89411 		strb	r1, [r2, #404]
 165:Core/Src/ADBMS.cpp ****       }
 1184              		.loc 1 165 9 is_stmt 1 discriminator 3 view .LVU328
 165:Core/Src/ADBMS.cpp ****       }
 1185              		.loc 1 165 47 is_stmt 0 discriminator 3 view .LVU329
 1186 01bc F15C     		ldrb	r1, [r6, r3]	@ zero_extendqisi2
 165:Core/Src/ADBMS.cpp ****       }
 1187              		.loc 1 165 32 discriminator 3 view .LVU330
 1188 01be 82F88F11 		strb	r1, [r2, #399]
 162:Core/Src/ADBMS.cpp ****       {
 1189              		.loc 1 162 7 is_stmt 1 discriminator 3 view .LVU331
 1190 01c2 0133     		adds	r3, r3, #1
 1191              	.LVL133:
 162:Core/Src/ADBMS.cpp ****       {
 1192              		.loc 1 162 7 is_stmt 0 discriminator 3 view .LVU332
 1193 01c4 DBB2     		uxtb	r3, r3
 1194              	.LVL134:
 1195              	.L89:
 162:Core/Src/ADBMS.cpp ****       {
 1196              		.loc 1 162 33 is_stmt 1 discriminator 1 view .LVU333
 1197 01c6 A342     		cmp	r3, r4
ARM GAS  C:\Users\huawei\AppData\Local\Temp\ccpVCJY0.s 			page 39


 1198 01c8 F1D3     		bcc	.L90
 1199 01ca 94E7     		b	.L61
 1200              	.LVL135:
 1201              	.L79:
 162:Core/Src/ADBMS.cpp ****       {
 1202              		.loc 1 162 33 is_stmt 0 discriminator 1 view .LVU334
 1203              	.LBE33:
 169:Core/Src/ADBMS.cpp ****       adBms6830ParseAux(tIC, ic, group, &read_buffer[0]);
 1204              		.loc 1 169 5 is_stmt 1 view .LVU335
 170:Core/Src/ADBMS.cpp ****       for (uint8_t cic = 0; cic < tIC; cic++)
 1205              		.loc 1 170 7 view .LVU336
 170:Core/Src/ADBMS.cpp ****       for (uint8_t cic = 0; cic < tIC; cic++)
 1206              		.loc 1 170 24 is_stmt 0 view .LVU337
 1207 01cc 4B46     		mov	r3, r9
 1208 01ce 5A46     		mov	r2, fp
 1209 01d0 3946     		mov	r1, r7
 1210 01d2 2046     		mov	r0, r4
 1211 01d4 FFF7FEFF 		bl	_Z17adBms6830ParseAuxhP9cell_asic3GRPPh
 1212              	.LVL136:
 171:Core/Src/ADBMS.cpp ****       {
 1213              		.loc 1 171 7 is_stmt 1 view .LVU338
 1214              	.LBB34:
 171:Core/Src/ADBMS.cpp ****       {
 1215              		.loc 1 171 20 is_stmt 0 view .LVU339
 1216 01d8 0023     		movs	r3, #0
 171:Core/Src/ADBMS.cpp ****       {
 1217              		.loc 1 171 7 view .LVU340
 1218 01da 0BE0     		b	.L91
 1219              	.LVL137:
 1220              	.L92:
 173:Core/Src/ADBMS.cpp ****         ic[cic].cccrc.cmd_cntr = cmd_count[cic];
 1221              		.loc 1 173 9 is_stmt 1 discriminator 3 view .LVU341
 173:Core/Src/ADBMS.cpp ****         ic[cic].cccrc.cmd_cntr = cmd_count[cic];
 1222              		.loc 1 173 15 is_stmt 0 discriminator 3 view .LVU342
 1223 01dc 4FF42872 		mov	r2, #672
 1224 01e0 02FB0372 		mla	r2, r2, r3, r7
 173:Core/Src/ADBMS.cpp ****         ic[cic].cccrc.cmd_cntr = cmd_count[cic];
 1225              		.loc 1 173 46 discriminator 3 view .LVU343
 1226 01e4 E95C     		ldrb	r1, [r5, r3]	@ zero_extendqisi2
 173:Core/Src/ADBMS.cpp ****         ic[cic].cccrc.cmd_cntr = cmd_count[cic];
 1227              		.loc 1 173 31 discriminator 3 view .LVU344
 1228 01e6 82F89511 		strb	r1, [r2, #405]
 174:Core/Src/ADBMS.cpp ****       }
 1229              		.loc 1 174 9 is_stmt 1 discriminator 3 view .LVU345
 174:Core/Src/ADBMS.cpp ****       }
 1230              		.loc 1 174 47 is_stmt 0 discriminator 3 view .LVU346
 1231 01ea F15C     		ldrb	r1, [r6, r3]	@ zero_extendqisi2
 174:Core/Src/ADBMS.cpp ****       }
 1232              		.loc 1 174 32 discriminator 3 view .LVU347
 1233 01ec 82F88F11 		strb	r1, [r2, #399]
 171:Core/Src/ADBMS.cpp ****       {
 1234              		.loc 1 171 7 is_stmt 1 discriminator 3 view .LVU348
 1235 01f0 0133     		adds	r3, r3, #1
 1236              	.LVL138:
 171:Core/Src/ADBMS.cpp ****       {
 1237              		.loc 1 171 7 is_stmt 0 discriminator 3 view .LVU349
 1238 01f2 DBB2     		uxtb	r3, r3
ARM GAS  C:\Users\huawei\AppData\Local\Temp\ccpVCJY0.s 			page 40


 1239              	.LVL139:
 1240              	.L91:
 171:Core/Src/ADBMS.cpp ****       {
 1241              		.loc 1 171 33 is_stmt 1 discriminator 1 view .LVU350
 1242 01f4 A342     		cmp	r3, r4
 1243 01f6 F1D3     		bcc	.L92
 1244 01f8 7DE7     		b	.L61
 1245              	.LVL140:
 1246              	.L78:
 171:Core/Src/ADBMS.cpp ****       {
 1247              		.loc 1 171 33 is_stmt 0 discriminator 1 view .LVU351
 1248              	.LBE34:
 178:Core/Src/ADBMS.cpp ****       adBms6830ParseRAux(tIC, ic, group, &read_buffer[0]);
 1249              		.loc 1 178 5 is_stmt 1 view .LVU352
 179:Core/Src/ADBMS.cpp ****       for (uint8_t cic = 0; cic < tIC; cic++)
 1250              		.loc 1 179 7 view .LVU353
 179:Core/Src/ADBMS.cpp ****       for (uint8_t cic = 0; cic < tIC; cic++)
 1251              		.loc 1 179 25 is_stmt 0 view .LVU354
 1252 01fa 4B46     		mov	r3, r9
 1253 01fc 5A46     		mov	r2, fp
 1254 01fe 3946     		mov	r1, r7
 1255 0200 2046     		mov	r0, r4
 1256 0202 FFF7FEFF 		bl	_Z18adBms6830ParseRAuxhP9cell_asic3GRPPh
 1257              	.LVL141:
 180:Core/Src/ADBMS.cpp ****       {
 1258              		.loc 1 180 7 is_stmt 1 view .LVU355
 1259              	.LBB35:
 180:Core/Src/ADBMS.cpp ****       {
 1260              		.loc 1 180 20 is_stmt 0 view .LVU356
 1261 0206 0023     		movs	r3, #0
 180:Core/Src/ADBMS.cpp ****       {
 1262              		.loc 1 180 7 view .LVU357
 1263 0208 0BE0     		b	.L93
 1264              	.LVL142:
 1265              	.L94:
 182:Core/Src/ADBMS.cpp ****         ic[cic].cccrc.cmd_cntr = cmd_count[cic];
 1266              		.loc 1 182 9 is_stmt 1 discriminator 3 view .LVU358
 182:Core/Src/ADBMS.cpp ****         ic[cic].cccrc.cmd_cntr = cmd_count[cic];
 1267              		.loc 1 182 15 is_stmt 0 discriminator 3 view .LVU359
 1268 020a 4FF42872 		mov	r2, #672
 1269 020e 02FB0372 		mla	r2, r2, r3, r7
 182:Core/Src/ADBMS.cpp ****         ic[cic].cccrc.cmd_cntr = cmd_count[cic];
 1270              		.loc 1 182 47 discriminator 3 view .LVU360
 1271 0212 E95C     		ldrb	r1, [r5, r3]	@ zero_extendqisi2
 182:Core/Src/ADBMS.cpp ****         ic[cic].cccrc.cmd_cntr = cmd_count[cic];
 1272              		.loc 1 182 32 discriminator 3 view .LVU361
 1273 0214 82F89611 		strb	r1, [r2, #406]
 183:Core/Src/ADBMS.cpp ****       }
 1274              		.loc 1 183 9 is_stmt 1 discriminator 3 view .LVU362
 183:Core/Src/ADBMS.cpp ****       }
 1275              		.loc 1 183 47 is_stmt 0 discriminator 3 view .LVU363
 1276 0218 F15C     		ldrb	r1, [r6, r3]	@ zero_extendqisi2
 183:Core/Src/ADBMS.cpp ****       }
 1277              		.loc 1 183 32 discriminator 3 view .LVU364
 1278 021a 82F88F11 		strb	r1, [r2, #399]
 180:Core/Src/ADBMS.cpp ****       {
 1279              		.loc 1 180 7 is_stmt 1 discriminator 3 view .LVU365
ARM GAS  C:\Users\huawei\AppData\Local\Temp\ccpVCJY0.s 			page 41


 1280 021e 0133     		adds	r3, r3, #1
 1281              	.LVL143:
 180:Core/Src/ADBMS.cpp ****       {
 1282              		.loc 1 180 7 is_stmt 0 discriminator 3 view .LVU366
 1283 0220 DBB2     		uxtb	r3, r3
 1284              	.LVL144:
 1285              	.L93:
 180:Core/Src/ADBMS.cpp ****       {
 1286              		.loc 1 180 33 is_stmt 1 discriminator 1 view .LVU367
 1287 0222 A342     		cmp	r3, r4
 1288 0224 F1D3     		bcc	.L94
 1289 0226 66E7     		b	.L61
 1290              	.LVL145:
 1291              	.L77:
 180:Core/Src/ADBMS.cpp ****       {
 1292              		.loc 1 180 33 is_stmt 0 discriminator 1 view .LVU368
 1293              	.LBE35:
 187:Core/Src/ADBMS.cpp ****       adBms6830ParseStatus(tIC, ic, group, &read_buffer[0]);
 1294              		.loc 1 187 5 is_stmt 1 view .LVU369
 188:Core/Src/ADBMS.cpp ****       for (uint8_t cic = 0; cic < tIC; cic++)
 1295              		.loc 1 188 7 view .LVU370
 188:Core/Src/ADBMS.cpp ****       for (uint8_t cic = 0; cic < tIC; cic++)
 1296              		.loc 1 188 27 is_stmt 0 view .LVU371
 1297 0228 4B46     		mov	r3, r9
 1298 022a 5A46     		mov	r2, fp
 1299 022c 3946     		mov	r1, r7
 1300 022e 2046     		mov	r0, r4
 1301 0230 FFF7FEFF 		bl	_Z20adBms6830ParseStatushP9cell_asic3GRPPh
 1302              	.LVL146:
 189:Core/Src/ADBMS.cpp ****       {
 1303              		.loc 1 189 7 is_stmt 1 view .LVU372
 1304              	.LBB36:
 189:Core/Src/ADBMS.cpp ****       {
 1305              		.loc 1 189 20 is_stmt 0 view .LVU373
 1306 0234 0023     		movs	r3, #0
 189:Core/Src/ADBMS.cpp ****       {
 1307              		.loc 1 189 7 view .LVU374
 1308 0236 0BE0     		b	.L95
 1309              	.LVL147:
 1310              	.L96:
 191:Core/Src/ADBMS.cpp ****         ic[cic].cccrc.cmd_cntr = cmd_count[cic];
 1311              		.loc 1 191 9 is_stmt 1 discriminator 3 view .LVU375
 191:Core/Src/ADBMS.cpp ****         ic[cic].cccrc.cmd_cntr = cmd_count[cic];
 1312              		.loc 1 191 15 is_stmt 0 discriminator 3 view .LVU376
 1313 0238 4FF42872 		mov	r2, #672
 1314 023c 02FB0372 		mla	r2, r2, r3, r7
 191:Core/Src/ADBMS.cpp ****         ic[cic].cccrc.cmd_cntr = cmd_count[cic];
 1315              		.loc 1 191 47 discriminator 3 view .LVU377
 1316 0240 E95C     		ldrb	r1, [r5, r3]	@ zero_extendqisi2
 191:Core/Src/ADBMS.cpp ****         ic[cic].cccrc.cmd_cntr = cmd_count[cic];
 1317              		.loc 1 191 32 discriminator 3 view .LVU378
 1318 0242 82F89711 		strb	r1, [r2, #407]
 192:Core/Src/ADBMS.cpp ****       }
 1319              		.loc 1 192 9 is_stmt 1 discriminator 3 view .LVU379
 192:Core/Src/ADBMS.cpp ****       }
 1320              		.loc 1 192 47 is_stmt 0 discriminator 3 view .LVU380
 1321 0246 F15C     		ldrb	r1, [r6, r3]	@ zero_extendqisi2
ARM GAS  C:\Users\huawei\AppData\Local\Temp\ccpVCJY0.s 			page 42


 192:Core/Src/ADBMS.cpp ****       }
 1322              		.loc 1 192 32 discriminator 3 view .LVU381
 1323 0248 82F88F11 		strb	r1, [r2, #399]
 189:Core/Src/ADBMS.cpp ****       {
 1324              		.loc 1 189 7 is_stmt 1 discriminator 3 view .LVU382
 1325 024c 0133     		adds	r3, r3, #1
 1326              	.LVL148:
 189:Core/Src/ADBMS.cpp ****       {
 1327              		.loc 1 189 7 is_stmt 0 discriminator 3 view .LVU383
 1328 024e DBB2     		uxtb	r3, r3
 1329              	.LVL149:
 1330              	.L95:
 189:Core/Src/ADBMS.cpp ****       {
 1331              		.loc 1 189 33 is_stmt 1 discriminator 1 view .LVU384
 1332 0250 A342     		cmp	r3, r4
 1333 0252 F1D3     		bcc	.L96
 1334 0254 4FE7     		b	.L61
 1335              	.LVL150:
 1336              	.L71:
 189:Core/Src/ADBMS.cpp ****       {
 1337              		.loc 1 189 33 is_stmt 0 discriminator 1 view .LVU385
 1338              	.LBE36:
 196:Core/Src/ADBMS.cpp ****       adBms6830ParseComm(tIC, ic, &read_buffer[0]);
 1339              		.loc 1 196 5 is_stmt 1 view .LVU386
 197:Core/Src/ADBMS.cpp ****       for (uint8_t cic = 0; cic < tIC; cic++)
 1340              		.loc 1 197 7 view .LVU387
 197:Core/Src/ADBMS.cpp ****       for (uint8_t cic = 0; cic < tIC; cic++)
 1341              		.loc 1 197 25 is_stmt 0 view .LVU388
 1342 0256 4A46     		mov	r2, r9
 1343 0258 3946     		mov	r1, r7
 1344 025a 2046     		mov	r0, r4
 1345 025c FFF7FEFF 		bl	_Z18adBms6830ParseCommhP9cell_asicPh
 1346              	.LVL151:
 198:Core/Src/ADBMS.cpp ****       {
 1347              		.loc 1 198 7 is_stmt 1 view .LVU389
 1348              	.LBB37:
 198:Core/Src/ADBMS.cpp ****       {
 1349              		.loc 1 198 20 is_stmt 0 view .LVU390
 1350 0260 0023     		movs	r3, #0
 198:Core/Src/ADBMS.cpp ****       {
 1351              		.loc 1 198 7 view .LVU391
 1352 0262 0BE0     		b	.L97
 1353              	.LVL152:
 1354              	.L98:
 200:Core/Src/ADBMS.cpp ****         ic[cic].cccrc.cmd_cntr = cmd_count[cic];
 1355              		.loc 1 200 9 is_stmt 1 discriminator 3 view .LVU392
 200:Core/Src/ADBMS.cpp ****         ic[cic].cccrc.cmd_cntr = cmd_count[cic];
 1356              		.loc 1 200 15 is_stmt 0 discriminator 3 view .LVU393
 1357 0264 4FF42872 		mov	r2, #672
 1358 0268 02FB0372 		mla	r2, r2, r3, r7
 200:Core/Src/ADBMS.cpp ****         ic[cic].cccrc.cmd_cntr = cmd_count[cic];
 1359              		.loc 1 200 47 discriminator 3 view .LVU394
 1360 026c E95C     		ldrb	r1, [r5, r3]	@ zero_extendqisi2
 200:Core/Src/ADBMS.cpp ****         ic[cic].cccrc.cmd_cntr = cmd_count[cic];
 1361              		.loc 1 200 32 discriminator 3 view .LVU395
 1362 026e 82F89811 		strb	r1, [r2, #408]
 201:Core/Src/ADBMS.cpp ****       }
ARM GAS  C:\Users\huawei\AppData\Local\Temp\ccpVCJY0.s 			page 43


 1363              		.loc 1 201 9 is_stmt 1 discriminator 3 view .LVU396
 201:Core/Src/ADBMS.cpp ****       }
 1364              		.loc 1 201 47 is_stmt 0 discriminator 3 view .LVU397
 1365 0272 F15C     		ldrb	r1, [r6, r3]	@ zero_extendqisi2
 201:Core/Src/ADBMS.cpp ****       }
 1366              		.loc 1 201 32 discriminator 3 view .LVU398
 1367 0274 82F88F11 		strb	r1, [r2, #399]
 198:Core/Src/ADBMS.cpp ****       {
 1368              		.loc 1 198 7 is_stmt 1 discriminator 3 view .LVU399
 1369 0278 0133     		adds	r3, r3, #1
 1370              	.LVL153:
 198:Core/Src/ADBMS.cpp ****       {
 1371              		.loc 1 198 7 is_stmt 0 discriminator 3 view .LVU400
 1372 027a DBB2     		uxtb	r3, r3
 1373              	.LVL154:
 1374              	.L97:
 198:Core/Src/ADBMS.cpp ****       {
 1375              		.loc 1 198 33 is_stmt 1 discriminator 1 view .LVU401
 1376 027c A342     		cmp	r3, r4
 1377 027e F1D3     		bcc	.L98
 1378 0280 39E7     		b	.L61
 1379              	.LVL155:
 1380              	.L76:
 198:Core/Src/ADBMS.cpp ****       {
 1381              		.loc 1 198 33 is_stmt 0 discriminator 1 view .LVU402
 1382              	.LBE37:
 205:Core/Src/ADBMS.cpp ****       adBms6830ParsePwm(tIC, ic, group, &read_buffer[0]);
 1383              		.loc 1 205 5 is_stmt 1 view .LVU403
 206:Core/Src/ADBMS.cpp ****       for (uint8_t cic = 0; cic < tIC; cic++)
 1384              		.loc 1 206 7 view .LVU404
 206:Core/Src/ADBMS.cpp ****       for (uint8_t cic = 0; cic < tIC; cic++)
 1385              		.loc 1 206 24 is_stmt 0 view .LVU405
 1386 0282 4B46     		mov	r3, r9
 1387 0284 5A46     		mov	r2, fp
 1388 0286 3946     		mov	r1, r7
 1389 0288 2046     		mov	r0, r4
 1390 028a FFF7FEFF 		bl	_Z17adBms6830ParsePwmhP9cell_asic3GRPPh
 1391              	.LVL156:
 207:Core/Src/ADBMS.cpp ****       {
 1392              		.loc 1 207 7 is_stmt 1 view .LVU406
 1393              	.LBB38:
 207:Core/Src/ADBMS.cpp ****       {
 1394              		.loc 1 207 20 is_stmt 0 view .LVU407
 1395 028e 0023     		movs	r3, #0
 207:Core/Src/ADBMS.cpp ****       {
 1396              		.loc 1 207 7 view .LVU408
 1397 0290 0BE0     		b	.L99
 1398              	.LVL157:
 1399              	.L100:
 209:Core/Src/ADBMS.cpp ****         ic[cic].cccrc.cmd_cntr = cmd_count[cic];
 1400              		.loc 1 209 9 is_stmt 1 discriminator 3 view .LVU409
 209:Core/Src/ADBMS.cpp ****         ic[cic].cccrc.cmd_cntr = cmd_count[cic];
 1401              		.loc 1 209 15 is_stmt 0 discriminator 3 view .LVU410
 1402 0292 4FF42872 		mov	r2, #672
 1403 0296 02FB0372 		mla	r2, r2, r3, r7
 209:Core/Src/ADBMS.cpp ****         ic[cic].cccrc.cmd_cntr = cmd_count[cic];
 1404              		.loc 1 209 46 discriminator 3 view .LVU411
ARM GAS  C:\Users\huawei\AppData\Local\Temp\ccpVCJY0.s 			page 44


 1405 029a E95C     		ldrb	r1, [r5, r3]	@ zero_extendqisi2
 209:Core/Src/ADBMS.cpp ****         ic[cic].cccrc.cmd_cntr = cmd_count[cic];
 1406              		.loc 1 209 31 discriminator 3 view .LVU412
 1407 029c 82F89911 		strb	r1, [r2, #409]
 210:Core/Src/ADBMS.cpp ****       }
 1408              		.loc 1 210 9 is_stmt 1 discriminator 3 view .LVU413
 210:Core/Src/ADBMS.cpp ****       }
 1409              		.loc 1 210 47 is_stmt 0 discriminator 3 view .LVU414
 1410 02a0 F15C     		ldrb	r1, [r6, r3]	@ zero_extendqisi2
 210:Core/Src/ADBMS.cpp ****       }
 1411              		.loc 1 210 32 discriminator 3 view .LVU415
 1412 02a2 82F88F11 		strb	r1, [r2, #399]
 207:Core/Src/ADBMS.cpp ****       {
 1413              		.loc 1 207 7 is_stmt 1 discriminator 3 view .LVU416
 1414 02a6 0133     		adds	r3, r3, #1
 1415              	.LVL158:
 207:Core/Src/ADBMS.cpp ****       {
 1416              		.loc 1 207 7 is_stmt 0 discriminator 3 view .LVU417
 1417 02a8 DBB2     		uxtb	r3, r3
 1418              	.LVL159:
 1419              	.L99:
 207:Core/Src/ADBMS.cpp ****       {
 1420              		.loc 1 207 33 is_stmt 1 discriminator 1 view .LVU418
 1421 02aa A342     		cmp	r3, r4
 1422 02ac F1D3     		bcc	.L100
 1423 02ae 22E7     		b	.L61
 1424              	.LVL160:
 1425              	.L70:
 207:Core/Src/ADBMS.cpp ****       {
 1426              		.loc 1 207 33 is_stmt 0 discriminator 1 view .LVU419
 1427              	.LBE38:
 214:Core/Src/ADBMS.cpp ****       adBms6830ParseSID(tIC, ic, &read_buffer[0]);
 1428              		.loc 1 214 5 is_stmt 1 view .LVU420
 215:Core/Src/ADBMS.cpp ****       for (uint8_t cic = 0; cic < tIC; cic++)
 1429              		.loc 1 215 7 view .LVU421
 215:Core/Src/ADBMS.cpp ****       for (uint8_t cic = 0; cic < tIC; cic++)
 1430              		.loc 1 215 24 is_stmt 0 view .LVU422
 1431 02b0 4A46     		mov	r2, r9
 1432 02b2 3946     		mov	r1, r7
 1433 02b4 2046     		mov	r0, r4
 1434 02b6 FFF7FEFF 		bl	_Z17adBms6830ParseSIDhP9cell_asicPh
 1435              	.LVL161:
 216:Core/Src/ADBMS.cpp ****       {
 1436              		.loc 1 216 7 is_stmt 1 view .LVU423
 1437              	.LBB39:
 216:Core/Src/ADBMS.cpp ****       {
 1438              		.loc 1 216 20 is_stmt 0 view .LVU424
 1439 02ba 0023     		movs	r3, #0
 216:Core/Src/ADBMS.cpp ****       {
 1440              		.loc 1 216 7 view .LVU425
 1441 02bc 0BE0     		b	.L101
 1442              	.LVL162:
 1443              	.L102:
 218:Core/Src/ADBMS.cpp ****         ic[cic].cccrc.cmd_cntr = cmd_count[cic];
 1444              		.loc 1 218 9 is_stmt 1 discriminator 3 view .LVU426
 218:Core/Src/ADBMS.cpp ****         ic[cic].cccrc.cmd_cntr = cmd_count[cic];
 1445              		.loc 1 218 15 is_stmt 0 discriminator 3 view .LVU427
ARM GAS  C:\Users\huawei\AppData\Local\Temp\ccpVCJY0.s 			page 45


 1446 02be 4FF42872 		mov	r2, #672
 1447 02c2 02FB0372 		mla	r2, r2, r3, r7
 218:Core/Src/ADBMS.cpp ****         ic[cic].cccrc.cmd_cntr = cmd_count[cic];
 1448              		.loc 1 218 46 discriminator 3 view .LVU428
 1449 02c6 E95C     		ldrb	r1, [r5, r3]	@ zero_extendqisi2
 218:Core/Src/ADBMS.cpp ****         ic[cic].cccrc.cmd_cntr = cmd_count[cic];
 1450              		.loc 1 218 31 discriminator 3 view .LVU429
 1451 02c8 82F89A11 		strb	r1, [r2, #410]
 219:Core/Src/ADBMS.cpp ****       }
 1452              		.loc 1 219 9 is_stmt 1 discriminator 3 view .LVU430
 219:Core/Src/ADBMS.cpp ****       }
 1453              		.loc 1 219 47 is_stmt 0 discriminator 3 view .LVU431
 1454 02cc F15C     		ldrb	r1, [r6, r3]	@ zero_extendqisi2
 219:Core/Src/ADBMS.cpp ****       }
 1455              		.loc 1 219 32 discriminator 3 view .LVU432
 1456 02ce 82F88F11 		strb	r1, [r2, #399]
 216:Core/Src/ADBMS.cpp ****       {
 1457              		.loc 1 216 7 is_stmt 1 discriminator 3 view .LVU433
 1458 02d2 0133     		adds	r3, r3, #1
 1459              	.LVL163:
 216:Core/Src/ADBMS.cpp ****       {
 1460              		.loc 1 216 7 is_stmt 0 discriminator 3 view .LVU434
 1461 02d4 DBB2     		uxtb	r3, r3
 1462              	.LVL164:
 1463              	.L101:
 216:Core/Src/ADBMS.cpp ****       {
 1464              		.loc 1 216 33 is_stmt 1 discriminator 1 view .LVU435
 1465 02d6 A342     		cmp	r3, r4
 1466 02d8 F1D3     		bcc	.L102
 1467 02da 0CE7     		b	.L61
 1468              	.LVL165:
 1469              	.L69:
 216:Core/Src/ADBMS.cpp ****       {
 1470              		.loc 1 216 33 is_stmt 0 discriminator 1 view .LVU436
 1471              	.LBE39:
 223:Core/Src/ADBMS.cpp ****       /* 32 byte cell data + 2 byte pec */
 1472              		.loc 1 223 5 is_stmt 1 view .LVU437
 225:Core/Src/ADBMS.cpp ****       for (uint8_t cic = 0; cic < tIC; cic++)
 1473              		.loc 1 225 7 view .LVU438
 225:Core/Src/ADBMS.cpp ****       for (uint8_t cic = 0; cic < tIC; cic++)
 1474              		.loc 1 225 25 is_stmt 0 view .LVU439
 1475 02dc 4B46     		mov	r3, r9
 1476 02de 5A46     		mov	r2, fp
 1477 02e0 3946     		mov	r1, r7
 1478 02e2 2046     		mov	r0, r4
 1479 02e4 FFF7FEFF 		bl	_Z18adBms6830ParseCellhP9cell_asic3GRPPh
 1480              	.LVL166:
 226:Core/Src/ADBMS.cpp ****       {
 1481              		.loc 1 226 7 is_stmt 1 view .LVU440
 1482              	.LBB40:
 226:Core/Src/ADBMS.cpp ****       {
 1483              		.loc 1 226 20 is_stmt 0 view .LVU441
 1484 02e8 0023     		movs	r3, #0
 226:Core/Src/ADBMS.cpp ****       {
 1485              		.loc 1 226 7 view .LVU442
 1486 02ea 0BE0     		b	.L103
 1487              	.LVL167:
ARM GAS  C:\Users\huawei\AppData\Local\Temp\ccpVCJY0.s 			page 46


 1488              	.L104:
 228:Core/Src/ADBMS.cpp ****         ic[cic].cccrc.cmd_cntr = cmd_count[cic];
 1489              		.loc 1 228 9 is_stmt 1 discriminator 3 view .LVU443
 228:Core/Src/ADBMS.cpp ****         ic[cic].cccrc.cmd_cntr = cmd_count[cic];
 1490              		.loc 1 228 15 is_stmt 0 discriminator 3 view .LVU444
 1491 02ec 4FF42872 		mov	r2, #672
 1492 02f0 02FB0372 		mla	r2, r2, r3, r7
 228:Core/Src/ADBMS.cpp ****         ic[cic].cccrc.cmd_cntr = cmd_count[cic];
 1493              		.loc 1 228 47 discriminator 3 view .LVU445
 1494 02f4 E95C     		ldrb	r1, [r5, r3]	@ zero_extendqisi2
 228:Core/Src/ADBMS.cpp ****         ic[cic].cccrc.cmd_cntr = cmd_count[cic];
 1495              		.loc 1 228 32 discriminator 3 view .LVU446
 1496 02f6 82F89111 		strb	r1, [r2, #401]
 229:Core/Src/ADBMS.cpp ****       }
 1497              		.loc 1 229 9 is_stmt 1 discriminator 3 view .LVU447
 229:Core/Src/ADBMS.cpp ****       }
 1498              		.loc 1 229 47 is_stmt 0 discriminator 3 view .LVU448
 1499 02fa F15C     		ldrb	r1, [r6, r3]	@ zero_extendqisi2
 229:Core/Src/ADBMS.cpp ****       }
 1500              		.loc 1 229 32 discriminator 3 view .LVU449
 1501 02fc 82F88F11 		strb	r1, [r2, #399]
 226:Core/Src/ADBMS.cpp ****       {
 1502              		.loc 1 226 7 is_stmt 1 discriminator 3 view .LVU450
 1503 0300 0133     		adds	r3, r3, #1
 1504              	.LVL168:
 226:Core/Src/ADBMS.cpp ****       {
 1505              		.loc 1 226 7 is_stmt 0 discriminator 3 view .LVU451
 1506 0302 DBB2     		uxtb	r3, r3
 1507              	.LVL169:
 1508              	.L103:
 226:Core/Src/ADBMS.cpp ****       {
 1509              		.loc 1 226 33 is_stmt 1 discriminator 1 view .LVU452
 1510 0304 A342     		cmp	r3, r4
 1511 0306 F1D3     		bcc	.L104
 1512 0308 F5E6     		b	.L61
 1513              	.LVL170:
 1514              	.L68:
 226:Core/Src/ADBMS.cpp ****       {
 1515              		.loc 1 226 33 is_stmt 0 discriminator 1 view .LVU453
 1516              	.LBE40:
 233:Core/Src/ADBMS.cpp ****       /* 32 byte avg cell data + 2 byte pec */
 1517              		.loc 1 233 5 is_stmt 1 view .LVU454
 235:Core/Src/ADBMS.cpp ****       for (uint8_t cic = 0; cic < tIC; cic++)
 1518              		.loc 1 235 7 view .LVU455
 235:Core/Src/ADBMS.cpp ****       for (uint8_t cic = 0; cic < tIC; cic++)
 1519              		.loc 1 235 32 is_stmt 0 view .LVU456
 1520 030a 4B46     		mov	r3, r9
 1521 030c 5A46     		mov	r2, fp
 1522 030e 3946     		mov	r1, r7
 1523 0310 2046     		mov	r0, r4
 1524 0312 FFF7FEFF 		bl	_Z25adBms6830ParseAverageCellhP9cell_asic3GRPPh
 1525              	.LVL171:
 236:Core/Src/ADBMS.cpp ****       {
 1526              		.loc 1 236 7 is_stmt 1 view .LVU457
 1527              	.LBB41:
 236:Core/Src/ADBMS.cpp ****       {
 1528              		.loc 1 236 20 is_stmt 0 view .LVU458
ARM GAS  C:\Users\huawei\AppData\Local\Temp\ccpVCJY0.s 			page 47


 1529 0316 0023     		movs	r3, #0
 236:Core/Src/ADBMS.cpp ****       {
 1530              		.loc 1 236 7 view .LVU459
 1531 0318 0BE0     		b	.L105
 1532              	.LVL172:
 1533              	.L106:
 238:Core/Src/ADBMS.cpp ****         ic[cic].cccrc.cmd_cntr = cmd_count[cic];
 1534              		.loc 1 238 9 is_stmt 1 discriminator 3 view .LVU460
 238:Core/Src/ADBMS.cpp ****         ic[cic].cccrc.cmd_cntr = cmd_count[cic];
 1535              		.loc 1 238 15 is_stmt 0 discriminator 3 view .LVU461
 1536 031a 4FF42872 		mov	r2, #672
 1537 031e 02FB0372 		mla	r2, r2, r3, r7
 238:Core/Src/ADBMS.cpp ****         ic[cic].cccrc.cmd_cntr = cmd_count[cic];
 1538              		.loc 1 238 48 discriminator 3 view .LVU462
 1539 0322 E95C     		ldrb	r1, [r5, r3]	@ zero_extendqisi2
 238:Core/Src/ADBMS.cpp ****         ic[cic].cccrc.cmd_cntr = cmd_count[cic];
 1540              		.loc 1 238 33 discriminator 3 view .LVU463
 1541 0324 82F89211 		strb	r1, [r2, #402]
 239:Core/Src/ADBMS.cpp ****       }
 1542              		.loc 1 239 9 is_stmt 1 discriminator 3 view .LVU464
 239:Core/Src/ADBMS.cpp ****       }
 1543              		.loc 1 239 47 is_stmt 0 discriminator 3 view .LVU465
 1544 0328 F15C     		ldrb	r1, [r6, r3]	@ zero_extendqisi2
 239:Core/Src/ADBMS.cpp ****       }
 1545              		.loc 1 239 32 discriminator 3 view .LVU466
 1546 032a 82F88F11 		strb	r1, [r2, #399]
 236:Core/Src/ADBMS.cpp ****       {
 1547              		.loc 1 236 7 is_stmt 1 discriminator 3 view .LVU467
 1548 032e 0133     		adds	r3, r3, #1
 1549              	.LVL173:
 236:Core/Src/ADBMS.cpp ****       {
 1550              		.loc 1 236 7 is_stmt 0 discriminator 3 view .LVU468
 1551 0330 DBB2     		uxtb	r3, r3
 1552              	.LVL174:
 1553              	.L105:
 236:Core/Src/ADBMS.cpp ****       {
 1554              		.loc 1 236 33 is_stmt 1 discriminator 1 view .LVU469
 1555 0332 A342     		cmp	r3, r4
 1556 0334 F1D3     		bcc	.L106
 1557 0336 DEE6     		b	.L61
 1558              	.L129:
 1559              		.align	2
 1560              	.L128:
 1561 0338 00000000 		.word	.LC1
 1562 033c 20000000 		.word	.LC2
 1563              	.LVL175:
 1564              	.L67:
 236:Core/Src/ADBMS.cpp ****       {
 1565              		.loc 1 236 33 is_stmt 0 discriminator 1 view .LVU470
 1566              	.LBE41:
 243:Core/Src/ADBMS.cpp ****       /* 32 byte scell volt data + 2 byte pec */
 1567              		.loc 1 243 5 is_stmt 1 view .LVU471
 245:Core/Src/ADBMS.cpp ****       for (uint8_t cic = 0; cic < tIC; cic++)
 1568              		.loc 1 245 7 view .LVU472
 245:Core/Src/ADBMS.cpp ****       for (uint8_t cic = 0; cic < tIC; cic++)
 1569              		.loc 1 245 26 is_stmt 0 view .LVU473
 1570 0340 4B46     		mov	r3, r9
ARM GAS  C:\Users\huawei\AppData\Local\Temp\ccpVCJY0.s 			page 48


 1571 0342 5A46     		mov	r2, fp
 1572 0344 3946     		mov	r1, r7
 1573 0346 2046     		mov	r0, r4
 1574 0348 FFF7FEFF 		bl	_Z19adBms6830ParseSCellhP9cell_asic3GRPPh
 1575              	.LVL176:
 246:Core/Src/ADBMS.cpp ****       {
 1576              		.loc 1 246 7 is_stmt 1 view .LVU474
 1577              	.LBB42:
 246:Core/Src/ADBMS.cpp ****       {
 1578              		.loc 1 246 20 is_stmt 0 view .LVU475
 1579 034c 0023     		movs	r3, #0
 246:Core/Src/ADBMS.cpp ****       {
 1580              		.loc 1 246 7 view .LVU476
 1581 034e 0BE0     		b	.L107
 1582              	.LVL177:
 1583              	.L108:
 248:Core/Src/ADBMS.cpp ****         ic[cic].cccrc.cmd_cntr = cmd_count[cic];
 1584              		.loc 1 248 9 is_stmt 1 discriminator 3 view .LVU477
 248:Core/Src/ADBMS.cpp ****         ic[cic].cccrc.cmd_cntr = cmd_count[cic];
 1585              		.loc 1 248 15 is_stmt 0 discriminator 3 view .LVU478
 1586 0350 4FF42872 		mov	r2, #672
 1587 0354 02FB0372 		mla	r2, r2, r3, r7
 248:Core/Src/ADBMS.cpp ****         ic[cic].cccrc.cmd_cntr = cmd_count[cic];
 1588              		.loc 1 248 48 discriminator 3 view .LVU479
 1589 0358 E95C     		ldrb	r1, [r5, r3]	@ zero_extendqisi2
 248:Core/Src/ADBMS.cpp ****         ic[cic].cccrc.cmd_cntr = cmd_count[cic];
 1590              		.loc 1 248 33 discriminator 3 view .LVU480
 1591 035a 82F89311 		strb	r1, [r2, #403]
 249:Core/Src/ADBMS.cpp ****       }
 1592              		.loc 1 249 9 is_stmt 1 discriminator 3 view .LVU481
 249:Core/Src/ADBMS.cpp ****       }
 1593              		.loc 1 249 47 is_stmt 0 discriminator 3 view .LVU482
 1594 035e F15C     		ldrb	r1, [r6, r3]	@ zero_extendqisi2
 249:Core/Src/ADBMS.cpp ****       }
 1595              		.loc 1 249 32 discriminator 3 view .LVU483
 1596 0360 82F88F11 		strb	r1, [r2, #399]
 246:Core/Src/ADBMS.cpp ****       {
 1597              		.loc 1 246 7 is_stmt 1 discriminator 3 view .LVU484
 1598 0364 0133     		adds	r3, r3, #1
 1599              	.LVL178:
 246:Core/Src/ADBMS.cpp ****       {
 1600              		.loc 1 246 7 is_stmt 0 discriminator 3 view .LVU485
 1601 0366 DBB2     		uxtb	r3, r3
 1602              	.LVL179:
 1603              	.L107:
 246:Core/Src/ADBMS.cpp ****       {
 1604              		.loc 1 246 33 is_stmt 1 discriminator 1 view .LVU486
 1605 0368 A342     		cmp	r3, r4
 1606 036a F1D3     		bcc	.L108
 1607 036c C3E6     		b	.L61
 1608              	.LVL180:
 1609              	.L64:
 246:Core/Src/ADBMS.cpp ****       {
 1610              		.loc 1 246 33 is_stmt 0 discriminator 1 view .LVU487
 1611              	.LBE42:
 253:Core/Src/ADBMS.cpp ****       /* 32 byte fcell data + 2 byte pec */
 1612              		.loc 1 253 5 is_stmt 1 view .LVU488
ARM GAS  C:\Users\huawei\AppData\Local\Temp\ccpVCJY0.s 			page 49


 255:Core/Src/ADBMS.cpp ****       for (uint8_t cic = 0; cic < tIC; cic++)
 1613              		.loc 1 255 7 view .LVU489
 255:Core/Src/ADBMS.cpp ****       for (uint8_t cic = 0; cic < tIC; cic++)
 1614              		.loc 1 255 26 is_stmt 0 view .LVU490
 1615 036e 4B46     		mov	r3, r9
 1616 0370 5A46     		mov	r2, fp
 1617 0372 3946     		mov	r1, r7
 1618 0374 2046     		mov	r0, r4
 1619 0376 FFF7FEFF 		bl	_Z19adBms6830ParseFCellhP9cell_asic3GRPPh
 1620              	.LVL181:
 256:Core/Src/ADBMS.cpp ****       {
 1621              		.loc 1 256 7 is_stmt 1 view .LVU491
 1622              	.LBB43:
 256:Core/Src/ADBMS.cpp ****       {
 1623              		.loc 1 256 20 is_stmt 0 view .LVU492
 1624 037a 0023     		movs	r3, #0
 256:Core/Src/ADBMS.cpp ****       {
 1625              		.loc 1 256 7 view .LVU493
 1626 037c 0BE0     		b	.L109
 1627              	.LVL182:
 1628              	.L110:
 258:Core/Src/ADBMS.cpp ****         ic[cic].cccrc.cmd_cntr = cmd_count[cic];
 1629              		.loc 1 258 9 is_stmt 1 discriminator 3 view .LVU494
 258:Core/Src/ADBMS.cpp ****         ic[cic].cccrc.cmd_cntr = cmd_count[cic];
 1630              		.loc 1 258 15 is_stmt 0 discriminator 3 view .LVU495
 1631 037e 4FF42872 		mov	r2, #672
 1632 0382 02FB0372 		mla	r2, r2, r3, r7
 258:Core/Src/ADBMS.cpp ****         ic[cic].cccrc.cmd_cntr = cmd_count[cic];
 1633              		.loc 1 258 48 discriminator 3 view .LVU496
 1634 0386 E95C     		ldrb	r1, [r5, r3]	@ zero_extendqisi2
 258:Core/Src/ADBMS.cpp ****         ic[cic].cccrc.cmd_cntr = cmd_count[cic];
 1635              		.loc 1 258 33 discriminator 3 view .LVU497
 1636 0388 82F89411 		strb	r1, [r2, #404]
 259:Core/Src/ADBMS.cpp ****       }
 1637              		.loc 1 259 9 is_stmt 1 discriminator 3 view .LVU498
 259:Core/Src/ADBMS.cpp ****       }
 1638              		.loc 1 259 47 is_stmt 0 discriminator 3 view .LVU499
 1639 038c F15C     		ldrb	r1, [r6, r3]	@ zero_extendqisi2
 259:Core/Src/ADBMS.cpp ****       }
 1640              		.loc 1 259 32 discriminator 3 view .LVU500
 1641 038e 82F88F11 		strb	r1, [r2, #399]
 256:Core/Src/ADBMS.cpp ****       {
 1642              		.loc 1 256 7 is_stmt 1 discriminator 3 view .LVU501
 1643 0392 0133     		adds	r3, r3, #1
 1644              	.LVL183:
 256:Core/Src/ADBMS.cpp ****       {
 1645              		.loc 1 256 7 is_stmt 0 discriminator 3 view .LVU502
 1646 0394 DBB2     		uxtb	r3, r3
 1647              	.LVL184:
 1648              	.L109:
 256:Core/Src/ADBMS.cpp ****       {
 1649              		.loc 1 256 33 is_stmt 1 discriminator 1 view .LVU503
 1650 0396 A342     		cmp	r3, r4
 1651 0398 F1D3     		bcc	.L110
 1652 039a ACE6     		b	.L61
 1653              	.LVL185:
 1654              	.L66:
ARM GAS  C:\Users\huawei\AppData\Local\Temp\ccpVCJY0.s 			page 50


 256:Core/Src/ADBMS.cpp ****       {
 1655              		.loc 1 256 33 is_stmt 0 discriminator 1 view .LVU504
 1656              	.LBE43:
 263:Core/Src/ADBMS.cpp ****       /* 64 byte + 2 byte pec = 32 byte cell data + 32 byte scell volt data */
 1657              		.loc 1 263 5 is_stmt 1 view .LVU505
 265:Core/Src/ADBMS.cpp ****       for (uint8_t cic = 0; cic < tIC; cic++)
 1658              		.loc 1 265 7 view .LVU506
 265:Core/Src/ADBMS.cpp ****       for (uint8_t cic = 0; cic < tIC; cic++)
 1659              		.loc 1 265 25 is_stmt 0 view .LVU507
 1660 039c 4B46     		mov	r3, r9
 1661 039e 5A46     		mov	r2, fp
 1662 03a0 3946     		mov	r1, r7
 1663 03a2 2046     		mov	r0, r4
 1664 03a4 FFF7FEFF 		bl	_Z18adBms6830ParseCellhP9cell_asic3GRPPh
 1665              	.LVL186:
 266:Core/Src/ADBMS.cpp ****       {
 1666              		.loc 1 266 7 is_stmt 1 view .LVU508
 1667              	.LBB44:
 266:Core/Src/ADBMS.cpp ****       {
 1668              		.loc 1 266 20 is_stmt 0 view .LVU509
 1669 03a8 0023     		movs	r3, #0
 266:Core/Src/ADBMS.cpp ****       {
 1670              		.loc 1 266 7 view .LVU510
 1671 03aa 0BE0     		b	.L111
 1672              	.LVL187:
 1673              	.L112:
 268:Core/Src/ADBMS.cpp ****         ic[cic].cccrc.cmd_cntr = cmd_count[cic];
 1674              		.loc 1 268 9 is_stmt 1 discriminator 3 view .LVU511
 268:Core/Src/ADBMS.cpp ****         ic[cic].cccrc.cmd_cntr = cmd_count[cic];
 1675              		.loc 1 268 15 is_stmt 0 discriminator 3 view .LVU512
 1676 03ac 4FF42872 		mov	r2, #672
 1677 03b0 02FB0372 		mla	r2, r2, r3, r7
 268:Core/Src/ADBMS.cpp ****         ic[cic].cccrc.cmd_cntr = cmd_count[cic];
 1678              		.loc 1 268 47 discriminator 3 view .LVU513
 1679 03b4 E95C     		ldrb	r1, [r5, r3]	@ zero_extendqisi2
 268:Core/Src/ADBMS.cpp ****         ic[cic].cccrc.cmd_cntr = cmd_count[cic];
 1680              		.loc 1 268 32 discriminator 3 view .LVU514
 1681 03b6 82F89111 		strb	r1, [r2, #401]
 269:Core/Src/ADBMS.cpp ****       }
 1682              		.loc 1 269 9 is_stmt 1 discriminator 3 view .LVU515
 269:Core/Src/ADBMS.cpp ****       }
 1683              		.loc 1 269 47 is_stmt 0 discriminator 3 view .LVU516
 1684 03ba F15C     		ldrb	r1, [r6, r3]	@ zero_extendqisi2
 269:Core/Src/ADBMS.cpp ****       }
 1685              		.loc 1 269 32 discriminator 3 view .LVU517
 1686 03bc 82F88F11 		strb	r1, [r2, #399]
 266:Core/Src/ADBMS.cpp ****       {
 1687              		.loc 1 266 7 is_stmt 1 discriminator 3 view .LVU518
 1688 03c0 0133     		adds	r3, r3, #1
 1689              	.LVL188:
 266:Core/Src/ADBMS.cpp ****       {
 1690              		.loc 1 266 7 is_stmt 0 discriminator 3 view .LVU519
 1691 03c2 DBB2     		uxtb	r3, r3
 1692              	.LVL189:
 1693              	.L111:
 266:Core/Src/ADBMS.cpp ****       {
 1694              		.loc 1 266 33 is_stmt 1 discriminator 1 view .LVU520
ARM GAS  C:\Users\huawei\AppData\Local\Temp\ccpVCJY0.s 			page 51


 1695 03c4 A342     		cmp	r3, r4
 1696 03c6 F1D3     		bcc	.L112
 1697              	.LBE44:
 271:Core/Src/ADBMS.cpp ****       for (uint8_t cic = 0; cic < tIC; cic++)
 1698              		.loc 1 271 7 view .LVU521
 271:Core/Src/ADBMS.cpp ****       for (uint8_t cic = 0; cic < tIC; cic++)
 1699              		.loc 1 271 26 is_stmt 0 view .LVU522
 1700 03c8 09F12003 		add	r3, r9, #32
 1701              	.LVL190:
 271:Core/Src/ADBMS.cpp ****       for (uint8_t cic = 0; cic < tIC; cic++)
 1702              		.loc 1 271 26 view .LVU523
 1703 03cc 5A46     		mov	r2, fp
 1704 03ce 3946     		mov	r1, r7
 1705 03d0 2046     		mov	r0, r4
 1706 03d2 FFF7FEFF 		bl	_Z19adBms6830ParseSCellhP9cell_asic3GRPPh
 1707              	.LVL191:
 272:Core/Src/ADBMS.cpp ****       {
 1708              		.loc 1 272 7 is_stmt 1 view .LVU524
 1709              	.LBB45:
 272:Core/Src/ADBMS.cpp ****       {
 1710              		.loc 1 272 20 is_stmt 0 view .LVU525
 1711 03d6 0023     		movs	r3, #0
 272:Core/Src/ADBMS.cpp ****       {
 1712              		.loc 1 272 7 view .LVU526
 1713 03d8 0BE0     		b	.L113
 1714              	.LVL192:
 1715              	.L114:
 274:Core/Src/ADBMS.cpp ****         ic[cic].cccrc.cmd_cntr = cmd_count[cic];
 1716              		.loc 1 274 9 is_stmt 1 discriminator 3 view .LVU527
 274:Core/Src/ADBMS.cpp ****         ic[cic].cccrc.cmd_cntr = cmd_count[cic];
 1717              		.loc 1 274 15 is_stmt 0 discriminator 3 view .LVU528
 1718 03da 4FF42872 		mov	r2, #672
 1719 03de 02FB0372 		mla	r2, r2, r3, r7
 274:Core/Src/ADBMS.cpp ****         ic[cic].cccrc.cmd_cntr = cmd_count[cic];
 1720              		.loc 1 274 48 discriminator 3 view .LVU529
 1721 03e2 E95C     		ldrb	r1, [r5, r3]	@ zero_extendqisi2
 274:Core/Src/ADBMS.cpp ****         ic[cic].cccrc.cmd_cntr = cmd_count[cic];
 1722              		.loc 1 274 33 discriminator 3 view .LVU530
 1723 03e4 82F89311 		strb	r1, [r2, #403]
 275:Core/Src/ADBMS.cpp ****       }
 1724              		.loc 1 275 9 is_stmt 1 discriminator 3 view .LVU531
 275:Core/Src/ADBMS.cpp ****       }
 1725              		.loc 1 275 47 is_stmt 0 discriminator 3 view .LVU532
 1726 03e8 F15C     		ldrb	r1, [r6, r3]	@ zero_extendqisi2
 275:Core/Src/ADBMS.cpp ****       }
 1727              		.loc 1 275 32 discriminator 3 view .LVU533
 1728 03ea 82F88F11 		strb	r1, [r2, #399]
 272:Core/Src/ADBMS.cpp ****       {
 1729              		.loc 1 272 7 is_stmt 1 discriminator 3 view .LVU534
 1730 03ee 0133     		adds	r3, r3, #1
 1731              	.LVL193:
 272:Core/Src/ADBMS.cpp ****       {
 1732              		.loc 1 272 7 is_stmt 0 discriminator 3 view .LVU535
 1733 03f0 DBB2     		uxtb	r3, r3
 1734              	.LVL194:
 1735              	.L113:
 272:Core/Src/ADBMS.cpp ****       {
ARM GAS  C:\Users\huawei\AppData\Local\Temp\ccpVCJY0.s 			page 52


 1736              		.loc 1 272 33 is_stmt 1 discriminator 1 view .LVU536
 1737 03f2 A342     		cmp	r3, r4
 1738 03f4 F1D3     		bcc	.L114
 1739 03f6 7EE6     		b	.L61
 1740              	.LVL195:
 1741              	.L65:
 272:Core/Src/ADBMS.cpp ****       {
 1742              		.loc 1 272 33 is_stmt 0 discriminator 1 view .LVU537
 1743              	.LBE45:
 279:Core/Src/ADBMS.cpp ****       /* 64 byte + 2 byte pec = 32 byte avg cell data + 32 byte scell volt data */
 1744              		.loc 1 279 5 is_stmt 1 view .LVU538
 281:Core/Src/ADBMS.cpp ****       for (uint8_t cic = 0; cic < tIC; cic++)
 1745              		.loc 1 281 7 view .LVU539
 281:Core/Src/ADBMS.cpp ****       for (uint8_t cic = 0; cic < tIC; cic++)
 1746              		.loc 1 281 32 is_stmt 0 view .LVU540
 1747 03f8 4B46     		mov	r3, r9
 1748 03fa 5A46     		mov	r2, fp
 1749 03fc 3946     		mov	r1, r7
 1750 03fe 2046     		mov	r0, r4
 1751 0400 FFF7FEFF 		bl	_Z25adBms6830ParseAverageCellhP9cell_asic3GRPPh
 1752              	.LVL196:
 282:Core/Src/ADBMS.cpp ****       {
 1753              		.loc 1 282 7 is_stmt 1 view .LVU541
 1754              	.LBB46:
 282:Core/Src/ADBMS.cpp ****       {
 1755              		.loc 1 282 20 is_stmt 0 view .LVU542
 1756 0404 0023     		movs	r3, #0
 282:Core/Src/ADBMS.cpp ****       {
 1757              		.loc 1 282 7 view .LVU543
 1758 0406 0BE0     		b	.L115
 1759              	.LVL197:
 1760              	.L116:
 284:Core/Src/ADBMS.cpp ****         ic[cic].cccrc.cmd_cntr = cmd_count[cic];
 1761              		.loc 1 284 9 is_stmt 1 discriminator 3 view .LVU544
 284:Core/Src/ADBMS.cpp ****         ic[cic].cccrc.cmd_cntr = cmd_count[cic];
 1762              		.loc 1 284 15 is_stmt 0 discriminator 3 view .LVU545
 1763 0408 4FF42872 		mov	r2, #672
 1764 040c 02FB0372 		mla	r2, r2, r3, r7
 284:Core/Src/ADBMS.cpp ****         ic[cic].cccrc.cmd_cntr = cmd_count[cic];
 1765              		.loc 1 284 48 discriminator 3 view .LVU546
 1766 0410 E95C     		ldrb	r1, [r5, r3]	@ zero_extendqisi2
 284:Core/Src/ADBMS.cpp ****         ic[cic].cccrc.cmd_cntr = cmd_count[cic];
 1767              		.loc 1 284 33 discriminator 3 view .LVU547
 1768 0412 82F89211 		strb	r1, [r2, #402]
 285:Core/Src/ADBMS.cpp ****       }
 1769              		.loc 1 285 9 is_stmt 1 discriminator 3 view .LVU548
 285:Core/Src/ADBMS.cpp ****       }
 1770              		.loc 1 285 47 is_stmt 0 discriminator 3 view .LVU549
 1771 0416 F15C     		ldrb	r1, [r6, r3]	@ zero_extendqisi2
 285:Core/Src/ADBMS.cpp ****       }
 1772              		.loc 1 285 32 discriminator 3 view .LVU550
 1773 0418 82F88F11 		strb	r1, [r2, #399]
 282:Core/Src/ADBMS.cpp ****       {
 1774              		.loc 1 282 7 is_stmt 1 discriminator 3 view .LVU551
 1775 041c 0133     		adds	r3, r3, #1
 1776              	.LVL198:
 282:Core/Src/ADBMS.cpp ****       {
ARM GAS  C:\Users\huawei\AppData\Local\Temp\ccpVCJY0.s 			page 53


 1777              		.loc 1 282 7 is_stmt 0 discriminator 3 view .LVU552
 1778 041e DBB2     		uxtb	r3, r3
 1779              	.LVL199:
 1780              	.L115:
 282:Core/Src/ADBMS.cpp ****       {
 1781              		.loc 1 282 33 is_stmt 1 discriminator 1 view .LVU553
 1782 0420 A342     		cmp	r3, r4
 1783 0422 F1D3     		bcc	.L116
 1784              	.LBE46:
 287:Core/Src/ADBMS.cpp ****       for (uint8_t cic = 0; cic < tIC; cic++)
 1785              		.loc 1 287 7 view .LVU554
 287:Core/Src/ADBMS.cpp ****       for (uint8_t cic = 0; cic < tIC; cic++)
 1786              		.loc 1 287 26 is_stmt 0 view .LVU555
 1787 0424 09F12003 		add	r3, r9, #32
 1788              	.LVL200:
 287:Core/Src/ADBMS.cpp ****       for (uint8_t cic = 0; cic < tIC; cic++)
 1789              		.loc 1 287 26 view .LVU556
 1790 0428 5A46     		mov	r2, fp
 1791 042a 3946     		mov	r1, r7
 1792 042c 2046     		mov	r0, r4
 1793 042e FFF7FEFF 		bl	_Z19adBms6830ParseSCellhP9cell_asic3GRPPh
 1794              	.LVL201:
 288:Core/Src/ADBMS.cpp ****       {
 1795              		.loc 1 288 7 is_stmt 1 view .LVU557
 1796              	.LBB47:
 288:Core/Src/ADBMS.cpp ****       {
 1797              		.loc 1 288 20 is_stmt 0 view .LVU558
 1798 0432 0023     		movs	r3, #0
 288:Core/Src/ADBMS.cpp ****       {
 1799              		.loc 1 288 7 view .LVU559
 1800 0434 0BE0     		b	.L117
 1801              	.LVL202:
 1802              	.L118:
 290:Core/Src/ADBMS.cpp ****         ic[cic].cccrc.cmd_cntr = cmd_count[cic];
 1803              		.loc 1 290 9 is_stmt 1 discriminator 3 view .LVU560
 290:Core/Src/ADBMS.cpp ****         ic[cic].cccrc.cmd_cntr = cmd_count[cic];
 1804              		.loc 1 290 15 is_stmt 0 discriminator 3 view .LVU561
 1805 0436 4FF42872 		mov	r2, #672
 1806 043a 02FB0372 		mla	r2, r2, r3, r7
 290:Core/Src/ADBMS.cpp ****         ic[cic].cccrc.cmd_cntr = cmd_count[cic];
 1807              		.loc 1 290 48 discriminator 3 view .LVU562
 1808 043e E95C     		ldrb	r1, [r5, r3]	@ zero_extendqisi2
 290:Core/Src/ADBMS.cpp ****         ic[cic].cccrc.cmd_cntr = cmd_count[cic];
 1809              		.loc 1 290 33 discriminator 3 view .LVU563
 1810 0440 82F89311 		strb	r1, [r2, #403]
 291:Core/Src/ADBMS.cpp ****       }
 1811              		.loc 1 291 9 is_stmt 1 discriminator 3 view .LVU564
 291:Core/Src/ADBMS.cpp ****       }
 1812              		.loc 1 291 47 is_stmt 0 discriminator 3 view .LVU565
 1813 0444 F15C     		ldrb	r1, [r6, r3]	@ zero_extendqisi2
 291:Core/Src/ADBMS.cpp ****       }
 1814              		.loc 1 291 32 discriminator 3 view .LVU566
 1815 0446 82F88F11 		strb	r1, [r2, #399]
 288:Core/Src/ADBMS.cpp ****       {
 1816              		.loc 1 288 7 is_stmt 1 discriminator 3 view .LVU567
 1817 044a 0133     		adds	r3, r3, #1
 1818              	.LVL203:
ARM GAS  C:\Users\huawei\AppData\Local\Temp\ccpVCJY0.s 			page 54


 288:Core/Src/ADBMS.cpp ****       {
 1819              		.loc 1 288 7 is_stmt 0 discriminator 3 view .LVU568
 1820 044c DBB2     		uxtb	r3, r3
 1821              	.LVL204:
 1822              	.L117:
 288:Core/Src/ADBMS.cpp ****       {
 1823              		.loc 1 288 33 is_stmt 1 discriminator 1 view .LVU569
 1824 044e A342     		cmp	r3, r4
 1825 0450 F1D3     		bcc	.L118
 1826 0452 50E6     		b	.L61
 1827              	.LVL205:
 1828              	.L62:
 288:Core/Src/ADBMS.cpp ****       {
 1829              		.loc 1 288 33 is_stmt 0 discriminator 1 view .LVU570
 1830              	.LBE47:
 295:Core/Src/ADBMS.cpp ****       /* 68 byte + 2 byte pec:
 1831              		.loc 1 295 5 is_stmt 1 view .LVU571
 300:Core/Src/ADBMS.cpp ****       for (uint8_t cic = 0; cic < tIC; cic++)
 1832              		.loc 1 300 7 view .LVU572
 300:Core/Src/ADBMS.cpp ****       for (uint8_t cic = 0; cic < tIC; cic++)
 1833              		.loc 1 300 24 is_stmt 0 view .LVU573
 1834 0454 4B46     		mov	r3, r9
 1835 0456 5A46     		mov	r2, fp
 1836 0458 3946     		mov	r1, r7
 1837 045a 2046     		mov	r0, r4
 1838 045c FFF7FEFF 		bl	_Z17adBms6830ParseAuxhP9cell_asic3GRPPh
 1839              	.LVL206:
 301:Core/Src/ADBMS.cpp ****       {
 1840              		.loc 1 301 7 is_stmt 1 view .LVU574
 1841              	.LBB48:
 301:Core/Src/ADBMS.cpp ****       {
 1842              		.loc 1 301 20 is_stmt 0 view .LVU575
 1843 0460 0023     		movs	r3, #0
 301:Core/Src/ADBMS.cpp ****       {
 1844              		.loc 1 301 7 view .LVU576
 1845 0462 0BE0     		b	.L119
 1846              	.LVL207:
 1847              	.L120:
 303:Core/Src/ADBMS.cpp ****         ic[cic].cccrc.cmd_cntr = cmd_count[cic];
 1848              		.loc 1 303 9 is_stmt 1 discriminator 3 view .LVU577
 303:Core/Src/ADBMS.cpp ****         ic[cic].cccrc.cmd_cntr = cmd_count[cic];
 1849              		.loc 1 303 15 is_stmt 0 discriminator 3 view .LVU578
 1850 0464 4FF42872 		mov	r2, #672
 1851 0468 02FB0372 		mla	r2, r2, r3, r7
 303:Core/Src/ADBMS.cpp ****         ic[cic].cccrc.cmd_cntr = cmd_count[cic];
 1852              		.loc 1 303 46 discriminator 3 view .LVU579
 1853 046c E95C     		ldrb	r1, [r5, r3]	@ zero_extendqisi2
 303:Core/Src/ADBMS.cpp ****         ic[cic].cccrc.cmd_cntr = cmd_count[cic];
 1854              		.loc 1 303 31 discriminator 3 view .LVU580
 1855 046e 82F89511 		strb	r1, [r2, #405]
 304:Core/Src/ADBMS.cpp ****       }
 1856              		.loc 1 304 9 is_stmt 1 discriminator 3 view .LVU581
 304:Core/Src/ADBMS.cpp ****       }
 1857              		.loc 1 304 47 is_stmt 0 discriminator 3 view .LVU582
 1858 0472 F15C     		ldrb	r1, [r6, r3]	@ zero_extendqisi2
 304:Core/Src/ADBMS.cpp ****       }
 1859              		.loc 1 304 32 discriminator 3 view .LVU583
ARM GAS  C:\Users\huawei\AppData\Local\Temp\ccpVCJY0.s 			page 55


 1860 0474 82F88F11 		strb	r1, [r2, #399]
 301:Core/Src/ADBMS.cpp ****       {
 1861              		.loc 1 301 7 is_stmt 1 discriminator 3 view .LVU584
 1862 0478 0133     		adds	r3, r3, #1
 1863              	.LVL208:
 301:Core/Src/ADBMS.cpp ****       {
 1864              		.loc 1 301 7 is_stmt 0 discriminator 3 view .LVU585
 1865 047a DBB2     		uxtb	r3, r3
 1866              	.LVL209:
 1867              	.L119:
 301:Core/Src/ADBMS.cpp ****       {
 1868              		.loc 1 301 33 is_stmt 1 discriminator 1 view .LVU586
 1869 047c A342     		cmp	r3, r4
 1870 047e F1D3     		bcc	.L120
 1871              	.LBE48:
 306:Core/Src/ADBMS.cpp ****       for (uint8_t cic = 0; cic < tIC; cic++)
 1872              		.loc 1 306 7 view .LVU587
 306:Core/Src/ADBMS.cpp ****       for (uint8_t cic = 0; cic < tIC; cic++)
 1873              		.loc 1 306 25 is_stmt 0 view .LVU588
 1874 0480 09F11803 		add	r3, r9, #24
 1875              	.LVL210:
 306:Core/Src/ADBMS.cpp ****       for (uint8_t cic = 0; cic < tIC; cic++)
 1876              		.loc 1 306 25 view .LVU589
 1877 0484 5A46     		mov	r2, fp
 1878 0486 3946     		mov	r1, r7
 1879 0488 2046     		mov	r0, r4
 1880 048a FFF7FEFF 		bl	_Z18adBms6830ParseRAuxhP9cell_asic3GRPPh
 1881              	.LVL211:
 307:Core/Src/ADBMS.cpp ****       {
 1882              		.loc 1 307 7 is_stmt 1 view .LVU590
 1883              	.LBB49:
 307:Core/Src/ADBMS.cpp ****       {
 1884              		.loc 1 307 20 is_stmt 0 view .LVU591
 1885 048e 0023     		movs	r3, #0
 307:Core/Src/ADBMS.cpp ****       {
 1886              		.loc 1 307 7 view .LVU592
 1887 0490 0BE0     		b	.L121
 1888              	.LVL212:
 1889              	.L122:
 309:Core/Src/ADBMS.cpp ****         ic[cic].cccrc.cmd_cntr = cmd_count[cic];
 1890              		.loc 1 309 9 is_stmt 1 discriminator 3 view .LVU593
 309:Core/Src/ADBMS.cpp ****         ic[cic].cccrc.cmd_cntr = cmd_count[cic];
 1891              		.loc 1 309 15 is_stmt 0 discriminator 3 view .LVU594
 1892 0492 4FF42872 		mov	r2, #672
 1893 0496 02FB0372 		mla	r2, r2, r3, r7
 309:Core/Src/ADBMS.cpp ****         ic[cic].cccrc.cmd_cntr = cmd_count[cic];
 1894              		.loc 1 309 47 discriminator 3 view .LVU595
 1895 049a E95C     		ldrb	r1, [r5, r3]	@ zero_extendqisi2
 309:Core/Src/ADBMS.cpp ****         ic[cic].cccrc.cmd_cntr = cmd_count[cic];
 1896              		.loc 1 309 32 discriminator 3 view .LVU596
 1897 049c 82F89611 		strb	r1, [r2, #406]
 310:Core/Src/ADBMS.cpp ****       }
 1898              		.loc 1 310 9 is_stmt 1 discriminator 3 view .LVU597
 310:Core/Src/ADBMS.cpp ****       }
 1899              		.loc 1 310 47 is_stmt 0 discriminator 3 view .LVU598
 1900 04a0 F15C     		ldrb	r1, [r6, r3]	@ zero_extendqisi2
 310:Core/Src/ADBMS.cpp ****       }
ARM GAS  C:\Users\huawei\AppData\Local\Temp\ccpVCJY0.s 			page 56


 1901              		.loc 1 310 32 discriminator 3 view .LVU599
 1902 04a2 82F88F11 		strb	r1, [r2, #399]
 307:Core/Src/ADBMS.cpp ****       {
 1903              		.loc 1 307 7 is_stmt 1 discriminator 3 view .LVU600
 1904 04a6 0133     		adds	r3, r3, #1
 1905              	.LVL213:
 307:Core/Src/ADBMS.cpp ****       {
 1906              		.loc 1 307 7 is_stmt 0 discriminator 3 view .LVU601
 1907 04a8 DBB2     		uxtb	r3, r3
 1908              	.LVL214:
 1909              	.L121:
 307:Core/Src/ADBMS.cpp ****       {
 1910              		.loc 1 307 33 is_stmt 1 discriminator 1 view .LVU602
 1911 04aa A342     		cmp	r3, r4
 1912 04ac F1D3     		bcc	.L122
 1913              	.LBE49:
 312:Core/Src/ADBMS.cpp ****       for (uint8_t cic = 0; cic < tIC; cic++)
 1914              		.loc 1 312 7 view .LVU603
 312:Core/Src/ADBMS.cpp ****       for (uint8_t cic = 0; cic < tIC; cic++)
 1915              		.loc 1 312 27 is_stmt 0 view .LVU604
 1916 04ae 09F12C03 		add	r3, r9, #44
 1917              	.LVL215:
 312:Core/Src/ADBMS.cpp ****       for (uint8_t cic = 0; cic < tIC; cic++)
 1918              		.loc 1 312 27 view .LVU605
 1919 04b2 5A46     		mov	r2, fp
 1920 04b4 3946     		mov	r1, r7
 1921 04b6 2046     		mov	r0, r4
 1922 04b8 FFF7FEFF 		bl	_Z20adBms6830ParseStatushP9cell_asic3GRPPh
 1923              	.LVL216:
 313:Core/Src/ADBMS.cpp ****       {
 1924              		.loc 1 313 7 is_stmt 1 view .LVU606
 1925              	.LBB50:
 313:Core/Src/ADBMS.cpp ****       {
 1926              		.loc 1 313 20 is_stmt 0 view .LVU607
 1927 04bc 0023     		movs	r3, #0
 313:Core/Src/ADBMS.cpp ****       {
 1928              		.loc 1 313 7 view .LVU608
 1929 04be 0BE0     		b	.L123
 1930              	.LVL217:
 1931              	.L124:
 315:Core/Src/ADBMS.cpp ****         ic[cic].cccrc.cmd_cntr = cmd_count[cic];
 1932              		.loc 1 315 9 is_stmt 1 discriminator 3 view .LVU609
 315:Core/Src/ADBMS.cpp ****         ic[cic].cccrc.cmd_cntr = cmd_count[cic];
 1933              		.loc 1 315 15 is_stmt 0 discriminator 3 view .LVU610
 1934 04c0 4FF42872 		mov	r2, #672
 1935 04c4 02FB0372 		mla	r2, r2, r3, r7
 315:Core/Src/ADBMS.cpp ****         ic[cic].cccrc.cmd_cntr = cmd_count[cic];
 1936              		.loc 1 315 47 discriminator 3 view .LVU611
 1937 04c8 E95C     		ldrb	r1, [r5, r3]	@ zero_extendqisi2
 315:Core/Src/ADBMS.cpp ****         ic[cic].cccrc.cmd_cntr = cmd_count[cic];
 1938              		.loc 1 315 32 discriminator 3 view .LVU612
 1939 04ca 82F89711 		strb	r1, [r2, #407]
 316:Core/Src/ADBMS.cpp ****       }
 1940              		.loc 1 316 9 is_stmt 1 discriminator 3 view .LVU613
 316:Core/Src/ADBMS.cpp ****       }
 1941              		.loc 1 316 47 is_stmt 0 discriminator 3 view .LVU614
 1942 04ce F15C     		ldrb	r1, [r6, r3]	@ zero_extendqisi2
ARM GAS  C:\Users\huawei\AppData\Local\Temp\ccpVCJY0.s 			page 57


 316:Core/Src/ADBMS.cpp ****       }
 1943              		.loc 1 316 32 discriminator 3 view .LVU615
 1944 04d0 82F88F11 		strb	r1, [r2, #399]
 313:Core/Src/ADBMS.cpp ****       {
 1945              		.loc 1 313 7 is_stmt 1 discriminator 3 view .LVU616
 1946 04d4 0133     		adds	r3, r3, #1
 1947              	.LVL218:
 313:Core/Src/ADBMS.cpp ****       {
 1948              		.loc 1 313 7 is_stmt 0 discriminator 3 view .LVU617
 1949 04d6 DBB2     		uxtb	r3, r3
 1950              	.LVL219:
 1951              	.L123:
 313:Core/Src/ADBMS.cpp ****       {
 1952              		.loc 1 313 33 is_stmt 1 discriminator 1 view .LVU618
 1953 04d8 A342     		cmp	r3, r4
 1954 04da F1D3     		bcc	.L124
 1955 04dc 0BE6     		b	.L61
 1956              	.LBE50:
 1957              	.LBE51:
 1958              	.LBE53:
 1959              	.LBE55:
 1960              	.LBE57:
 1961              		.cfi_endproc
 1962              	.LFE248:
 1963              		.fnend
 1965 04de 00BF     		.section	.rodata._Z12spiWriteDatahPhS_.str1.4,"aMS",%progbits,1
 1966              		.align	2
 1967              	.LC3:
 1968 0000 20466169 		.ascii	" Failed to allocate cmd array memory \000"
 1968      6C656420 
 1968      746F2061 
 1968      6C6C6F63 
 1968      61746520 
 1969              		.section	.text._Z12spiWriteDatahPhS_,"ax",%progbits
 1970              		.align	1
 1971              		.global	_Z12spiWriteDatahPhS_
 1972              		.syntax unified
 1973              		.thumb
 1974              		.thumb_func
 1976              	_Z12spiWriteDatahPhS_:
 1977              		.fnstart
 1978              	.LVL220:
 1979              	.LFB251:
 552:Core/Src/ADBMS.cpp ****   uint8_t BYTES_IN_REG = TX_DATA;
 1980              		.loc 1 552 1 view -0
 1981              		.cfi_startproc
 1982              		@ args = 0, pretend = 0, frame = 8
 1983              		@ frame_needed = 0, uses_anonymous_args = 0
 552:Core/Src/ADBMS.cpp ****   uint8_t BYTES_IN_REG = TX_DATA;
 1984              		.loc 1 552 1 is_stmt 0 view .LVU620
 1985 0000 2DE9F041 		push	{r4, r5, r6, r7, r8, lr}
 1986              		.save {r4, r5, r6, r7, r8, lr}
 1987              	.LCFI13:
 1988              		.cfi_def_cfa_offset 24
 1989              		.cfi_offset 4, -24
 1990              		.cfi_offset 5, -20
 1991              		.cfi_offset 6, -16
ARM GAS  C:\Users\huawei\AppData\Local\Temp\ccpVCJY0.s 			page 58


 1992              		.cfi_offset 7, -12
 1993              		.cfi_offset 8, -8
 1994              		.cfi_offset 14, -4
 1995              		.pad #8
 1996 0004 82B0     		sub	sp, sp, #8
 1997              	.LCFI14:
 1998              		.cfi_def_cfa_offset 32
 1999 0006 0546     		mov	r5, r0
 2000 0008 0C46     		mov	r4, r1
 2001 000a 1746     		mov	r7, r2
 553:Core/Src/ADBMS.cpp ****   uint8_t CMD_LEN = 4 + (RX_DATA * tIC);
 2002              		.loc 1 553 3 is_stmt 1 view .LVU621
 2003              	.LVL221:
 554:Core/Src/ADBMS.cpp ****   uint16_t data_pec, cmd_pec;
 2004              		.loc 1 554 3 view .LVU622
 554:Core/Src/ADBMS.cpp ****   uint16_t data_pec, cmd_pec;
 2005              		.loc 1 554 23 is_stmt 0 view .LVU623
 2006 000c 4FEAC008 		lsl	r8, r0, #3
 2007 0010 5FFA88F8 		uxtb	r8, r8
 554:Core/Src/ADBMS.cpp ****   uint16_t data_pec, cmd_pec;
 2008              		.loc 1 554 11 view .LVU624
 2009 0014 08F10408 		add	r8, r8, #4
 2010 0018 5FFA88F8 		uxtb	r8, r8
 2011              	.LVL222:
 555:Core/Src/ADBMS.cpp ****   uint8_t *cmd, copyArray[TX_DATA], src_address = 0;
 2012              		.loc 1 555 3 is_stmt 1 view .LVU625
 556:Core/Src/ADBMS.cpp ****   uint8_t cmd_index;
 2013              		.loc 1 556 3 view .LVU626
 557:Core/Src/ADBMS.cpp ****   cmd = (uint8_t *)calloc(CMD_LEN, sizeof(uint8_t));
 2014              		.loc 1 557 3 view .LVU627
 558:Core/Src/ADBMS.cpp ****   if(cmd == NULL)
 2015              		.loc 1 558 3 view .LVU628
 558:Core/Src/ADBMS.cpp ****   if(cmd == NULL)
 2016              		.loc 1 558 26 is_stmt 0 view .LVU629
 2017 001c 0121     		movs	r1, #1
 2018              	.LVL223:
 558:Core/Src/ADBMS.cpp ****   if(cmd == NULL)
 2019              		.loc 1 558 26 view .LVU630
 2020 001e 4046     		mov	r0, r8
 2021              	.LVL224:
 558:Core/Src/ADBMS.cpp ****   if(cmd == NULL)
 2022              		.loc 1 558 26 view .LVU631
 2023 0020 FFF7FEFF 		bl	calloc
 2024              	.LVL225:
 559:Core/Src/ADBMS.cpp ****   {
 2025              		.loc 1 559 3 is_stmt 1 view .LVU632
 2026              	.LBB58:
 2027 0024 70B1     		cbz	r0, .L137
 2028 0026 0646     		mov	r6, r0
 2029              	.LBB59:
 566:Core/Src/ADBMS.cpp ****     cmd[1] = tx_cmd[1];
 2030              		.loc 1 566 5 view .LVU633
 566:Core/Src/ADBMS.cpp ****     cmd[1] = tx_cmd[1];
 2031              		.loc 1 566 22 is_stmt 0 view .LVU634
 2032 0028 2378     		ldrb	r3, [r4]	@ zero_extendqisi2
 566:Core/Src/ADBMS.cpp ****     cmd[1] = tx_cmd[1];
 2033              		.loc 1 566 12 view .LVU635
ARM GAS  C:\Users\huawei\AppData\Local\Temp\ccpVCJY0.s 			page 59


 2034 002a 0370     		strb	r3, [r0]
 567:Core/Src/ADBMS.cpp ****     cmd_pec = Pec15_Calc(2, cmd);
 2035              		.loc 1 567 5 is_stmt 1 view .LVU636
 567:Core/Src/ADBMS.cpp ****     cmd_pec = Pec15_Calc(2, cmd);
 2036              		.loc 1 567 12 is_stmt 0 view .LVU637
 2037 002c 6378     		ldrb	r3, [r4, #1]	@ zero_extendqisi2
 2038 002e 4370     		strb	r3, [r0, #1]
 568:Core/Src/ADBMS.cpp ****     cmd[2] = (uint8_t)(cmd_pec >> 8);
 2039              		.loc 1 568 5 is_stmt 1 view .LVU638
 568:Core/Src/ADBMS.cpp ****     cmd[2] = (uint8_t)(cmd_pec >> 8);
 2040              		.loc 1 568 25 is_stmt 0 view .LVU639
 2041 0030 0146     		mov	r1, r0
 2042 0032 0220     		movs	r0, #2
 2043              	.LVL226:
 568:Core/Src/ADBMS.cpp ****     cmd[2] = (uint8_t)(cmd_pec >> 8);
 2044              		.loc 1 568 25 view .LVU640
 2045 0034 FFF7FEFF 		bl	_Z10Pec15_CalchPh
 2046              	.LVL227:
 569:Core/Src/ADBMS.cpp ****     cmd[3] = (uint8_t)(cmd_pec);
 2047              		.loc 1 569 5 is_stmt 1 view .LVU641
 569:Core/Src/ADBMS.cpp ****     cmd[3] = (uint8_t)(cmd_pec);
 2048              		.loc 1 569 32 is_stmt 0 view .LVU642
 2049 0038 C0F30F23 		ubfx	r3, r0, #8, #16
 569:Core/Src/ADBMS.cpp ****     cmd[3] = (uint8_t)(cmd_pec);
 2050              		.loc 1 569 12 view .LVU643
 2051 003c B370     		strb	r3, [r6, #2]
 570:Core/Src/ADBMS.cpp ****     cmd_index = 4;
 2052              		.loc 1 570 5 is_stmt 1 view .LVU644
 570:Core/Src/ADBMS.cpp ****     cmd_index = 4;
 2053              		.loc 1 570 12 is_stmt 0 view .LVU645
 2054 003e F070     		strb	r0, [r6, #3]
 571:Core/Src/ADBMS.cpp ****     /* executes for each LTC68xx, this loops starts with the last IC on the stack */
 2055              		.loc 1 571 5 is_stmt 1 view .LVU646
 2056              	.LVL228:
 573:Core/Src/ADBMS.cpp ****     {
 2057              		.loc 1 573 5 view .LVU647
 571:Core/Src/ADBMS.cpp ****     /* executes for each LTC68xx, this loops starts with the last IC on the stack */
 2058              		.loc 1 571 15 is_stmt 0 view .LVU648
 2059 0040 0424     		movs	r4, #4
 2060              	.LVL229:
 2061              	.LBB60:
 573:Core/Src/ADBMS.cpp ****     {
 2062              		.loc 1 573 5 view .LVU649
 2063 0042 27E0     		b	.L132
 2064              	.LVL230:
 2065              	.L137:
 573:Core/Src/ADBMS.cpp ****     {
 2066              		.loc 1 573 5 view .LVU650
 2067              	.LBE60:
 2068              	.LBE59:
 561:Core/Src/ADBMS.cpp ****     exit(0);
 2069              		.loc 1 561 5 is_stmt 1 view .LVU651
 561:Core/Src/ADBMS.cpp ****     exit(0);
 2070              		.loc 1 561 11 is_stmt 0 view .LVU652
 2071 0044 2048     		ldr	r0, .L139
 2072              	.LVL231:
 561:Core/Src/ADBMS.cpp ****     exit(0);
ARM GAS  C:\Users\huawei\AppData\Local\Temp\ccpVCJY0.s 			page 60


 2073              		.loc 1 561 11 view .LVU653
 2074 0046 FFF7FEFF 		bl	puts
 2075              	.LVL232:
 562:Core/Src/ADBMS.cpp ****   }
 2076              		.loc 1 562 5 is_stmt 1 view .LVU654
 562:Core/Src/ADBMS.cpp ****   }
 2077              		.loc 1 562 9 is_stmt 0 view .LVU655
 2078 004a 0020     		movs	r0, #0
 2079 004c FFF7FEFF 		bl	exit
 2080              	.LVL233:
 2081              	.L134:
 2082              	.LBB66:
 2083              	.LBB65:
 2084              	.LBB61:
 2085              	.LBB62:
 579:Core/Src/ADBMS.cpp ****         cmd_index = cmd_index + 1;
 2086              		.loc 1 579 9 is_stmt 1 discriminator 3 view .LVU656
 579:Core/Src/ADBMS.cpp ****         cmd_index = cmd_index + 1;
 2087              		.loc 1 579 43 is_stmt 0 discriminator 3 view .LVU657
 2088 0050 6B1E     		subs	r3, r5, #1
 579:Core/Src/ADBMS.cpp ****         cmd_index = cmd_index + 1;
 2089              		.loc 1 579 46 discriminator 3 view .LVU658
 2090 0052 03EB4303 		add	r3, r3, r3, lsl #1
 579:Core/Src/ADBMS.cpp ****         cmd_index = cmd_index + 1;
 2091              		.loc 1 579 49 discriminator 3 view .LVU659
 2092 0056 02EB4303 		add	r3, r2, r3, lsl #1
 579:Core/Src/ADBMS.cpp ****         cmd_index = cmd_index + 1;
 2093              		.loc 1 579 62 discriminator 3 view .LVU660
 2094 005a FB5C     		ldrb	r3, [r7, r3]	@ zero_extendqisi2
 579:Core/Src/ADBMS.cpp ****         cmd_index = cmd_index + 1;
 2095              		.loc 1 579 24 discriminator 3 view .LVU661
 2096 005c 3355     		strb	r3, [r6, r4]
 580:Core/Src/ADBMS.cpp ****       }
 2097              		.loc 1 580 9 is_stmt 1 discriminator 3 view .LVU662
 580:Core/Src/ADBMS.cpp ****       }
 2098              		.loc 1 580 19 is_stmt 0 discriminator 3 view .LVU663
 2099 005e 0134     		adds	r4, r4, #1
 2100              	.LVL234:
 580:Core/Src/ADBMS.cpp ****       }
 2101              		.loc 1 580 19 discriminator 3 view .LVU664
 2102 0060 E4B2     		uxtb	r4, r4
 2103              	.LVL235:
 577:Core/Src/ADBMS.cpp ****       {
 2104              		.loc 1 577 7 is_stmt 1 discriminator 3 view .LVU665
 2105 0062 0132     		adds	r2, r2, #1
 2106              	.LVL236:
 577:Core/Src/ADBMS.cpp ****       {
 2107              		.loc 1 577 7 is_stmt 0 discriminator 3 view .LVU666
 2108 0064 D2B2     		uxtb	r2, r2
 2109              	.LVL237:
 2110              	.L133:
 577:Core/Src/ADBMS.cpp ****       {
 2111              		.loc 1 577 51 is_stmt 1 discriminator 1 view .LVU667
 2112 0066 052A     		cmp	r2, #5
 2113 0068 F2D9     		bls	.L134
 577:Core/Src/ADBMS.cpp ****       {
 2114              		.loc 1 577 51 is_stmt 0 discriminator 1 view .LVU668
ARM GAS  C:\Users\huawei\AppData\Local\Temp\ccpVCJY0.s 			page 61


 2115              	.LBE62:
 583:Core/Src/ADBMS.cpp ****       /* calculating the PEC for each Ics configuration register data */
 2116              		.loc 1 583 7 is_stmt 1 discriminator 2 view .LVU669
 583:Core/Src/ADBMS.cpp ****       /* calculating the PEC for each Ics configuration register data */
 2117              		.loc 1 583 29 is_stmt 0 discriminator 2 view .LVU670
 2118 006a 7B18     		adds	r3, r7, r1
 583:Core/Src/ADBMS.cpp ****       /* calculating the PEC for each Ics configuration register data */
 2119              		.loc 1 583 13 discriminator 2 view .LVU671
 2120 006c 7858     		ldr	r0, [r7, r1]	@ unaligned
 2121 006e 0090     		str	r0, [sp]
 2122 0070 9B88     		ldrh	r3, [r3, #4]	@ unaligned
 2123 0072 ADF80430 		strh	r3, [sp, #4]	@ unaligned
 585:Core/Src/ADBMS.cpp ****       cmd[cmd_index] = (uint8_t)(data_pec >> 8);
 2124              		.loc 1 585 7 is_stmt 1 discriminator 2 view .LVU672
 585:Core/Src/ADBMS.cpp ****       cmd[cmd_index] = (uint8_t)(data_pec >> 8);
 2125              		.loc 1 585 38 is_stmt 0 discriminator 2 view .LVU673
 2126 0076 6A46     		mov	r2, sp
 2127              	.LVL238:
 585:Core/Src/ADBMS.cpp ****       cmd[cmd_index] = (uint8_t)(data_pec >> 8);
 2128              		.loc 1 585 38 discriminator 2 view .LVU674
 2129 0078 0621     		movs	r1, #6
 2130              	.LVL239:
 585:Core/Src/ADBMS.cpp ****       cmd[cmd_index] = (uint8_t)(data_pec >> 8);
 2131              		.loc 1 585 38 discriminator 2 view .LVU675
 2132 007a 0120     		movs	r0, #1
 2133 007c FFF7FEFF 		bl	_Z10pec10_calcbiPh
 2134              	.LVL240:
 586:Core/Src/ADBMS.cpp ****       cmd_index = cmd_index + 1;
 2135              		.loc 1 586 7 is_stmt 1 discriminator 2 view .LVU676
 586:Core/Src/ADBMS.cpp ****       cmd_index = cmd_index + 1;
 2136              		.loc 1 586 43 is_stmt 0 discriminator 2 view .LVU677
 2137 0080 C0F30F23 		ubfx	r3, r0, #8, #16
 586:Core/Src/ADBMS.cpp ****       cmd_index = cmd_index + 1;
 2138              		.loc 1 586 22 discriminator 2 view .LVU678
 2139 0084 3355     		strb	r3, [r6, r4]
 587:Core/Src/ADBMS.cpp ****       cmd[cmd_index] = (uint8_t)data_pec;
 2140              		.loc 1 587 7 is_stmt 1 discriminator 2 view .LVU679
 587:Core/Src/ADBMS.cpp ****       cmd[cmd_index] = (uint8_t)data_pec;
 2141              		.loc 1 587 17 is_stmt 0 discriminator 2 view .LVU680
 2142 0086 631C     		adds	r3, r4, #1
 2143 0088 DBB2     		uxtb	r3, r3
 2144              	.LVL241:
 588:Core/Src/ADBMS.cpp ****       cmd_index = cmd_index + 1;
 2145              		.loc 1 588 7 is_stmt 1 discriminator 2 view .LVU681
 588:Core/Src/ADBMS.cpp ****       cmd_index = cmd_index + 1;
 2146              		.loc 1 588 22 is_stmt 0 discriminator 2 view .LVU682
 2147 008a F054     		strb	r0, [r6, r3]
 589:Core/Src/ADBMS.cpp ****     }
 2148              		.loc 1 589 7 is_stmt 1 discriminator 2 view .LVU683
 589:Core/Src/ADBMS.cpp ****     }
 2149              		.loc 1 589 17 is_stmt 0 discriminator 2 view .LVU684
 2150 008c 0234     		adds	r4, r4, #2
 2151 008e E4B2     		uxtb	r4, r4
 2152              	.LVL242:
 589:Core/Src/ADBMS.cpp ****     }
 2153              		.loc 1 589 17 discriminator 2 view .LVU685
 2154              	.LBE61:
ARM GAS  C:\Users\huawei\AppData\Local\Temp\ccpVCJY0.s 			page 62


 573:Core/Src/ADBMS.cpp ****     {
 2155              		.loc 1 573 5 is_stmt 1 discriminator 2 view .LVU686
 2156 0090 013D     		subs	r5, r5, #1
 2157              	.LVL243:
 573:Core/Src/ADBMS.cpp ****     {
 2158              		.loc 1 573 5 is_stmt 0 discriminator 2 view .LVU687
 2159 0092 EDB2     		uxtb	r5, r5
 2160              	.LVL244:
 2161              	.L132:
 573:Core/Src/ADBMS.cpp ****     {
 2162              		.loc 1 573 47 is_stmt 1 discriminator 1 view .LVU688
 2163 0094 35B1     		cbz	r5, .L138
 2164              	.LBB64:
 575:Core/Src/ADBMS.cpp ****       /* The first configuration written is received by the last IC in the daisy chain */
 2165              		.loc 1 575 7 view .LVU689
 575:Core/Src/ADBMS.cpp ****       /* The first configuration written is received by the last IC in the daisy chain */
 2166              		.loc 1 575 19 is_stmt 0 view .LVU690
 2167 0096 05EB4501 		add	r1, r5, r5, lsl #1
 2168 009a 4900     		lsls	r1, r1, #1
 2169 009c 0639     		subs	r1, r1, #6
 2170 009e C9B2     		uxtb	r1, r1
 2171              	.LVL245:
 577:Core/Src/ADBMS.cpp ****       {
 2172              		.loc 1 577 7 is_stmt 1 view .LVU691
 2173              	.LBB63:
 577:Core/Src/ADBMS.cpp ****       {
 2174              		.loc 1 577 20 is_stmt 0 view .LVU692
 2175 00a0 0022     		movs	r2, #0
 577:Core/Src/ADBMS.cpp ****       {
 2176              		.loc 1 577 7 view .LVU693
 2177 00a2 E0E7     		b	.L133
 2178              	.LVL246:
 2179              	.L138:
 577:Core/Src/ADBMS.cpp ****       {
 2180              		.loc 1 577 7 view .LVU694
 2181              	.LBE63:
 2182              	.LBE64:
 2183              	.LBE65:
 591:Core/Src/ADBMS.cpp ****     HAL_SPI_Transmit(hspi, &cmd[0], CMD_LEN, SPI_TIME_OUT); /* SPI1 , data, size, timeout */
 2184              		.loc 1 591 5 is_stmt 1 view .LVU695
 591:Core/Src/ADBMS.cpp ****     HAL_SPI_Transmit(hspi, &cmd[0], CMD_LEN, SPI_TIME_OUT); /* SPI1 , data, size, timeout */
 2185              		.loc 1 591 15 is_stmt 0 view .LVU696
 2186 00a4 FFF7FEFF 		bl	_Z10adBmsCsLowv
 2187              	.LVL247:
 592:Core/Src/ADBMS.cpp ****     adBmsCsHigh();
 2188              		.loc 1 592 5 is_stmt 1 view .LVU697
 592:Core/Src/ADBMS.cpp ****     adBmsCsHigh();
 2189              		.loc 1 592 21 is_stmt 0 view .LVU698
 2190 00a8 4FF0FF33 		mov	r3, #-1
 2191 00ac 4246     		mov	r2, r8
 2192 00ae 3146     		mov	r1, r6
 2193 00b0 0648     		ldr	r0, .L139+4
 2194 00b2 0068     		ldr	r0, [r0]
 2195 00b4 FFF7FEFF 		bl	HAL_SPI_Transmit
 2196              	.LVL248:
 593:Core/Src/ADBMS.cpp ****   }
 2197              		.loc 1 593 5 is_stmt 1 view .LVU699
ARM GAS  C:\Users\huawei\AppData\Local\Temp\ccpVCJY0.s 			page 63


 593:Core/Src/ADBMS.cpp ****   }
 2198              		.loc 1 593 16 is_stmt 0 view .LVU700
 2199 00b8 FFF7FEFF 		bl	_Z11adBmsCsHighv
 2200              	.LVL249:
 2201              	.LBE66:
 2202              	.LBE58:
 595:Core/Src/ADBMS.cpp **** }
 2203              		.loc 1 595 3 is_stmt 1 view .LVU701
 595:Core/Src/ADBMS.cpp **** }
 2204              		.loc 1 595 7 is_stmt 0 view .LVU702
 2205 00bc 3046     		mov	r0, r6
 2206 00be FFF7FEFF 		bl	free
 2207              	.LVL250:
 596:Core/Src/ADBMS.cpp **** 
 2208              		.loc 1 596 1 view .LVU703
 2209 00c2 02B0     		add	sp, sp, #8
 2210              	.LCFI15:
 2211              		.cfi_def_cfa_offset 24
 2212              		@ sp needed
 2213 00c4 BDE8F081 		pop	{r4, r5, r6, r7, r8, pc}
 2214              	.LVL251:
 2215              	.L140:
 596:Core/Src/ADBMS.cpp **** 
 2216              		.loc 1 596 1 view .LVU704
 2217              		.align	2
 2218              	.L139:
 2219 00c8 00000000 		.word	.LC3
 2220 00cc 00000000 		.word	hspi
 2221              		.cfi_endproc
 2222              	.LFE251:
 2223              		.fnend
 2225              		.section	.rodata._Z14adBmsWriteDatahP9cell_asicPh4TYPE3GRP.str1.4,"aMS",%progbits,1
 2226              		.align	2
 2227              	.LC4:
 2228 0000 20466169 		.ascii	" Failed to allocate write_buffer array memory \000"
 2228      6C656420 
 2228      746F2061 
 2228      6C6C6F63 
 2228      61746520 
 2229              		.section	.text._Z14adBmsWriteDatahP9cell_asicPh4TYPE3GRP,"ax",%progbits
 2230              		.align	1
 2231              		.global	_Z14adBmsWriteDatahP9cell_asicPh4TYPE3GRP
 2232              		.syntax unified
 2233              		.thumb
 2234              		.thumb_func
 2236              	_Z14adBmsWriteDatahP9cell_asicPh4TYPE3GRP:
 2237              		.fnstart
 2238              	.LVL252:
 2239              	.LFB249:
 352:Core/Src/ADBMS.cpp ****   uint8_t data_len = TX_DATA, write_size = (TX_DATA * tIC);
 2240              		.loc 1 352 1 is_stmt 1 view -0
 2241              		.cfi_startproc
 2242              		@ args = 4, pretend = 0, frame = 0
 2243              		@ frame_needed = 0, uses_anonymous_args = 0
 352:Core/Src/ADBMS.cpp ****   uint8_t data_len = TX_DATA, write_size = (TX_DATA * tIC);
 2244              		.loc 1 352 1 is_stmt 0 view .LVU706
 2245 0000 2DE9F843 		push	{r3, r4, r5, r6, r7, r8, r9, lr}
ARM GAS  C:\Users\huawei\AppData\Local\Temp\ccpVCJY0.s 			page 64


 2246              		.save {r3, r4, r5, r6, r7, r8, r9, lr}
 2247              	.LCFI16:
 2248              		.cfi_def_cfa_offset 32
 2249              		.cfi_offset 3, -32
 2250              		.cfi_offset 4, -28
 2251              		.cfi_offset 5, -24
 2252              		.cfi_offset 6, -20
 2253              		.cfi_offset 7, -16
 2254              		.cfi_offset 8, -12
 2255              		.cfi_offset 9, -8
 2256              		.cfi_offset 14, -4
 2257 0004 0646     		mov	r6, r0
 2258 0006 0C46     		mov	r4, r1
 2259 0008 1746     		mov	r7, r2
 2260 000a 9846     		mov	r8, r3
 2261 000c 9DF82090 		ldrb	r9, [sp, #32]	@ zero_extendqisi2
 353:Core/Src/ADBMS.cpp ****   uint8_t *write_buffer = (uint8_t *)calloc(write_size, sizeof(uint8_t));
 2262              		.loc 1 353 3 is_stmt 1 view .LVU707
 2263              	.LVL253:
 353:Core/Src/ADBMS.cpp ****   uint8_t *write_buffer = (uint8_t *)calloc(write_size, sizeof(uint8_t));
 2264              		.loc 1 353 31 is_stmt 0 view .LVU708
 2265 0010 00EB4000 		add	r0, r0, r0, lsl #1
 2266              	.LVL254:
 353:Core/Src/ADBMS.cpp ****   uint8_t *write_buffer = (uint8_t *)calloc(write_size, sizeof(uint8_t));
 2267              		.loc 1 353 31 view .LVU709
 2268 0014 4000     		lsls	r0, r0, #1
 2269              	.LVL255:
 354:Core/Src/ADBMS.cpp ****   if(write_buffer == NULL)
 2270              		.loc 1 354 3 is_stmt 1 view .LVU710
 354:Core/Src/ADBMS.cpp ****   if(write_buffer == NULL)
 2271              		.loc 1 354 44 is_stmt 0 view .LVU711
 2272 0016 0121     		movs	r1, #1
 2273              	.LVL256:
 354:Core/Src/ADBMS.cpp ****   if(write_buffer == NULL)
 2274              		.loc 1 354 44 view .LVU712
 2275 0018 00F0FE00 		and	r0, r0, #254
 2276              	.LVL257:
 354:Core/Src/ADBMS.cpp ****   if(write_buffer == NULL)
 2277              		.loc 1 354 44 view .LVU713
 2278 001c FFF7FEFF 		bl	calloc
 2279              	.LVL258:
 355:Core/Src/ADBMS.cpp ****   {
 2280              		.loc 1 355 3 is_stmt 1 view .LVU714
 2281              	.LBB67:
 2282 0020 50B1     		cbz	r0, .L179
 2283 0022 0546     		mov	r5, r0
 2284              	.LBE67:
 362:Core/Src/ADBMS.cpp ****     {
 2285              		.loc 1 362 5 view .LVU715
 2286              	.LBB97:
 2287              	.LBB68:
 2288 0024 A8F10403 		sub	r3, r8, #4
 2289 0028 072B     		cmp	r3, #7
 2290 002a 11D8     		bhi	.L143
 2291 002c DFE803F0 		tbb	[pc, r3]
 2292              	.L145:
 2293 0030 6E       		.byte	(.L148-.L145)/2
ARM GAS  C:\Users\huawei\AppData\Local\Temp\ccpVCJY0.s 			page 65


 2294 0031 10       		.byte	(.L143-.L145)/2
 2295 0032 10       		.byte	(.L143-.L145)/2
 2296 0033 10       		.byte	(.L143-.L145)/2
 2297 0034 0A       		.byte	(.L147-.L145)/2
 2298 0035 52       		.byte	(.L146-.L145)/2
 2299 0036 10       		.byte	(.L143-.L145)/2
 2300 0037 AE       		.byte	(.L144-.L145)/2
 2301              		.p2align 1
 2302              	.L179:
 362:Core/Src/ADBMS.cpp ****     {
 2303              		.loc 1 362 5 is_stmt 0 view .LVU716
 2304              	.LBE68:
 357:Core/Src/ADBMS.cpp ****     exit(0);
 2305              		.loc 1 357 5 is_stmt 1 view .LVU717
 357:Core/Src/ADBMS.cpp ****     exit(0);
 2306              		.loc 1 357 11 is_stmt 0 view .LVU718
 2307 0038 6348     		ldr	r0, .L180
 2308              	.LVL259:
 357:Core/Src/ADBMS.cpp ****     exit(0);
 2309              		.loc 1 357 11 view .LVU719
 2310 003a FFF7FEFF 		bl	puts
 2311              	.LVL260:
 358:Core/Src/ADBMS.cpp ****   }
 2312              		.loc 1 358 5 is_stmt 1 view .LVU720
 358:Core/Src/ADBMS.cpp ****   }
 2313              		.loc 1 358 9 is_stmt 0 view .LVU721
 2314 003e 0020     		movs	r0, #0
 2315 0040 FFF7FEFF 		bl	exit
 2316              	.LVL261:
 2317              	.L147:
 2318              	.LBB95:
 2319              	.LBB69:
 364:Core/Src/ADBMS.cpp ****       switch (group)
 2320              		.loc 1 364 5 is_stmt 1 view .LVU722
 365:Core/Src/ADBMS.cpp ****       {
 2321              		.loc 1 365 7 view .LVU723
 2322              	.LBB70:
 2323 0044 B9F1010F 		cmp	r9, #1
 2324 0048 0CD0     		beq	.L149
 2325 004a B9F1020F 		cmp	r9, #2
 2326 004e 25D0     		beq	.L150
 2327              	.LVL262:
 2328              	.L143:
 365:Core/Src/ADBMS.cpp ****       {
 2329              		.loc 1 365 7 is_stmt 0 view .LVU724
 2330              	.LBE70:
 2331              	.LBE69:
 2332              	.LBE95:
 2333              	.LBE97:
 442:Core/Src/ADBMS.cpp **** 
 2334              		.loc 1 442 3 is_stmt 1 view .LVU725
 442:Core/Src/ADBMS.cpp **** 
 2335              		.loc 1 442 15 is_stmt 0 view .LVU726
 2336 0050 2A46     		mov	r2, r5
 2337 0052 3946     		mov	r1, r7
 2338 0054 3046     		mov	r0, r6
 2339 0056 FFF7FEFF 		bl	_Z12spiWriteDatahPhS_
ARM GAS  C:\Users\huawei\AppData\Local\Temp\ccpVCJY0.s 			page 66


 2340              	.LVL263:
 444:Core/Src/ADBMS.cpp **** }
 2341              		.loc 1 444 3 is_stmt 1 view .LVU727
 444:Core/Src/ADBMS.cpp **** }
 2342              		.loc 1 444 7 is_stmt 0 view .LVU728
 2343 005a 2846     		mov	r0, r5
 2344 005c FFF7FEFF 		bl	free
 2345              	.LVL264:
 445:Core/Src/ADBMS.cpp **** 
 2346              		.loc 1 445 1 view .LVU729
 2347 0060 BDE8F883 		pop	{r3, r4, r5, r6, r7, r8, r9, pc}
 2348              	.LVL265:
 2349              	.L149:
 2350              	.LBB98:
 2351              	.LBB96:
 2352              	.LBB94:
 2353              	.LBB78:
 2354              	.LBB71:
 367:Core/Src/ADBMS.cpp ****         adBms6830CreateConfiga(tIC, &ic[0]);
 2355              		.loc 1 367 7 is_stmt 1 view .LVU730
 368:Core/Src/ADBMS.cpp ****         for (uint8_t cic = 0; cic < tIC; cic++)
 2356              		.loc 1 368 9 view .LVU731
 368:Core/Src/ADBMS.cpp ****         for (uint8_t cic = 0; cic < tIC; cic++)
 2357              		.loc 1 368 31 is_stmt 0 view .LVU732
 2358 0064 2146     		mov	r1, r4
 2359 0066 3046     		mov	r0, r6
 2360              	.LVL266:
 368:Core/Src/ADBMS.cpp ****         for (uint8_t cic = 0; cic < tIC; cic++)
 2361              		.loc 1 368 31 view .LVU733
 2362 0068 FFF7FEFF 		bl	_Z22adBms6830CreateConfigahP9cell_asic
 2363              	.LVL267:
 369:Core/Src/ADBMS.cpp ****         {
 2364              		.loc 1 369 9 is_stmt 1 view .LVU734
 2365              	.LBB72:
 369:Core/Src/ADBMS.cpp ****         {
 2366              		.loc 1 369 22 is_stmt 0 view .LVU735
 2367 006c 0020     		movs	r0, #0
 369:Core/Src/ADBMS.cpp ****         {
 2368              		.loc 1 369 9 view .LVU736
 2369 006e 11E0     		b	.L151
 2370              	.LVL268:
 2371              	.L152:
 2372              	.LBB73:
 373:Core/Src/ADBMS.cpp ****           }
 2373              		.loc 1 373 13 is_stmt 1 discriminator 3 view .LVU737
 373:Core/Src/ADBMS.cpp ****           }
 2374              		.loc 1 373 59 is_stmt 0 discriminator 3 view .LVU738
 2375 0070 4FF42872 		mov	r2, #672
 2376 0074 02FB0042 		mla	r2, r2, r0, r4
 373:Core/Src/ADBMS.cpp ****           }
 2377              		.loc 1 373 31 discriminator 3 view .LVU739
 2378 0078 00EB4001 		add	r1, r0, r0, lsl #1
 373:Core/Src/ADBMS.cpp ****           }
 2379              		.loc 1 373 43 discriminator 3 view .LVU740
 2380 007c 03EB4101 		add	r1, r3, r1, lsl #1
 373:Core/Src/ADBMS.cpp ****           }
 2381              		.loc 1 373 81 discriminator 3 view .LVU741
ARM GAS  C:\Users\huawei\AppData\Local\Temp\ccpVCJY0.s 			page 67


 2382 0080 1A44     		add	r2, r2, r3
 2383 0082 92F81F21 		ldrb	r2, [r2, #287]	@ zero_extendqisi2
 373:Core/Src/ADBMS.cpp ****           }
 2384              		.loc 1 373 51 discriminator 3 view .LVU742
 2385 0086 6A54     		strb	r2, [r5, r1]
 371:Core/Src/ADBMS.cpp ****           {
 2386              		.loc 1 371 11 is_stmt 1 discriminator 3 view .LVU743
 2387 0088 0133     		adds	r3, r3, #1
 2388              	.LVL269:
 371:Core/Src/ADBMS.cpp ****           {
 2389              		.loc 1 371 11 is_stmt 0 discriminator 3 view .LVU744
 2390 008a DBB2     		uxtb	r3, r3
 2391              	.LVL270:
 2392              	.L153:
 371:Core/Src/ADBMS.cpp ****           {
 2393              		.loc 1 371 39 is_stmt 1 discriminator 1 view .LVU745
 2394 008c 052B     		cmp	r3, #5
 2395 008e EFD9     		bls	.L152
 2396              	.LBE73:
 369:Core/Src/ADBMS.cpp ****         {
 2397              		.loc 1 369 9 discriminator 2 view .LVU746
 2398 0090 0130     		adds	r0, r0, #1
 2399              	.LVL271:
 369:Core/Src/ADBMS.cpp ****         {
 2400              		.loc 1 369 9 is_stmt 0 discriminator 2 view .LVU747
 2401 0092 C0B2     		uxtb	r0, r0
 2402              	.LVL272:
 2403              	.L151:
 369:Core/Src/ADBMS.cpp ****         {
 2404              		.loc 1 369 35 is_stmt 1 discriminator 1 view .LVU748
 2405 0094 B042     		cmp	r0, r6
 2406 0096 DBD2     		bcs	.L143
 2407              	.LBB74:
 371:Core/Src/ADBMS.cpp ****           {
 2408              		.loc 1 371 24 is_stmt 0 view .LVU749
 2409 0098 0023     		movs	r3, #0
 2410 009a F7E7     		b	.L153
 2411              	.LVL273:
 2412              	.L150:
 371:Core/Src/ADBMS.cpp ****           {
 2413              		.loc 1 371 24 view .LVU750
 2414              	.LBE74:
 2415              	.LBE72:
 377:Core/Src/ADBMS.cpp ****         adBms6830CreateConfigb(tIC, &ic[0]);
 2416              		.loc 1 377 7 is_stmt 1 view .LVU751
 378:Core/Src/ADBMS.cpp ****         for (uint8_t cic = 0; cic < tIC; cic++)
 2417              		.loc 1 378 9 view .LVU752
 378:Core/Src/ADBMS.cpp ****         for (uint8_t cic = 0; cic < tIC; cic++)
 2418              		.loc 1 378 31 is_stmt 0 view .LVU753
 2419 009c 2146     		mov	r1, r4
 2420 009e 3046     		mov	r0, r6
 2421              	.LVL274:
 378:Core/Src/ADBMS.cpp ****         for (uint8_t cic = 0; cic < tIC; cic++)
 2422              		.loc 1 378 31 view .LVU754
 2423 00a0 FFF7FEFF 		bl	_Z22adBms6830CreateConfigbhP9cell_asic
 2424              	.LVL275:
 379:Core/Src/ADBMS.cpp ****         {
ARM GAS  C:\Users\huawei\AppData\Local\Temp\ccpVCJY0.s 			page 68


 2425              		.loc 1 379 9 is_stmt 1 view .LVU755
 2426              	.LBB75:
 379:Core/Src/ADBMS.cpp ****         {
 2427              		.loc 1 379 22 is_stmt 0 view .LVU756
 2428 00a4 0020     		movs	r0, #0
 379:Core/Src/ADBMS.cpp ****         {
 2429              		.loc 1 379 9 view .LVU757
 2430 00a6 11E0     		b	.L154
 2431              	.LVL276:
 2432              	.L155:
 2433              	.LBB76:
 383:Core/Src/ADBMS.cpp ****           }
 2434              		.loc 1 383 13 is_stmt 1 discriminator 3 view .LVU758
 383:Core/Src/ADBMS.cpp ****           }
 2435              		.loc 1 383 59 is_stmt 0 discriminator 3 view .LVU759
 2436 00a8 4FF42872 		mov	r2, #672
 2437 00ac 02FB0042 		mla	r2, r2, r0, r4
 383:Core/Src/ADBMS.cpp ****           }
 2438              		.loc 1 383 31 discriminator 3 view .LVU760
 2439 00b0 00EB4001 		add	r1, r0, r0, lsl #1
 383:Core/Src/ADBMS.cpp ****           }
 2440              		.loc 1 383 43 discriminator 3 view .LVU761
 2441 00b4 03EB4101 		add	r1, r3, r1, lsl #1
 383:Core/Src/ADBMS.cpp ****           }
 2442              		.loc 1 383 81 discriminator 3 view .LVU762
 2443 00b8 1A44     		add	r2, r2, r3
 2444 00ba 92F82D21 		ldrb	r2, [r2, #301]	@ zero_extendqisi2
 383:Core/Src/ADBMS.cpp ****           }
 2445              		.loc 1 383 51 discriminator 3 view .LVU763
 2446 00be 6A54     		strb	r2, [r5, r1]
 381:Core/Src/ADBMS.cpp ****           {
 2447              		.loc 1 381 11 is_stmt 1 discriminator 3 view .LVU764
 2448 00c0 0133     		adds	r3, r3, #1
 2449              	.LVL277:
 381:Core/Src/ADBMS.cpp ****           {
 2450              		.loc 1 381 11 is_stmt 0 discriminator 3 view .LVU765
 2451 00c2 DBB2     		uxtb	r3, r3
 2452              	.LVL278:
 2453              	.L156:
 381:Core/Src/ADBMS.cpp ****           {
 2454              		.loc 1 381 39 is_stmt 1 discriminator 1 view .LVU766
 2455 00c4 052B     		cmp	r3, #5
 2456 00c6 EFD9     		bls	.L155
 2457              	.LBE76:
 379:Core/Src/ADBMS.cpp ****         {
 2458              		.loc 1 379 9 discriminator 2 view .LVU767
 2459 00c8 0130     		adds	r0, r0, #1
 2460              	.LVL279:
 379:Core/Src/ADBMS.cpp ****         {
 2461              		.loc 1 379 9 is_stmt 0 discriminator 2 view .LVU768
 2462 00ca C0B2     		uxtb	r0, r0
 2463              	.LVL280:
 2464              	.L154:
 379:Core/Src/ADBMS.cpp ****         {
 2465              		.loc 1 379 35 is_stmt 1 discriminator 1 view .LVU769
 2466 00cc B042     		cmp	r0, r6
 2467 00ce BFD2     		bcs	.L143
ARM GAS  C:\Users\huawei\AppData\Local\Temp\ccpVCJY0.s 			page 69


 2468              	.LBB77:
 381:Core/Src/ADBMS.cpp ****           {
 2469              		.loc 1 381 24 is_stmt 0 view .LVU770
 2470 00d0 0023     		movs	r3, #0
 2471 00d2 F7E7     		b	.L156
 2472              	.LVL281:
 2473              	.L146:
 381:Core/Src/ADBMS.cpp ****           {
 2474              		.loc 1 381 24 view .LVU771
 2475              	.LBE77:
 2476              	.LBE75:
 2477              	.LBE71:
 2478              	.LBE78:
 390:Core/Src/ADBMS.cpp ****       adBms6830CreateComm(tIC, &ic[0]);
 2479              		.loc 1 390 5 is_stmt 1 view .LVU772
 391:Core/Src/ADBMS.cpp ****       for (uint8_t cic = 0; cic < tIC; cic++)
 2480              		.loc 1 391 7 view .LVU773
 391:Core/Src/ADBMS.cpp ****       for (uint8_t cic = 0; cic < tIC; cic++)
 2481              		.loc 1 391 26 is_stmt 0 view .LVU774
 2482 00d4 2146     		mov	r1, r4
 2483 00d6 3046     		mov	r0, r6
 2484              	.LVL282:
 391:Core/Src/ADBMS.cpp ****       for (uint8_t cic = 0; cic < tIC; cic++)
 2485              		.loc 1 391 26 view .LVU775
 2486 00d8 FFF7FEFF 		bl	_Z19adBms6830CreateCommhP9cell_asic
 2487              	.LVL283:
 392:Core/Src/ADBMS.cpp ****       {
 2488              		.loc 1 392 7 is_stmt 1 view .LVU776
 2489              	.LBB79:
 392:Core/Src/ADBMS.cpp ****       {
 2490              		.loc 1 392 20 is_stmt 0 view .LVU777
 2491 00dc 0020     		movs	r0, #0
 392:Core/Src/ADBMS.cpp ****       {
 2492              		.loc 1 392 7 view .LVU778
 2493 00de 11E0     		b	.L157
 2494              	.LVL284:
 2495              	.L158:
 2496              	.LBB80:
 396:Core/Src/ADBMS.cpp ****         }
 2497              		.loc 1 396 11 is_stmt 1 discriminator 3 view .LVU779
 396:Core/Src/ADBMS.cpp ****         }
 2498              		.loc 1 396 57 is_stmt 0 discriminator 3 view .LVU780
 2499 00e0 4FF42872 		mov	r2, #672
 2500 00e4 02FB0042 		mla	r2, r2, r0, r4
 396:Core/Src/ADBMS.cpp ****         }
 2501              		.loc 1 396 29 discriminator 3 view .LVU781
 2502 00e8 00EB4001 		add	r1, r0, r0, lsl #1
 396:Core/Src/ADBMS.cpp ****         }
 2503              		.loc 1 396 41 discriminator 3 view .LVU782
 2504 00ec 03EB4101 		add	r1, r3, r1, lsl #1
 396:Core/Src/ADBMS.cpp ****         }
 2505              		.loc 1 396 75 discriminator 3 view .LVU783
 2506 00f0 1A44     		add	r2, r2, r3
 2507 00f2 92F85721 		ldrb	r2, [r2, #343]	@ zero_extendqisi2
 396:Core/Src/ADBMS.cpp ****         }
 2508              		.loc 1 396 49 discriminator 3 view .LVU784
 2509 00f6 6A54     		strb	r2, [r5, r1]
ARM GAS  C:\Users\huawei\AppData\Local\Temp\ccpVCJY0.s 			page 70


 394:Core/Src/ADBMS.cpp ****         {
 2510              		.loc 1 394 9 is_stmt 1 discriminator 3 view .LVU785
 2511 00f8 0133     		adds	r3, r3, #1
 2512              	.LVL285:
 394:Core/Src/ADBMS.cpp ****         {
 2513              		.loc 1 394 9 is_stmt 0 discriminator 3 view .LVU786
 2514 00fa DBB2     		uxtb	r3, r3
 2515              	.LVL286:
 2516              	.L159:
 394:Core/Src/ADBMS.cpp ****         {
 2517              		.loc 1 394 37 is_stmt 1 discriminator 1 view .LVU787
 2518 00fc 052B     		cmp	r3, #5
 2519 00fe EFD9     		bls	.L158
 2520              	.LBE80:
 392:Core/Src/ADBMS.cpp ****       {
 2521              		.loc 1 392 7 discriminator 2 view .LVU788
 2522 0100 0130     		adds	r0, r0, #1
 2523              	.LVL287:
 392:Core/Src/ADBMS.cpp ****       {
 2524              		.loc 1 392 7 is_stmt 0 discriminator 2 view .LVU789
 2525 0102 C0B2     		uxtb	r0, r0
 2526              	.LVL288:
 2527              	.L157:
 392:Core/Src/ADBMS.cpp ****       {
 2528              		.loc 1 392 33 is_stmt 1 discriminator 1 view .LVU790
 2529 0104 B042     		cmp	r0, r6
 2530 0106 A3D2     		bcs	.L143
 2531              	.LBB81:
 394:Core/Src/ADBMS.cpp ****         {
 2532              		.loc 1 394 22 is_stmt 0 view .LVU791
 2533 0108 0023     		movs	r3, #0
 2534 010a F7E7     		b	.L159
 2535              	.LVL289:
 2536              	.L148:
 394:Core/Src/ADBMS.cpp ****         {
 2537              		.loc 1 394 22 view .LVU792
 2538              	.LBE81:
 2539              	.LBE79:
 401:Core/Src/ADBMS.cpp ****       switch (group)
 2540              		.loc 1 401 5 is_stmt 1 view .LVU793
 402:Core/Src/ADBMS.cpp ****       {
 2541              		.loc 1 402 7 view .LVU794
 2542              	.LBB82:
 2543 010c B9F1010F 		cmp	r9, #1
 2544 0110 08D0     		beq	.L160
 2545 0112 B9F1020F 		cmp	r9, #2
 2546 0116 9BD1     		bne	.L143
 2547              	.LBB83:
 414:Core/Src/ADBMS.cpp ****         adBms6830CreatePwmb(tIC, &ic[0]);
 2548              		.loc 1 414 7 view .LVU795
 415:Core/Src/ADBMS.cpp ****         for (uint8_t cic = 0; cic < tIC; cic++)
 2549              		.loc 1 415 9 view .LVU796
 415:Core/Src/ADBMS.cpp ****         for (uint8_t cic = 0; cic < tIC; cic++)
 2550              		.loc 1 415 28 is_stmt 0 view .LVU797
 2551 0118 2146     		mov	r1, r4
 2552 011a 3046     		mov	r0, r6
 2553              	.LVL290:
ARM GAS  C:\Users\huawei\AppData\Local\Temp\ccpVCJY0.s 			page 71


 415:Core/Src/ADBMS.cpp ****         for (uint8_t cic = 0; cic < tIC; cic++)
 2554              		.loc 1 415 28 view .LVU798
 2555 011c FFF7FEFF 		bl	_Z19adBms6830CreatePwmbhP9cell_asic
 2556              	.LVL291:
 416:Core/Src/ADBMS.cpp ****         {
 2557              		.loc 1 416 9 is_stmt 1 view .LVU799
 2558              	.LBB84:
 416:Core/Src/ADBMS.cpp ****         {
 2559              		.loc 1 416 22 is_stmt 0 view .LVU800
 2560 0120 0020     		movs	r0, #0
 416:Core/Src/ADBMS.cpp ****         {
 2561              		.loc 1 416 9 view .LVU801
 2562 0122 2EE0     		b	.L165
 2563              	.LVL292:
 2564              	.L160:
 416:Core/Src/ADBMS.cpp ****         {
 2565              		.loc 1 416 9 view .LVU802
 2566              	.LBE84:
 404:Core/Src/ADBMS.cpp ****         adBms6830CreatePwma(tIC, &ic[0]);
 2567              		.loc 1 404 7 is_stmt 1 view .LVU803
 405:Core/Src/ADBMS.cpp ****         for (uint8_t cic = 0; cic < tIC; cic++)
 2568              		.loc 1 405 9 view .LVU804
 405:Core/Src/ADBMS.cpp ****         for (uint8_t cic = 0; cic < tIC; cic++)
 2569              		.loc 1 405 28 is_stmt 0 view .LVU805
 2570 0124 2146     		mov	r1, r4
 2571 0126 3046     		mov	r0, r6
 2572              	.LVL293:
 405:Core/Src/ADBMS.cpp ****         for (uint8_t cic = 0; cic < tIC; cic++)
 2573              		.loc 1 405 28 view .LVU806
 2574 0128 FFF7FEFF 		bl	_Z19adBms6830CreatePwmahP9cell_asic
 2575              	.LVL294:
 406:Core/Src/ADBMS.cpp ****         {
 2576              		.loc 1 406 9 is_stmt 1 view .LVU807
 2577              	.LBB87:
 406:Core/Src/ADBMS.cpp ****         {
 2578              		.loc 1 406 22 is_stmt 0 view .LVU808
 2579 012c 0020     		movs	r0, #0
 406:Core/Src/ADBMS.cpp ****         {
 2580              		.loc 1 406 9 view .LVU809
 2581 012e 11E0     		b	.L162
 2582              	.LVL295:
 2583              	.L163:
 2584              	.LBB88:
 410:Core/Src/ADBMS.cpp ****           }
 2585              		.loc 1 410 13 is_stmt 1 discriminator 3 view .LVU810
 410:Core/Src/ADBMS.cpp ****           }
 2586              		.loc 1 410 59 is_stmt 0 discriminator 3 view .LVU811
 2587 0130 4FF42872 		mov	r2, #672
 2588 0134 02FB0042 		mla	r2, r2, r0, r4
 410:Core/Src/ADBMS.cpp ****           }
 2589              		.loc 1 410 31 discriminator 3 view .LVU812
 2590 0138 00EB4001 		add	r1, r0, r0, lsl #1
 410:Core/Src/ADBMS.cpp ****           }
 2591              		.loc 1 410 43 discriminator 3 view .LVU813
 2592 013c 03EB4101 		add	r1, r3, r1, lsl #1
 410:Core/Src/ADBMS.cpp ****           }
 2593              		.loc 1 410 78 discriminator 3 view .LVU814
ARM GAS  C:\Users\huawei\AppData\Local\Temp\ccpVCJY0.s 			page 72


 2594 0140 1A44     		add	r2, r2, r3
 2595 0142 92F86521 		ldrb	r2, [r2, #357]	@ zero_extendqisi2
 410:Core/Src/ADBMS.cpp ****           }
 2596              		.loc 1 410 51 discriminator 3 view .LVU815
 2597 0146 6A54     		strb	r2, [r5, r1]
 408:Core/Src/ADBMS.cpp ****           {
 2598              		.loc 1 408 11 is_stmt 1 discriminator 3 view .LVU816
 2599 0148 0133     		adds	r3, r3, #1
 2600              	.LVL296:
 408:Core/Src/ADBMS.cpp ****           {
 2601              		.loc 1 408 11 is_stmt 0 discriminator 3 view .LVU817
 2602 014a DBB2     		uxtb	r3, r3
 2603              	.LVL297:
 2604              	.L164:
 408:Core/Src/ADBMS.cpp ****           {
 2605              		.loc 1 408 39 is_stmt 1 discriminator 1 view .LVU818
 2606 014c 052B     		cmp	r3, #5
 2607 014e EFD9     		bls	.L163
 2608              	.LBE88:
 406:Core/Src/ADBMS.cpp ****         {
 2609              		.loc 1 406 9 discriminator 2 view .LVU819
 2610 0150 0130     		adds	r0, r0, #1
 2611              	.LVL298:
 406:Core/Src/ADBMS.cpp ****         {
 2612              		.loc 1 406 9 is_stmt 0 discriminator 2 view .LVU820
 2613 0152 C0B2     		uxtb	r0, r0
 2614              	.LVL299:
 2615              	.L162:
 406:Core/Src/ADBMS.cpp ****         {
 2616              		.loc 1 406 35 is_stmt 1 discriminator 1 view .LVU821
 2617 0154 B042     		cmp	r0, r6
 2618 0156 BFF47BAF 		bcs	.L143
 2619              	.LBB89:
 408:Core/Src/ADBMS.cpp ****           {
 2620              		.loc 1 408 24 is_stmt 0 view .LVU822
 2621 015a 0023     		movs	r3, #0
 2622 015c F6E7     		b	.L164
 2623              	.LVL300:
 2624              	.L166:
 408:Core/Src/ADBMS.cpp ****           {
 2625              		.loc 1 408 24 view .LVU823
 2626              	.LBE89:
 2627              	.LBE87:
 2628              	.LBB90:
 2629              	.LBB85:
 420:Core/Src/ADBMS.cpp ****           }
 2630              		.loc 1 420 13 is_stmt 1 discriminator 3 view .LVU824
 420:Core/Src/ADBMS.cpp ****           }
 2631              		.loc 1 420 59 is_stmt 0 discriminator 3 view .LVU825
 2632 015e 4FF42872 		mov	r2, #672
 2633 0162 02FB0042 		mla	r2, r2, r0, r4
 420:Core/Src/ADBMS.cpp ****           }
 2634              		.loc 1 420 31 discriminator 3 view .LVU826
 2635 0166 00EB4001 		add	r1, r0, r0, lsl #1
 420:Core/Src/ADBMS.cpp ****           }
 2636              		.loc 1 420 43 discriminator 3 view .LVU827
 2637 016a 03EB4101 		add	r1, r3, r1, lsl #1
ARM GAS  C:\Users\huawei\AppData\Local\Temp\ccpVCJY0.s 			page 73


 420:Core/Src/ADBMS.cpp ****           }
 2638              		.loc 1 420 78 discriminator 3 view .LVU828
 2639 016e 1A44     		add	r2, r2, r3
 2640 0170 92F87321 		ldrb	r2, [r2, #371]	@ zero_extendqisi2
 420:Core/Src/ADBMS.cpp ****           }
 2641              		.loc 1 420 51 discriminator 3 view .LVU829
 2642 0174 6A54     		strb	r2, [r5, r1]
 418:Core/Src/ADBMS.cpp ****           {
 2643              		.loc 1 418 11 is_stmt 1 discriminator 3 view .LVU830
 2644 0176 0133     		adds	r3, r3, #1
 2645              	.LVL301:
 418:Core/Src/ADBMS.cpp ****           {
 2646              		.loc 1 418 11 is_stmt 0 discriminator 3 view .LVU831
 2647 0178 DBB2     		uxtb	r3, r3
 2648              	.LVL302:
 2649              	.L167:
 418:Core/Src/ADBMS.cpp ****           {
 2650              		.loc 1 418 39 is_stmt 1 discriminator 1 view .LVU832
 2651 017a 052B     		cmp	r3, #5
 2652 017c EFD9     		bls	.L166
 2653              	.LBE85:
 416:Core/Src/ADBMS.cpp ****         {
 2654              		.loc 1 416 9 discriminator 2 view .LVU833
 2655 017e 0130     		adds	r0, r0, #1
 2656              	.LVL303:
 416:Core/Src/ADBMS.cpp ****         {
 2657              		.loc 1 416 9 is_stmt 0 discriminator 2 view .LVU834
 2658 0180 C0B2     		uxtb	r0, r0
 2659              	.LVL304:
 2660              	.L165:
 416:Core/Src/ADBMS.cpp ****         {
 2661              		.loc 1 416 35 is_stmt 1 discriminator 1 view .LVU835
 2662 0182 B042     		cmp	r0, r6
 2663 0184 BFF464AF 		bcs	.L143
 2664              	.LBB86:
 418:Core/Src/ADBMS.cpp ****           {
 2665              		.loc 1 418 24 is_stmt 0 view .LVU836
 2666 0188 0023     		movs	r3, #0
 2667 018a F6E7     		b	.L167
 2668              	.LVL305:
 2669              	.L144:
 418:Core/Src/ADBMS.cpp ****           {
 2670              		.loc 1 418 24 view .LVU837
 2671              	.LBE86:
 2672              	.LBE90:
 2673              	.LBE83:
 2674              	.LBE82:
 427:Core/Src/ADBMS.cpp ****       adBms6830CreateClrflagData(tIC, &ic[0]);
 2675              		.loc 1 427 5 is_stmt 1 view .LVU838
 428:Core/Src/ADBMS.cpp ****       for (uint8_t cic = 0; cic < tIC; cic++)
 2676              		.loc 1 428 7 view .LVU839
 428:Core/Src/ADBMS.cpp ****       for (uint8_t cic = 0; cic < tIC; cic++)
 2677              		.loc 1 428 33 is_stmt 0 view .LVU840
 2678 018c 2146     		mov	r1, r4
 2679 018e 3046     		mov	r0, r6
 2680              	.LVL306:
 428:Core/Src/ADBMS.cpp ****       for (uint8_t cic = 0; cic < tIC; cic++)
ARM GAS  C:\Users\huawei\AppData\Local\Temp\ccpVCJY0.s 			page 74


 2681              		.loc 1 428 33 view .LVU841
 2682 0190 FFF7FEFF 		bl	_Z26adBms6830CreateClrflagDatahP9cell_asic
 2683              	.LVL307:
 429:Core/Src/ADBMS.cpp ****       {
 2684              		.loc 1 429 7 is_stmt 1 view .LVU842
 2685              	.LBB91:
 429:Core/Src/ADBMS.cpp ****       {
 2686              		.loc 1 429 20 is_stmt 0 view .LVU843
 2687 0194 0020     		movs	r0, #0
 429:Core/Src/ADBMS.cpp ****       {
 2688              		.loc 1 429 7 view .LVU844
 2689 0196 11E0     		b	.L168
 2690              	.LVL308:
 2691              	.L169:
 2692              	.LBB92:
 433:Core/Src/ADBMS.cpp ****         }
 2693              		.loc 1 433 11 is_stmt 1 discriminator 3 view .LVU845
 433:Core/Src/ADBMS.cpp ****         }
 2694              		.loc 1 433 57 is_stmt 0 discriminator 3 view .LVU846
 2695 0198 4FF42872 		mov	r2, #672
 2696 019c 02FB0042 		mla	r2, r2, r0, r4
 433:Core/Src/ADBMS.cpp ****         }
 2697              		.loc 1 433 29 discriminator 3 view .LVU847
 2698 01a0 00EB4001 		add	r1, r0, r0, lsl #1
 433:Core/Src/ADBMS.cpp ****         }
 2699              		.loc 1 433 41 discriminator 3 view .LVU848
 2700 01a4 03EB4101 		add	r1, r3, r1, lsl #1
 433:Core/Src/ADBMS.cpp ****         }
 2701              		.loc 1 433 79 discriminator 3 view .LVU849
 2702 01a8 1A44     		add	r2, r2, r3
 2703 01aa 92F83B21 		ldrb	r2, [r2, #315]	@ zero_extendqisi2
 433:Core/Src/ADBMS.cpp ****         }
 2704              		.loc 1 433 49 discriminator 3 view .LVU850
 2705 01ae 6A54     		strb	r2, [r5, r1]
 431:Core/Src/ADBMS.cpp ****         {
 2706              		.loc 1 431 9 is_stmt 1 discriminator 3 view .LVU851
 2707 01b0 0133     		adds	r3, r3, #1
 2708              	.LVL309:
 431:Core/Src/ADBMS.cpp ****         {
 2709              		.loc 1 431 9 is_stmt 0 discriminator 3 view .LVU852
 2710 01b2 DBB2     		uxtb	r3, r3
 2711              	.LVL310:
 2712              	.L170:
 431:Core/Src/ADBMS.cpp ****         {
 2713              		.loc 1 431 37 is_stmt 1 discriminator 1 view .LVU853
 2714 01b4 052B     		cmp	r3, #5
 2715 01b6 EFD9     		bls	.L169
 2716              	.LBE92:
 429:Core/Src/ADBMS.cpp ****       {
 2717              		.loc 1 429 7 discriminator 2 view .LVU854
 2718 01b8 0130     		adds	r0, r0, #1
 2719              	.LVL311:
 429:Core/Src/ADBMS.cpp ****       {
 2720              		.loc 1 429 7 is_stmt 0 discriminator 2 view .LVU855
 2721 01ba C0B2     		uxtb	r0, r0
 2722              	.LVL312:
 2723              	.L168:
ARM GAS  C:\Users\huawei\AppData\Local\Temp\ccpVCJY0.s 			page 75


 429:Core/Src/ADBMS.cpp ****       {
 2724              		.loc 1 429 33 is_stmt 1 discriminator 1 view .LVU856
 2725 01bc B042     		cmp	r0, r6
 2726 01be BFF447AF 		bcs	.L143
 2727              	.LBB93:
 431:Core/Src/ADBMS.cpp ****         {
 2728              		.loc 1 431 22 is_stmt 0 view .LVU857
 2729 01c2 0023     		movs	r3, #0
 2730 01c4 F6E7     		b	.L170
 2731              	.L181:
 2732 01c6 00BF     		.align	2
 2733              	.L180:
 2734 01c8 00000000 		.word	.LC4
 2735              	.LBE93:
 2736              	.LBE91:
 2737              	.LBE94:
 2738              	.LBE96:
 2739              	.LBE98:
 2740              		.cfi_endproc
 2741              	.LFE249:
 2742              		.fnend
 2744              		.section	.text._Z12adBmsPollAdcPh,"ax",%progbits
 2745              		.align	1
 2746              		.global	_Z12adBmsPollAdcPh
 2747              		.syntax unified
 2748              		.thumb
 2749              		.thumb_func
 2751              	_Z12adBmsPollAdcPh:
 2752              		.fnstart
 2753              	.LVL313:
 2754              	.LFB254:
 703:Core/Src/ADBMS.cpp **** 
 704:Core/Src/ADBMS.cpp **** /**
 705:Core/Src/ADBMS.cpp **** *******************************************************************************
 706:Core/Src/ADBMS.cpp **** * Function: adBmsPollAdc
 707:Core/Src/ADBMS.cpp **** * @brief PLADC Command.
 708:Core/Src/ADBMS.cpp **** *
 709:Core/Src/ADBMS.cpp **** * @details Send poll adc command and retun adc conversion count.
 710:Core/Src/ADBMS.cpp **** *
 711:Core/Src/ADBMS.cpp **** * Parameters:
 712:Core/Src/ADBMS.cpp **** *
 713:Core/Src/ADBMS.cpp **** * @param [in]  tIC      Total IC
 714:Core/Src/ADBMS.cpp **** *
 715:Core/Src/ADBMS.cpp **** * @param [in]  tx_cmd   Tx command byte
 716:Core/Src/ADBMS.cpp **** *
 717:Core/Src/ADBMS.cpp **** * @return None
 718:Core/Src/ADBMS.cpp **** *
 719:Core/Src/ADBMS.cpp **** *******************************************************************************
 720:Core/Src/ADBMS.cpp **** */
 721:Core/Src/ADBMS.cpp **** uint32_t adBmsPollAdc(uint8_t tx_cmd[2])
 722:Core/Src/ADBMS.cpp **** {
 2755              		.loc 1 722 1 is_stmt 1 view -0
 2756              		.cfi_startproc
 2757              		@ args = 0, pretend = 0, frame = 8
 2758              		@ frame_needed = 0, uses_anonymous_args = 0
 2759              		.loc 1 722 1 is_stmt 0 view .LVU859
 2760 0000 00B5     		push	{lr}
ARM GAS  C:\Users\huawei\AppData\Local\Temp\ccpVCJY0.s 			page 76


 2761              		.save {lr}
 2762              	.LCFI17:
 2763              		.cfi_def_cfa_offset 4
 2764              		.cfi_offset 14, -4
 2765              		.pad #12
 2766 0002 83B0     		sub	sp, sp, #12
 2767              	.LCFI18:
 2768              		.cfi_def_cfa_offset 16
 723:Core/Src/ADBMS.cpp ****   uint32_t conv_count = 0; // sure olcmek icindi kullanilmiyor
 2769              		.loc 1 723 3 is_stmt 1 view .LVU860
 2770              	.LVL314:
 724:Core/Src/ADBMS.cpp ****   uint8_t cmd[4];
 2771              		.loc 1 724 3 view .LVU861
 725:Core/Src/ADBMS.cpp ****   uint16_t cmd_pec;
 2772              		.loc 1 725 3 view .LVU862
 726:Core/Src/ADBMS.cpp ****   uint8_t read_data = 0x00;
 2773              		.loc 1 726 3 view .LVU863
 2774              		.loc 1 726 11 is_stmt 0 view .LVU864
 2775 0004 0023     		movs	r3, #0
 2776 0006 8DF80330 		strb	r3, [sp, #3]
 727:Core/Src/ADBMS.cpp ****   uint8_t SDO_Line = 0xFF;
 2777              		.loc 1 727 3 is_stmt 1 view .LVU865
 2778              	.LVL315:
 728:Core/Src/ADBMS.cpp ****   cmd[0] = tx_cmd[0];
 2779              		.loc 1 728 3 view .LVU866
 2780              		.loc 1 728 20 is_stmt 0 view .LVU867
 2781 000a 0378     		ldrb	r3, [r0]	@ zero_extendqisi2
 2782              		.loc 1 728 10 view .LVU868
 2783 000c 8DF80430 		strb	r3, [sp, #4]
 729:Core/Src/ADBMS.cpp ****   cmd[1] = tx_cmd[1];
 2784              		.loc 1 729 3 is_stmt 1 view .LVU869
 2785              		.loc 1 729 10 is_stmt 0 view .LVU870
 2786 0010 4378     		ldrb	r3, [r0, #1]	@ zero_extendqisi2
 2787 0012 8DF80530 		strb	r3, [sp, #5]
 730:Core/Src/ADBMS.cpp ****   cmd_pec = Pec15_Calc(2, cmd);
 2788              		.loc 1 730 3 is_stmt 1 view .LVU871
 2789              		.loc 1 730 23 is_stmt 0 view .LVU872
 2790 0016 01A9     		add	r1, sp, #4
 2791 0018 0220     		movs	r0, #2
 2792              	.LVL316:
 2793              		.loc 1 730 23 view .LVU873
 2794 001a FFF7FEFF 		bl	_Z10Pec15_CalchPh
 2795              	.LVL317:
 731:Core/Src/ADBMS.cpp ****   cmd[2] = (uint8_t)(cmd_pec >> 8);
 2796              		.loc 1 731 3 is_stmt 1 view .LVU874
 2797              		.loc 1 731 30 is_stmt 0 view .LVU875
 2798 001e C0F30F23 		ubfx	r3, r0, #8, #16
 2799              		.loc 1 731 10 view .LVU876
 2800 0022 8DF80630 		strb	r3, [sp, #6]
 732:Core/Src/ADBMS.cpp ****   cmd[3] = (uint8_t)(cmd_pec);
 2801              		.loc 1 732 3 is_stmt 1 view .LVU877
 2802              		.loc 1 732 10 is_stmt 0 view .LVU878
 2803 0026 8DF80700 		strb	r0, [sp, #7]
 733:Core/Src/ADBMS.cpp ****   adBmsCsLow();
 2804              		.loc 1 733 3 is_stmt 1 view .LVU879
 2805              		.loc 1 733 13 is_stmt 0 view .LVU880
 2806 002a FFF7FEFF 		bl	_Z10adBmsCsLowv
ARM GAS  C:\Users\huawei\AppData\Local\Temp\ccpVCJY0.s 			page 77


 2807              	.LVL318:
 734:Core/Src/ADBMS.cpp ****   HAL_SPI_Transmit(hspi, &cmd[0], 4, SPI_TIME_OUT);
 2808              		.loc 1 734 3 is_stmt 1 view .LVU881
 2809              		.loc 1 734 19 is_stmt 0 view .LVU882
 2810 002e 4FF0FF33 		mov	r3, #-1
 2811 0032 0422     		movs	r2, #4
 2812 0034 0DEB0201 		add	r1, sp, r2
 2813 0038 0B48     		ldr	r0, .L185
 2814 003a 0068     		ldr	r0, [r0]
 2815 003c FFF7FEFF 		bl	HAL_SPI_Transmit
 2816              	.LVL319:
 2817              	.L183:
 735:Core/Src/ADBMS.cpp ****   do{
 2818              		.loc 1 735 3 is_stmt 1 view .LVU883
 736:Core/Src/ADBMS.cpp ****     HAL_SPI_Receive(hspi, &read_data, 1, SPI_TIME_OUT);
 2819              		.loc 1 736 5 view .LVU884
 2820              		.loc 1 736 20 is_stmt 0 view .LVU885
 2821 0040 4FF0FF33 		mov	r3, #-1
 2822 0044 0122     		movs	r2, #1
 2823 0046 0DF10301 		add	r1, sp, #3
 2824 004a 0748     		ldr	r0, .L185
 2825 004c 0068     		ldr	r0, [r0]
 2826 004e FFF7FEFF 		bl	HAL_SPI_Receive
 2827              	.LVL320:
 737:Core/Src/ADBMS.cpp ****   }while(!(read_data == SDO_Line));
 2828              		.loc 1 737 10 is_stmt 1 view .LVU886
 2829 0052 9DF80330 		ldrb	r3, [sp, #3]	@ zero_extendqisi2
 2830 0056 FF2B     		cmp	r3, #255
 2831 0058 F2D1     		bne	.L183
 738:Core/Src/ADBMS.cpp ****   adBmsCsHigh();
 2832              		.loc 1 738 3 view .LVU887
 2833              		.loc 1 738 14 is_stmt 0 view .LVU888
 2834 005a FFF7FEFF 		bl	_Z11adBmsCsHighv
 2835              	.LVL321:
 739:Core/Src/ADBMS.cpp ****   return(conv_count);
 2836              		.loc 1 739 3 is_stmt 1 view .LVU889
 740:Core/Src/ADBMS.cpp **** }
 2837              		.loc 1 740 1 is_stmt 0 view .LVU890
 2838 005e 0020     		movs	r0, #0
 2839 0060 03B0     		add	sp, sp, #12
 2840              	.LCFI19:
 2841              		.cfi_def_cfa_offset 4
 2842              		@ sp needed
 2843 0062 5DF804FB 		ldr	pc, [sp], #4
 2844              	.L186:
 2845 0066 00BF     		.align	2
 2846              	.L185:
 2847 0068 00000000 		.word	hspi
 2848              		.cfi_endproc
 2849              	.LFE254:
 2850              		.fnend
 2852              		.section	.text._Z14adBms6830_Adcv2RD4CONT3DCP4RSTF6OW_C_S,"ax",%progbits
 2853              		.align	1
 2854              		.global	_Z14adBms6830_Adcv2RD4CONT3DCP4RSTF6OW_C_S
 2855              		.syntax unified
 2856              		.thumb
 2857              		.thumb_func
ARM GAS  C:\Users\huawei\AppData\Local\Temp\ccpVCJY0.s 			page 78


 2859              	_Z14adBms6830_Adcv2RD4CONT3DCP4RSTF6OW_C_S:
 2860              		.fnstart
 2861              	.LVL322:
 2862              	.LFB255:
 741:Core/Src/ADBMS.cpp **** 
 742:Core/Src/ADBMS.cpp **** /**
 743:Core/Src/ADBMS.cpp **** *******************************************************************************
 744:Core/Src/ADBMS.cpp **** * Function: adBms6830_Adcv
 745:Core/Src/ADBMS.cpp **** * @brief ADCV Command.
 746:Core/Src/ADBMS.cpp **** *
 747:Core/Src/ADBMS.cpp **** * @details Send adcv command to start cell voltage conversion.
 748:Core/Src/ADBMS.cpp **** *
 749:Core/Src/ADBMS.cpp **** * Parameters:
 750:Core/Src/ADBMS.cpp **** *
 751:Core/Src/ADBMS.cpp **** * @param [in]  RD      Enum type Read bit
 752:Core/Src/ADBMS.cpp **** *
 753:Core/Src/ADBMS.cpp **** * @param [in]  CONT   Enum type continuous measurement bit
 754:Core/Src/ADBMS.cpp **** *
 755:Core/Src/ADBMS.cpp **** * @param [in]  DCP   Enum type discharge bit
 756:Core/Src/ADBMS.cpp **** *
 757:Core/Src/ADBMS.cpp **** * @param [in]  RSTF   Enum type Reset filter
 758:Core/Src/ADBMS.cpp **** *
 759:Core/Src/ADBMS.cpp **** * @param [in]  OW_C_S   Enum type open wire c/s
 760:Core/Src/ADBMS.cpp **** *
 761:Core/Src/ADBMS.cpp **** * @return None
 762:Core/Src/ADBMS.cpp **** *
 763:Core/Src/ADBMS.cpp **** *******************************************************************************
 764:Core/Src/ADBMS.cpp **** */
 765:Core/Src/ADBMS.cpp **** void adBms6830_Adcv
 766:Core/Src/ADBMS.cpp **** (
 767:Core/Src/ADBMS.cpp **** RD rd,
 768:Core/Src/ADBMS.cpp **** CONT cont,
 769:Core/Src/ADBMS.cpp **** DCP dcp,
 770:Core/Src/ADBMS.cpp **** RSTF rstf,
 771:Core/Src/ADBMS.cpp **** OW_C_S owcs
 772:Core/Src/ADBMS.cpp **** )
 773:Core/Src/ADBMS.cpp **** {
 2863              		.loc 1 773 1 is_stmt 1 view -0
 2864              		.cfi_startproc
 2865              		@ args = 4, pretend = 0, frame = 8
 2866              		@ frame_needed = 0, uses_anonymous_args = 0
 2867              		.loc 1 773 1 is_stmt 0 view .LVU892
 2868 0000 00B5     		push	{lr}
 2869              		.save {lr}
 2870              	.LCFI20:
 2871              		.cfi_def_cfa_offset 4
 2872              		.cfi_offset 14, -4
 2873              		.pad #12
 2874 0002 83B0     		sub	sp, sp, #12
 2875              	.LCFI21:
 2876              		.cfi_def_cfa_offset 16
 774:Core/Src/ADBMS.cpp ****   uint8_t cmd[2];
 2877              		.loc 1 774 3 is_stmt 1 view .LVU893
 775:Core/Src/ADBMS.cpp ****   cmd[0] = 0x02 + rd;
 2878              		.loc 1 775 3 view .LVU894
 2879              		.loc 1 775 17 is_stmt 0 view .LVU895
 2880 0004 0230     		adds	r0, r0, #2
ARM GAS  C:\Users\huawei\AppData\Local\Temp\ccpVCJY0.s 			page 79


 2881              	.LVL323:
 2882              		.loc 1 775 10 view .LVU896
 2883 0006 8DF80400 		strb	r0, [sp, #4]
 776:Core/Src/ADBMS.cpp ****   cmd[1] = (cont<<7)+(dcp<<4)+(rstf<<2)+(owcs & 0x03) + 0x60;
 2884              		.loc 1 776 3 is_stmt 1 view .LVU897
 2885              		.loc 1 776 17 is_stmt 0 view .LVU898
 2886 000a C901     		lsls	r1, r1, #7
 2887              	.LVL324:
 2888              		.loc 1 776 17 view .LVU899
 2889 000c C9B2     		uxtb	r1, r1
 2890              		.loc 1 776 26 view .LVU900
 2891 000e 1201     		lsls	r2, r2, #4
 2892              	.LVL325:
 2893              		.loc 1 776 26 view .LVU901
 2894 0010 D2B2     		uxtb	r2, r2
 2895              		.loc 1 776 21 view .LVU902
 2896 0012 1144     		add	r1, r1, r2
 2897 0014 C9B2     		uxtb	r1, r1
 2898              		.loc 1 776 36 view .LVU903
 2899 0016 9B00     		lsls	r3, r3, #2
 2900              	.LVL326:
 2901              		.loc 1 776 36 view .LVU904
 2902 0018 DBB2     		uxtb	r3, r3
 2903              		.loc 1 776 30 view .LVU905
 2904 001a 0B44     		add	r3, r3, r1
 2905 001c DBB2     		uxtb	r3, r3
 2906              		.loc 1 776 47 view .LVU906
 2907 001e 9DF81020 		ldrb	r2, [sp, #16]	@ zero_extendqisi2
 2908 0022 02F00302 		and	r2, r2, #3
 2909              		.loc 1 776 40 view .LVU907
 2910 0026 1344     		add	r3, r3, r2
 2911 0028 DBB2     		uxtb	r3, r3
 2912              		.loc 1 776 55 view .LVU908
 2913 002a 6033     		adds	r3, r3, #96
 2914              		.loc 1 776 10 view .LVU909
 2915 002c 8DF80530 		strb	r3, [sp, #5]
 777:Core/Src/ADBMS.cpp ****   spiSendCmd(cmd);
 2916              		.loc 1 777 3 is_stmt 1 view .LVU910
 2917              		.loc 1 777 13 is_stmt 0 view .LVU911
 2918 0030 01A8     		add	r0, sp, #4
 2919 0032 FFF7FEFF 		bl	_Z10spiSendCmdPh
 2920              	.LVL327:
 778:Core/Src/ADBMS.cpp **** }
 2921              		.loc 1 778 1 view .LVU912
 2922 0036 03B0     		add	sp, sp, #12
 2923              	.LCFI22:
 2924              		.cfi_def_cfa_offset 4
 2925              		@ sp needed
 2926 0038 5DF804FB 		ldr	pc, [sp], #4
 2927              		.loc 1 778 1 view .LVU913
 2928              		.cfi_endproc
 2929              	.LFE255:
 2930              		.fnend
 2932              		.section	.text._Z14adBms6830_Adsv4CONT3DCP6OW_C_S,"ax",%progbits
 2933              		.align	1
 2934              		.global	_Z14adBms6830_Adsv4CONT3DCP6OW_C_S
 2935              		.syntax unified
ARM GAS  C:\Users\huawei\AppData\Local\Temp\ccpVCJY0.s 			page 80


 2936              		.thumb
 2937              		.thumb_func
 2939              	_Z14adBms6830_Adsv4CONT3DCP6OW_C_S:
 2940              		.fnstart
 2941              	.LVL328:
 2942              	.LFB256:
 779:Core/Src/ADBMS.cpp **** 
 780:Core/Src/ADBMS.cpp **** /**
 781:Core/Src/ADBMS.cpp **** *******************************************************************************
 782:Core/Src/ADBMS.cpp **** * Function: adBms6830_Adsv
 783:Core/Src/ADBMS.cpp **** * @brief ADSV Command.
 784:Core/Src/ADBMS.cpp **** *
 785:Core/Src/ADBMS.cpp **** * @details Send s_adcv command to start cell voltage conversion.
 786:Core/Src/ADBMS.cpp **** *
 787:Core/Src/ADBMS.cpp **** * Parameters:
 788:Core/Src/ADBMS.cpp **** *
 789:Core/Src/ADBMS.cpp **** * @param [in]  cont    Enum type continuous measurement bit
 790:Core/Src/ADBMS.cpp **** *
 791:Core/Src/ADBMS.cpp **** * @param [in]  dcp    Enum type discharge bit
 792:Core/Src/ADBMS.cpp **** *
 793:Core/Src/ADBMS.cpp **** * @param [in]  owcs   Enum type open wire c/s
 794:Core/Src/ADBMS.cpp **** *
 795:Core/Src/ADBMS.cpp **** * @return None
 796:Core/Src/ADBMS.cpp **** *
 797:Core/Src/ADBMS.cpp **** *******************************************************************************
 798:Core/Src/ADBMS.cpp **** */
 799:Core/Src/ADBMS.cpp **** void adBms6830_Adsv
 800:Core/Src/ADBMS.cpp **** (
 801:Core/Src/ADBMS.cpp **** CONT cont,
 802:Core/Src/ADBMS.cpp **** DCP dcp,
 803:Core/Src/ADBMS.cpp **** OW_C_S owcs
 804:Core/Src/ADBMS.cpp **** )
 805:Core/Src/ADBMS.cpp **** {
 2943              		.loc 1 805 1 is_stmt 1 view -0
 2944              		.cfi_startproc
 2945              		@ args = 0, pretend = 0, frame = 8
 2946              		@ frame_needed = 0, uses_anonymous_args = 0
 2947              		.loc 1 805 1 is_stmt 0 view .LVU915
 2948 0000 00B5     		push	{lr}
 2949              		.save {lr}
 2950              	.LCFI23:
 2951              		.cfi_def_cfa_offset 4
 2952              		.cfi_offset 14, -4
 2953              		.pad #12
 2954 0002 83B0     		sub	sp, sp, #12
 2955              	.LCFI24:
 2956              		.cfi_def_cfa_offset 16
 806:Core/Src/ADBMS.cpp ****   uint8_t cmd[2];
 2957              		.loc 1 806 3 is_stmt 1 view .LVU916
 807:Core/Src/ADBMS.cpp ****   cmd[0] = 0x01;
 2958              		.loc 1 807 3 view .LVU917
 2959              		.loc 1 807 10 is_stmt 0 view .LVU918
 2960 0004 0123     		movs	r3, #1
 2961 0006 8DF80430 		strb	r3, [sp, #4]
 808:Core/Src/ADBMS.cpp ****   cmd[1] = (cont<<7)+(dcp<<4)+(owcs &0x03) + 0x68;
 2962              		.loc 1 808 3 is_stmt 1 view .LVU919
 2963              		.loc 1 808 17 is_stmt 0 view .LVU920
ARM GAS  C:\Users\huawei\AppData\Local\Temp\ccpVCJY0.s 			page 81


 2964 000a C001     		lsls	r0, r0, #7
 2965              	.LVL329:
 2966              		.loc 1 808 17 view .LVU921
 2967 000c C0B2     		uxtb	r0, r0
 2968              		.loc 1 808 26 view .LVU922
 2969 000e 0901     		lsls	r1, r1, #4
 2970              	.LVL330:
 2971              		.loc 1 808 26 view .LVU923
 2972 0010 C9B2     		uxtb	r1, r1
 2973              		.loc 1 808 21 view .LVU924
 2974 0012 0844     		add	r0, r0, r1
 2975 0014 C0B2     		uxtb	r0, r0
 2976              		.loc 1 808 37 view .LVU925
 2977 0016 02F00302 		and	r2, r2, #3
 2978              	.LVL331:
 2979              		.loc 1 808 30 view .LVU926
 2980 001a 1044     		add	r0, r0, r2
 2981 001c C0B2     		uxtb	r0, r0
 2982              		.loc 1 808 44 view .LVU927
 2983 001e 6830     		adds	r0, r0, #104
 2984              		.loc 1 808 10 view .LVU928
 2985 0020 8DF80500 		strb	r0, [sp, #5]
 809:Core/Src/ADBMS.cpp ****   spiSendCmd(cmd);
 2986              		.loc 1 809 3 is_stmt 1 view .LVU929
 2987              		.loc 1 809 13 is_stmt 0 view .LVU930
 2988 0024 01A8     		add	r0, sp, #4
 2989 0026 FFF7FEFF 		bl	_Z10spiSendCmdPh
 2990              	.LVL332:
 810:Core/Src/ADBMS.cpp **** }
 2991              		.loc 1 810 1 view .LVU931
 2992 002a 03B0     		add	sp, sp, #12
 2993              	.LCFI25:
 2994              		.cfi_def_cfa_offset 4
 2995              		@ sp needed
 2996 002c 5DF804FB 		ldr	pc, [sp], #4
 2997              		.cfi_endproc
 2998              	.LFE256:
 2999              		.fnend
 3001              		.section	.text._Z14adBms6830_Adax6OW_AUX3PUP2CH,"ax",%progbits
 3002              		.align	1
 3003              		.global	_Z14adBms6830_Adax6OW_AUX3PUP2CH
 3004              		.syntax unified
 3005              		.thumb
 3006              		.thumb_func
 3008              	_Z14adBms6830_Adax6OW_AUX3PUP2CH:
 3009              		.fnstart
 3010              	.LVL333:
 3011              	.LFB257:
 811:Core/Src/ADBMS.cpp **** 
 812:Core/Src/ADBMS.cpp **** /**
 813:Core/Src/ADBMS.cpp **** *******************************************************************************
 814:Core/Src/ADBMS.cpp **** * Function: adBms6830_Adax
 815:Core/Src/ADBMS.cpp **** * @brief ADAX Command.
 816:Core/Src/ADBMS.cpp **** *
 817:Core/Src/ADBMS.cpp **** * @details Send Aux command to starts auxiliary conversion.
 818:Core/Src/ADBMS.cpp **** *
 819:Core/Src/ADBMS.cpp **** * Parameters:
ARM GAS  C:\Users\huawei\AppData\Local\Temp\ccpVCJY0.s 			page 82


 820:Core/Src/ADBMS.cpp **** *
 821:Core/Src/ADBMS.cpp **** * @param [in]  owcs    Enum type open wire c/s
 822:Core/Src/ADBMS.cpp **** *
 823:Core/Src/ADBMS.cpp **** * @param [in]  pup    Enum type Pull Down current during aux conversion
 824:Core/Src/ADBMS.cpp **** *
 825:Core/Src/ADBMS.cpp **** * @param [in]  ch    Enum type gpio Channel selection
 826:Core/Src/ADBMS.cpp **** *
 827:Core/Src/ADBMS.cpp **** * @return None
 828:Core/Src/ADBMS.cpp **** *
 829:Core/Src/ADBMS.cpp **** *******************************************************************************
 830:Core/Src/ADBMS.cpp **** */
 831:Core/Src/ADBMS.cpp **** void adBms6830_Adax
 832:Core/Src/ADBMS.cpp **** (
 833:Core/Src/ADBMS.cpp **** OW_AUX owaux,
 834:Core/Src/ADBMS.cpp **** PUP pup,
 835:Core/Src/ADBMS.cpp **** CH ch
 836:Core/Src/ADBMS.cpp **** )
 837:Core/Src/ADBMS.cpp **** {
 3012              		.loc 1 837 1 is_stmt 1 view -0
 3013              		.cfi_startproc
 3014              		@ args = 0, pretend = 0, frame = 8
 3015              		@ frame_needed = 0, uses_anonymous_args = 0
 3016              		.loc 1 837 1 is_stmt 0 view .LVU933
 3017 0000 00B5     		push	{lr}
 3018              		.save {lr}
 3019              	.LCFI26:
 3020              		.cfi_def_cfa_offset 4
 3021              		.cfi_offset 14, -4
 3022              		.pad #12
 3023 0002 83B0     		sub	sp, sp, #12
 3024              	.LCFI27:
 3025              		.cfi_def_cfa_offset 16
 838:Core/Src/ADBMS.cpp ****   uint8_t cmd[2];
 3026              		.loc 1 838 3 is_stmt 1 view .LVU934
 839:Core/Src/ADBMS.cpp ****   cmd[0] = 0x04 + owaux;
 3027              		.loc 1 839 3 view .LVU935
 3028              		.loc 1 839 17 is_stmt 0 view .LVU936
 3029 0004 0430     		adds	r0, r0, #4
 3030              	.LVL334:
 3031              		.loc 1 839 10 view .LVU937
 3032 0006 8DF80400 		strb	r0, [sp, #4]
 840:Core/Src/ADBMS.cpp ****   cmd[1] = (pup << 7) + (((ch >>4)&0x01)<<6) + (ch & 0x0F) + 0x10;
 3033              		.loc 1 840 3 is_stmt 1 view .LVU938
 3034              		.loc 1 840 17 is_stmt 0 view .LVU939
 3035 000a CB01     		lsls	r3, r1, #7
 3036 000c DBB2     		uxtb	r3, r3
 3037              		.loc 1 840 31 view .LVU940
 3038 000e 1109     		lsrs	r1, r2, #4
 3039              	.LVL335:
 3040              		.loc 1 840 41 view .LVU941
 3041 0010 8901     		lsls	r1, r1, #6
 3042 0012 01F04001 		and	r1, r1, #64
 3043              		.loc 1 840 23 view .LVU942
 3044 0016 0B44     		add	r3, r3, r1
 3045 0018 DBB2     		uxtb	r3, r3
 3046              		.loc 1 840 52 view .LVU943
 3047 001a 02F00F02 		and	r2, r2, #15
ARM GAS  C:\Users\huawei\AppData\Local\Temp\ccpVCJY0.s 			page 83


 3048              	.LVL336:
 3049              		.loc 1 840 46 view .LVU944
 3050 001e 1344     		add	r3, r3, r2
 3051 0020 DBB2     		uxtb	r3, r3
 3052              		.loc 1 840 60 view .LVU945
 3053 0022 1033     		adds	r3, r3, #16
 3054              		.loc 1 840 10 view .LVU946
 3055 0024 8DF80530 		strb	r3, [sp, #5]
 841:Core/Src/ADBMS.cpp ****   spiSendCmd(cmd);
 3056              		.loc 1 841 3 is_stmt 1 view .LVU947
 3057              		.loc 1 841 13 is_stmt 0 view .LVU948
 3058 0028 01A8     		add	r0, sp, #4
 3059 002a FFF7FEFF 		bl	_Z10spiSendCmdPh
 3060              	.LVL337:
 842:Core/Src/ADBMS.cpp **** }
 3061              		.loc 1 842 1 view .LVU949
 3062 002e 03B0     		add	sp, sp, #12
 3063              	.LCFI28:
 3064              		.cfi_def_cfa_offset 4
 3065              		@ sp needed
 3066 0030 5DF804FB 		ldr	pc, [sp], #4
 3067              		.cfi_endproc
 3068              	.LFE257:
 3069              		.fnend
 3071              		.section	.text._Z15adBms6830_Adax22CH,"ax",%progbits
 3072              		.align	1
 3073              		.global	_Z15adBms6830_Adax22CH
 3074              		.syntax unified
 3075              		.thumb
 3076              		.thumb_func
 3078              	_Z15adBms6830_Adax22CH:
 3079              		.fnstart
 3080              	.LVL338:
 3081              	.LFB258:
 843:Core/Src/ADBMS.cpp **** /**
 844:Core/Src/ADBMS.cpp **** *******************************************************************************
 845:Core/Src/ADBMS.cpp **** * Function: adBms6830_Adax2
 846:Core/Src/ADBMS.cpp **** * @brief ADAX2 Command.
 847:Core/Src/ADBMS.cpp **** *
 848:Core/Src/ADBMS.cpp **** * @details Send Aux2 command to starts auxiliary conversion.
 849:Core/Src/ADBMS.cpp **** *
 850:Core/Src/ADBMS.cpp **** * Parameters:
 851:Core/Src/ADBMS.cpp **** *
 852:Core/Src/ADBMS.cpp **** * @param [in]  ch    Enum type gpio Channel selection
 853:Core/Src/ADBMS.cpp **** *
 854:Core/Src/ADBMS.cpp **** * @return None
 855:Core/Src/ADBMS.cpp **** *
 856:Core/Src/ADBMS.cpp **** *******************************************************************************
 857:Core/Src/ADBMS.cpp **** */
 858:Core/Src/ADBMS.cpp **** void adBms6830_Adax2
 859:Core/Src/ADBMS.cpp **** (
 860:Core/Src/ADBMS.cpp **** CH ch
 861:Core/Src/ADBMS.cpp **** )
 862:Core/Src/ADBMS.cpp **** {
 3082              		.loc 1 862 1 is_stmt 1 view -0
 3083              		.cfi_startproc
 3084              		@ args = 0, pretend = 0, frame = 8
ARM GAS  C:\Users\huawei\AppData\Local\Temp\ccpVCJY0.s 			page 84


 3085              		@ frame_needed = 0, uses_anonymous_args = 0
 3086              		.loc 1 862 1 is_stmt 0 view .LVU951
 3087 0000 00B5     		push	{lr}
 3088              		.save {lr}
 3089              	.LCFI29:
 3090              		.cfi_def_cfa_offset 4
 3091              		.cfi_offset 14, -4
 3092              		.pad #12
 3093 0002 83B0     		sub	sp, sp, #12
 3094              	.LCFI30:
 3095              		.cfi_def_cfa_offset 16
 863:Core/Src/ADBMS.cpp ****   uint8_t cmd[2];
 3096              		.loc 1 863 3 is_stmt 1 view .LVU952
 864:Core/Src/ADBMS.cpp ****   cmd[0] = 0x04;
 3097              		.loc 1 864 3 view .LVU953
 3098              		.loc 1 864 10 is_stmt 0 view .LVU954
 3099 0004 0423     		movs	r3, #4
 3100 0006 8DF80430 		strb	r3, [sp, #4]
 865:Core/Src/ADBMS.cpp ****   cmd[1] = (ch & 0x0F);
 3101              		.loc 1 865 3 is_stmt 1 view .LVU955
 3102              		.loc 1 865 16 is_stmt 0 view .LVU956
 3103 000a 00F00F00 		and	r0, r0, #15
 3104              	.LVL339:
 3105              		.loc 1 865 10 view .LVU957
 3106 000e 8DF80500 		strb	r0, [sp, #5]
 866:Core/Src/ADBMS.cpp ****   spiSendCmd(cmd);
 3107              		.loc 1 866 3 is_stmt 1 view .LVU958
 3108              		.loc 1 866 13 is_stmt 0 view .LVU959
 3109 0012 0DEB0300 		add	r0, sp, r3
 3110 0016 FFF7FEFF 		bl	_Z10spiSendCmdPh
 3111              	.LVL340:
 867:Core/Src/ADBMS.cpp **** }
 3112              		.loc 1 867 1 view .LVU960
 3113 001a 03B0     		add	sp, sp, #12
 3114              	.LCFI31:
 3115              		.cfi_def_cfa_offset 4
 3116              		@ sp needed
 3117 001c 5DF804FB 		ldr	pc, [sp], #4
 3118              		.cfi_endproc
 3119              	.LFE258:
 3120              		.fnend
 3122              		.section	.rodata._Z32adBms6830_clear_cell_measurementh.str1.4,"aMS",%progbits,1
 3123              		.align	2
 3124              	.LC5:
 3125 0000 43656C6C 		.ascii	"Cell Registers Cleared\012\000"
 3125      20526567 
 3125      69737465 
 3125      72732043 
 3125      6C656172 
 3126              		.section	.text._Z32adBms6830_clear_cell_measurementh,"ax",%progbits
 3127              		.align	1
 3128              		.global	_Z32adBms6830_clear_cell_measurementh
 3129              		.syntax unified
 3130              		.thumb
 3131              		.thumb_func
 3133              	_Z32adBms6830_clear_cell_measurementh:
 3134              		.fnstart
ARM GAS  C:\Users\huawei\AppData\Local\Temp\ccpVCJY0.s 			page 85


 3135              	.LVL341:
 3136              	.LFB274:
 868:Core/Src/ADBMS.cpp **** 
 869:Core/Src/ADBMS.cpp **** /**
 870:Core/Src/ADBMS.cpp **** *******************************************************************************
 871:Core/Src/ADBMS.cpp **** * @brief Write and Read Configuration Register A/B
 872:Core/Src/ADBMS.cpp **** *******************************************************************************
 873:Core/Src/ADBMS.cpp **** */
 874:Core/Src/ADBMS.cpp **** void adBms6830_write_read_config(uint8_t tIC, cell_asic *ic)
 875:Core/Src/ADBMS.cpp **** {
 876:Core/Src/ADBMS.cpp ****   adBmsWakeupIc(tIC);
 877:Core/Src/ADBMS.cpp ****   adBmsWriteData(tIC, &ic[0], WRCFGA, Config, A);
 878:Core/Src/ADBMS.cpp ****   adBmsWriteData(tIC, &ic[0], WRCFGB, Config, B);
 879:Core/Src/ADBMS.cpp ****   adBmsReadData(tIC, &ic[0], RDCFGA, Config, A);
 880:Core/Src/ADBMS.cpp ****   adBmsReadData(tIC, &ic[0], RDCFGB, Config, B);
 881:Core/Src/ADBMS.cpp ****   printWriteConfig(tIC, &ic[0], Config, ALL_GRP);
 882:Core/Src/ADBMS.cpp ****   printReadConfig(tIC, &ic[0], Config, ALL_GRP);
 883:Core/Src/ADBMS.cpp **** }
 884:Core/Src/ADBMS.cpp **** 
 885:Core/Src/ADBMS.cpp **** /**
 886:Core/Src/ADBMS.cpp **** *******************************************************************************
 887:Core/Src/ADBMS.cpp **** * @brief Read Configuration Register A/B
 888:Core/Src/ADBMS.cpp **** *******************************************************************************
 889:Core/Src/ADBMS.cpp **** */
 890:Core/Src/ADBMS.cpp **** void adBms6830_read_config(uint8_t tIC, cell_asic *ic)
 891:Core/Src/ADBMS.cpp **** {
 892:Core/Src/ADBMS.cpp ****   adBmsWakeupIc(tIC);
 893:Core/Src/ADBMS.cpp ****   adBmsReadData(tIC, &ic[0], RDCFGA, Config, A);
 894:Core/Src/ADBMS.cpp ****   adBmsReadData(tIC, &ic[0], RDCFGB, Config, B);
 895:Core/Src/ADBMS.cpp ****   printReadConfig(tIC, &ic[0], Config, ALL_GRP);
 896:Core/Src/ADBMS.cpp **** }
 897:Core/Src/ADBMS.cpp **** 
 898:Core/Src/ADBMS.cpp **** /**
 899:Core/Src/ADBMS.cpp **** *******************************************************************************
 900:Core/Src/ADBMS.cpp **** * @brief Start ADC Cell Voltage Measurement
 901:Core/Src/ADBMS.cpp **** *******************************************************************************
 902:Core/Src/ADBMS.cpp **** */
 903:Core/Src/ADBMS.cpp **** void adBms6830_start_adc_cell_voltage_measurment(uint8_t tIC)
 904:Core/Src/ADBMS.cpp **** {
 905:Core/Src/ADBMS.cpp ****   adBmsWakeupIc(tIC);
 906:Core/Src/ADBMS.cpp ****   adBms6830_Adcv(REDUNDANT_MEASUREMENT, CONTINUOUS_MEASUREMENT, DISCHARGE_PERMITTED, RESET_FILTER, 
 907:Core/Src/ADBMS.cpp ****   pladc_count = adBmsPollAdc(PLADC);
 908:Core/Src/ADBMS.cpp ****   printf("Cell conversion completed\n");
 909:Core/Src/ADBMS.cpp **** 
 910:Core/Src/ADBMS.cpp ****   printPollAdcConvTime(pladc_count);
 911:Core/Src/ADBMS.cpp **** }
 912:Core/Src/ADBMS.cpp **** 
 913:Core/Src/ADBMS.cpp **** /**
 914:Core/Src/ADBMS.cpp **** *******************************************************************************
 915:Core/Src/ADBMS.cpp **** * @brief Read Cell Voltages
 916:Core/Src/ADBMS.cpp **** *******************************************************************************
 917:Core/Src/ADBMS.cpp **** */
 918:Core/Src/ADBMS.cpp **** void adBms6830_read_cell_voltages(uint8_t tIC, cell_asic *ic)
 919:Core/Src/ADBMS.cpp **** {
 920:Core/Src/ADBMS.cpp ****   adBmsWakeupIc(tIC);
 921:Core/Src/ADBMS.cpp ****   adBmsReadData(tIC, &ic[0], RDCVA, Cell, A);
 922:Core/Src/ADBMS.cpp ****   adBmsReadData(tIC, &ic[0], RDCVB, Cell, B);
ARM GAS  C:\Users\huawei\AppData\Local\Temp\ccpVCJY0.s 			page 86


 923:Core/Src/ADBMS.cpp ****   adBmsReadData(tIC, &ic[0], RDCVC, Cell, C);
 924:Core/Src/ADBMS.cpp ****   adBmsReadData(tIC, &ic[0], RDCVD, Cell, D);
 925:Core/Src/ADBMS.cpp ****   adBmsReadData(tIC, &ic[0], RDCVE, Cell, E);
 926:Core/Src/ADBMS.cpp ****   adBmsReadData(tIC, &ic[0], RDCVF, Cell, F);
 927:Core/Src/ADBMS.cpp ****   printVoltages(tIC, &ic[0], Cell);
 928:Core/Src/ADBMS.cpp **** }
 929:Core/Src/ADBMS.cpp **** 
 930:Core/Src/ADBMS.cpp **** /**
 931:Core/Src/ADBMS.cpp **** *******************************************************************************
 932:Core/Src/ADBMS.cpp **** * @brief Start ADC S-Voltage Measurement
 933:Core/Src/ADBMS.cpp **** *******************************************************************************
 934:Core/Src/ADBMS.cpp **** */
 935:Core/Src/ADBMS.cpp **** void adBms6830_start_adc_s_voltage_measurment(uint8_t tIC)
 936:Core/Src/ADBMS.cpp **** {
 937:Core/Src/ADBMS.cpp ****   adBmsWakeupIc(tIC);
 938:Core/Src/ADBMS.cpp ****   adBms6830_Adsv(CONTINUOUS_MEASUREMENT, DISCHARGE_PERMITTED, CELL_OPEN_WIRE_DETECTION);
 939:Core/Src/ADBMS.cpp ****   pladc_count = adBmsPollAdc(PLADC);
 940:Core/Src/ADBMS.cpp ****   printf("S-Voltage conversion completed\n");
 941:Core/Src/ADBMS.cpp **** 
 942:Core/Src/ADBMS.cpp ****   printPollAdcConvTime(pladc_count);
 943:Core/Src/ADBMS.cpp **** }
 944:Core/Src/ADBMS.cpp **** 
 945:Core/Src/ADBMS.cpp **** /**
 946:Core/Src/ADBMS.cpp **** *******************************************************************************
 947:Core/Src/ADBMS.cpp **** * @brief Read S-Voltages
 948:Core/Src/ADBMS.cpp **** *******************************************************************************
 949:Core/Src/ADBMS.cpp **** */
 950:Core/Src/ADBMS.cpp **** void adBms6830_read_s_voltages(uint8_t tIC, cell_asic *ic)
 951:Core/Src/ADBMS.cpp **** {
 952:Core/Src/ADBMS.cpp ****   adBmsWakeupIc(tIC);
 953:Core/Src/ADBMS.cpp ****   adBmsReadData(tIC, &ic[0], RDSVA, S_volt, A);
 954:Core/Src/ADBMS.cpp ****   adBmsReadData(tIC, &ic[0], RDSVB, S_volt, B);
 955:Core/Src/ADBMS.cpp ****   adBmsReadData(tIC, &ic[0], RDSVC, S_volt, C);
 956:Core/Src/ADBMS.cpp ****   adBmsReadData(tIC, &ic[0], RDSVD, S_volt, D);
 957:Core/Src/ADBMS.cpp ****   adBmsReadData(tIC, &ic[0], RDSVE, S_volt, E);
 958:Core/Src/ADBMS.cpp ****   adBmsReadData(tIC, &ic[0], RDSVF, S_volt, F);
 959:Core/Src/ADBMS.cpp ****   printVoltages(tIC, &ic[0], S_volt);
 960:Core/Src/ADBMS.cpp **** }
 961:Core/Src/ADBMS.cpp **** 
 962:Core/Src/ADBMS.cpp **** /**
 963:Core/Src/ADBMS.cpp **** *******************************************************************************
 964:Core/Src/ADBMS.cpp **** * @brief Start Avarage Cell Voltage Measurement
 965:Core/Src/ADBMS.cpp **** *******************************************************************************
 966:Core/Src/ADBMS.cpp **** */
 967:Core/Src/ADBMS.cpp **** void adBms6830_start_avgcell_voltage_measurment(uint8_t tIC)
 968:Core/Src/ADBMS.cpp **** {
 969:Core/Src/ADBMS.cpp ****   adBmsWakeupIc(tIC);
 970:Core/Src/ADBMS.cpp ****   adBms6830_Adcv(RD_ON, CONTINUOUS_MEASUREMENT, DISCHARGE_PERMITTED, RESET_FILTER, CELL_OPEN_WIRE_D
 971:Core/Src/ADBMS.cpp ****   pladc_count = adBmsPollAdc(PLADC);
 972:Core/Src/ADBMS.cpp ****   printf("Avg Cell voltage conversion completed\n");
 973:Core/Src/ADBMS.cpp **** 
 974:Core/Src/ADBMS.cpp ****   printPollAdcConvTime(pladc_count);
 975:Core/Src/ADBMS.cpp **** }
 976:Core/Src/ADBMS.cpp **** 
 977:Core/Src/ADBMS.cpp **** /**
 978:Core/Src/ADBMS.cpp **** *******************************************************************************
 979:Core/Src/ADBMS.cpp **** * @brief Read Avarage Cell Voltages
ARM GAS  C:\Users\huawei\AppData\Local\Temp\ccpVCJY0.s 			page 87


 980:Core/Src/ADBMS.cpp **** *******************************************************************************
 981:Core/Src/ADBMS.cpp **** */
 982:Core/Src/ADBMS.cpp **** void adBms6830_read_avgcell_voltages(uint8_t tIC, cell_asic *ic)
 983:Core/Src/ADBMS.cpp **** {
 984:Core/Src/ADBMS.cpp ****   adBmsWakeupIc(tIC);
 985:Core/Src/ADBMS.cpp ****   adBmsReadData(tIC, &ic[0], RDACA, AvgCell, A);
 986:Core/Src/ADBMS.cpp ****   adBmsReadData(tIC, &ic[0], RDACB, AvgCell, B);
 987:Core/Src/ADBMS.cpp ****   adBmsReadData(tIC, &ic[0], RDACC, AvgCell, C);
 988:Core/Src/ADBMS.cpp ****   adBmsReadData(tIC, &ic[0], RDACD, AvgCell, D);
 989:Core/Src/ADBMS.cpp ****   adBmsReadData(tIC, &ic[0], RDACE, AvgCell, E);
 990:Core/Src/ADBMS.cpp ****   adBmsReadData(tIC, &ic[0], RDACF, AvgCell, F);
 991:Core/Src/ADBMS.cpp ****   printVoltages(tIC, &ic[0], AvgCell);
 992:Core/Src/ADBMS.cpp **** }
 993:Core/Src/ADBMS.cpp **** 
 994:Core/Src/ADBMS.cpp **** /**
 995:Core/Src/ADBMS.cpp **** *******************************************************************************
 996:Core/Src/ADBMS.cpp **** * @brief Start Filtered Cell Voltages Measurement
 997:Core/Src/ADBMS.cpp **** *******************************************************************************
 998:Core/Src/ADBMS.cpp **** */
 999:Core/Src/ADBMS.cpp **** void adBms6830_start_fcell_voltage_measurment(uint8_t tIC)
1000:Core/Src/ADBMS.cpp **** {
1001:Core/Src/ADBMS.cpp ****   adBmsWakeupIc(tIC);
1002:Core/Src/ADBMS.cpp ****   adBms6830_Adcv(REDUNDANT_MEASUREMENT, CONTINUOUS_MEASUREMENT, DISCHARGE_PERMITTED, RESET_FILTER, 
1003:Core/Src/ADBMS.cpp ****   pladc_count = adBmsPollAdc(PLADC);
1004:Core/Src/ADBMS.cpp ****   printf("F Cell voltage conversion completed\n");
1005:Core/Src/ADBMS.cpp **** 
1006:Core/Src/ADBMS.cpp ****   printPollAdcConvTime(pladc_count);
1007:Core/Src/ADBMS.cpp **** }
1008:Core/Src/ADBMS.cpp **** 
1009:Core/Src/ADBMS.cpp **** /**
1010:Core/Src/ADBMS.cpp **** *******************************************************************************
1011:Core/Src/ADBMS.cpp **** * @brief Read Filtered Cell Voltages
1012:Core/Src/ADBMS.cpp **** *******************************************************************************
1013:Core/Src/ADBMS.cpp **** */
1014:Core/Src/ADBMS.cpp **** void adBms6830_read_fcell_voltages(uint8_t tIC, cell_asic *ic)
1015:Core/Src/ADBMS.cpp **** {
1016:Core/Src/ADBMS.cpp ****   adBmsWakeupIc(tIC);
1017:Core/Src/ADBMS.cpp ****   adBmsReadData(tIC, &ic[0], RDFCA, F_volt, A);
1018:Core/Src/ADBMS.cpp ****   adBmsReadData(tIC, &ic[0], RDFCB, F_volt, B);
1019:Core/Src/ADBMS.cpp ****   adBmsReadData(tIC, &ic[0], RDFCC, F_volt, C);
1020:Core/Src/ADBMS.cpp ****   adBmsReadData(tIC, &ic[0], RDFCD, F_volt, D);
1021:Core/Src/ADBMS.cpp ****   adBmsReadData(tIC, &ic[0], RDFCE, F_volt, E);
1022:Core/Src/ADBMS.cpp ****   adBmsReadData(tIC, &ic[0], RDFCF, F_volt, F);
1023:Core/Src/ADBMS.cpp ****   printVoltages(tIC, &ic[0], F_volt);
1024:Core/Src/ADBMS.cpp **** }
1025:Core/Src/ADBMS.cpp **** 
1026:Core/Src/ADBMS.cpp **** /**
1027:Core/Src/ADBMS.cpp **** *******************************************************************************
1028:Core/Src/ADBMS.cpp **** * @brief Start AUX, VMV, V+ Voltages Measurement
1029:Core/Src/ADBMS.cpp **** *******************************************************************************
1030:Core/Src/ADBMS.cpp **** */
1031:Core/Src/ADBMS.cpp **** void adBms6830_start_aux_voltage_measurment(uint8_t tIC, cell_asic *ic)
1032:Core/Src/ADBMS.cpp **** {
1033:Core/Src/ADBMS.cpp ****   for(uint8_t cic = 0; cic < tIC; cic++)
1034:Core/Src/ADBMS.cpp ****   {
1035:Core/Src/ADBMS.cpp ****     /* Init config A */
1036:Core/Src/ADBMS.cpp ****     ic[cic].tx_cfga.refon = PWR_UP;
ARM GAS  C:\Users\huawei\AppData\Local\Temp\ccpVCJY0.s 			page 88


1037:Core/Src/ADBMS.cpp ****     ic[cic].tx_cfga.gpo = 0X3FF; /* All GPIO pull down off */
1038:Core/Src/ADBMS.cpp ****   }
1039:Core/Src/ADBMS.cpp ****   adBmsWakeupIc(tIC);
1040:Core/Src/ADBMS.cpp ****   adBmsWriteData(tIC, &ic[0], WRCFGA, Config, A);
1041:Core/Src/ADBMS.cpp ****   adBms6830_Adax(AUX_OPEN_WIRE_DETECTION, OPEN_WIRE_CURRENT_SOURCE, AUX_CH_TO_CONVERT);
1042:Core/Src/ADBMS.cpp ****   pladc_count = adBmsPollAdc(PLADC);
1043:Core/Src/ADBMS.cpp ****   printf("Aux voltage conversion completed\n");
1044:Core/Src/ADBMS.cpp **** 
1045:Core/Src/ADBMS.cpp ****   printPollAdcConvTime(pladc_count);
1046:Core/Src/ADBMS.cpp **** }
1047:Core/Src/ADBMS.cpp **** 
1048:Core/Src/ADBMS.cpp **** /**
1049:Core/Src/ADBMS.cpp **** *******************************************************************************
1050:Core/Src/ADBMS.cpp **** * @brief Read AUX, VMV, V+ Voltages
1051:Core/Src/ADBMS.cpp **** *******************************************************************************
1052:Core/Src/ADBMS.cpp **** */
1053:Core/Src/ADBMS.cpp **** void adBms6830_read_aux_voltages(uint8_t tIC, cell_asic *ic)
1054:Core/Src/ADBMS.cpp **** {
1055:Core/Src/ADBMS.cpp ****   adBmsWakeupIc(tIC);
1056:Core/Src/ADBMS.cpp ****   adBmsReadData(tIC, &ic[0], RDAUXA, Aux, A);
1057:Core/Src/ADBMS.cpp ****   adBmsReadData(tIC, &ic[0], RDAUXB, Aux, B);
1058:Core/Src/ADBMS.cpp ****   adBmsReadData(tIC, &ic[0], RDAUXC, Aux, C);
1059:Core/Src/ADBMS.cpp ****   adBmsReadData(tIC, &ic[0], RDAUXD, Aux, D);
1060:Core/Src/ADBMS.cpp ****   printVoltages(tIC, &ic[0], Aux);
1061:Core/Src/ADBMS.cpp **** }
1062:Core/Src/ADBMS.cpp **** 
1063:Core/Src/ADBMS.cpp **** /**
1064:Core/Src/ADBMS.cpp **** *******************************************************************************
1065:Core/Src/ADBMS.cpp **** * @brief Start Redundant GPIO Voltages Measurement
1066:Core/Src/ADBMS.cpp **** *******************************************************************************
1067:Core/Src/ADBMS.cpp **** */
1068:Core/Src/ADBMS.cpp **** void adBms6830_start_raux_voltage_measurment(uint8_t tIC,  cell_asic *ic)
1069:Core/Src/ADBMS.cpp **** {
1070:Core/Src/ADBMS.cpp ****   for(uint8_t cic = 0; cic < tIC; cic++)
1071:Core/Src/ADBMS.cpp ****   {
1072:Core/Src/ADBMS.cpp ****     /* Init config A */
1073:Core/Src/ADBMS.cpp ****     ic[cic].tx_cfga.refon = PWR_UP;
1074:Core/Src/ADBMS.cpp ****     ic[cic].tx_cfga.gpo = 0X3FF; /* All GPIO pull down off */
1075:Core/Src/ADBMS.cpp ****   }
1076:Core/Src/ADBMS.cpp ****   adBmsWakeupIc(tIC);
1077:Core/Src/ADBMS.cpp ****   adBmsWriteData(tIC, &ic[0], WRCFGA, Config, A);
1078:Core/Src/ADBMS.cpp ****   adBms6830_Adax2(AUX_CH_TO_CONVERT);
1079:Core/Src/ADBMS.cpp ****   pladc_count = adBmsPollAdc(PLADC);
1080:Core/Src/ADBMS.cpp ****   printf("RAux voltage conversion completed\n");
1081:Core/Src/ADBMS.cpp **** 
1082:Core/Src/ADBMS.cpp ****   printPollAdcConvTime(pladc_count);
1083:Core/Src/ADBMS.cpp **** }
1084:Core/Src/ADBMS.cpp **** 
1085:Core/Src/ADBMS.cpp **** /**
1086:Core/Src/ADBMS.cpp **** *******************************************************************************
1087:Core/Src/ADBMS.cpp **** * @brief Read Redundant GPIO Voltages
1088:Core/Src/ADBMS.cpp **** *******************************************************************************
1089:Core/Src/ADBMS.cpp **** */
1090:Core/Src/ADBMS.cpp **** void adBms6830_read_raux_voltages(uint8_t tIC, cell_asic *ic)
1091:Core/Src/ADBMS.cpp **** {
1092:Core/Src/ADBMS.cpp ****   adBmsWakeupIc(tIC);
1093:Core/Src/ADBMS.cpp ****   adBmsReadData(tIC, &ic[0], RDRAXA, RAux, A);
ARM GAS  C:\Users\huawei\AppData\Local\Temp\ccpVCJY0.s 			page 89


1094:Core/Src/ADBMS.cpp ****   adBmsReadData(tIC, &ic[0], RDRAXB, RAux, B);
1095:Core/Src/ADBMS.cpp ****   adBmsReadData(tIC, &ic[0], RDRAXC, RAux, C);
1096:Core/Src/ADBMS.cpp ****   adBmsReadData(tIC, &ic[0], RDRAXD, RAux, D);
1097:Core/Src/ADBMS.cpp ****   printVoltages(tIC, &ic[0], RAux);
1098:Core/Src/ADBMS.cpp **** }
1099:Core/Src/ADBMS.cpp **** 
1100:Core/Src/ADBMS.cpp **** /**
1101:Core/Src/ADBMS.cpp **** *******************************************************************************
1102:Core/Src/ADBMS.cpp **** * @brief Read Status Reg. A, B, C, D and E.
1103:Core/Src/ADBMS.cpp **** *******************************************************************************
1104:Core/Src/ADBMS.cpp **** */
1105:Core/Src/ADBMS.cpp **** void adBms6830_read_status_registers(uint8_t tIC, cell_asic *ic)
1106:Core/Src/ADBMS.cpp **** {
1107:Core/Src/ADBMS.cpp ****   adBmsWakeupIc(tIC);
1108:Core/Src/ADBMS.cpp ****   adBmsWriteData(tIC, &ic[0], WRCFGA, Config, A);
1109:Core/Src/ADBMS.cpp ****   adBmsWriteData(tIC, &ic[0], WRCFGB, Config, B);
1110:Core/Src/ADBMS.cpp ****   adBms6830_Adax(AUX_OPEN_WIRE_DETECTION, OPEN_WIRE_CURRENT_SOURCE, AUX_CH_TO_CONVERT);
1111:Core/Src/ADBMS.cpp ****   pladc_count = adBmsPollAdc(PLADC);
1112:Core/Src/ADBMS.cpp ****   adBms6830_Adcv(REDUNDANT_MEASUREMENT, CONTINUOUS_MEASUREMENT, DISCHARGE_PERMITTED, RESET_FILTER, 
1113:Core/Src/ADBMS.cpp ****   pladc_count = pladc_count + adBmsPollAdc(PLADC);
1114:Core/Src/ADBMS.cpp **** 
1115:Core/Src/ADBMS.cpp ****   adBmsReadData(tIC, &ic[0], RDSTATA, Status, A);
1116:Core/Src/ADBMS.cpp ****   adBmsReadData(tIC, &ic[0], RDSTATB, Status, B);
1117:Core/Src/ADBMS.cpp ****   adBmsReadData(tIC, &ic[0], RDSTATC, Status, C);
1118:Core/Src/ADBMS.cpp ****   adBmsReadData(tIC, &ic[0], RDSTATD, Status, D);
1119:Core/Src/ADBMS.cpp ****   adBmsReadData(tIC, &ic[0], RDSTATE, Status, E);
1120:Core/Src/ADBMS.cpp ****   printPollAdcConvTime(pladc_count);
1121:Core/Src/ADBMS.cpp ****   printStatus(tIC, &ic[0], Status, ALL_GRP);
1122:Core/Src/ADBMS.cpp **** }
1123:Core/Src/ADBMS.cpp **** 
1124:Core/Src/ADBMS.cpp **** /**
