ARM GAS  C:\Users\huawei\AppData\Local\Temp\ccpVCJY0.s 			page 1


   1              		.cpu cortex-m4
   2              		.arch armv7e-m
   3              		.fpu fpv4-sp-d16
   4              		.eabi_attribute 27, 1
   5              		.eabi_attribute 28, 1
   6              		.eabi_attribute 20, 1
   7              		.eabi_attribute 21, 1
   8              		.eabi_attribute 23, 3
   9              		.eabi_attribute 24, 1
  10              		.eabi_attribute 25, 1
  11              		.eabi_attribute 26, 1
  12              		.eabi_attribute 30, 1
  13              		.eabi_attribute 34, 1
  14              		.eabi_attribute 18, 4
  15              		.file	"ADBMS.cpp"
  16              		.text
  17              	.Ltext0:
  18              		.cfi_sections	.debug_frame
  19              		.file 1 "Core/Src/ADBMS.cpp"
  20              		.section	.text._Z10adBmsCsLowv,"ax",%progbits
  21              		.align	1
  22              		.global	_Z10adBmsCsLowv
  23              		.syntax unified
  24              		.thumb
  25              		.thumb_func
  27              	_Z10adBmsCsLowv:
  28              		.fnstart
  29              	.LFB245:
   1:Core/Src/ADBMS.cpp **** 
   2:Core/Src/ADBMS.cpp **** #include "ADBMS.h"
   3:Core/Src/ADBMS.cpp **** 
   4:Core/Src/ADBMS.cpp **** #define TOTAL_IC 2
   5:Core/Src/ADBMS.cpp **** cell_asic IC[TOTAL_IC];
   6:Core/Src/ADBMS.cpp **** 
   7:Core/Src/ADBMS.cpp **** const float OV_THRESHOLD = 4.2;                 /* Volt */
   8:Core/Src/ADBMS.cpp **** const float UV_THRESHOLD = 3.0;                 /* Volt */
   9:Core/Src/ADBMS.cpp **** const int OWC_Threshold = 2000;                 /* Cell Open wire threshold(mili volt) */
  10:Core/Src/ADBMS.cpp **** const int OWA_Threshold = 50000;                /* Aux Open wire threshold(mili volt) */
  11:Core/Src/ADBMS.cpp **** const uint32_t LOOP_MEASUREMENT_COUNT = 2;      /* Loop measurment count */
  12:Core/Src/ADBMS.cpp **** const uint16_t MEASUREMENT_LOOP_TIME  = 10;     /* milliseconds(mS)*/
  13:Core/Src/ADBMS.cpp **** uint32_t loop_count = 0;
  14:Core/Src/ADBMS.cpp **** uint32_t pladc_count;
  15:Core/Src/ADBMS.cpp **** /**
  16:Core/Src/ADBMS.cpp ****  *******************************************************************************
  17:Core/Src/ADBMS.cpp ****  * Function: adBmsCsLow
  18:Core/Src/ADBMS.cpp ****  * @brief Select chip select low
  19:Core/Src/ADBMS.cpp ****  *
  20:Core/Src/ADBMS.cpp ****  * @details This function does spi chip select low.
  21:Core/Src/ADBMS.cpp ****  *
  22:Core/Src/ADBMS.cpp ****  * @return None
  23:Core/Src/ADBMS.cpp ****  *
  24:Core/Src/ADBMS.cpp ****  *******************************************************************************
  25:Core/Src/ADBMS.cpp **** */
  26:Core/Src/ADBMS.cpp **** void adBmsCsLow()
  27:Core/Src/ADBMS.cpp **** {
  30              		.loc 1 27 1 view -0
  31              		.cfi_startproc
ARM GAS  C:\Users\huawei\AppData\Local\Temp\ccpVCJY0.s 			page 2


  32              		@ args = 0, pretend = 0, frame = 0
  33              		@ frame_needed = 0, uses_anonymous_args = 0
  34 0000 08B5     		push	{r3, lr}
  35              		.save {r3, lr}
  36              	.LCFI0:
  37              		.cfi_def_cfa_offset 8
  38              		.cfi_offset 3, -8
  39              		.cfi_offset 14, -4
  28:Core/Src/ADBMS.cpp ****   HAL_GPIO_WritePin(SPI2_CS_GPIO_Port, SPI2_CS_Pin, GPIO_PIN_RESET);
  40              		.loc 1 28 3 view .LVU1
  41              		.loc 1 28 20 is_stmt 0 view .LVU2
  42 0002 0022     		movs	r2, #0
  43 0004 0121     		movs	r1, #1
  44 0006 0248     		ldr	r0, .L3
  45 0008 FFF7FEFF 		bl	HAL_GPIO_WritePin
  46              	.LVL0:
  29:Core/Src/ADBMS.cpp **** }
  47              		.loc 1 29 1 view .LVU3
  48 000c 08BD     		pop	{r3, pc}
  49              	.L4:
  50 000e 00BF     		.align	2
  51              	.L3:
  52 0010 00080240 		.word	1073874944
  53              		.cfi_endproc
  54              	.LFE245:
  55              		.fnend
  57              		.section	.text._Z11adBmsCsHighv,"ax",%progbits
  58              		.align	1
  59              		.global	_Z11adBmsCsHighv
  60              		.syntax unified
  61              		.thumb
  62              		.thumb_func
  64              	_Z11adBmsCsHighv:
  65              		.fnstart
  66              	.LFB246:
  30:Core/Src/ADBMS.cpp **** 
  31:Core/Src/ADBMS.cpp **** /**
  32:Core/Src/ADBMS.cpp ****  *******************************************************************************
  33:Core/Src/ADBMS.cpp ****  * Function: adBmsCsHigh
  34:Core/Src/ADBMS.cpp ****  * @brief Select chip select High
  35:Core/Src/ADBMS.cpp ****  *
  36:Core/Src/ADBMS.cpp ****  * @details This function does spi chip select high.
  37:Core/Src/ADBMS.cpp ****  *
  38:Core/Src/ADBMS.cpp ****  * @return None
  39:Core/Src/ADBMS.cpp ****  *
  40:Core/Src/ADBMS.cpp ****  *******************************************************************************
  41:Core/Src/ADBMS.cpp **** */
  42:Core/Src/ADBMS.cpp **** void adBmsCsHigh()
  43:Core/Src/ADBMS.cpp **** {
  67              		.loc 1 43 1 is_stmt 1 view -0
  68              		.cfi_startproc
  69              		@ args = 0, pretend = 0, frame = 0
  70              		@ frame_needed = 0, uses_anonymous_args = 0
  71 0000 08B5     		push	{r3, lr}
  72              		.save {r3, lr}
  73              	.LCFI1:
  74              		.cfi_def_cfa_offset 8
ARM GAS  C:\Users\huawei\AppData\Local\Temp\ccpVCJY0.s 			page 3


  75              		.cfi_offset 3, -8
  76              		.cfi_offset 14, -4
  44:Core/Src/ADBMS.cpp ****   HAL_GPIO_WritePin(SPI2_CS_GPIO_Port, SPI2_CS_Pin, GPIO_PIN_SET);
  77              		.loc 1 44 3 view .LVU5
  78              		.loc 1 44 20 is_stmt 0 view .LVU6
  79 0002 0122     		movs	r2, #1
  80 0004 1146     		mov	r1, r2
  81 0006 0248     		ldr	r0, .L7
  82 0008 FFF7FEFF 		bl	HAL_GPIO_WritePin
  83              	.LVL1:
  45:Core/Src/ADBMS.cpp **** }
  84              		.loc 1 45 1 view .LVU7
  85 000c 08BD     		pop	{r3, pc}
  86              	.L8:
  87 000e 00BF     		.align	2
  88              	.L7:
  89 0010 00080240 		.word	1073874944
  90              		.cfi_endproc
  91              	.LFE246:
  92              		.fnend
  94              		.section	.text._Z13adBmsWakeupIch,"ax",%progbits
  95              		.align	1
  96              		.global	_Z13adBmsWakeupIch
  97              		.syntax unified
  98              		.thumb
  99              		.thumb_func
 101              	_Z13adBmsWakeupIch:
 102              		.fnstart
 103              	.LVL2:
 104              	.LFB247:
  46:Core/Src/ADBMS.cpp **** 
  47:Core/Src/ADBMS.cpp **** /**
  48:Core/Src/ADBMS.cpp ****  *******************************************************************************
  49:Core/Src/ADBMS.cpp ****  * Function: adBmsWakeupIc
  50:Core/Src/ADBMS.cpp ****  * @brief Wakeup bms ic using chip select
  51:Core/Src/ADBMS.cpp ****  *
  52:Core/Src/ADBMS.cpp ****  * @details This function wakeup thr bms ic using chip select.
  53:Core/Src/ADBMS.cpp ****  *
  54:Core/Src/ADBMS.cpp ****  * @param [in]  total_ic    Total_ic
  55:Core/Src/ADBMS.cpp ****  *
  56:Core/Src/ADBMS.cpp ****  * @return None
  57:Core/Src/ADBMS.cpp ****  *
  58:Core/Src/ADBMS.cpp ****  *******************************************************************************
  59:Core/Src/ADBMS.cpp **** */
  60:Core/Src/ADBMS.cpp **** void adBmsWakeupIc(uint8_t total_ic)
  61:Core/Src/ADBMS.cpp **** {
 105              		.loc 1 61 1 is_stmt 1 view -0
 106              		.cfi_startproc
 107              		@ args = 0, pretend = 0, frame = 0
 108              		@ frame_needed = 0, uses_anonymous_args = 0
 109              		.loc 1 61 1 is_stmt 0 view .LVU9
 110 0000 38B5     		push	{r3, r4, r5, lr}
 111              		.save {r3, r4, r5, lr}
 112              	.LCFI2:
 113              		.cfi_def_cfa_offset 16
 114              		.cfi_offset 3, -16
 115              		.cfi_offset 4, -12
ARM GAS  C:\Users\huawei\AppData\Local\Temp\ccpVCJY0.s 			page 4


 116              		.cfi_offset 5, -8
 117              		.cfi_offset 14, -4
 118 0002 0546     		mov	r5, r0
  62:Core/Src/ADBMS.cpp ****   for (uint8_t ic = 0; ic < total_ic; ic++)
 119              		.loc 1 62 3 is_stmt 1 view .LVU10
 120              	.LVL3:
 121              	.LBB2:
 122              		.loc 1 62 16 is_stmt 0 view .LVU11
 123 0004 0024     		movs	r4, #0
 124              		.loc 1 62 3 view .LVU12
 125 0006 0BE0     		b	.L10
 126              	.LVL4:
 127              	.L11:
  63:Core/Src/ADBMS.cpp ****   {
  64:Core/Src/ADBMS.cpp ****     adBmsCsLow();
 128              		.loc 1 64 5 is_stmt 1 discriminator 3 view .LVU13
 129              		.loc 1 64 15 is_stmt 0 discriminator 3 view .LVU14
 130 0008 FFF7FEFF 		bl	_Z10adBmsCsLowv
 131              	.LVL5:
  65:Core/Src/ADBMS.cpp ****     HAL_Delay(WAKEUP_DELAY);
 132              		.loc 1 65 5 is_stmt 1 discriminator 3 view .LVU15
 133              		.loc 1 65 14 is_stmt 0 discriminator 3 view .LVU16
 134 000c 0420     		movs	r0, #4
 135 000e FFF7FEFF 		bl	HAL_Delay
 136              	.LVL6:
  66:Core/Src/ADBMS.cpp ****     adBmsCsHigh();
 137              		.loc 1 66 5 is_stmt 1 discriminator 3 view .LVU17
 138              		.loc 1 66 16 is_stmt 0 discriminator 3 view .LVU18
 139 0012 FFF7FEFF 		bl	_Z11adBmsCsHighv
 140              	.LVL7:
  67:Core/Src/ADBMS.cpp ****     HAL_Delay(WAKEUP_DELAY);
 141              		.loc 1 67 5 is_stmt 1 discriminator 3 view .LVU19
 142              		.loc 1 67 14 is_stmt 0 discriminator 3 view .LVU20
 143 0016 0420     		movs	r0, #4
 144 0018 FFF7FEFF 		bl	HAL_Delay
 145              	.LVL8:
  62:Core/Src/ADBMS.cpp ****   {
 146              		.loc 1 62 3 is_stmt 1 discriminator 3 view .LVU21
 147 001c 0134     		adds	r4, r4, #1
 148              	.LVL9:
  62:Core/Src/ADBMS.cpp ****   {
 149              		.loc 1 62 3 is_stmt 0 discriminator 3 view .LVU22
 150 001e E4B2     		uxtb	r4, r4
 151              	.LVL10:
 152              	.L10:
  62:Core/Src/ADBMS.cpp ****   {
 153              		.loc 1 62 27 is_stmt 1 discriminator 1 view .LVU23
 154 0020 AC42     		cmp	r4, r5
 155 0022 F1D3     		bcc	.L11
 156              	.LBE2:
  68:Core/Src/ADBMS.cpp ****   }
  69:Core/Src/ADBMS.cpp **** }
 157              		.loc 1 69 1 is_stmt 0 view .LVU24
 158 0024 38BD     		pop	{r3, r4, r5, pc}
 159              		.loc 1 69 1 view .LVU25
 160              		.cfi_endproc
 161              	.LFE247:
ARM GAS  C:\Users\huawei\AppData\Local\Temp\ccpVCJY0.s 			page 5


 162              		.fnend
 164              		.section	.text._Z10Pec15_CalchPh,"ax",%progbits
 165              		.align	1
 166              		.global	_Z10Pec15_CalchPh
 167              		.syntax unified
 168              		.thumb
 169              		.thumb_func
 171              	_Z10Pec15_CalchPh:
 172              		.fnstart
 173              	.LVL11:
 174              	.LFB252:
  70:Core/Src/ADBMS.cpp **** 
  71:Core/Src/ADBMS.cpp **** /**
  72:Core/Src/ADBMS.cpp **** *******************************************************************************
  73:Core/Src/ADBMS.cpp **** * Function: adBmsReadData
  74:Core/Src/ADBMS.cpp **** * @brief Adbms Read Data From Bms ic.
  75:Core/Src/ADBMS.cpp **** *
  76:Core/Src/ADBMS.cpp **** * @details This function send bms command, read payload data parse into function and check pec erro
  77:Core/Src/ADBMS.cpp **** *
  78:Core/Src/ADBMS.cpp **** * Parameters:
  79:Core/Src/ADBMS.cpp **** * @param [in]	tIC      Total IC
  80:Core/Src/ADBMS.cpp **** *
  81:Core/Src/ADBMS.cpp **** * @param [in]  *ic      cell_asic stucture pointer
  82:Core/Src/ADBMS.cpp **** *
  83:Core/Src/ADBMS.cpp **** * @param [in]  cmd_arg   command bytes
  84:Core/Src/ADBMS.cpp **** *
  85:Core/Src/ADBMS.cpp **** * @param [in]  TYPE   Enum type of resistor
  86:Core/Src/ADBMS.cpp **** *
  87:Core/Src/ADBMS.cpp **** * @param [in]  GRP   Enum type of resistor group
  88:Core/Src/ADBMS.cpp **** *
  89:Core/Src/ADBMS.cpp **** * @return None
  90:Core/Src/ADBMS.cpp **** *
  91:Core/Src/ADBMS.cpp **** *******************************************************************************
  92:Core/Src/ADBMS.cpp **** */
  93:Core/Src/ADBMS.cpp **** void adBmsReadData(uint8_t tIC, cell_asic *ic, uint8_t cmd_arg[2], TYPE type, GRP group)
  94:Core/Src/ADBMS.cpp **** {
  95:Core/Src/ADBMS.cpp ****   uint16_t rBuff_size;
  96:Core/Src/ADBMS.cpp ****   uint8_t regData_size;
  97:Core/Src/ADBMS.cpp ****   if(group == ALL_GRP)
  98:Core/Src/ADBMS.cpp ****   {
  99:Core/Src/ADBMS.cpp ****     if(type == Rdcvall){rBuff_size = RDCVALL_SIZE; regData_size = RDCVALL_SIZE;}
 100:Core/Src/ADBMS.cpp ****     else if(type == Rdsall){rBuff_size = RDSALL_SIZE; regData_size = RDSALL_SIZE;}
 101:Core/Src/ADBMS.cpp ****     else if(type == Rdacall){rBuff_size = RDACALL_SIZE; regData_size = RDACALL_SIZE;}
 102:Core/Src/ADBMS.cpp ****     else if(type == Rdfcall){rBuff_size = RDFCALL_SIZE; regData_size = RDFCALL_SIZE;}
 103:Core/Src/ADBMS.cpp ****     else if(type == Rdcsall){rBuff_size = RDCSALL_SIZE; regData_size = RDCSALL_SIZE;}
 104:Core/Src/ADBMS.cpp ****     else if(type == Rdasall){rBuff_size = RDASALL_SIZE; regData_size = RDASALL_SIZE;}
 105:Core/Src/ADBMS.cpp ****     else if(type == Rdacsall){rBuff_size = RDACSALL_SIZE; regData_size = RDACSALL_SIZE;}
 106:Core/Src/ADBMS.cpp ****     else{printf("Read All cmd wrong type select \n");}
 107:Core/Src/ADBMS.cpp ****   }
 108:Core/Src/ADBMS.cpp ****   else{rBuff_size = (tIC * RX_DATA); regData_size = RX_DATA;}
 109:Core/Src/ADBMS.cpp ****   uint8_t *read_buffer, *pec_error, *cmd_count;
 110:Core/Src/ADBMS.cpp ****   read_buffer = (uint8_t *)calloc(rBuff_size, sizeof(uint8_t));
 111:Core/Src/ADBMS.cpp ****   pec_error = (uint8_t *)calloc(tIC, sizeof(uint8_t));
 112:Core/Src/ADBMS.cpp ****   cmd_count = (uint8_t *)calloc(tIC, sizeof(uint8_t));
 113:Core/Src/ADBMS.cpp ****   if((pec_error == NULL) || (cmd_count == NULL) || (read_buffer == NULL))
 114:Core/Src/ADBMS.cpp ****   {
 115:Core/Src/ADBMS.cpp ****     printf(" Failed to allocate memory \n");
ARM GAS  C:\Users\huawei\AppData\Local\Temp\ccpVCJY0.s 			page 6


 116:Core/Src/ADBMS.cpp **** 
 117:Core/Src/ADBMS.cpp ****     exit(0);
 118:Core/Src/ADBMS.cpp ****   }
 119:Core/Src/ADBMS.cpp ****   else
 120:Core/Src/ADBMS.cpp ****   {
 121:Core/Src/ADBMS.cpp ****     spiReadData(tIC, &cmd_arg[0], &read_buffer[0], &pec_error[0], &cmd_count[0], regData_size);
 122:Core/Src/ADBMS.cpp ****     switch (type)
 123:Core/Src/ADBMS.cpp ****     {
 124:Core/Src/ADBMS.cpp ****     case Config:
 125:Core/Src/ADBMS.cpp ****       adBms6830ParseConfig(tIC, ic, group, &read_buffer[0]);
 126:Core/Src/ADBMS.cpp ****       for (uint8_t cic = 0; cic < tIC; cic++)
 127:Core/Src/ADBMS.cpp ****       {
 128:Core/Src/ADBMS.cpp ****         ic[cic].cccrc.cfgr_pec = pec_error[cic];
 129:Core/Src/ADBMS.cpp ****         ic[cic].cccrc.cmd_cntr = cmd_count[cic];
 130:Core/Src/ADBMS.cpp ****       }
 131:Core/Src/ADBMS.cpp ****       break;
 132:Core/Src/ADBMS.cpp **** 
 133:Core/Src/ADBMS.cpp ****     case Cell:
 134:Core/Src/ADBMS.cpp ****       adBms6830ParseCell(tIC, ic, group, &read_buffer[0]);
 135:Core/Src/ADBMS.cpp ****       for (uint8_t cic = 0; cic < tIC; cic++)
 136:Core/Src/ADBMS.cpp ****       {
 137:Core/Src/ADBMS.cpp ****         ic[cic].cccrc.cell_pec = pec_error[cic];
 138:Core/Src/ADBMS.cpp ****         ic[cic].cccrc.cmd_cntr = cmd_count[cic];
 139:Core/Src/ADBMS.cpp ****       }
 140:Core/Src/ADBMS.cpp ****       break;
 141:Core/Src/ADBMS.cpp **** 
 142:Core/Src/ADBMS.cpp ****     case AvgCell:
 143:Core/Src/ADBMS.cpp ****       adBms6830ParseAverageCell(tIC, ic, group, &read_buffer[0]);
 144:Core/Src/ADBMS.cpp ****       for (uint8_t cic = 0; cic < tIC; cic++)
 145:Core/Src/ADBMS.cpp ****       {
 146:Core/Src/ADBMS.cpp ****         ic[cic].cccrc.acell_pec = pec_error[cic];
 147:Core/Src/ADBMS.cpp ****         ic[cic].cccrc.cmd_cntr = cmd_count[cic];
 148:Core/Src/ADBMS.cpp ****       }
 149:Core/Src/ADBMS.cpp ****       break;
 150:Core/Src/ADBMS.cpp **** 
 151:Core/Src/ADBMS.cpp ****     case S_volt:
 152:Core/Src/ADBMS.cpp ****       adBms6830ParseSCell(tIC, ic, group, &read_buffer[0]);
 153:Core/Src/ADBMS.cpp ****       for (uint8_t cic = 0; cic < tIC; cic++)
 154:Core/Src/ADBMS.cpp ****       {
 155:Core/Src/ADBMS.cpp ****         ic[cic].cccrc.scell_pec = pec_error[cic];
 156:Core/Src/ADBMS.cpp ****         ic[cic].cccrc.cmd_cntr = cmd_count[cic];
 157:Core/Src/ADBMS.cpp ****       }
 158:Core/Src/ADBMS.cpp ****       break;
 159:Core/Src/ADBMS.cpp **** 
 160:Core/Src/ADBMS.cpp ****     case F_volt:
 161:Core/Src/ADBMS.cpp ****       adBms6830ParseFCell(tIC, ic, group, &read_buffer[0]);
 162:Core/Src/ADBMS.cpp ****       for (uint8_t cic = 0; cic < tIC; cic++)
 163:Core/Src/ADBMS.cpp ****       {
 164:Core/Src/ADBMS.cpp ****         ic[cic].cccrc.fcell_pec = pec_error[cic];
 165:Core/Src/ADBMS.cpp ****         ic[cic].cccrc.cmd_cntr = cmd_count[cic];
 166:Core/Src/ADBMS.cpp ****       }
 167:Core/Src/ADBMS.cpp ****       break;
 168:Core/Src/ADBMS.cpp **** 
 169:Core/Src/ADBMS.cpp ****     case Aux:
 170:Core/Src/ADBMS.cpp ****       adBms6830ParseAux(tIC, ic, group, &read_buffer[0]);
 171:Core/Src/ADBMS.cpp ****       for (uint8_t cic = 0; cic < tIC; cic++)
 172:Core/Src/ADBMS.cpp ****       {
ARM GAS  C:\Users\huawei\AppData\Local\Temp\ccpVCJY0.s 			page 7


 173:Core/Src/ADBMS.cpp ****         ic[cic].cccrc.aux_pec = pec_error[cic];
 174:Core/Src/ADBMS.cpp ****         ic[cic].cccrc.cmd_cntr = cmd_count[cic];
 175:Core/Src/ADBMS.cpp ****       }
 176:Core/Src/ADBMS.cpp ****       break;
 177:Core/Src/ADBMS.cpp **** 
 178:Core/Src/ADBMS.cpp ****     case RAux:
 179:Core/Src/ADBMS.cpp ****       adBms6830ParseRAux(tIC, ic, group, &read_buffer[0]);
 180:Core/Src/ADBMS.cpp ****       for (uint8_t cic = 0; cic < tIC; cic++)
 181:Core/Src/ADBMS.cpp ****       {
 182:Core/Src/ADBMS.cpp ****         ic[cic].cccrc.raux_pec = pec_error[cic];
 183:Core/Src/ADBMS.cpp ****         ic[cic].cccrc.cmd_cntr = cmd_count[cic];
 184:Core/Src/ADBMS.cpp ****       }
 185:Core/Src/ADBMS.cpp ****       break;
 186:Core/Src/ADBMS.cpp **** 
 187:Core/Src/ADBMS.cpp ****     case Status:
 188:Core/Src/ADBMS.cpp ****       adBms6830ParseStatus(tIC, ic, group, &read_buffer[0]);
 189:Core/Src/ADBMS.cpp ****       for (uint8_t cic = 0; cic < tIC; cic++)
 190:Core/Src/ADBMS.cpp ****       {
 191:Core/Src/ADBMS.cpp ****         ic[cic].cccrc.stat_pec = pec_error[cic];
 192:Core/Src/ADBMS.cpp ****         ic[cic].cccrc.cmd_cntr = cmd_count[cic];
 193:Core/Src/ADBMS.cpp ****       }
 194:Core/Src/ADBMS.cpp ****       break;
 195:Core/Src/ADBMS.cpp **** 
 196:Core/Src/ADBMS.cpp ****     case Comm:
 197:Core/Src/ADBMS.cpp ****       adBms6830ParseComm(tIC, ic, &read_buffer[0]);
 198:Core/Src/ADBMS.cpp ****       for (uint8_t cic = 0; cic < tIC; cic++)
 199:Core/Src/ADBMS.cpp ****       {
 200:Core/Src/ADBMS.cpp ****         ic[cic].cccrc.comm_pec = pec_error[cic];
 201:Core/Src/ADBMS.cpp ****         ic[cic].cccrc.cmd_cntr = cmd_count[cic];
 202:Core/Src/ADBMS.cpp ****       }
 203:Core/Src/ADBMS.cpp ****       break;
 204:Core/Src/ADBMS.cpp **** 
 205:Core/Src/ADBMS.cpp ****     case Pwm:
 206:Core/Src/ADBMS.cpp ****       adBms6830ParsePwm(tIC, ic, group, &read_buffer[0]);
 207:Core/Src/ADBMS.cpp ****       for (uint8_t cic = 0; cic < tIC; cic++)
 208:Core/Src/ADBMS.cpp ****       {
 209:Core/Src/ADBMS.cpp ****         ic[cic].cccrc.pwm_pec = pec_error[cic];
 210:Core/Src/ADBMS.cpp ****         ic[cic].cccrc.cmd_cntr = cmd_count[cic];
 211:Core/Src/ADBMS.cpp ****       }
 212:Core/Src/ADBMS.cpp ****       break;
 213:Core/Src/ADBMS.cpp **** 
 214:Core/Src/ADBMS.cpp ****     case Sid:
 215:Core/Src/ADBMS.cpp ****       adBms6830ParseSID(tIC, ic, &read_buffer[0]);
 216:Core/Src/ADBMS.cpp ****       for (uint8_t cic = 0; cic < tIC; cic++)
 217:Core/Src/ADBMS.cpp ****       {
 218:Core/Src/ADBMS.cpp ****         ic[cic].cccrc.sid_pec = pec_error[cic];
 219:Core/Src/ADBMS.cpp ****         ic[cic].cccrc.cmd_cntr = cmd_count[cic];
 220:Core/Src/ADBMS.cpp ****       }
 221:Core/Src/ADBMS.cpp ****       break;
 222:Core/Src/ADBMS.cpp **** 
 223:Core/Src/ADBMS.cpp ****     case Rdcvall:
 224:Core/Src/ADBMS.cpp ****       /* 32 byte cell data + 2 byte pec */
 225:Core/Src/ADBMS.cpp ****       adBms6830ParseCell(tIC, ic, group, &read_buffer[0]);
 226:Core/Src/ADBMS.cpp ****       for (uint8_t cic = 0; cic < tIC; cic++)
 227:Core/Src/ADBMS.cpp ****       {
 228:Core/Src/ADBMS.cpp ****         ic[cic].cccrc.cell_pec = pec_error[cic];
 229:Core/Src/ADBMS.cpp ****         ic[cic].cccrc.cmd_cntr = cmd_count[cic];
ARM GAS  C:\Users\huawei\AppData\Local\Temp\ccpVCJY0.s 			page 8


 230:Core/Src/ADBMS.cpp ****       }
 231:Core/Src/ADBMS.cpp ****       break;
 232:Core/Src/ADBMS.cpp **** 
 233:Core/Src/ADBMS.cpp ****     case Rdacall:
 234:Core/Src/ADBMS.cpp ****       /* 32 byte avg cell data + 2 byte pec */
 235:Core/Src/ADBMS.cpp ****       adBms6830ParseAverageCell(tIC, ic, group, &read_buffer[0]);
 236:Core/Src/ADBMS.cpp ****       for (uint8_t cic = 0; cic < tIC; cic++)
 237:Core/Src/ADBMS.cpp ****       {
 238:Core/Src/ADBMS.cpp ****         ic[cic].cccrc.acell_pec = pec_error[cic];
 239:Core/Src/ADBMS.cpp ****         ic[cic].cccrc.cmd_cntr = cmd_count[cic];
 240:Core/Src/ADBMS.cpp ****       }
 241:Core/Src/ADBMS.cpp ****       break;
 242:Core/Src/ADBMS.cpp **** 
 243:Core/Src/ADBMS.cpp ****     case Rdsall:
 244:Core/Src/ADBMS.cpp ****       /* 32 byte scell volt data + 2 byte pec */
 245:Core/Src/ADBMS.cpp ****       adBms6830ParseSCell(tIC, ic, group, &read_buffer[0]);
 246:Core/Src/ADBMS.cpp ****       for (uint8_t cic = 0; cic < tIC; cic++)
 247:Core/Src/ADBMS.cpp ****       {
 248:Core/Src/ADBMS.cpp ****         ic[cic].cccrc.scell_pec = pec_error[cic];
 249:Core/Src/ADBMS.cpp ****         ic[cic].cccrc.cmd_cntr = cmd_count[cic];
 250:Core/Src/ADBMS.cpp ****       }
 251:Core/Src/ADBMS.cpp ****       break;
 252:Core/Src/ADBMS.cpp **** 
 253:Core/Src/ADBMS.cpp ****     case Rdfcall:
 254:Core/Src/ADBMS.cpp ****       /* 32 byte fcell data + 2 byte pec */
 255:Core/Src/ADBMS.cpp ****       adBms6830ParseFCell(tIC, ic, group, &read_buffer[0]);
 256:Core/Src/ADBMS.cpp ****       for (uint8_t cic = 0; cic < tIC; cic++)
 257:Core/Src/ADBMS.cpp ****       {
 258:Core/Src/ADBMS.cpp ****         ic[cic].cccrc.fcell_pec = pec_error[cic];
 259:Core/Src/ADBMS.cpp ****         ic[cic].cccrc.cmd_cntr = cmd_count[cic];
 260:Core/Src/ADBMS.cpp ****       }
 261:Core/Src/ADBMS.cpp ****       break;
 262:Core/Src/ADBMS.cpp **** 
 263:Core/Src/ADBMS.cpp ****     case Rdcsall:
 264:Core/Src/ADBMS.cpp ****       /* 64 byte + 2 byte pec = 32 byte cell data + 32 byte scell volt data */
 265:Core/Src/ADBMS.cpp ****       adBms6830ParseCell(tIC, ic, group, &read_buffer[0]);
 266:Core/Src/ADBMS.cpp ****       for (uint8_t cic = 0; cic < tIC; cic++)
 267:Core/Src/ADBMS.cpp ****       {
 268:Core/Src/ADBMS.cpp ****         ic[cic].cccrc.cell_pec = pec_error[cic];
 269:Core/Src/ADBMS.cpp ****         ic[cic].cccrc.cmd_cntr = cmd_count[cic];
 270:Core/Src/ADBMS.cpp ****       }
 271:Core/Src/ADBMS.cpp ****       adBms6830ParseSCell(tIC, ic, group, &read_buffer[32]);
 272:Core/Src/ADBMS.cpp ****       for (uint8_t cic = 0; cic < tIC; cic++)
 273:Core/Src/ADBMS.cpp ****       {
 274:Core/Src/ADBMS.cpp ****         ic[cic].cccrc.scell_pec = pec_error[cic];
 275:Core/Src/ADBMS.cpp ****         ic[cic].cccrc.cmd_cntr = cmd_count[cic];
 276:Core/Src/ADBMS.cpp ****       }
 277:Core/Src/ADBMS.cpp ****       break;
 278:Core/Src/ADBMS.cpp **** 
 279:Core/Src/ADBMS.cpp ****     case Rdacsall:
 280:Core/Src/ADBMS.cpp ****       /* 64 byte + 2 byte pec = 32 byte avg cell data + 32 byte scell volt data */
 281:Core/Src/ADBMS.cpp ****       adBms6830ParseAverageCell(tIC, ic, group, &read_buffer[0]);
 282:Core/Src/ADBMS.cpp ****       for (uint8_t cic = 0; cic < tIC; cic++)
 283:Core/Src/ADBMS.cpp ****       {
 284:Core/Src/ADBMS.cpp ****         ic[cic].cccrc.acell_pec = pec_error[cic];
 285:Core/Src/ADBMS.cpp ****         ic[cic].cccrc.cmd_cntr = cmd_count[cic];
 286:Core/Src/ADBMS.cpp ****       }
ARM GAS  C:\Users\huawei\AppData\Local\Temp\ccpVCJY0.s 			page 9


 287:Core/Src/ADBMS.cpp ****       adBms6830ParseSCell(tIC, ic, group, &read_buffer[32]);
 288:Core/Src/ADBMS.cpp ****       for (uint8_t cic = 0; cic < tIC; cic++)
 289:Core/Src/ADBMS.cpp ****       {
 290:Core/Src/ADBMS.cpp ****         ic[cic].cccrc.scell_pec = pec_error[cic];
 291:Core/Src/ADBMS.cpp ****         ic[cic].cccrc.cmd_cntr = cmd_count[cic];
 292:Core/Src/ADBMS.cpp ****       }
 293:Core/Src/ADBMS.cpp ****       break;
 294:Core/Src/ADBMS.cpp **** 
 295:Core/Src/ADBMS.cpp ****     case Rdasall:
 296:Core/Src/ADBMS.cpp ****       /* 68 byte + 2 byte pec:
 297:Core/Src/ADBMS.cpp ****       24 byte gpio data + 20 byte Redundant gpio data +
 298:Core/Src/ADBMS.cpp ****       24 byte status A(6 byte), B(6 byte), C(4 byte), D(6 byte) & E(2 byte)
 299:Core/Src/ADBMS.cpp ****       */
 300:Core/Src/ADBMS.cpp ****       adBms6830ParseAux(tIC, ic, group, &read_buffer[0]);
 301:Core/Src/ADBMS.cpp ****       for (uint8_t cic = 0; cic < tIC; cic++)
 302:Core/Src/ADBMS.cpp ****       {
 303:Core/Src/ADBMS.cpp ****         ic[cic].cccrc.aux_pec = pec_error[cic];
 304:Core/Src/ADBMS.cpp ****         ic[cic].cccrc.cmd_cntr = cmd_count[cic];
 305:Core/Src/ADBMS.cpp ****       }
 306:Core/Src/ADBMS.cpp ****       adBms6830ParseRAux(tIC, ic, group, &read_buffer[24]);
 307:Core/Src/ADBMS.cpp ****       for (uint8_t cic = 0; cic < tIC; cic++)
 308:Core/Src/ADBMS.cpp ****       {
 309:Core/Src/ADBMS.cpp ****         ic[cic].cccrc.raux_pec = pec_error[cic];
 310:Core/Src/ADBMS.cpp ****         ic[cic].cccrc.cmd_cntr = cmd_count[cic];
 311:Core/Src/ADBMS.cpp ****       }
 312:Core/Src/ADBMS.cpp ****       adBms6830ParseStatus(tIC, ic, group, &read_buffer[44]);
 313:Core/Src/ADBMS.cpp ****       for (uint8_t cic = 0; cic < tIC; cic++)
 314:Core/Src/ADBMS.cpp ****       {
 315:Core/Src/ADBMS.cpp ****         ic[cic].cccrc.stat_pec = pec_error[cic];
 316:Core/Src/ADBMS.cpp ****         ic[cic].cccrc.cmd_cntr = cmd_count[cic];
 317:Core/Src/ADBMS.cpp ****       }
 318:Core/Src/ADBMS.cpp ****       break;
 319:Core/Src/ADBMS.cpp **** 
 320:Core/Src/ADBMS.cpp ****     default:
 321:Core/Src/ADBMS.cpp ****       break;
 322:Core/Src/ADBMS.cpp ****     }
 323:Core/Src/ADBMS.cpp ****   }
 324:Core/Src/ADBMS.cpp ****   free(read_buffer);
 325:Core/Src/ADBMS.cpp ****   free(pec_error);
 326:Core/Src/ADBMS.cpp ****   free(cmd_count);
 327:Core/Src/ADBMS.cpp **** }
 328:Core/Src/ADBMS.cpp **** 
 329:Core/Src/ADBMS.cpp **** /**
 330:Core/Src/ADBMS.cpp **** *******************************************************************************
 331:Core/Src/ADBMS.cpp **** * Function: adBmsWriteData
 332:Core/Src/ADBMS.cpp **** * @brief Adbms Write Data into Bms ic.
 333:Core/Src/ADBMS.cpp **** *
 334:Core/Src/ADBMS.cpp **** * @details This function write the data into bms ic.
 335:Core/Src/ADBMS.cpp **** *
 336:Core/Src/ADBMS.cpp **** * Parameters:
 337:Core/Src/ADBMS.cpp **** * @param [in]	tIC      Total IC
 338:Core/Src/ADBMS.cpp **** *
 339:Core/Src/ADBMS.cpp **** * @param [in]  *ic      cell_asic stucture pointer
 340:Core/Src/ADBMS.cpp **** *
 341:Core/Src/ADBMS.cpp **** * @param [in]  cmd_arg   command bytes
 342:Core/Src/ADBMS.cpp **** *
 343:Core/Src/ADBMS.cpp **** * @param [in]  TYPE   Enum type of resistor
ARM GAS  C:\Users\huawei\AppData\Local\Temp\ccpVCJY0.s 			page 10


 344:Core/Src/ADBMS.cpp **** *
 345:Core/Src/ADBMS.cpp **** * @param [in]  GRP   Enum type of resistor group
 346:Core/Src/ADBMS.cpp **** *
 347:Core/Src/ADBMS.cpp **** * @return None
 348:Core/Src/ADBMS.cpp **** *
 349:Core/Src/ADBMS.cpp **** *******************************************************************************
 350:Core/Src/ADBMS.cpp **** */
 351:Core/Src/ADBMS.cpp **** void adBmsWriteData(uint8_t tIC, cell_asic *ic, uint8_t cmd_arg[2], TYPE type, GRP group)
 352:Core/Src/ADBMS.cpp **** {
 353:Core/Src/ADBMS.cpp ****   uint8_t data_len = TX_DATA, write_size = (TX_DATA * tIC);
 354:Core/Src/ADBMS.cpp ****   uint8_t *write_buffer = (uint8_t *)calloc(write_size, sizeof(uint8_t));
 355:Core/Src/ADBMS.cpp ****   if(write_buffer == NULL)
 356:Core/Src/ADBMS.cpp ****   {
 357:Core/Src/ADBMS.cpp ****     printf(" Failed to allocate write_buffer array memory \n");
 358:Core/Src/ADBMS.cpp ****     exit(0);
 359:Core/Src/ADBMS.cpp ****   }
 360:Core/Src/ADBMS.cpp ****   else
 361:Core/Src/ADBMS.cpp ****   {
 362:Core/Src/ADBMS.cpp ****     switch (type)
 363:Core/Src/ADBMS.cpp ****     {
 364:Core/Src/ADBMS.cpp ****     case Config:
 365:Core/Src/ADBMS.cpp ****       switch (group)
 366:Core/Src/ADBMS.cpp ****       {
 367:Core/Src/ADBMS.cpp ****       case A:
 368:Core/Src/ADBMS.cpp ****         adBms6830CreateConfiga(tIC, &ic[0]);
 369:Core/Src/ADBMS.cpp ****         for (uint8_t cic = 0; cic < tIC; cic++)
 370:Core/Src/ADBMS.cpp ****         {
 371:Core/Src/ADBMS.cpp ****           for (uint8_t data = 0; data < data_len; data++)
 372:Core/Src/ADBMS.cpp ****           {
 373:Core/Src/ADBMS.cpp ****             write_buffer[(cic * data_len) + data] = ic[cic].configa.tx_data[data];
 374:Core/Src/ADBMS.cpp ****           }
 375:Core/Src/ADBMS.cpp ****         }
 376:Core/Src/ADBMS.cpp ****         break;
 377:Core/Src/ADBMS.cpp ****       case B:
 378:Core/Src/ADBMS.cpp ****         adBms6830CreateConfigb(tIC, &ic[0]);
 379:Core/Src/ADBMS.cpp ****         for (uint8_t cic = 0; cic < tIC; cic++)
 380:Core/Src/ADBMS.cpp ****         {
 381:Core/Src/ADBMS.cpp ****           for (uint8_t data = 0; data < data_len; data++)
 382:Core/Src/ADBMS.cpp ****           {
 383:Core/Src/ADBMS.cpp ****             write_buffer[(cic * data_len) + data] = ic[cic].configb.tx_data[data];
 384:Core/Src/ADBMS.cpp ****           }
 385:Core/Src/ADBMS.cpp ****         }
 386:Core/Src/ADBMS.cpp ****         break;
 387:Core/Src/ADBMS.cpp ****       }
 388:Core/Src/ADBMS.cpp ****       break;
 389:Core/Src/ADBMS.cpp **** 
 390:Core/Src/ADBMS.cpp ****     case Comm:
 391:Core/Src/ADBMS.cpp ****       adBms6830CreateComm(tIC, &ic[0]);
 392:Core/Src/ADBMS.cpp ****       for (uint8_t cic = 0; cic < tIC; cic++)
 393:Core/Src/ADBMS.cpp ****       {
 394:Core/Src/ADBMS.cpp ****         for (uint8_t data = 0; data < data_len; data++)
 395:Core/Src/ADBMS.cpp ****         {
 396:Core/Src/ADBMS.cpp ****           write_buffer[(cic * data_len) + data] = ic[cic].com.tx_data[data];
 397:Core/Src/ADBMS.cpp ****         }
 398:Core/Src/ADBMS.cpp ****       }
 399:Core/Src/ADBMS.cpp ****       break;
 400:Core/Src/ADBMS.cpp **** 
ARM GAS  C:\Users\huawei\AppData\Local\Temp\ccpVCJY0.s 			page 11


 401:Core/Src/ADBMS.cpp ****     case Pwm:
 402:Core/Src/ADBMS.cpp ****       switch (group)
 403:Core/Src/ADBMS.cpp ****       {
 404:Core/Src/ADBMS.cpp ****       case A:
 405:Core/Src/ADBMS.cpp ****         adBms6830CreatePwma(tIC, &ic[0]);
 406:Core/Src/ADBMS.cpp ****         for (uint8_t cic = 0; cic < tIC; cic++)
 407:Core/Src/ADBMS.cpp ****         {
 408:Core/Src/ADBMS.cpp ****           for (uint8_t data = 0; data < data_len; data++)
 409:Core/Src/ADBMS.cpp ****           {
 410:Core/Src/ADBMS.cpp ****             write_buffer[(cic * data_len) + data] = ic[cic].pwma.tx_data[data];
 411:Core/Src/ADBMS.cpp ****           }
 412:Core/Src/ADBMS.cpp ****         }
 413:Core/Src/ADBMS.cpp ****         break;
 414:Core/Src/ADBMS.cpp ****       case B:
 415:Core/Src/ADBMS.cpp ****         adBms6830CreatePwmb(tIC, &ic[0]);
 416:Core/Src/ADBMS.cpp ****         for (uint8_t cic = 0; cic < tIC; cic++)
 417:Core/Src/ADBMS.cpp ****         {
 418:Core/Src/ADBMS.cpp ****           for (uint8_t data = 0; data < data_len; data++)
 419:Core/Src/ADBMS.cpp ****           {
 420:Core/Src/ADBMS.cpp ****             write_buffer[(cic * data_len) + data] = ic[cic].pwmb.tx_data[data];
 421:Core/Src/ADBMS.cpp ****           }
 422:Core/Src/ADBMS.cpp ****         }
 423:Core/Src/ADBMS.cpp ****         break;
 424:Core/Src/ADBMS.cpp ****       }
 425:Core/Src/ADBMS.cpp ****       break;
 426:Core/Src/ADBMS.cpp **** 
 427:Core/Src/ADBMS.cpp ****     case Clrflag:
 428:Core/Src/ADBMS.cpp ****       adBms6830CreateClrflagData(tIC, &ic[0]);
 429:Core/Src/ADBMS.cpp ****       for (uint8_t cic = 0; cic < tIC; cic++)
 430:Core/Src/ADBMS.cpp ****       {
 431:Core/Src/ADBMS.cpp ****         for (uint8_t data = 0; data < data_len; data++)
 432:Core/Src/ADBMS.cpp ****         {
 433:Core/Src/ADBMS.cpp ****           write_buffer[(cic * data_len) + data] = ic[cic].clrflag.tx_data[data];
 434:Core/Src/ADBMS.cpp ****         }
 435:Core/Src/ADBMS.cpp ****       }
 436:Core/Src/ADBMS.cpp ****       break;
 437:Core/Src/ADBMS.cpp **** 
 438:Core/Src/ADBMS.cpp ****     default:
 439:Core/Src/ADBMS.cpp ****       break;
 440:Core/Src/ADBMS.cpp ****     }
 441:Core/Src/ADBMS.cpp ****   }
 442:Core/Src/ADBMS.cpp ****   spiWriteData(tIC, cmd_arg, &write_buffer[0]);
 443:Core/Src/ADBMS.cpp **** 
 444:Core/Src/ADBMS.cpp ****   free(write_buffer);
 445:Core/Src/ADBMS.cpp **** }
 446:Core/Src/ADBMS.cpp **** 
 447:Core/Src/ADBMS.cpp **** /**
 448:Core/Src/ADBMS.cpp **** *******************************************************************************
 449:Core/Src/ADBMS.cpp **** * Function: spiReadData
 450:Core/Src/ADBMS.cpp **** * @brief Spi Read Bms Data
 451:Core/Src/ADBMS.cpp **** *
 452:Core/Src/ADBMS.cpp **** * @details This function send bms command in spi line and read command corrospond data byte.
 453:Core/Src/ADBMS.cpp **** *
 454:Core/Src/ADBMS.cpp **** * Parameters:
 455:Core/Src/ADBMS.cpp **** * @param [in]	tIC     Total IC
 456:Core/Src/ADBMS.cpp **** *
 457:Core/Src/ADBMS.cpp **** * @param [in]  tx_cmd   Tx command bytes
ARM GAS  C:\Users\huawei\AppData\Local\Temp\ccpVCJY0.s 			page 12


 458:Core/Src/ADBMS.cpp **** *
 459:Core/Src/ADBMS.cpp **** * @param [in]  *rx_data Rx data pointer
 460:Core/Src/ADBMS.cpp **** *
 461:Core/Src/ADBMS.cpp **** * @param [in]  *pec_error Pec error pointer
 462:Core/Src/ADBMS.cpp **** *
 463:Core/Src/ADBMS.cpp **** * @param [in]  *cmd_cntr command counter pointer
 464:Core/Src/ADBMS.cpp **** *
 465:Core/Src/ADBMS.cpp **** * @return None
 466:Core/Src/ADBMS.cpp **** *
 467:Core/Src/ADBMS.cpp **** *******************************************************************************
 468:Core/Src/ADBMS.cpp **** */
 469:Core/Src/ADBMS.cpp **** void spiReadData
 470:Core/Src/ADBMS.cpp **** (
 471:Core/Src/ADBMS.cpp **** uint8_t tIC,
 472:Core/Src/ADBMS.cpp **** uint8_t tx_cmd[2],
 473:Core/Src/ADBMS.cpp **** uint8_t *rx_data,
 474:Core/Src/ADBMS.cpp **** uint8_t *pec_error,
 475:Core/Src/ADBMS.cpp **** uint8_t *cmd_cntr,
 476:Core/Src/ADBMS.cpp **** uint8_t regData_size
 477:Core/Src/ADBMS.cpp **** )
 478:Core/Src/ADBMS.cpp **** {
 479:Core/Src/ADBMS.cpp ****   uint8_t *data, *copyArray, src_address = 0;
 480:Core/Src/ADBMS.cpp ****   uint16_t cmd_pec, received_pec, calculated_pec;
 481:Core/Src/ADBMS.cpp ****   uint8_t BYTES_IN_REG = regData_size;
 482:Core/Src/ADBMS.cpp ****   uint8_t RX_BUFFER = (regData_size * tIC);
 483:Core/Src/ADBMS.cpp **** 
 484:Core/Src/ADBMS.cpp ****   data = (uint8_t *)calloc(RX_BUFFER, sizeof(uint8_t));
 485:Core/Src/ADBMS.cpp ****   copyArray = (uint8_t *)calloc(BYTES_IN_REG, sizeof(uint8_t));
 486:Core/Src/ADBMS.cpp ****   if((data == NULL) || (copyArray == NULL))
 487:Core/Src/ADBMS.cpp ****   {
 488:Core/Src/ADBMS.cpp ****     printf(" Failed to allocate spi read data memory \n");
 489:Core/Src/ADBMS.cpp **** 
 490:Core/Src/ADBMS.cpp ****     exit(0);
 491:Core/Src/ADBMS.cpp ****   }
 492:Core/Src/ADBMS.cpp ****   else
 493:Core/Src/ADBMS.cpp ****   {
 494:Core/Src/ADBMS.cpp ****     uint8_t cmd[4];
 495:Core/Src/ADBMS.cpp ****     cmd[0] = tx_cmd[0];
 496:Core/Src/ADBMS.cpp ****     cmd[1] = tx_cmd[1];
 497:Core/Src/ADBMS.cpp ****     cmd_pec = Pec15_Calc(2, cmd);
 498:Core/Src/ADBMS.cpp ****     cmd[2] = (uint8_t)(cmd_pec >> 8);
 499:Core/Src/ADBMS.cpp ****     cmd[3] = (uint8_t)(cmd_pec);
 500:Core/Src/ADBMS.cpp ****     adBmsCsLow();
 501:Core/Src/ADBMS.cpp ****     HAL_SPI_Transmit(hspi, &cmd[0], 4, SPI_TIME_OUT);
 502:Core/Src/ADBMS.cpp ****     HAL_SPI_Receive(hspi, &data[0], RX_BUFFER, SPI_TIME_OUT);
 503:Core/Src/ADBMS.cpp ****     adBmsCsHigh();
 504:Core/Src/ADBMS.cpp ****     for (uint8_t current_ic = 0; current_ic < tIC; current_ic++)     /* executes for each ic in the
 505:Core/Src/ADBMS.cpp ****     {																																      /* Into the r_comm array as well as check the received d
 506:Core/Src/ADBMS.cpp ****       for (uint8_t current_byte = 0; current_byte < (BYTES_IN_REG-2); current_byte++)
 507:Core/Src/ADBMS.cpp ****       {
 508:Core/Src/ADBMS.cpp ****         rx_data[(current_ic*BYTES_IN_REG)+current_byte] = data[current_byte + (current_ic*BYTES_IN_
 509:Core/Src/ADBMS.cpp ****       }
 510:Core/Src/ADBMS.cpp ****       /* Get command counter value */
 511:Core/Src/ADBMS.cpp ****       cmd_cntr[current_ic] = (data[(current_ic * BYTES_IN_REG) + (BYTES_IN_REG - 2)] >> 2);
 512:Core/Src/ADBMS.cpp ****       /* Get received pec value from ic*/
 513:Core/Src/ADBMS.cpp ****       received_pec = (uint16_t)(((data[(current_ic * BYTES_IN_REG) + (BYTES_IN_REG - 2)] & 0x03) <<
 514:Core/Src/ADBMS.cpp ****       /* Copy each ic correspond data + pec value for calculate data pec */
ARM GAS  C:\Users\huawei\AppData\Local\Temp\ccpVCJY0.s 			page 13


 515:Core/Src/ADBMS.cpp ****       memcpy(&copyArray[0], &data[src_address], BYTES_IN_REG);
 516:Core/Src/ADBMS.cpp ****       src_address = ((current_ic+1) * (regData_size));
 517:Core/Src/ADBMS.cpp ****       /* Calculate data pec */
 518:Core/Src/ADBMS.cpp ****       calculated_pec = (uint16_t)pec10_calc(true, (BYTES_IN_REG-2), &copyArray[0]);
 519:Core/Src/ADBMS.cpp ****       /* Match received pec with calculated pec */
 520:Core/Src/ADBMS.cpp ****       if (received_pec == calculated_pec){ pec_error[current_ic] = 0; }/* If no error is there valu
 521:Core/Src/ADBMS.cpp ****       else{ pec_error[current_ic] = 1; }                               /* If error is there value s
 522:Core/Src/ADBMS.cpp ****     }
 523:Core/Src/ADBMS.cpp ****   }
 524:Core/Src/ADBMS.cpp ****   free(data);
 525:Core/Src/ADBMS.cpp ****   free(copyArray);
 526:Core/Src/ADBMS.cpp **** }
 527:Core/Src/ADBMS.cpp **** 
 528:Core/Src/ADBMS.cpp **** /**
 529:Core/Src/ADBMS.cpp **** *******************************************************************************
 530:Core/Src/ADBMS.cpp **** * Function: spiWriteData
 531:Core/Src/ADBMS.cpp **** * @brief Spi Write Bms Data
 532:Core/Src/ADBMS.cpp **** *
 533:Core/Src/ADBMS.cpp **** * @details This function write the data into bms ic.
 534:Core/Src/ADBMS.cpp **** *
 535:Core/Src/ADBMS.cpp **** * Parameters:
 536:Core/Src/ADBMS.cpp **** * @param [in]	tIC      Total IC
 537:Core/Src/ADBMS.cpp **** *
 538:Core/Src/ADBMS.cpp **** * @param [in]  tx_cmd   Tx command bytes
 539:Core/Src/ADBMS.cpp **** *
 540:Core/Src/ADBMS.cpp **** * @param [in]  *data   Data pointer
 541:Core/Src/ADBMS.cpp **** *
 542:Core/Src/ADBMS.cpp **** * @return None
 543:Core/Src/ADBMS.cpp **** *
 544:Core/Src/ADBMS.cpp **** *******************************************************************************
 545:Core/Src/ADBMS.cpp **** */
 546:Core/Src/ADBMS.cpp **** void spiWriteData
 547:Core/Src/ADBMS.cpp **** (
 548:Core/Src/ADBMS.cpp **** uint8_t tIC,
 549:Core/Src/ADBMS.cpp **** uint8_t tx_cmd[2],
 550:Core/Src/ADBMS.cpp **** uint8_t *data
 551:Core/Src/ADBMS.cpp **** )
 552:Core/Src/ADBMS.cpp **** {
 553:Core/Src/ADBMS.cpp ****   uint8_t BYTES_IN_REG = TX_DATA;
 554:Core/Src/ADBMS.cpp ****   uint8_t CMD_LEN = 4 + (RX_DATA * tIC);
 555:Core/Src/ADBMS.cpp ****   uint16_t data_pec, cmd_pec;
 556:Core/Src/ADBMS.cpp ****   uint8_t *cmd, copyArray[TX_DATA], src_address = 0;
 557:Core/Src/ADBMS.cpp ****   uint8_t cmd_index;
 558:Core/Src/ADBMS.cpp ****   cmd = (uint8_t *)calloc(CMD_LEN, sizeof(uint8_t));
 559:Core/Src/ADBMS.cpp ****   if(cmd == NULL)
 560:Core/Src/ADBMS.cpp ****   {
 561:Core/Src/ADBMS.cpp ****     printf(" Failed to allocate cmd array memory \n");
 562:Core/Src/ADBMS.cpp ****     exit(0);
 563:Core/Src/ADBMS.cpp ****   }
 564:Core/Src/ADBMS.cpp ****   else
 565:Core/Src/ADBMS.cpp ****   {
 566:Core/Src/ADBMS.cpp ****     cmd[0] = tx_cmd[0];
 567:Core/Src/ADBMS.cpp ****     cmd[1] = tx_cmd[1];
 568:Core/Src/ADBMS.cpp ****     cmd_pec = Pec15_Calc(2, cmd);
 569:Core/Src/ADBMS.cpp ****     cmd[2] = (uint8_t)(cmd_pec >> 8);
 570:Core/Src/ADBMS.cpp ****     cmd[3] = (uint8_t)(cmd_pec);
 571:Core/Src/ADBMS.cpp ****     cmd_index = 4;
ARM GAS  C:\Users\huawei\AppData\Local\Temp\ccpVCJY0.s 			page 14


 572:Core/Src/ADBMS.cpp ****     /* executes for each LTC68xx, this loops starts with the last IC on the stack */
 573:Core/Src/ADBMS.cpp ****     for (uint8_t current_ic = tIC; current_ic > 0; current_ic--)
 574:Core/Src/ADBMS.cpp ****     {
 575:Core/Src/ADBMS.cpp ****       src_address = ((current_ic-1) * TX_DATA);
 576:Core/Src/ADBMS.cpp ****       /* The first configuration written is received by the last IC in the daisy chain */
 577:Core/Src/ADBMS.cpp ****       for (uint8_t current_byte = 0; current_byte < BYTES_IN_REG; current_byte++)
 578:Core/Src/ADBMS.cpp ****       {
 579:Core/Src/ADBMS.cpp ****         cmd[cmd_index] = data[((current_ic-1)*6)+current_byte];
 580:Core/Src/ADBMS.cpp ****         cmd_index = cmd_index + 1;
 581:Core/Src/ADBMS.cpp ****       }
 582:Core/Src/ADBMS.cpp ****       /* Copy each ic correspond data + pec value for calculate data pec */
 583:Core/Src/ADBMS.cpp ****       memcpy(&copyArray[0], &data[src_address], TX_DATA); /* dst, src, size */
 584:Core/Src/ADBMS.cpp ****       /* calculating the PEC for each Ics configuration register data */
 585:Core/Src/ADBMS.cpp ****       data_pec = (uint16_t)pec10_calc(true,BYTES_IN_REG, &copyArray[0]);
 586:Core/Src/ADBMS.cpp ****       cmd[cmd_index] = (uint8_t)(data_pec >> 8);
 587:Core/Src/ADBMS.cpp ****       cmd_index = cmd_index + 1;
 588:Core/Src/ADBMS.cpp ****       cmd[cmd_index] = (uint8_t)data_pec;
 589:Core/Src/ADBMS.cpp ****       cmd_index = cmd_index + 1;
 590:Core/Src/ADBMS.cpp ****     }
 591:Core/Src/ADBMS.cpp ****     adBmsCsLow();
 592:Core/Src/ADBMS.cpp ****     HAL_SPI_Transmit(hspi, &cmd[0], CMD_LEN, SPI_TIME_OUT); /* SPI1 , data, size, timeout */
 593:Core/Src/ADBMS.cpp ****     adBmsCsHigh();
 594:Core/Src/ADBMS.cpp ****   }
 595:Core/Src/ADBMS.cpp ****   free(cmd);
 596:Core/Src/ADBMS.cpp **** }
 597:Core/Src/ADBMS.cpp **** 
 598:Core/Src/ADBMS.cpp **** /* Precomputed CRC15 Table */
 599:Core/Src/ADBMS.cpp **** const uint16_t Crc15Table[256] =
 600:Core/Src/ADBMS.cpp **** {
 601:Core/Src/ADBMS.cpp ****   0x0000,0xc599, 0xceab, 0xb32, 0xd8cf, 0x1d56, 0x1664, 0xd3fd, 0xf407, 0x319e, 0x3aac,
 602:Core/Src/ADBMS.cpp ****   0xff35, 0x2cc8, 0xe951, 0xe263, 0x27fa, 0xad97, 0x680e, 0x633c, 0xa6a5, 0x7558, 0xb0c1,
 603:Core/Src/ADBMS.cpp ****   0xbbf3, 0x7e6a, 0x5990, 0x9c09, 0x973b, 0x52a2, 0x815f, 0x44c6, 0x4ff4, 0x8a6d, 0x5b2e,
 604:Core/Src/ADBMS.cpp ****   0x9eb7, 0x9585, 0x501c, 0x83e1, 0x4678, 0x4d4a, 0x88d3, 0xaf29, 0x6ab0, 0x6182, 0xa41b,
 605:Core/Src/ADBMS.cpp ****   0x77e6, 0xb27f, 0xb94d, 0x7cd4, 0xf6b9, 0x3320, 0x3812, 0xfd8b, 0x2e76, 0xebef, 0xe0dd,
 606:Core/Src/ADBMS.cpp ****   0x2544, 0x2be, 0xc727, 0xcc15, 0x98c, 0xda71, 0x1fe8, 0x14da, 0xd143, 0xf3c5, 0x365c,
 607:Core/Src/ADBMS.cpp ****   0x3d6e, 0xf8f7,0x2b0a, 0xee93, 0xe5a1, 0x2038, 0x7c2, 0xc25b, 0xc969, 0xcf0, 0xdf0d,
 608:Core/Src/ADBMS.cpp ****   0x1a94, 0x11a6, 0xd43f, 0x5e52, 0x9bcb, 0x90f9, 0x5560, 0x869d, 0x4304, 0x4836, 0x8daf,
 609:Core/Src/ADBMS.cpp ****   0xaa55, 0x6fcc, 0x64fe, 0xa167, 0x729a, 0xb703, 0xbc31, 0x79a8, 0xa8eb, 0x6d72, 0x6640,
 610:Core/Src/ADBMS.cpp ****   0xa3d9, 0x7024, 0xb5bd, 0xbe8f, 0x7b16, 0x5cec, 0x9975, 0x9247, 0x57de, 0x8423, 0x41ba,
 611:Core/Src/ADBMS.cpp ****   0x4a88, 0x8f11, 0x57c, 0xc0e5, 0xcbd7, 0xe4e, 0xddb3, 0x182a, 0x1318, 0xd681, 0xf17b,
 612:Core/Src/ADBMS.cpp ****   0x34e2, 0x3fd0, 0xfa49, 0x29b4, 0xec2d, 0xe71f, 0x2286, 0xa213, 0x678a, 0x6cb8, 0xa921,
 613:Core/Src/ADBMS.cpp ****   0x7adc, 0xbf45, 0xb477, 0x71ee, 0x5614, 0x938d, 0x98bf, 0x5d26, 0x8edb, 0x4b42, 0x4070,
 614:Core/Src/ADBMS.cpp ****   0x85e9, 0xf84, 0xca1d, 0xc12f, 0x4b6, 0xd74b, 0x12d2, 0x19e0, 0xdc79, 0xfb83, 0x3e1a, 0x3528,
 615:Core/Src/ADBMS.cpp ****   0xf0b1, 0x234c, 0xe6d5, 0xede7, 0x287e, 0xf93d, 0x3ca4, 0x3796, 0xf20f, 0x21f2, 0xe46b, 0xef59,
 616:Core/Src/ADBMS.cpp ****   0x2ac0, 0xd3a, 0xc8a3, 0xc391, 0x608, 0xd5f5, 0x106c, 0x1b5e, 0xdec7, 0x54aa, 0x9133, 0x9a01,
 617:Core/Src/ADBMS.cpp ****   0x5f98, 0x8c65, 0x49fc, 0x42ce, 0x8757, 0xa0ad, 0x6534, 0x6e06, 0xab9f, 0x7862, 0xbdfb, 0xb6c9,
 618:Core/Src/ADBMS.cpp ****   0x7350, 0x51d6, 0x944f, 0x9f7d, 0x5ae4, 0x8919, 0x4c80, 0x47b2, 0x822b, 0xa5d1, 0x6048, 0x6b7a,
 619:Core/Src/ADBMS.cpp ****   0xaee3, 0x7d1e, 0xb887, 0xb3b5, 0x762c, 0xfc41, 0x39d8, 0x32ea, 0xf773, 0x248e, 0xe117, 0xea25,
 620:Core/Src/ADBMS.cpp ****   0x2fbc, 0x846, 0xcddf, 0xc6ed, 0x374, 0xd089, 0x1510, 0x1e22, 0xdbbb, 0xaf8, 0xcf61, 0xc453,
 621:Core/Src/ADBMS.cpp ****   0x1ca, 0xd237, 0x17ae, 0x1c9c, 0xd905, 0xfeff, 0x3b66, 0x3054, 0xf5cd, 0x2630, 0xe3a9, 0xe89b,
 622:Core/Src/ADBMS.cpp ****   0x2d02, 0xa76f, 0x62f6, 0x69c4, 0xac5d, 0x7fa0, 0xba39, 0xb10b, 0x7492, 0x5368, 0x96f1, 0x9dc3,
 623:Core/Src/ADBMS.cpp ****   0x585a, 0x8ba7, 0x4e3e, 0x450c, 0x8095
 624:Core/Src/ADBMS.cpp **** };
 625:Core/Src/ADBMS.cpp **** 
 626:Core/Src/ADBMS.cpp **** /**
 627:Core/Src/ADBMS.cpp **** *******************************************************************************
 628:Core/Src/ADBMS.cpp **** * Function: Pec15_Calc
ARM GAS  C:\Users\huawei\AppData\Local\Temp\ccpVCJY0.s 			page 15


 629:Core/Src/ADBMS.cpp **** * @brief CRC15 Pec Calculation Function
 630:Core/Src/ADBMS.cpp **** *
 631:Core/Src/ADBMS.cpp **** * @details This function calculates and return the CRC15 value
 632:Core/Src/ADBMS.cpp **** *
 633:Core/Src/ADBMS.cpp **** * Parameters:
 634:Core/Src/ADBMS.cpp **** * @param [in]	Len	Data length
 635:Core/Src/ADBMS.cpp **** *
 636:Core/Src/ADBMS.cpp **** * @param [in] *data    Data pointer
 637:Core/Src/ADBMS.cpp **** *
 638:Core/Src/ADBMS.cpp **** * @return CRC15_Value
 639:Core/Src/ADBMS.cpp **** *
 640:Core/Src/ADBMS.cpp **** *******************************************************************************
 641:Core/Src/ADBMS.cpp **** */
 642:Core/Src/ADBMS.cpp **** uint16_t Pec15_Calc
 643:Core/Src/ADBMS.cpp **** (
 644:Core/Src/ADBMS.cpp **** uint8_t len, /* Number of bytes that will be used to calculate a PEC */
 645:Core/Src/ADBMS.cpp **** uint8_t *data /* Array of data that will be used to calculate  a PEC */
 646:Core/Src/ADBMS.cpp **** )
 647:Core/Src/ADBMS.cpp **** {
 175              		.loc 1 647 1 is_stmt 1 view -0
 176              		.cfi_startproc
 177              		@ args = 0, pretend = 0, frame = 0
 178              		@ frame_needed = 0, uses_anonymous_args = 0
 179              		@ link register save eliminated.
 648:Core/Src/ADBMS.cpp ****   uint16_t remainder,addr;
 180              		.loc 1 648 3 view .LVU27
 649:Core/Src/ADBMS.cpp ****   remainder = 16; /* initialize the PEC */
 181              		.loc 1 649 3 view .LVU28
 650:Core/Src/ADBMS.cpp ****   for (uint8_t i = 0; i<len; i++) /* loops for each byte in data array */
 182              		.loc 1 650 3 view .LVU29
 183              	.LBB3:
 184              		.loc 1 650 16 is_stmt 0 view .LVU30
 185 0000 0023     		movs	r3, #0
 186              	.LBE3:
 649:Core/Src/ADBMS.cpp ****   remainder = 16; /* initialize the PEC */
 187              		.loc 1 649 13 view .LVU31
 188 0002 4FF0100C 		mov	ip, #16
 189              	.LVL12:
 190              	.LBB4:
 191              		.loc 1 650 24 is_stmt 1 view .LVU32
 192 0006 8342     		cmp	r3, r0
 193 0008 15D2     		bcs	.L20
 194              	.LBE4:
 647:Core/Src/ADBMS.cpp ****   uint16_t remainder,addr;
 195              		.loc 1 647 1 is_stmt 0 view .LVU33
 196 000a 10B4     		push	{r4}
 197              	.LCFI3:
 198              		.cfi_def_cfa_offset 4
 199              		.cfi_offset 4, -4
 200              	.L15:
 201              	.LBB5:
 651:Core/Src/ADBMS.cpp ****   {
 652:Core/Src/ADBMS.cpp ****     addr = (((remainder>>7)^data[i])&0xff);/* calculate PEC table address */
 202              		.loc 1 652 5 is_stmt 1 discriminator 3 view .LVU34
 203              		.loc 1 652 35 is_stmt 0 discriminator 3 view .LVU35
 204 000c CA5C     		ldrb	r2, [r1, r3]	@ zero_extendqisi2
 205              		.loc 1 652 28 discriminator 3 view .LVU36
ARM GAS  C:\Users\huawei\AppData\Local\Temp\ccpVCJY0.s 			page 16


 206 000e 82EADC12 		eor	r2, r2, ip, lsr #7
 207              		.loc 1 652 10 discriminator 3 view .LVU37
 208 0012 D2B2     		uxtb	r2, r2
 209              	.LVL13:
 653:Core/Src/ADBMS.cpp ****     remainder = ((remainder<<8)^Crc15Table[addr]);
 210              		.loc 1 653 5 is_stmt 1 discriminator 3 view .LVU38
 211              		.loc 1 653 48 is_stmt 0 discriminator 3 view .LVU39
 212 0014 0A4C     		ldr	r4, .L21
 213 0016 34F81220 		ldrh	r2, [r4, r2, lsl #1]
 214              	.LVL14:
 215              		.loc 1 653 15 discriminator 3 view .LVU40
 216 001a 82EA0C2C 		eor	ip, r2, ip, lsl #8
 217              	.LVL15:
 218              		.loc 1 653 15 discriminator 3 view .LVU41
 219 001e 1FFA8CFC 		uxth	ip, ip
 220              	.LVL16:
 650:Core/Src/ADBMS.cpp ****   {
 221              		.loc 1 650 3 is_stmt 1 discriminator 3 view .LVU42
 222 0022 0133     		adds	r3, r3, #1
 223              	.LVL17:
 650:Core/Src/ADBMS.cpp ****   {
 224              		.loc 1 650 3 is_stmt 0 discriminator 3 view .LVU43
 225 0024 DBB2     		uxtb	r3, r3
 226              	.LVL18:
 650:Core/Src/ADBMS.cpp ****   {
 227              		.loc 1 650 24 is_stmt 1 discriminator 3 view .LVU44
 228 0026 8342     		cmp	r3, r0
 229 0028 F0D3     		bcc	.L15
 230              	.LBE5:
 654:Core/Src/ADBMS.cpp ****   }
 655:Core/Src/ADBMS.cpp ****   return(remainder*2);/* The CRC15 has a 0 in the LSB so the remainder must be multiplied by 2 */
 231              		.loc 1 655 3 view .LVU45
 232              		.loc 1 655 21 is_stmt 0 view .LVU46
 233 002a 4FEA4C00 		lsl	r0, ip, #1
 234              	.LVL19:
 235              		.loc 1 655 21 view .LVU47
 236 002e 80B2     		uxth	r0, r0
 656:Core/Src/ADBMS.cpp **** }
 237              		.loc 1 656 1 view .LVU48
 238 0030 5DF8044B 		ldr	r4, [sp], #4
 239              	.LCFI4:
 240              		.cfi_restore 4
 241              		.cfi_def_cfa_offset 0
 242 0034 7047     		bx	lr
 243              	.LVL20:
 244              	.L20:
 655:Core/Src/ADBMS.cpp **** }
 245              		.loc 1 655 3 is_stmt 1 view .LVU49
 655:Core/Src/ADBMS.cpp **** }
 246              		.loc 1 655 21 is_stmt 0 view .LVU50
 247 0036 4FEA4C00 		lsl	r0, ip, #1
 248              	.LVL21:
 655:Core/Src/ADBMS.cpp **** }
 249              		.loc 1 655 21 view .LVU51
 250 003a 80B2     		uxth	r0, r0
 251              		.loc 1 656 1 view .LVU52
 252 003c 7047     		bx	lr
ARM GAS  C:\Users\huawei\AppData\Local\Temp\ccpVCJY0.s 			page 17


 253              	.L22:
 254 003e 00BF     		.align	2
 255              	.L21:
 256 0040 00000000 		.word	_ZL10Crc15Table
 257              		.cfi_endproc
 258              	.LFE252:
 259              		.cantunwind
 260              		.fnend
 262              		.section	.text._Z10pec10_calcbiPh,"ax",%progbits
 263              		.align	1
 264              		.global	_Z10pec10_calcbiPh
 265              		.syntax unified
 266              		.thumb
 267              		.thumb_func
 269              	_Z10pec10_calcbiPh:
 270              		.fnstart
 271              	.LVL22:
 272              	.LFB253:
 657:Core/Src/ADBMS.cpp **** 
 658:Core/Src/ADBMS.cpp **** uint16_t pec10_calc(bool rx_cmd, int len, uint8_t *data)
 659:Core/Src/ADBMS.cpp **** {
 273              		.loc 1 659 1 is_stmt 1 view -0
 274              		.cfi_startproc
 275              		@ args = 0, pretend = 0, frame = 0
 276              		@ frame_needed = 0, uses_anonymous_args = 0
 277              		.loc 1 659 1 is_stmt 0 view .LVU54
 278 0000 10B5     		push	{r4, lr}
 279              	.LCFI5:
 280              		.cfi_def_cfa_offset 8
 281              		.cfi_offset 4, -8
 282              		.cfi_offset 14, -4
 283 0002 0446     		mov	r4, r0
 660:Core/Src/ADBMS.cpp ****   uint16_t remainder = 16; /* PEC_SEED;   0000010000 */
 284              		.loc 1 660 3 is_stmt 1 view .LVU55
 285              	.LVL23:
 661:Core/Src/ADBMS.cpp ****   uint16_t polynom = 0x8F; /* x10 + x7 + x3 + x2 + x + 1 <- the CRC15 polynomial         100 1000 1
 286              		.loc 1 661 3 view .LVU56
 662:Core/Src/ADBMS.cpp **** 
 663:Core/Src/ADBMS.cpp ****   /* Perform modulo-2 division, a byte at a time. */
 664:Core/Src/ADBMS.cpp ****   for (uint8_t pbyte = 0; pbyte < len; ++pbyte)
 287              		.loc 1 664 3 view .LVU57
 288              	.LBB6:
 289              		.loc 1 664 16 is_stmt 0 view .LVU58
 290 0004 4FF0000C 		mov	ip, #0
 291              	.LBE6:
 660:Core/Src/ADBMS.cpp ****   uint16_t polynom = 0x8F; /* x10 + x7 + x3 + x2 + x + 1 <- the CRC15 polynomial         100 1000 1
 292              		.loc 1 660 12 view .LVU59
 293 0008 1023     		movs	r3, #16
 294              	.LBB11:
 295              		.loc 1 664 3 view .LVU60
 296 000a 10E0     		b	.L24
 297              	.LVL24:
 298              	.L26:
 299              	.LBB7:
 300              	.LBB8:
 665:Core/Src/ADBMS.cpp ****   {
 666:Core/Src/ADBMS.cpp ****     /* Bring the next byte into the remainder. */
ARM GAS  C:\Users\huawei\AppData\Local\Temp\ccpVCJY0.s 			page 18


 667:Core/Src/ADBMS.cpp ****     remainder ^= (uint16_t)(data[pbyte] << 2);
 668:Core/Src/ADBMS.cpp ****     /* Perform modulo-2 division, a bit at a time.*/
 669:Core/Src/ADBMS.cpp ****     for (uint8_t bit_ = 8; bit_ > 0; --bit_)
 670:Core/Src/ADBMS.cpp ****     {
 671:Core/Src/ADBMS.cpp ****       /* Try to divide the current data bit. */
 672:Core/Src/ADBMS.cpp ****       if ((remainder & 0x200) > 0)//equivalent to remainder & 2^14 simply check for MSB
 673:Core/Src/ADBMS.cpp ****       {
 674:Core/Src/ADBMS.cpp ****         remainder = (uint16_t)((remainder << 1));
 675:Core/Src/ADBMS.cpp ****         remainder = (uint16_t)(remainder ^ polynom);
 676:Core/Src/ADBMS.cpp ****       }
 677:Core/Src/ADBMS.cpp ****       else
 678:Core/Src/ADBMS.cpp ****       {
 679:Core/Src/ADBMS.cpp ****         remainder = (uint16_t)(remainder << 1);
 301              		.loc 1 679 9 is_stmt 1 view .LVU61
 302              		.loc 1 679 19 is_stmt 0 view .LVU62
 303 000c 5B00     		lsls	r3, r3, #1
 304              	.LVL25:
 305              		.loc 1 679 19 view .LVU63
 306 000e 9BB2     		uxth	r3, r3
 307              	.LVL26:
 308              	.L27:
 669:Core/Src/ADBMS.cpp ****     {
 309              		.loc 1 669 5 is_stmt 1 discriminator 2 view .LVU64
 310 0010 0138     		subs	r0, r0, #1
 311              	.LVL27:
 669:Core/Src/ADBMS.cpp ****     {
 312              		.loc 1 669 5 is_stmt 0 discriminator 2 view .LVU65
 313 0012 C0B2     		uxtb	r0, r0
 314              	.LVL28:
 315              	.L25:
 669:Core/Src/ADBMS.cpp ****     {
 316              		.loc 1 669 33 is_stmt 1 discriminator 1 view .LVU66
 317 0014 38B1     		cbz	r0, .L36
 672:Core/Src/ADBMS.cpp ****       {
 318              		.loc 1 672 7 view .LVU67
 319 0016 13F4007F 		tst	r3, #512
 320 001a F7D0     		beq	.L26
 674:Core/Src/ADBMS.cpp ****         remainder = (uint16_t)(remainder ^ polynom);
 321              		.loc 1 674 9 view .LVU68
 674:Core/Src/ADBMS.cpp ****         remainder = (uint16_t)(remainder ^ polynom);
 322              		.loc 1 674 19 is_stmt 0 view .LVU69
 323 001c 5B00     		lsls	r3, r3, #1
 324              	.LVL29:
 674:Core/Src/ADBMS.cpp ****         remainder = (uint16_t)(remainder ^ polynom);
 325              		.loc 1 674 19 view .LVU70
 326 001e 9BB2     		uxth	r3, r3
 327              	.LVL30:
 675:Core/Src/ADBMS.cpp ****       }
 328              		.loc 1 675 9 is_stmt 1 view .LVU71
 675:Core/Src/ADBMS.cpp ****       }
 329              		.loc 1 675 19 is_stmt 0 view .LVU72
 330 0020 83F08F03 		eor	r3, r3, #143
 331              	.LVL31:
 675:Core/Src/ADBMS.cpp ****       }
 332              		.loc 1 675 19 view .LVU73
 333 0024 F4E7     		b	.L27
 334              	.L36:
ARM GAS  C:\Users\huawei\AppData\Local\Temp\ccpVCJY0.s 			page 19


 675:Core/Src/ADBMS.cpp ****       }
 335              		.loc 1 675 19 view .LVU74
 336              	.LBE8:
 337              	.LBE7:
 664:Core/Src/ADBMS.cpp ****   {
 338              		.loc 1 664 3 is_stmt 1 discriminator 2 view .LVU75
 339 0026 0CF1010C 		add	ip, ip, #1
 340              	.LVL32:
 664:Core/Src/ADBMS.cpp ****   {
 341              		.loc 1 664 3 is_stmt 0 discriminator 2 view .LVU76
 342 002a 5FFA8CFC 		uxtb	ip, ip
 343              	.LVL33:
 344              	.L24:
 664:Core/Src/ADBMS.cpp ****   {
 345              		.loc 1 664 33 is_stmt 1 discriminator 1 view .LVU77
 346 002e 8C45     		cmp	ip, r1
 347 0030 05DA     		bge	.L37
 348              	.LBB10:
 667:Core/Src/ADBMS.cpp ****     /* Perform modulo-2 division, a bit at a time.*/
 349              		.loc 1 667 5 view .LVU78
 667:Core/Src/ADBMS.cpp ****     /* Perform modulo-2 division, a bit at a time.*/
 350              		.loc 1 667 39 is_stmt 0 view .LVU79
 351 0032 12F80CE0 		ldrb	lr, [r2, ip]	@ zero_extendqisi2
 667:Core/Src/ADBMS.cpp ****     /* Perform modulo-2 division, a bit at a time.*/
 352              		.loc 1 667 15 view .LVU80
 353 0036 83EA8E03 		eor	r3, r3, lr, lsl #2
 354              	.LVL34:
 669:Core/Src/ADBMS.cpp ****     {
 355              		.loc 1 669 5 is_stmt 1 view .LVU81
 356              	.LBB9:
 669:Core/Src/ADBMS.cpp ****     {
 357              		.loc 1 669 18 is_stmt 0 view .LVU82
 358 003a 0820     		movs	r0, #8
 669:Core/Src/ADBMS.cpp ****     {
 359              		.loc 1 669 5 view .LVU83
 360 003c EAE7     		b	.L25
 361              	.LVL35:
 362              	.L37:
 669:Core/Src/ADBMS.cpp ****     {
 363              		.loc 1 669 5 view .LVU84
 364              	.LBE9:
 365              	.LBE10:
 366              	.LBE11:
 680:Core/Src/ADBMS.cpp ****       }
 681:Core/Src/ADBMS.cpp ****     }
 682:Core/Src/ADBMS.cpp ****   }
 683:Core/Src/ADBMS.cpp ****   if (rx_cmd == true)
 367              		.loc 1 683 3 is_stmt 1 view .LVU85
 368              	.LBB12:
 369 003e 9CB1     		cbz	r4, .L30
 370              	.LBB13:
 684:Core/Src/ADBMS.cpp ****   {
 685:Core/Src/ADBMS.cpp ****     remainder ^= (uint16_t)((data[len] & 0xFC) << 2);
 371              		.loc 1 685 5 view .LVU86
 372              		.loc 1 685 38 is_stmt 0 view .LVU87
 373 0040 525C     		ldrb	r2, [r2, r1]	@ zero_extendqisi2
 374              	.LVL36:
ARM GAS  C:\Users\huawei\AppData\Local\Temp\ccpVCJY0.s 			page 20


 375              		.loc 1 685 48 view .LVU88
 376 0042 9200     		lsls	r2, r2, #2
 377              		.loc 1 685 18 view .LVU89
 378 0044 02F47C72 		and	r2, r2, #1008
 379              		.loc 1 685 15 view .LVU90
 380 0048 5340     		eors	r3, r3, r2
 381              	.LVL37:
 686:Core/Src/ADBMS.cpp ****     /* Perform modulo-2 division, a bit at a time */
 687:Core/Src/ADBMS.cpp ****     for (uint8_t bit_ = 6; bit_ > 0; --bit_)
 382              		.loc 1 687 5 is_stmt 1 view .LVU91
 383              	.LBB14:
 384              		.loc 1 687 18 is_stmt 0 view .LVU92
 385 004a 0622     		movs	r2, #6
 386              		.loc 1 687 5 view .LVU93
 387 004c 03E0     		b	.L31
 388              	.LVL38:
 389              	.L32:
 688:Core/Src/ADBMS.cpp ****     {
 689:Core/Src/ADBMS.cpp ****       /* Try to divide the current data bit */
 690:Core/Src/ADBMS.cpp ****       if ((remainder & 0x200) > 0)//equivalent to remainder & 2^14 simply check for MSB
 691:Core/Src/ADBMS.cpp ****       {
 692:Core/Src/ADBMS.cpp ****         remainder = (uint16_t)((remainder << 1));
 693:Core/Src/ADBMS.cpp ****         remainder = (uint16_t)(remainder ^ polynom);
 694:Core/Src/ADBMS.cpp ****       }
 695:Core/Src/ADBMS.cpp ****       else
 696:Core/Src/ADBMS.cpp ****       {
 697:Core/Src/ADBMS.cpp ****         remainder = (uint16_t)((remainder << 1));
 390              		.loc 1 697 9 is_stmt 1 view .LVU94
 391              		.loc 1 697 19 is_stmt 0 view .LVU95
 392 004e 5B00     		lsls	r3, r3, #1
 393              	.LVL39:
 394              		.loc 1 697 19 view .LVU96
 395 0050 9BB2     		uxth	r3, r3
 396              	.LVL40:
 397              	.L33:
 687:Core/Src/ADBMS.cpp ****     {
 398              		.loc 1 687 5 is_stmt 1 discriminator 2 view .LVU97
 399 0052 013A     		subs	r2, r2, #1
 400              	.LVL41:
 687:Core/Src/ADBMS.cpp ****     {
 401              		.loc 1 687 5 is_stmt 0 discriminator 2 view .LVU98
 402 0054 D2B2     		uxtb	r2, r2
 403              	.LVL42:
 404              	.L31:
 687:Core/Src/ADBMS.cpp ****     {
 405              		.loc 1 687 33 is_stmt 1 discriminator 1 view .LVU99
 406 0056 3AB1     		cbz	r2, .L30
 690:Core/Src/ADBMS.cpp ****       {
 407              		.loc 1 690 7 view .LVU100
 408 0058 13F4007F 		tst	r3, #512
 409 005c F7D0     		beq	.L32
 692:Core/Src/ADBMS.cpp ****         remainder = (uint16_t)(remainder ^ polynom);
 410              		.loc 1 692 9 view .LVU101
 692:Core/Src/ADBMS.cpp ****         remainder = (uint16_t)(remainder ^ polynom);
 411              		.loc 1 692 19 is_stmt 0 view .LVU102
 412 005e 5B00     		lsls	r3, r3, #1
 413              	.LVL43:
ARM GAS  C:\Users\huawei\AppData\Local\Temp\ccpVCJY0.s 			page 21


 692:Core/Src/ADBMS.cpp ****         remainder = (uint16_t)(remainder ^ polynom);
 414              		.loc 1 692 19 view .LVU103
 415 0060 9BB2     		uxth	r3, r3
 416              	.LVL44:
 693:Core/Src/ADBMS.cpp ****       }
 417              		.loc 1 693 9 is_stmt 1 view .LVU104
 693:Core/Src/ADBMS.cpp ****       }
 418              		.loc 1 693 19 is_stmt 0 view .LVU105
 419 0062 83F08F03 		eor	r3, r3, #143
 420              	.LVL45:
 693:Core/Src/ADBMS.cpp ****       }
 421              		.loc 1 693 19 view .LVU106
 422 0066 F4E7     		b	.L33
 423              	.LVL46:
 424              	.L30:
 693:Core/Src/ADBMS.cpp ****       }
 425              		.loc 1 693 19 view .LVU107
 426              	.LBE14:
 427              	.LBE13:
 428              	.LBE12:
 698:Core/Src/ADBMS.cpp ****       }
 699:Core/Src/ADBMS.cpp ****     }
 700:Core/Src/ADBMS.cpp ****   }
 701:Core/Src/ADBMS.cpp ****   return ((uint16_t)(remainder & 0x3FF));
 429              		.loc 1 701 3 is_stmt 1 view .LVU108
 702:Core/Src/ADBMS.cpp **** }
 430              		.loc 1 702 1 is_stmt 0 view .LVU109
 431 0068 C3F30900 		ubfx	r0, r3, #0, #10
 432 006c 10BD     		pop	{r4, pc}
 433              		.cfi_endproc
 434              	.LFE253:
 435              		.cantunwind
 436              		.fnend
 438              		.section	.rodata._Z11spiReadDatahPhS_S_S_h.str1.4,"aMS",%progbits,1
 439              		.align	2
 440              	.LC0:
 441 0000 20466169 		.ascii	" Failed to allocate spi read data memory \000"
 441      6C656420 
 441      746F2061 
 441      6C6C6F63 
 441      61746520 
 442              		.section	.text._Z11spiReadDatahPhS_S_S_h,"ax",%progbits
 443              		.align	1
 444              		.global	_Z11spiReadDatahPhS_S_S_h
 445              		.syntax unified
 446              		.thumb
 447              		.thumb_func
 449              	_Z11spiReadDatahPhS_S_S_h:
 450              		.fnstart
 451              	.LVL47:
 452              	.LFB250:
 478:Core/Src/ADBMS.cpp ****   uint8_t *data, *copyArray, src_address = 0;
 453              		.loc 1 478 1 is_stmt 1 view -0
 454              		.cfi_startproc
 455              		@ args = 8, pretend = 0, frame = 24
 456              		@ frame_needed = 0, uses_anonymous_args = 0
 478:Core/Src/ADBMS.cpp ****   uint8_t *data, *copyArray, src_address = 0;
ARM GAS  C:\Users\huawei\AppData\Local\Temp\ccpVCJY0.s 			page 22


 457              		.loc 1 478 1 is_stmt 0 view .LVU111
 458 0000 2DE9F04F 		push	{r4, r5, r6, r7, r8, r9, r10, fp, lr}
 459              		.save {r4, r5, r6, r7, r8, r9, r10, fp, lr}
 460              	.LCFI6:
 461              		.cfi_def_cfa_offset 36
 462              		.cfi_offset 4, -36
 463              		.cfi_offset 5, -32
 464              		.cfi_offset 6, -28
 465              		.cfi_offset 7, -24
 466              		.cfi_offset 8, -20
 467              		.cfi_offset 9, -16
 468              		.cfi_offset 10, -12
 469              		.cfi_offset 11, -8
 470              		.cfi_offset 14, -4
 471              		.pad #28
 472 0004 87B0     		sub	sp, sp, #28
 473              	.LCFI7:
 474              		.cfi_def_cfa_offset 64
 475 0006 0290     		str	r0, [sp, #8]
 476 0008 0D46     		mov	r5, r1
 477 000a 9146     		mov	r9, r2
 478 000c 0393     		str	r3, [sp, #12]
 479 000e 9DF84440 		ldrb	r4, [sp, #68]	@ zero_extendqisi2
 479:Core/Src/ADBMS.cpp ****   uint16_t cmd_pec, received_pec, calculated_pec;
 480              		.loc 1 479 3 is_stmt 1 view .LVU112
 481              	.LVL48:
 480:Core/Src/ADBMS.cpp ****   uint8_t BYTES_IN_REG = regData_size;
 482              		.loc 1 480 3 view .LVU113
 481:Core/Src/ADBMS.cpp ****   uint8_t RX_BUFFER = (regData_size * tIC);
 483              		.loc 1 481 3 view .LVU114
 482:Core/Src/ADBMS.cpp **** 
 484              		.loc 1 482 3 view .LVU115
 482:Core/Src/ADBMS.cpp **** 
 485              		.loc 1 482 11 is_stmt 0 view .LVU116
 486 0012 14FB00F3 		smulbb	r3, r4, r0
 487              	.LVL49:
 482:Core/Src/ADBMS.cpp **** 
 488              		.loc 1 482 11 view .LVU117
 489 0016 DEB2     		uxtb	r6, r3
 490              	.LVL50:
 484:Core/Src/ADBMS.cpp ****   copyArray = (uint8_t *)calloc(BYTES_IN_REG, sizeof(uint8_t));
 491              		.loc 1 484 3 is_stmt 1 view .LVU118
 484:Core/Src/ADBMS.cpp ****   copyArray = (uint8_t *)calloc(BYTES_IN_REG, sizeof(uint8_t));
 492              		.loc 1 484 27 is_stmt 0 view .LVU119
 493 0018 0121     		movs	r1, #1
 494              	.LVL51:
 484:Core/Src/ADBMS.cpp ****   copyArray = (uint8_t *)calloc(BYTES_IN_REG, sizeof(uint8_t));
 495              		.loc 1 484 27 view .LVU120
 496 001a 3046     		mov	r0, r6
 497              	.LVL52:
 484:Core/Src/ADBMS.cpp ****   copyArray = (uint8_t *)calloc(BYTES_IN_REG, sizeof(uint8_t));
 498              		.loc 1 484 27 view .LVU121
 499 001c FFF7FEFF 		bl	calloc
 500              	.LVL53:
 484:Core/Src/ADBMS.cpp ****   copyArray = (uint8_t *)calloc(BYTES_IN_REG, sizeof(uint8_t));
 501              		.loc 1 484 27 view .LVU122
 502 0020 0746     		mov	r7, r0
ARM GAS  C:\Users\huawei\AppData\Local\Temp\ccpVCJY0.s 			page 23


 503              	.LVL54:
 485:Core/Src/ADBMS.cpp ****   if((data == NULL) || (copyArray == NULL))
 504              		.loc 1 485 3 is_stmt 1 view .LVU123
 485:Core/Src/ADBMS.cpp ****   if((data == NULL) || (copyArray == NULL))
 505              		.loc 1 485 32 is_stmt 0 view .LVU124
 506 0022 0121     		movs	r1, #1
 507 0024 2046     		mov	r0, r4
 508              	.LVL55:
 485:Core/Src/ADBMS.cpp ****   if((data == NULL) || (copyArray == NULL))
 509              		.loc 1 485 32 view .LVU125
 510 0026 FFF7FEFF 		bl	calloc
 511              	.LVL56:
 486:Core/Src/ADBMS.cpp ****   {
 512              		.loc 1 486 3 is_stmt 1 view .LVU126
 513              	.LBB15:
 514 002a 3FB3     		cbz	r7, .L39
 515 002c 8346     		mov	fp, r0
 486:Core/Src/ADBMS.cpp ****   {
 516              		.loc 1 486 21 is_stmt 0 discriminator 1 view .LVU127
 517 002e 28B3     		cbz	r0, .L39
 518              	.LBB16:
 494:Core/Src/ADBMS.cpp ****     cmd[0] = tx_cmd[0];
 519              		.loc 1 494 5 is_stmt 1 view .LVU128
 495:Core/Src/ADBMS.cpp ****     cmd[1] = tx_cmd[1];
 520              		.loc 1 495 5 view .LVU129
 495:Core/Src/ADBMS.cpp ****     cmd[1] = tx_cmd[1];
 521              		.loc 1 495 22 is_stmt 0 view .LVU130
 522 0030 2B78     		ldrb	r3, [r5]	@ zero_extendqisi2
 495:Core/Src/ADBMS.cpp ****     cmd[1] = tx_cmd[1];
 523              		.loc 1 495 12 view .LVU131
 524 0032 8DF81430 		strb	r3, [sp, #20]
 496:Core/Src/ADBMS.cpp ****     cmd_pec = Pec15_Calc(2, cmd);
 525              		.loc 1 496 5 is_stmt 1 view .LVU132
 496:Core/Src/ADBMS.cpp ****     cmd_pec = Pec15_Calc(2, cmd);
 526              		.loc 1 496 12 is_stmt 0 view .LVU133
 527 0036 6B78     		ldrb	r3, [r5, #1]	@ zero_extendqisi2
 528 0038 8DF81530 		strb	r3, [sp, #21]
 497:Core/Src/ADBMS.cpp ****     cmd[2] = (uint8_t)(cmd_pec >> 8);
 529              		.loc 1 497 5 is_stmt 1 view .LVU134
 497:Core/Src/ADBMS.cpp ****     cmd[2] = (uint8_t)(cmd_pec >> 8);
 530              		.loc 1 497 25 is_stmt 0 view .LVU135
 531 003c 05A9     		add	r1, sp, #20
 532 003e 0220     		movs	r0, #2
 533              	.LVL57:
 497:Core/Src/ADBMS.cpp ****     cmd[2] = (uint8_t)(cmd_pec >> 8);
 534              		.loc 1 497 25 view .LVU136
 535 0040 FFF7FEFF 		bl	_Z10Pec15_CalchPh
 536              	.LVL58:
 498:Core/Src/ADBMS.cpp ****     cmd[3] = (uint8_t)(cmd_pec);
 537              		.loc 1 498 5 is_stmt 1 view .LVU137
 498:Core/Src/ADBMS.cpp ****     cmd[3] = (uint8_t)(cmd_pec);
 538              		.loc 1 498 32 is_stmt 0 view .LVU138
 539 0044 C0F30F23 		ubfx	r3, r0, #8, #16
 498:Core/Src/ADBMS.cpp ****     cmd[3] = (uint8_t)(cmd_pec);
 540              		.loc 1 498 12 view .LVU139
 541 0048 8DF81630 		strb	r3, [sp, #22]
 499:Core/Src/ADBMS.cpp ****     adBmsCsLow();
ARM GAS  C:\Users\huawei\AppData\Local\Temp\ccpVCJY0.s 			page 24


 542              		.loc 1 499 5 is_stmt 1 view .LVU140
 499:Core/Src/ADBMS.cpp ****     adBmsCsLow();
 543              		.loc 1 499 12 is_stmt 0 view .LVU141
 544 004c 8DF81700 		strb	r0, [sp, #23]
 500:Core/Src/ADBMS.cpp ****     HAL_SPI_Transmit(hspi, &cmd[0], 4, SPI_TIME_OUT);
 545              		.loc 1 500 5 is_stmt 1 view .LVU142
 500:Core/Src/ADBMS.cpp ****     HAL_SPI_Transmit(hspi, &cmd[0], 4, SPI_TIME_OUT);
 546              		.loc 1 500 15 is_stmt 0 view .LVU143
 547 0050 FFF7FEFF 		bl	_Z10adBmsCsLowv
 548              	.LVL59:
 501:Core/Src/ADBMS.cpp ****     HAL_SPI_Receive(hspi, &data[0], RX_BUFFER, SPI_TIME_OUT);
 549              		.loc 1 501 5 is_stmt 1 view .LVU144
 501:Core/Src/ADBMS.cpp ****     HAL_SPI_Receive(hspi, &data[0], RX_BUFFER, SPI_TIME_OUT);
 550              		.loc 1 501 21 is_stmt 0 view .LVU145
 551 0054 304D     		ldr	r5, .L50
 552              	.LVL60:
 501:Core/Src/ADBMS.cpp ****     HAL_SPI_Receive(hspi, &data[0], RX_BUFFER, SPI_TIME_OUT);
 553              		.loc 1 501 21 view .LVU146
 554 0056 4FF0FF33 		mov	r3, #-1
 555 005a 0422     		movs	r2, #4
 556 005c 05A9     		add	r1, sp, #20
 557 005e 2868     		ldr	r0, [r5]
 558 0060 FFF7FEFF 		bl	HAL_SPI_Transmit
 559              	.LVL61:
 502:Core/Src/ADBMS.cpp ****     adBmsCsHigh();
 560              		.loc 1 502 5 is_stmt 1 view .LVU147
 502:Core/Src/ADBMS.cpp ****     adBmsCsHigh();
 561              		.loc 1 502 20 is_stmt 0 view .LVU148
 562 0064 4FF0FF33 		mov	r3, #-1
 563 0068 3246     		mov	r2, r6
 564 006a 3946     		mov	r1, r7
 565 006c 2868     		ldr	r0, [r5]
 566 006e FFF7FEFF 		bl	HAL_SPI_Receive
 567              	.LVL62:
 503:Core/Src/ADBMS.cpp ****     for (uint8_t current_ic = 0; current_ic < tIC; current_ic++)     /* executes for each ic in the
 568              		.loc 1 503 5 is_stmt 1 view .LVU149
 503:Core/Src/ADBMS.cpp ****     for (uint8_t current_ic = 0; current_ic < tIC; current_ic++)     /* executes for each ic in the
 569              		.loc 1 503 16 is_stmt 0 view .LVU150
 570 0072 FFF7FEFF 		bl	_Z11adBmsCsHighv
 571              	.LVL63:
 572              	.LBB17:
 504:Core/Src/ADBMS.cpp ****     {																																      /* Into the r_comm array as well as check the received d
 573              		.loc 1 504 18 view .LVU151
 574 0076 0026     		movs	r6, #0
 575              	.LVL64:
 504:Core/Src/ADBMS.cpp ****     {																																      /* Into the r_comm array as well as check the received d
 576              		.loc 1 504 18 view .LVU152
 577              	.LBE17:
 578              	.LBE16:
 579              	.LBE15:
 479:Core/Src/ADBMS.cpp ****   uint16_t cmd_pec, received_pec, calculated_pec;
 580              		.loc 1 479 30 view .LVU153
 581 0078 B246     		mov	r10, r6
 582 007a 39E0     		b	.L41
 583              	.LVL65:
 584              	.L39:
 585              	.LBB24:
ARM GAS  C:\Users\huawei\AppData\Local\Temp\ccpVCJY0.s 			page 25


 488:Core/Src/ADBMS.cpp **** 
 586              		.loc 1 488 5 is_stmt 1 view .LVU154
 488:Core/Src/ADBMS.cpp **** 
 587              		.loc 1 488 11 is_stmt 0 view .LVU155
 588 007c 2748     		ldr	r0, .L50+4
 589              	.LVL66:
 488:Core/Src/ADBMS.cpp **** 
 590              		.loc 1 488 11 view .LVU156
 591 007e FFF7FEFF 		bl	puts
 592              	.LVL67:
 490:Core/Src/ADBMS.cpp ****   }
 593              		.loc 1 490 5 is_stmt 1 view .LVU157
 490:Core/Src/ADBMS.cpp ****   }
 594              		.loc 1 490 9 is_stmt 0 view .LVU158
 595 0082 0020     		movs	r0, #0
 596 0084 FFF7FEFF 		bl	exit
 597              	.LVL68:
 598              	.L42:
 599              	.LBB23:
 600              	.LBB22:
 601              	.LBB18:
 602              	.LBB19:
 508:Core/Src/ADBMS.cpp ****       }
 603              		.loc 1 508 9 is_stmt 1 discriminator 3 view .LVU159
 508:Core/Src/ADBMS.cpp ****       }
 604              		.loc 1 508 77 is_stmt 0 discriminator 3 view .LVU160
 605 0088 04FB0632 		mla	r2, r4, r6, r3
 508:Core/Src/ADBMS.cpp ****       }
 606              		.loc 1 508 104 discriminator 3 view .LVU161
 607 008c B95C     		ldrb	r1, [r7, r2]	@ zero_extendqisi2
 508:Core/Src/ADBMS.cpp ****       }
 608              		.loc 1 508 57 discriminator 3 view .LVU162
 609 008e 09F80210 		strb	r1, [r9, r2]
 506:Core/Src/ADBMS.cpp ****       {
 610              		.loc 1 506 7 is_stmt 1 discriminator 3 view .LVU163
 611 0092 0133     		adds	r3, r3, #1
 612              	.LVL69:
 506:Core/Src/ADBMS.cpp ****       {
 613              		.loc 1 506 7 is_stmt 0 discriminator 3 view .LVU164
 614 0094 DBB2     		uxtb	r3, r3
 615              	.LVL70:
 616              	.L45:
 506:Core/Src/ADBMS.cpp ****       {
 617              		.loc 1 506 51 is_stmt 1 discriminator 1 view .LVU165
 506:Core/Src/ADBMS.cpp ****       {
 618              		.loc 1 506 66 is_stmt 0 discriminator 1 view .LVU166
 619 0096 A51E     		subs	r5, r4, #2
 506:Core/Src/ADBMS.cpp ****       {
 620              		.loc 1 506 51 discriminator 1 view .LVU167
 621 0098 AB42     		cmp	r3, r5
 622 009a F5DB     		blt	.L42
 623              	.LBE19:
 511:Core/Src/ADBMS.cpp ****       /* Get received pec value from ic*/
 624              		.loc 1 511 7 is_stmt 1 view .LVU168
 511:Core/Src/ADBMS.cpp ****       /* Get received pec value from ic*/
 625              		.loc 1 511 48 is_stmt 0 view .LVU169
 626 009c 06FB04F3 		mul	r3, r6, r4
ARM GAS  C:\Users\huawei\AppData\Local\Temp\ccpVCJY0.s 			page 26


 627              	.LVL71:
 511:Core/Src/ADBMS.cpp ****       /* Get received pec value from ic*/
 628              		.loc 1 511 64 view .LVU170
 629 00a0 EA18     		adds	r2, r5, r3
 511:Core/Src/ADBMS.cpp ****       /* Get received pec value from ic*/
 630              		.loc 1 511 84 view .LVU171
 631 00a2 17F80280 		ldrb	r8, [r7, r2]	@ zero_extendqisi2
 511:Core/Src/ADBMS.cpp ****       /* Get received pec value from ic*/
 632              		.loc 1 511 16 view .LVU172
 633 00a6 0196     		str	r6, [sp, #4]
 511:Core/Src/ADBMS.cpp ****       /* Get received pec value from ic*/
 634              		.loc 1 511 86 view .LVU173
 635 00a8 4FEA9802 		lsr	r2, r8, #2
 511:Core/Src/ADBMS.cpp ****       /* Get received pec value from ic*/
 636              		.loc 1 511 28 view .LVU174
 637 00ac 1099     		ldr	r1, [sp, #64]
 638 00ae 8A55     		strb	r2, [r1, r6]
 513:Core/Src/ADBMS.cpp ****       /* Copy each ic correspond data + pec value for calculate data pec */
 639              		.loc 1 513 7 is_stmt 1 view .LVU175
 513:Core/Src/ADBMS.cpp ****       /* Copy each ic correspond data + pec value for calculate data pec */
 640              		.loc 1 513 98 is_stmt 0 view .LVU176
 641 00b0 4FEA0828 		lsl	r8, r8, #8
 642 00b4 08F44078 		and	r8, r8, #768
 513:Core/Src/ADBMS.cpp ****       /* Copy each ic correspond data + pec value for calculate data pec */
 643              		.loc 1 513 155 view .LVU177
 644 00b8 621E     		subs	r2, r4, #1
 513:Core/Src/ADBMS.cpp ****       /* Copy each ic correspond data + pec value for calculate data pec */
 645              		.loc 1 513 139 view .LVU178
 646 00ba 1344     		add	r3, r3, r2
 513:Core/Src/ADBMS.cpp ****       /* Copy each ic correspond data + pec value for calculate data pec */
 647              		.loc 1 513 159 view .LVU179
 648 00bc FB5C     		ldrb	r3, [r7, r3]	@ zero_extendqisi2
 513:Core/Src/ADBMS.cpp ****       /* Copy each ic correspond data + pec value for calculate data pec */
 649              		.loc 1 513 20 view .LVU180
 650 00be 48EA0308 		orr	r8, r8, r3
 651              	.LVL72:
 515:Core/Src/ADBMS.cpp ****       src_address = ((current_ic+1) * (regData_size));
 652              		.loc 1 515 7 is_stmt 1 view .LVU181
 515:Core/Src/ADBMS.cpp ****       src_address = ((current_ic+1) * (regData_size));
 653              		.loc 1 515 13 is_stmt 0 view .LVU182
 654 00c2 2246     		mov	r2, r4
 655 00c4 07EB0A01 		add	r1, r7, r10
 656 00c8 5846     		mov	r0, fp
 657 00ca FFF7FEFF 		bl	memcpy
 658              	.LVL73:
 516:Core/Src/ADBMS.cpp ****       /* Calculate data pec */
 659              		.loc 1 516 7 is_stmt 1 view .LVU183
 516:Core/Src/ADBMS.cpp ****       /* Calculate data pec */
 660              		.loc 1 516 19 is_stmt 0 view .LVU184
 661 00ce 0136     		adds	r6, r6, #1
 662              	.LVL74:
 516:Core/Src/ADBMS.cpp ****       /* Calculate data pec */
 663              		.loc 1 516 19 view .LVU185
 664 00d0 F6B2     		uxtb	r6, r6
 665 00d2 16FB04FA 		smulbb	r10, r6, r4
 666              	.LVL75:
 516:Core/Src/ADBMS.cpp ****       /* Calculate data pec */
ARM GAS  C:\Users\huawei\AppData\Local\Temp\ccpVCJY0.s 			page 27


 667              		.loc 1 516 19 view .LVU186
 668 00d6 5FFA8AFA 		uxtb	r10, r10
 669              	.LVL76:
 518:Core/Src/ADBMS.cpp ****       /* Match received pec with calculated pec */
 670              		.loc 1 518 7 is_stmt 1 view .LVU187
 518:Core/Src/ADBMS.cpp ****       /* Match received pec with calculated pec */
 671              		.loc 1 518 44 is_stmt 0 view .LVU188
 672 00da 5A46     		mov	r2, fp
 673 00dc 2946     		mov	r1, r5
 674 00de 0120     		movs	r0, #1
 675 00e0 FFF7FEFF 		bl	_Z10pec10_calcbiPh
 676              	.LVL77:
 520:Core/Src/ADBMS.cpp ****       else{ pec_error[current_ic] = 1; }                               /* If error is there value s
 677              		.loc 1 520 7 is_stmt 1 view .LVU189
 678 00e4 8045     		cmp	r8, r0
 679 00e6 08D0     		beq	.L48
 521:Core/Src/ADBMS.cpp ****     }
 680              		.loc 1 521 13 view .LVU190
 521:Core/Src/ADBMS.cpp ****     }
 681              		.loc 1 521 35 is_stmt 0 view .LVU191
 682 00e8 0123     		movs	r3, #1
 683 00ea 039A     		ldr	r2, [sp, #12]
 684 00ec 0199     		ldr	r1, [sp, #4]
 685 00ee 5354     		strb	r3, [r2, r1]
 686              	.LVL78:
 687              	.L41:
 521:Core/Src/ADBMS.cpp ****     }
 688              		.loc 1 521 35 view .LVU192
 689              	.LBE18:
 504:Core/Src/ADBMS.cpp ****     {																																      /* Into the r_comm array as well as check the received d
 690              		.loc 1 504 45 is_stmt 1 discriminator 1 view .LVU193
 691 00f0 029B     		ldr	r3, [sp, #8]
 692 00f2 9E42     		cmp	r6, r3
 693 00f4 06D2     		bcs	.L49
 694              	.LBB21:
 695              	.LBB20:
 506:Core/Src/ADBMS.cpp ****       {
 696              		.loc 1 506 20 is_stmt 0 view .LVU194
 697 00f6 0023     		movs	r3, #0
 698 00f8 CDE7     		b	.L45
 699              	.LVL79:
 700              	.L48:
 506:Core/Src/ADBMS.cpp ****       {
 701              		.loc 1 506 20 view .LVU195
 702              	.LBE20:
 520:Core/Src/ADBMS.cpp ****       else{ pec_error[current_ic] = 1; }                               /* If error is there value s
 703              		.loc 1 520 44 is_stmt 1 discriminator 1 view .LVU196
 520:Core/Src/ADBMS.cpp ****       else{ pec_error[current_ic] = 1; }                               /* If error is there value s
 704              		.loc 1 520 66 is_stmt 0 discriminator 1 view .LVU197
 705 00fa 0023     		movs	r3, #0
 706 00fc 039A     		ldr	r2, [sp, #12]
 707 00fe 0199     		ldr	r1, [sp, #4]
 708 0100 5354     		strb	r3, [r2, r1]
 709 0102 F5E7     		b	.L41
 710              	.LVL80:
 711              	.L49:
 520:Core/Src/ADBMS.cpp ****       else{ pec_error[current_ic] = 1; }                               /* If error is there value s
ARM GAS  C:\Users\huawei\AppData\Local\Temp\ccpVCJY0.s 			page 28


 712              		.loc 1 520 66 discriminator 1 view .LVU198
 713              	.LBE21:
 714              	.LBE22:
 715              	.LBE23:
 716              	.LBE24:
 524:Core/Src/ADBMS.cpp ****   free(copyArray);
 717              		.loc 1 524 3 is_stmt 1 view .LVU199
 524:Core/Src/ADBMS.cpp ****   free(copyArray);
 718              		.loc 1 524 7 is_stmt 0 view .LVU200
 719 0104 3846     		mov	r0, r7
 720 0106 FFF7FEFF 		bl	free
 721              	.LVL81:
 525:Core/Src/ADBMS.cpp **** }
 722              		.loc 1 525 3 is_stmt 1 view .LVU201
 525:Core/Src/ADBMS.cpp **** }
 723              		.loc 1 525 7 is_stmt 0 view .LVU202
 724 010a 5846     		mov	r0, fp
 725 010c FFF7FEFF 		bl	free
 726              	.LVL82:
 526:Core/Src/ADBMS.cpp **** 
 727              		.loc 1 526 1 view .LVU203
 728 0110 07B0     		add	sp, sp, #28
 729              	.LCFI8:
 730              		.cfi_def_cfa_offset 36
 731              		@ sp needed
 732 0112 BDE8F08F 		pop	{r4, r5, r6, r7, r8, r9, r10, fp, pc}
 733              	.LVL83:
 734              	.L51:
 526:Core/Src/ADBMS.cpp **** 
 735              		.loc 1 526 1 view .LVU204
 736 0116 00BF     		.align	2
 737              	.L50:
 738 0118 00000000 		.word	hspi
 739 011c 00000000 		.word	.LC0
 740              		.cfi_endproc
 741              	.LFE250:
 742              		.fnend
 744              		.section	.rodata._Z13adBmsReadDatahP9cell_asicPh4TYPE3GRP.str1.4,"aMS",%progbits,1
 745              		.align	2
 746              	.LC1:
 747 0000 52656164 		.ascii	"Read All cmd wrong type select \000"
 747      20416C6C 
 747      20636D64 
 747      2077726F 
 747      6E672074 
 748              		.align	2
 749              	.LC2:
 750 0020 20466169 		.ascii	" Failed to allocate memory \000"
 750      6C656420 
 750      746F2061 
 750      6C6C6F63 
 750      61746520 
 751              		.section	.text._Z13adBmsReadDatahP9cell_asicPh4TYPE3GRP,"ax",%progbits
 752              		.align	1
 753              		.global	_Z13adBmsReadDatahP9cell_asicPh4TYPE3GRP
 754              		.syntax unified
 755              		.thumb
ARM GAS  C:\Users\huawei\AppData\Local\Temp\ccpVCJY0.s 			page 29


 756              		.thumb_func
 758              	_Z13adBmsReadDatahP9cell_asicPh4TYPE3GRP:
 759              		.fnstart
 760              	.LVL84:
 761              	.LFB248:
  94:Core/Src/ADBMS.cpp ****   uint16_t rBuff_size;
 762              		.loc 1 94 1 is_stmt 1 view -0
 763              		.cfi_startproc
 764              		@ args = 4, pretend = 0, frame = 8
 765              		@ frame_needed = 0, uses_anonymous_args = 0
  94:Core/Src/ADBMS.cpp ****   uint16_t rBuff_size;
 766              		.loc 1 94 1 is_stmt 0 view .LVU206
 767 0000 2DE9F04F 		push	{r4, r5, r6, r7, r8, r9, r10, fp, lr}
 768              		.save {r4, r5, r6, r7, r8, r9, r10, fp, lr}
 769              	.LCFI9:
 770              		.cfi_def_cfa_offset 36
 771              		.cfi_offset 4, -36
 772              		.cfi_offset 5, -32
 773              		.cfi_offset 6, -28
 774              		.cfi_offset 7, -24
 775              		.cfi_offset 8, -20
 776              		.cfi_offset 9, -16
 777              		.cfi_offset 10, -12
 778              		.cfi_offset 11, -8
 779              		.cfi_offset 14, -4
 780              		.pad #20
 781 0004 85B0     		sub	sp, sp, #20
 782              	.LCFI10:
 783              		.cfi_def_cfa_offset 56
 784 0006 0446     		mov	r4, r0
 785 0008 0F46     		mov	r7, r1
 786 000a 0392     		str	r2, [sp, #12]
 787 000c 9846     		mov	r8, r3
 788 000e 9DF838B0 		ldrb	fp, [sp, #56]	@ zero_extendqisi2
  95:Core/Src/ADBMS.cpp ****   uint8_t regData_size;
 789              		.loc 1 95 3 is_stmt 1 view .LVU207
  96:Core/Src/ADBMS.cpp ****   if(group == ALL_GRP)
 790              		.loc 1 96 3 view .LVU208
  97:Core/Src/ADBMS.cpp ****   {
 791              		.loc 1 97 3 view .LVU209
 792 0012 BBF1000F 		cmp	fp, #0
 793 0016 16D1     		bne	.L53
 794 0018 0025     		movs	r5, #0
 795 001a AA46     		mov	r10, r5
  99:Core/Src/ADBMS.cpp ****     else if(type == Rdsall){rBuff_size = RDSALL_SIZE; regData_size = RDSALL_SIZE;}
 796              		.loc 1 99 5 view .LVU210
 797 001c 0C3B     		subs	r3, r3, #12
 798              	.LVL85:
  99:Core/Src/ADBMS.cpp ****     else if(type == Rdsall){rBuff_size = RDSALL_SIZE; regData_size = RDSALL_SIZE;}
 799              		.loc 1 99 5 is_stmt 0 view .LVU211
 800 001e 062B     		cmp	r3, #6
 801 0020 0DD8     		bhi	.L54
 802 0022 DFE803F0 		tbb	[pc, r3]
 803              	.LVL86:
 804              	.L56:
 805 0026 04       		.byte	(.L57-.L56)/2
 806 0027 04       		.byte	(.L57-.L56)/2
ARM GAS  C:\Users\huawei\AppData\Local\Temp\ccpVCJY0.s 			page 30


 807 0028 04       		.byte	(.L57-.L56)/2
 808 0029 48       		.byte	(.L125-.L56)/2
 809 002a 48       		.byte	(.L125-.L56)/2
 810 002b 04       		.byte	(.L57-.L56)/2
 811 002c 08       		.byte	(.L55-.L56)/2
 812 002d 00       		.p2align 1
 813              	.L57:
  97:Core/Src/ADBMS.cpp ****   {
 814              		.loc 1 97 3 view .LVU212
 815 002e 4FF0220A 		mov	r10, #34
 816 0032 5546     		mov	r5, r10
 817 0034 0AE0     		b	.L58
 818              	.L55:
 819 0036 4FF0460A 		mov	r10, #70
 820 003a 5546     		mov	r5, r10
 821 003c 06E0     		b	.L58
 822              	.L54:
 106:Core/Src/ADBMS.cpp ****   }
 823              		.loc 1 106 10 is_stmt 1 view .LVU213
 106:Core/Src/ADBMS.cpp ****   }
 824              		.loc 1 106 16 is_stmt 0 view .LVU214
 825 003e BE48     		ldr	r0, .L128
 826              	.LVL87:
 106:Core/Src/ADBMS.cpp ****   }
 827              		.loc 1 106 16 view .LVU215
 828 0040 FFF7FEFF 		bl	puts
 829              	.LVL88:
 106:Core/Src/ADBMS.cpp ****   }
 830              		.loc 1 106 16 view .LVU216
 831 0044 02E0     		b	.L58
 832              	.LVL89:
 833              	.L53:
 108:Core/Src/ADBMS.cpp ****   uint8_t *read_buffer, *pec_error, *cmd_count;
 834              		.loc 1 108 8 is_stmt 1 view .LVU217
 108:Core/Src/ADBMS.cpp ****   uint8_t *read_buffer, *pec_error, *cmd_count;
 835              		.loc 1 108 19 is_stmt 0 view .LVU218
 836 0046 C500     		lsls	r5, r0, #3
 837              	.LVL90:
 108:Core/Src/ADBMS.cpp ****   uint8_t *read_buffer, *pec_error, *cmd_count;
 838              		.loc 1 108 38 is_stmt 1 view .LVU219
 108:Core/Src/ADBMS.cpp ****   uint8_t *read_buffer, *pec_error, *cmd_count;
 839              		.loc 1 108 51 is_stmt 0 view .LVU220
 840 0048 4FF0080A 		mov	r10, #8
 841              	.LVL91:
 842              	.L58:
 109:Core/Src/ADBMS.cpp ****   read_buffer = (uint8_t *)calloc(rBuff_size, sizeof(uint8_t));
 843              		.loc 1 109 3 is_stmt 1 view .LVU221
 110:Core/Src/ADBMS.cpp ****   pec_error = (uint8_t *)calloc(tIC, sizeof(uint8_t));
 844              		.loc 1 110 3 view .LVU222
 110:Core/Src/ADBMS.cpp ****   pec_error = (uint8_t *)calloc(tIC, sizeof(uint8_t));
 845              		.loc 1 110 34 is_stmt 0 view .LVU223
 846 004c 0121     		movs	r1, #1
 847 004e 2846     		mov	r0, r5
 848 0050 FFF7FEFF 		bl	calloc
 849              	.LVL92:
 850 0054 8146     		mov	r9, r0
 851              	.LVL93:
ARM GAS  C:\Users\huawei\AppData\Local\Temp\ccpVCJY0.s 			page 31


 111:Core/Src/ADBMS.cpp ****   cmd_count = (uint8_t *)calloc(tIC, sizeof(uint8_t));
 852              		.loc 1 111 3 is_stmt 1 view .LVU224
 111:Core/Src/ADBMS.cpp ****   cmd_count = (uint8_t *)calloc(tIC, sizeof(uint8_t));
 853              		.loc 1 111 32 is_stmt 0 view .LVU225
 854 0056 0121     		movs	r1, #1
 855 0058 2046     		mov	r0, r4
 856              	.LVL94:
 111:Core/Src/ADBMS.cpp ****   cmd_count = (uint8_t *)calloc(tIC, sizeof(uint8_t));
 857              		.loc 1 111 32 view .LVU226
 858 005a FFF7FEFF 		bl	calloc
 859              	.LVL95:
 860 005e 0546     		mov	r5, r0
 861              	.LVL96:
 112:Core/Src/ADBMS.cpp ****   if((pec_error == NULL) || (cmd_count == NULL) || (read_buffer == NULL))
 862              		.loc 1 112 3 is_stmt 1 view .LVU227
 112:Core/Src/ADBMS.cpp ****   if((pec_error == NULL) || (cmd_count == NULL) || (read_buffer == NULL))
 863              		.loc 1 112 32 is_stmt 0 view .LVU228
 864 0060 0121     		movs	r1, #1
 865 0062 2046     		mov	r0, r4
 866              	.LVL97:
 112:Core/Src/ADBMS.cpp ****   if((pec_error == NULL) || (cmd_count == NULL) || (read_buffer == NULL))
 867              		.loc 1 112 32 view .LVU229
 868 0064 FFF7FEFF 		bl	calloc
 869              	.LVL98:
 870 0068 0646     		mov	r6, r0
 871              	.LVL99:
 113:Core/Src/ADBMS.cpp ****   {
 872              		.loc 1 113 3 is_stmt 1 view .LVU230
 873              	.LBB25:
 874 006a 45B3     		cbz	r5, .L59
 113:Core/Src/ADBMS.cpp ****   {
 875              		.loc 1 113 26 is_stmt 0 discriminator 1 view .LVU231
 876 006c 38B3     		cbz	r0, .L59
 113:Core/Src/ADBMS.cpp ****   {
 877              		.loc 1 113 49 discriminator 2 view .LVU232
 878 006e B9F1000F 		cmp	r9, #0
 879 0072 24D0     		beq	.L59
 880              	.LBB26:
 121:Core/Src/ADBMS.cpp ****     switch (type)
 881              		.loc 1 121 5 is_stmt 1 view .LVU233
 121:Core/Src/ADBMS.cpp ****     switch (type)
 882              		.loc 1 121 16 is_stmt 0 view .LVU234
 883 0074 CDF804A0 		str	r10, [sp, #4]
 884 0078 0090     		str	r0, [sp]
 885 007a 2B46     		mov	r3, r5
 886 007c 4A46     		mov	r2, r9
 887 007e 0399     		ldr	r1, [sp, #12]
 888 0080 2046     		mov	r0, r4
 889              	.LVL100:
 121:Core/Src/ADBMS.cpp ****     switch (type)
 890              		.loc 1 121 16 view .LVU235
 891 0082 FFF7FEFF 		bl	_Z11spiReadDatahPhS_S_S_h
 892              	.LVL101:
 122:Core/Src/ADBMS.cpp ****     {
 893              		.loc 1 122 5 is_stmt 1 view .LVU236
 894              	.LBB27:
 895 0086 B8F1120F 		cmp	r8, #18
ARM GAS  C:\Users\huawei\AppData\Local\Temp\ccpVCJY0.s 			page 32


 896 008a 34D8     		bhi	.L61
 897 008c DFE818F0 		tbh	[pc, r8, lsl #1]
 898              	.L63:
 899 0090 3F00     		.2byte	(.L80-.L63)/2
 900 0092 9E00     		.2byte	(.L79-.L63)/2
 901 0094 B500     		.2byte	(.L78-.L63)/2
 902 0096 CC00     		.2byte	(.L77-.L63)/2
 903 0098 F900     		.2byte	(.L76-.L63)/2
 904 009a 5900     		.2byte	(.L75-.L63)/2
 905 009c 7000     		.2byte	(.L74-.L63)/2
 906 009e 8700     		.2byte	(.L73-.L63)/2
 907 00a0 1D00     		.2byte	(.L72-.L63)/2
 908 00a2 E300     		.2byte	(.L71-.L63)/2
 909 00a4 1001     		.2byte	(.L70-.L63)/2
 910 00a6 3300     		.2byte	(.L61-.L63)/2
 911 00a8 2601     		.2byte	(.L69-.L63)/2
 912 00aa 3D01     		.2byte	(.L68-.L63)/2
 913 00ac 5801     		.2byte	(.L67-.L63)/2
 914 00ae 8601     		.2byte	(.L66-.L63)/2
 915 00b0 B401     		.2byte	(.L65-.L63)/2
 916 00b2 6F01     		.2byte	(.L64-.L63)/2
 917 00b4 E201     		.2byte	(.L62-.L63)/2
 918              	.LVL102:
 919              		.p2align 1
 920              	.L125:
 122:Core/Src/ADBMS.cpp ****     {
 921              		.loc 1 122 5 is_stmt 0 view .LVU237
 922              	.LBE27:
 923              	.LBE26:
 924              	.LBE25:
  97:Core/Src/ADBMS.cpp ****   {
 925              		.loc 1 97 3 view .LVU238
 926 00b6 4FF0420A 		mov	r10, #66
 927 00ba 5546     		mov	r5, r10
 928 00bc C6E7     		b	.L58
 929              	.LVL103:
 930              	.L59:
 931              	.LBB56:
 115:Core/Src/ADBMS.cpp **** 
 932              		.loc 1 115 5 is_stmt 1 view .LVU239
 115:Core/Src/ADBMS.cpp **** 
 933              		.loc 1 115 11 is_stmt 0 view .LVU240
 934 00be 9F48     		ldr	r0, .L128+4
 935              	.LVL104:
 115:Core/Src/ADBMS.cpp **** 
 936              		.loc 1 115 11 view .LVU241
 937 00c0 FFF7FEFF 		bl	puts
 938              	.LVL105:
 117:Core/Src/ADBMS.cpp ****   }
 939              		.loc 1 117 5 is_stmt 1 view .LVU242
 117:Core/Src/ADBMS.cpp ****   }
 940              		.loc 1 117 9 is_stmt 0 view .LVU243
 941 00c4 0020     		movs	r0, #0
 942 00c6 FFF7FEFF 		bl	exit
 943              	.LVL106:
 944              	.L72:
 945              	.LBB54:
ARM GAS  C:\Users\huawei\AppData\Local\Temp\ccpVCJY0.s 			page 33


 946              	.LBB52:
 947              	.LBB28:
 124:Core/Src/ADBMS.cpp ****       adBms6830ParseConfig(tIC, ic, group, &read_buffer[0]);
 948              		.loc 1 124 5 is_stmt 1 view .LVU244
 125:Core/Src/ADBMS.cpp ****       for (uint8_t cic = 0; cic < tIC; cic++)
 949              		.loc 1 125 7 view .LVU245
 125:Core/Src/ADBMS.cpp ****       for (uint8_t cic = 0; cic < tIC; cic++)
 950              		.loc 1 125 27 is_stmt 0 view .LVU246
 951 00ca 4B46     		mov	r3, r9
 952 00cc 5A46     		mov	r2, fp
 953 00ce 3946     		mov	r1, r7
 954 00d0 2046     		mov	r0, r4
 955 00d2 FFF7FEFF 		bl	_Z20adBms6830ParseConfighP9cell_asic3GRPPh
 956              	.LVL107:
 126:Core/Src/ADBMS.cpp ****       {
 957              		.loc 1 126 7 is_stmt 1 view .LVU247
 958              	.LBB29:
 126:Core/Src/ADBMS.cpp ****       {
 959              		.loc 1 126 20 is_stmt 0 view .LVU248
 960 00d6 0023     		movs	r3, #0
 126:Core/Src/ADBMS.cpp ****       {
 961              		.loc 1 126 7 view .LVU249
 962 00d8 0BE0     		b	.L81
 963              	.LVL108:
 964              	.L82:
 128:Core/Src/ADBMS.cpp ****         ic[cic].cccrc.cmd_cntr = cmd_count[cic];
 965              		.loc 1 128 9 is_stmt 1 discriminator 3 view .LVU250
 128:Core/Src/ADBMS.cpp ****         ic[cic].cccrc.cmd_cntr = cmd_count[cic];
 966              		.loc 1 128 15 is_stmt 0 discriminator 3 view .LVU251
 967 00da 4FF42872 		mov	r2, #672
 968 00de 02FB0372 		mla	r2, r2, r3, r7
 128:Core/Src/ADBMS.cpp ****         ic[cic].cccrc.cmd_cntr = cmd_count[cic];
 969              		.loc 1 128 47 discriminator 3 view .LVU252
 970 00e2 E95C     		ldrb	r1, [r5, r3]	@ zero_extendqisi2
 128:Core/Src/ADBMS.cpp ****         ic[cic].cccrc.cmd_cntr = cmd_count[cic];
 971              		.loc 1 128 32 discriminator 3 view .LVU253
 972 00e4 82F89011 		strb	r1, [r2, #400]
 129:Core/Src/ADBMS.cpp ****       }
 973              		.loc 1 129 9 is_stmt 1 discriminator 3 view .LVU254
 129:Core/Src/ADBMS.cpp ****       }
 974              		.loc 1 129 47 is_stmt 0 discriminator 3 view .LVU255
 975 00e8 F15C     		ldrb	r1, [r6, r3]	@ zero_extendqisi2
 129:Core/Src/ADBMS.cpp ****       }
 976              		.loc 1 129 32 discriminator 3 view .LVU256
 977 00ea 82F88F11 		strb	r1, [r2, #399]
 126:Core/Src/ADBMS.cpp ****       {
 978              		.loc 1 126 7 is_stmt 1 discriminator 3 view .LVU257
 979 00ee 0133     		adds	r3, r3, #1
 980              	.LVL109:
 126:Core/Src/ADBMS.cpp ****       {
 981              		.loc 1 126 7 is_stmt 0 discriminator 3 view .LVU258
 982 00f0 DBB2     		uxtb	r3, r3
 983              	.LVL110:
 984              	.L81:
 126:Core/Src/ADBMS.cpp ****       {
 985              		.loc 1 126 33 is_stmt 1 discriminator 1 view .LVU259
 986 00f2 A342     		cmp	r3, r4
ARM GAS  C:\Users\huawei\AppData\Local\Temp\ccpVCJY0.s 			page 34


 987 00f4 F1D3     		bcc	.L82
 988              	.LVL111:
 989              	.L61:
 126:Core/Src/ADBMS.cpp ****       {
 990              		.loc 1 126 33 is_stmt 0 discriminator 1 view .LVU260
 991              	.LBE29:
 992              	.LBE28:
 993              	.LBE52:
 994              	.LBE54:
 995              	.LBE56:
 324:Core/Src/ADBMS.cpp ****   free(pec_error);
 996              		.loc 1 324 3 is_stmt 1 view .LVU261
 324:Core/Src/ADBMS.cpp ****   free(pec_error);
 997              		.loc 1 324 7 is_stmt 0 view .LVU262
 998 00f6 4846     		mov	r0, r9
 999 00f8 FFF7FEFF 		bl	free
 1000              	.LVL112:
 325:Core/Src/ADBMS.cpp ****   free(cmd_count);
 1001              		.loc 1 325 3 is_stmt 1 view .LVU263
 325:Core/Src/ADBMS.cpp ****   free(cmd_count);
 1002              		.loc 1 325 7 is_stmt 0 view .LVU264
 1003 00fc 2846     		mov	r0, r5
 1004 00fe FFF7FEFF 		bl	free
 1005              	.LVL113:
 326:Core/Src/ADBMS.cpp **** }
 1006              		.loc 1 326 3 is_stmt 1 view .LVU265
 326:Core/Src/ADBMS.cpp **** }
 1007              		.loc 1 326 7 is_stmt 0 view .LVU266
 1008 0102 3046     		mov	r0, r6
 1009 0104 FFF7FEFF 		bl	free
 1010              	.LVL114:
 327:Core/Src/ADBMS.cpp **** 
 1011              		.loc 1 327 1 view .LVU267
 1012 0108 05B0     		add	sp, sp, #20
 1013              	.LCFI11:
 1014              		.cfi_remember_state
 1015              		.cfi_def_cfa_offset 36
 1016              		@ sp needed
 1017 010a BDE8F08F 		pop	{r4, r5, r6, r7, r8, r9, r10, fp, pc}
 1018              	.LVL115:
 1019              	.L80:
 1020              	.LCFI12:
 1021              		.cfi_restore_state
 1022              	.LBB57:
 1023              	.LBB55:
 1024              	.LBB53:
 1025              	.LBB51:
 133:Core/Src/ADBMS.cpp ****       adBms6830ParseCell(tIC, ic, group, &read_buffer[0]);
 1026              		.loc 1 133 5 is_stmt 1 view .LVU268
 134:Core/Src/ADBMS.cpp ****       for (uint8_t cic = 0; cic < tIC; cic++)
 1027              		.loc 1 134 7 view .LVU269
 134:Core/Src/ADBMS.cpp ****       for (uint8_t cic = 0; cic < tIC; cic++)
 1028              		.loc 1 134 25 is_stmt 0 view .LVU270
 1029 010e 4B46     		mov	r3, r9
 1030 0110 5A46     		mov	r2, fp
 1031 0112 3946     		mov	r1, r7
 1032 0114 2046     		mov	r0, r4
ARM GAS  C:\Users\huawei\AppData\Local\Temp\ccpVCJY0.s 			page 35


 1033 0116 FFF7FEFF 		bl	_Z18adBms6830ParseCellhP9cell_asic3GRPPh
 1034              	.LVL116:
 135:Core/Src/ADBMS.cpp ****       {
 1035              		.loc 1 135 7 is_stmt 1 view .LVU271
 1036              	.LBB30:
 135:Core/Src/ADBMS.cpp ****       {
 1037              		.loc 1 135 7 is_stmt 0 view .LVU272
 1038 011a 0FE0     		b	.L83
 1039              	.LVL117:
 1040              	.L84:
 137:Core/Src/ADBMS.cpp ****         ic[cic].cccrc.cmd_cntr = cmd_count[cic];
 1041              		.loc 1 137 9 is_stmt 1 discriminator 3 view .LVU273
 137:Core/Src/ADBMS.cpp ****         ic[cic].cccrc.cmd_cntr = cmd_count[cic];
 1042              		.loc 1 137 15 is_stmt 0 discriminator 3 view .LVU274
 1043 011c 4FF42873 		mov	r3, #672
 1044 0120 03FB0873 		mla	r3, r3, r8, r7
 137:Core/Src/ADBMS.cpp ****         ic[cic].cccrc.cmd_cntr = cmd_count[cic];
 1045              		.loc 1 137 47 discriminator 3 view .LVU275
 1046 0124 15F80820 		ldrb	r2, [r5, r8]	@ zero_extendqisi2
 137:Core/Src/ADBMS.cpp ****         ic[cic].cccrc.cmd_cntr = cmd_count[cic];
 1047              		.loc 1 137 32 discriminator 3 view .LVU276
 1048 0128 83F89121 		strb	r2, [r3, #401]
 138:Core/Src/ADBMS.cpp ****       }
 1049              		.loc 1 138 9 is_stmt 1 discriminator 3 view .LVU277
 138:Core/Src/ADBMS.cpp ****       }
 1050              		.loc 1 138 47 is_stmt 0 discriminator 3 view .LVU278
 1051 012c 16F80820 		ldrb	r2, [r6, r8]	@ zero_extendqisi2
 138:Core/Src/ADBMS.cpp ****       }
 1052              		.loc 1 138 32 discriminator 3 view .LVU279
 1053 0130 83F88F21 		strb	r2, [r3, #399]
 135:Core/Src/ADBMS.cpp ****       {
 1054              		.loc 1 135 7 is_stmt 1 discriminator 3 view .LVU280
 1055 0134 08F10108 		add	r8, r8, #1
 1056              	.LVL118:
 135:Core/Src/ADBMS.cpp ****       {
 1057              		.loc 1 135 7 is_stmt 0 discriminator 3 view .LVU281
 1058 0138 5FFA88F8 		uxtb	r8, r8
 1059              	.LVL119:
 1060              	.L83:
 135:Core/Src/ADBMS.cpp ****       {
 1061              		.loc 1 135 33 is_stmt 1 discriminator 1 view .LVU282
 1062 013c A045     		cmp	r8, r4
 1063 013e EDD3     		bcc	.L84
 1064 0140 D9E7     		b	.L61
 1065              	.LVL120:
 1066              	.L75:
 135:Core/Src/ADBMS.cpp ****       {
 1067              		.loc 1 135 33 is_stmt 0 discriminator 1 view .LVU283
 1068              	.LBE30:
 142:Core/Src/ADBMS.cpp ****       adBms6830ParseAverageCell(tIC, ic, group, &read_buffer[0]);
 1069              		.loc 1 142 5 is_stmt 1 view .LVU284
 143:Core/Src/ADBMS.cpp ****       for (uint8_t cic = 0; cic < tIC; cic++)
 1070              		.loc 1 143 7 view .LVU285
 143:Core/Src/ADBMS.cpp ****       for (uint8_t cic = 0; cic < tIC; cic++)
 1071              		.loc 1 143 32 is_stmt 0 view .LVU286
 1072 0142 4B46     		mov	r3, r9
 1073 0144 5A46     		mov	r2, fp
ARM GAS  C:\Users\huawei\AppData\Local\Temp\ccpVCJY0.s 			page 36


 1074 0146 3946     		mov	r1, r7
 1075 0148 2046     		mov	r0, r4
 1076 014a FFF7FEFF 		bl	_Z25adBms6830ParseAverageCellhP9cell_asic3GRPPh
 1077              	.LVL121:
 144:Core/Src/ADBMS.cpp ****       {
 1078              		.loc 1 144 7 is_stmt 1 view .LVU287
 1079              	.LBB31:
 144:Core/Src/ADBMS.cpp ****       {
 1080              		.loc 1 144 20 is_stmt 0 view .LVU288
 1081 014e 0023     		movs	r3, #0
 144:Core/Src/ADBMS.cpp ****       {
 1082              		.loc 1 144 7 view .LVU289
 1083 0150 0BE0     		b	.L85
 1084              	.LVL122:
 1085              	.L86:
 146:Core/Src/ADBMS.cpp ****         ic[cic].cccrc.cmd_cntr = cmd_count[cic];
 1086              		.loc 1 146 9 is_stmt 1 discriminator 3 view .LVU290
 146:Core/Src/ADBMS.cpp ****         ic[cic].cccrc.cmd_cntr = cmd_count[cic];
 1087              		.loc 1 146 15 is_stmt 0 discriminator 3 view .LVU291
 1088 0152 4FF42872 		mov	r2, #672
 1089 0156 02FB0372 		mla	r2, r2, r3, r7
 146:Core/Src/ADBMS.cpp ****         ic[cic].cccrc.cmd_cntr = cmd_count[cic];
 1090              		.loc 1 146 48 discriminator 3 view .LVU292
 1091 015a E95C     		ldrb	r1, [r5, r3]	@ zero_extendqisi2
 146:Core/Src/ADBMS.cpp ****         ic[cic].cccrc.cmd_cntr = cmd_count[cic];
 1092              		.loc 1 146 33 discriminator 3 view .LVU293
 1093 015c 82F89211 		strb	r1, [r2, #402]
 147:Core/Src/ADBMS.cpp ****       }
 1094              		.loc 1 147 9 is_stmt 1 discriminator 3 view .LVU294
 147:Core/Src/ADBMS.cpp ****       }
 1095              		.loc 1 147 47 is_stmt 0 discriminator 3 view .LVU295
 1096 0160 F15C     		ldrb	r1, [r6, r3]	@ zero_extendqisi2
 147:Core/Src/ADBMS.cpp ****       }
 1097              		.loc 1 147 32 discriminator 3 view .LVU296
 1098 0162 82F88F11 		strb	r1, [r2, #399]
 144:Core/Src/ADBMS.cpp ****       {
 1099              		.loc 1 144 7 is_stmt 1 discriminator 3 view .LVU297
 1100 0166 0133     		adds	r3, r3, #1
 1101              	.LVL123:
 144:Core/Src/ADBMS.cpp ****       {
 1102              		.loc 1 144 7 is_stmt 0 discriminator 3 view .LVU298
 1103 0168 DBB2     		uxtb	r3, r3
 1104              	.LVL124:
 1105              	.L85:
 144:Core/Src/ADBMS.cpp ****       {
 1106              		.loc 1 144 33 is_stmt 1 discriminator 1 view .LVU299
 1107 016a A342     		cmp	r3, r4
 1108 016c F1D3     		bcc	.L86
 1109 016e C2E7     		b	.L61
 1110              	.LVL125:
 1111              	.L74:
 144:Core/Src/ADBMS.cpp ****       {
 1112              		.loc 1 144 33 is_stmt 0 discriminator 1 view .LVU300
 1113              	.LBE31:
 151:Core/Src/ADBMS.cpp ****       adBms6830ParseSCell(tIC, ic, group, &read_buffer[0]);
 1114              		.loc 1 151 5 is_stmt 1 view .LVU301
 152:Core/Src/ADBMS.cpp ****       for (uint8_t cic = 0; cic < tIC; cic++)
ARM GAS  C:\Users\huawei\AppData\Local\Temp\ccpVCJY0.s 			page 37


 1115              		.loc 1 152 7 view .LVU302
 152:Core/Src/ADBMS.cpp ****       for (uint8_t cic = 0; cic < tIC; cic++)
 1116              		.loc 1 152 26 is_stmt 0 view .LVU303
 1117 0170 4B46     		mov	r3, r9
 1118 0172 5A46     		mov	r2, fp
 1119 0174 3946     		mov	r1, r7
 1120 0176 2046     		mov	r0, r4
 1121 0178 FFF7FEFF 		bl	_Z19adBms6830ParseSCellhP9cell_asic3GRPPh
 1122              	.LVL126:
 153:Core/Src/ADBMS.cpp ****       {
 1123              		.loc 1 153 7 is_stmt 1 view .LVU304
 1124              	.LBB32:
 153:Core/Src/ADBMS.cpp ****       {
 1125              		.loc 1 153 20 is_stmt 0 view .LVU305
 1126 017c 0023     		movs	r3, #0
 153:Core/Src/ADBMS.cpp ****       {
 1127              		.loc 1 153 7 view .LVU306
 1128 017e 0BE0     		b	.L87
 1129              	.LVL127:
 1130              	.L88:
 155:Core/Src/ADBMS.cpp ****         ic[cic].cccrc.cmd_cntr = cmd_count[cic];
 1131              		.loc 1 155 9 is_stmt 1 discriminator 3 view .LVU307
 155:Core/Src/ADBMS.cpp ****         ic[cic].cccrc.cmd_cntr = cmd_count[cic];
 1132              		.loc 1 155 15 is_stmt 0 discriminator 3 view .LVU308
 1133 0180 4FF42872 		mov	r2, #672
 1134 0184 02FB0372 		mla	r2, r2, r3, r7
 155:Core/Src/ADBMS.cpp ****         ic[cic].cccrc.cmd_cntr = cmd_count[cic];
 1135              		.loc 1 155 48 discriminator 3 view .LVU309
 1136 0188 E95C     		ldrb	r1, [r5, r3]	@ zero_extendqisi2
 155:Core/Src/ADBMS.cpp ****         ic[cic].cccrc.cmd_cntr = cmd_count[cic];
 1137              		.loc 1 155 33 discriminator 3 view .LVU310
 1138 018a 82F89311 		strb	r1, [r2, #403]
 156:Core/Src/ADBMS.cpp ****       }
 1139              		.loc 1 156 9 is_stmt 1 discriminator 3 view .LVU311
 156:Core/Src/ADBMS.cpp ****       }
 1140              		.loc 1 156 47 is_stmt 0 discriminator 3 view .LVU312
 1141 018e F15C     		ldrb	r1, [r6, r3]	@ zero_extendqisi2
 156:Core/Src/ADBMS.cpp ****       }
 1142              		.loc 1 156 32 discriminator 3 view .LVU313
 1143 0190 82F88F11 		strb	r1, [r2, #399]
 153:Core/Src/ADBMS.cpp ****       {
 1144              		.loc 1 153 7 is_stmt 1 discriminator 3 view .LVU314
 1145 0194 0133     		adds	r3, r3, #1
 1146              	.LVL128:
 153:Core/Src/ADBMS.cpp ****       {
 1147              		.loc 1 153 7 is_stmt 0 discriminator 3 view .LVU315
 1148 0196 DBB2     		uxtb	r3, r3
 1149              	.LVL129:
 1150              	.L87:
 153:Core/Src/ADBMS.cpp ****       {
 1151              		.loc 1 153 33 is_stmt 1 discriminator 1 view .LVU316
 1152 0198 A342     		cmp	r3, r4
 1153 019a F1D3     		bcc	.L88
 1154 019c ABE7     		b	.L61
 1155              	.LVL130:
 1156              	.L73:
 153:Core/Src/ADBMS.cpp ****       {
ARM GAS  C:\Users\huawei\AppData\Local\Temp\ccpVCJY0.s 			page 38


 1157              		.loc 1 153 33 is_stmt 0 discriminator 1 view .LVU317
 1158              	.LBE32:
 160:Core/Src/ADBMS.cpp ****       adBms6830ParseFCell(tIC, ic, group, &read_buffer[0]);
 1159              		.loc 1 160 5 is_stmt 1 view .LVU318
 161:Core/Src/ADBMS.cpp ****       for (uint8_t cic = 0; cic < tIC; cic++)
 1160              		.loc 1 161 7 view .LVU319
 161:Core/Src/ADBMS.cpp ****       for (uint8_t cic = 0; cic < tIC; cic++)
 1161              		.loc 1 161 26 is_stmt 0 view .LVU320
 1162 019e 4B46     		mov	r3, r9
 1163 01a0 5A46     		mov	r2, fp
 1164 01a2 3946     		mov	r1, r7
 1165 01a4 2046     		mov	r0, r4
 1166 01a6 FFF7FEFF 		bl	_Z19adBms6830ParseFCellhP9cell_asic3GRPPh
 1167              	.LVL131:
 162:Core/Src/ADBMS.cpp ****       {
 1168              		.loc 1 162 7 is_stmt 1 view .LVU321
 1169              	.LBB33:
 162:Core/Src/ADBMS.cpp ****       {
 1170              		.loc 1 162 20 is_stmt 0 view .LVU322
 1171 01aa 0023     		movs	r3, #0
 162:Core/Src/ADBMS.cpp ****       {
 1172              		.loc 1 162 7 view .LVU323
 1173 01ac 0BE0     		b	.L89
 1174              	.LVL132:
 1175              	.L90:
 164:Core/Src/ADBMS.cpp ****         ic[cic].cccrc.cmd_cntr = cmd_count[cic];
 1176              		.loc 1 164 9 is_stmt 1 discriminator 3 view .LVU324
 164:Core/Src/ADBMS.cpp ****         ic[cic].cccrc.cmd_cntr = cmd_count[cic];
 1177              		.loc 1 164 15 is_stmt 0 discriminator 3 view .LVU325
 1178 01ae 4FF42872 		mov	r2, #672
 1179 01b2 02FB0372 		mla	r2, r2, r3, r7
 164:Core/Src/ADBMS.cpp ****         ic[cic].cccrc.cmd_cntr = cmd_count[cic];
 1180              		.loc 1 164 48 discriminator 3 view .LVU326
 1181 01b6 E95C     		ldrb	r1, [r5, r3]	@ zero_extendqisi2
 164:Core/Src/ADBMS.cpp ****         ic[cic].cccrc.cmd_cntr = cmd_count[cic];
 1182              		.loc 1 164 33 discriminator 3 view .LVU327
 1183 01b8 82F89411 		strb	r1, [r2, #404]
 165:Core/Src/ADBMS.cpp ****       }
 1184              		.loc 1 165 9 is_stmt 1 discriminator 3 view .LVU328
 165:Core/Src/ADBMS.cpp ****       }
 1185              		.loc 1 165 47 is_stmt 0 discriminator 3 view .LVU329
 1186 01bc F15C     		ldrb	r1, [r6, r3]	@ zero_extendqisi2
 165:Core/Src/ADBMS.cpp ****       }
 1187              		.loc 1 165 32 discriminator 3 view .LVU330
 1188 01be 82F88F11 		strb	r1, [r2, #399]
 162:Core/Src/ADBMS.cpp ****       {
 1189              		.loc 1 162 7 is_stmt 1 discriminator 3 view .LVU331
 1190 01c2 0133     		adds	r3, r3, #1
 1191              	.LVL133:
 162:Core/Src/ADBMS.cpp ****       {
 1192              		.loc 1 162 7 is_stmt 0 discriminator 3 view .LVU332
 1193 01c4 DBB2     		uxtb	r3, r3
 1194              	.LVL134:
 1195              	.L89:
 162:Core/Src/ADBMS.cpp ****       {
 1196              		.loc 1 162 33 is_stmt 1 discriminator 1 view .LVU333
 1197 01c6 A342     		cmp	r3, r4
ARM GAS  C:\Users\huawei\AppData\Local\Temp\ccpVCJY0.s 			page 39


 1198 01c8 F1D3     		bcc	.L90
 1199 01ca 94E7     		b	.L61
 1200              	.LVL135:
 1201              	.L79:
 162:Core/Src/ADBMS.cpp ****       {
 1202              		.loc 1 162 33 is_stmt 0 discriminator 1 view .LVU334
 1203              	.LBE33:
 169:Core/Src/ADBMS.cpp ****       adBms6830ParseAux(tIC, ic, group, &read_buffer[0]);
 1204              		.loc 1 169 5 is_stmt 1 view .LVU335
 170:Core/Src/ADBMS.cpp ****       for (uint8_t cic = 0; cic < tIC; cic++)
 1205              		.loc 1 170 7 view .LVU336
 170:Core/Src/ADBMS.cpp ****       for (uint8_t cic = 0; cic < tIC; cic++)
 1206              		.loc 1 170 24 is_stmt 0 view .LVU337
 1207 01cc 4B46     		mov	r3, r9
 1208 01ce 5A46     		mov	r2, fp
 1209 01d0 3946     		mov	r1, r7
 1210 01d2 2046     		mov	r0, r4
 1211 01d4 FFF7FEFF 		bl	_Z17adBms6830ParseAuxhP9cell_asic3GRPPh
 1212              	.LVL136:
 171:Core/Src/ADBMS.cpp ****       {
 1213              		.loc 1 171 7 is_stmt 1 view .LVU338
 1214              	.LBB34:
 171:Core/Src/ADBMS.cpp ****       {
 1215              		.loc 1 171 20 is_stmt 0 view .LVU339
 1216 01d8 0023     		movs	r3, #0
 171:Core/Src/ADBMS.cpp ****       {
 1217              		.loc 1 171 7 view .LVU340
 1218 01da 0BE0     		b	.L91
 1219              	.LVL137:
 1220              	.L92:
 173:Core/Src/ADBMS.cpp ****         ic[cic].cccrc.cmd_cntr = cmd_count[cic];
 1221              		.loc 1 173 9 is_stmt 1 discriminator 3 view .LVU341
 173:Core/Src/ADBMS.cpp ****         ic[cic].cccrc.cmd_cntr = cmd_count[cic];
 1222              		.loc 1 173 15 is_stmt 0 discriminator 3 view .LVU342
 1223 01dc 4FF42872 		mov	r2, #672
 1224 01e0 02FB0372 		mla	r2, r2, r3, r7
 173:Core/Src/ADBMS.cpp ****         ic[cic].cccrc.cmd_cntr = cmd_count[cic];
 1225              		.loc 1 173 46 discriminator 3 view .LVU343
 1226 01e4 E95C     		ldrb	r1, [r5, r3]	@ zero_extendqisi2
 173:Core/Src/ADBMS.cpp ****         ic[cic].cccrc.cmd_cntr = cmd_count[cic];
 1227              		.loc 1 173 31 discriminator 3 view .LVU344
 1228 01e6 82F89511 		strb	r1, [r2, #405]
 174:Core/Src/ADBMS.cpp ****       }
 1229              		.loc 1 174 9 is_stmt 1 discriminator 3 view .LVU345
 174:Core/Src/ADBMS.cpp ****       }
 1230              		.loc 1 174 47 is_stmt 0 discriminator 3 view .LVU346
 1231 01ea F15C     		ldrb	r1, [r6, r3]	@ zero_extendqisi2
 174:Core/Src/ADBMS.cpp ****       }
 1232              		.loc 1 174 32 discriminator 3 view .LVU347
 1233 01ec 82F88F11 		strb	r1, [r2, #399]
 171:Core/Src/ADBMS.cpp ****       {
 1234              		.loc 1 171 7 is_stmt 1 discriminator 3 view .LVU348
 1235 01f0 0133     		adds	r3, r3, #1
 1236              	.LVL138:
 171:Core/Src/ADBMS.cpp ****       {
 1237              		.loc 1 171 7 is_stmt 0 discriminator 3 view .LVU349
 1238 01f2 DBB2     		uxtb	r3, r3
ARM GAS  C:\Users\huawei\AppData\Local\Temp\ccpVCJY0.s 			page 40


 1239              	.LVL139:
 1240              	.L91:
 171:Core/Src/ADBMS.cpp ****       {
 1241              		.loc 1 171 33 is_stmt 1 discriminator 1 view .LVU350
 1242 01f4 A342     		cmp	r3, r4
 1243 01f6 F1D3     		bcc	.L92
 1244 01f8 7DE7     		b	.L61
 1245              	.LVL140:
 1246              	.L78:
 171:Core/Src/ADBMS.cpp ****       {
 1247              		.loc 1 171 33 is_stmt 0 discriminator 1 view .LVU351
 1248              	.LBE34:
 178:Core/Src/ADBMS.cpp ****       adBms6830ParseRAux(tIC, ic, group, &read_buffer[0]);
 1249              		.loc 1 178 5 is_stmt 1 view .LVU352
 179:Core/Src/ADBMS.cpp ****       for (uint8_t cic = 0; cic < tIC; cic++)
 1250              		.loc 1 179 7 view .LVU353
 179:Core/Src/ADBMS.cpp ****       for (uint8_t cic = 0; cic < tIC; cic++)
 1251              		.loc 1 179 25 is_stmt 0 view .LVU354
 1252 01fa 4B46     		mov	r3, r9
 1253 01fc 5A46     		mov	r2, fp
 1254 01fe 3946     		mov	r1, r7
 1255 0200 2046     		mov	r0, r4
 1256 0202 FFF7FEFF 		bl	_Z18adBms6830ParseRAuxhP9cell_asic3GRPPh
 1257              	.LVL141:
 180:Core/Src/ADBMS.cpp ****       {
 1258              		.loc 1 180 7 is_stmt 1 view .LVU355
 1259              	.LBB35:
 180:Core/Src/ADBMS.cpp ****       {
 1260              		.loc 1 180 20 is_stmt 0 view .LVU356
 1261 0206 0023     		movs	r3, #0
 180:Core/Src/ADBMS.cpp ****       {
 1262              		.loc 1 180 7 view .LVU357
 1263 0208 0BE0     		b	.L93
 1264              	.LVL142:
 1265              	.L94:
 182:Core/Src/ADBMS.cpp ****         ic[cic].cccrc.cmd_cntr = cmd_count[cic];
 1266              		.loc 1 182 9 is_stmt 1 discriminator 3 view .LVU358
 182:Core/Src/ADBMS.cpp ****         ic[cic].cccrc.cmd_cntr = cmd_count[cic];
 1267              		.loc 1 182 15 is_stmt 0 discriminator 3 view .LVU359
 1268 020a 4FF42872 		mov	r2, #672
 1269 020e 02FB0372 		mla	r2, r2, r3, r7
 182:Core/Src/ADBMS.cpp ****         ic[cic].cccrc.cmd_cntr = cmd_count[cic];
 1270              		.loc 1 182 47 discriminator 3 view .LVU360
 1271 0212 E95C     		ldrb	r1, [r5, r3]	@ zero_extendqisi2
 182:Core/Src/ADBMS.cpp ****         ic[cic].cccrc.cmd_cntr = cmd_count[cic];
 1272              		.loc 1 182 32 discriminator 3 view .LVU361
 1273 0214 82F89611 		strb	r1, [r2, #406]
 183:Core/Src/ADBMS.cpp ****       }
 1274              		.loc 1 183 9 is_stmt 1 discriminator 3 view .LVU362
 183:Core/Src/ADBMS.cpp ****       }
 1275              		.loc 1 183 47 is_stmt 0 discriminator 3 view .LVU363
 1276 0218 F15C     		ldrb	r1, [r6, r3]	@ zero_extendqisi2
 183:Core/Src/ADBMS.cpp ****       }
 1277              		.loc 1 183 32 discriminator 3 view .LVU364
 1278 021a 82F88F11 		strb	r1, [r2, #399]
 180:Core/Src/ADBMS.cpp ****       {
 1279              		.loc 1 180 7 is_stmt 1 discriminator 3 view .LVU365
ARM GAS  C:\Users\huawei\AppData\Local\Temp\ccpVCJY0.s 			page 41


 1280 021e 0133     		adds	r3, r3, #1
 1281              	.LVL143:
 180:Core/Src/ADBMS.cpp ****       {
 1282              		.loc 1 180 7 is_stmt 0 discriminator 3 view .LVU366
 1283 0220 DBB2     		uxtb	r3, r3
 1284              	.LVL144:
 1285              	.L93:
 180:Core/Src/ADBMS.cpp ****       {
 1286              		.loc 1 180 33 is_stmt 1 discriminator 1 view .LVU367
 1287 0222 A342     		cmp	r3, r4
 1288 0224 F1D3     		bcc	.L94
 1289 0226 66E7     		b	.L61
 1290              	.LVL145:
 1291              	.L77:
 180:Core/Src/ADBMS.cpp ****       {
 1292              		.loc 1 180 33 is_stmt 0 discriminator 1 view .LVU368
 1293              	.LBE35:
 187:Core/Src/ADBMS.cpp ****       adBms6830ParseStatus(tIC, ic, group, &read_buffer[0]);
 1294              		.loc 1 187 5 is_stmt 1 view .LVU369
 188:Core/Src/ADBMS.cpp ****       for (uint8_t cic = 0; cic < tIC; cic++)
 1295              		.loc 1 188 7 view .LVU370
 188:Core/Src/ADBMS.cpp ****       for (uint8_t cic = 0; cic < tIC; cic++)
 1296              		.loc 1 188 27 is_stmt 0 view .LVU371
 1297 0228 4B46     		mov	r3, r9
 1298 022a 5A46     		mov	r2, fp
 1299 022c 3946     		mov	r1, r7
 1300 022e 2046     		mov	r0, r4
 1301 0230 FFF7FEFF 		bl	_Z20adBms6830ParseStatushP9cell_asic3GRPPh
 1302              	.LVL146:
 189:Core/Src/ADBMS.cpp ****       {
 1303              		.loc 1 189 7 is_stmt 1 view .LVU372
 1304              	.LBB36:
 189:Core/Src/ADBMS.cpp ****       {
 1305              		.loc 1 189 20 is_stmt 0 view .LVU373
 1306 0234 0023     		movs	r3, #0
 189:Core/Src/ADBMS.cpp ****       {
 1307              		.loc 1 189 7 view .LVU374
 1308 0236 0BE0     		b	.L95
 1309              	.LVL147:
 1310              	.L96:
 191:Core/Src/ADBMS.cpp ****         ic[cic].cccrc.cmd_cntr = cmd_count[cic];
 1311              		.loc 1 191 9 is_stmt 1 discriminator 3 view .LVU375
 191:Core/Src/ADBMS.cpp ****         ic[cic].cccrc.cmd_cntr = cmd_count[cic];
 1312              		.loc 1 191 15 is_stmt 0 discriminator 3 view .LVU376
 1313 0238 4FF42872 		mov	r2, #672
 1314 023c 02FB0372 		mla	r2, r2, r3, r7
 191:Core/Src/ADBMS.cpp ****         ic[cic].cccrc.cmd_cntr = cmd_count[cic];
 1315              		.loc 1 191 47 discriminator 3 view .LVU377
 1316 0240 E95C     		ldrb	r1, [r5, r3]	@ zero_extendqisi2
 191:Core/Src/ADBMS.cpp ****         ic[cic].cccrc.cmd_cntr = cmd_count[cic];
 1317              		.loc 1 191 32 discriminator 3 view .LVU378
 1318 0242 82F89711 		strb	r1, [r2, #407]
 192:Core/Src/ADBMS.cpp ****       }
 1319              		.loc 1 192 9 is_stmt 1 discriminator 3 view .LVU379
 192:Core/Src/ADBMS.cpp ****       }
 1320              		.loc 1 192 47 is_stmt 0 discriminator 3 view .LVU380
 1321 0246 F15C     		ldrb	r1, [r6, r3]	@ zero_extendqisi2
ARM GAS  C:\Users\huawei\AppData\Local\Temp\ccpVCJY0.s 			page 42


 192:Core/Src/ADBMS.cpp ****       }
 1322              		.loc 1 192 32 discriminator 3 view .LVU381
 1323 0248 82F88F11 		strb	r1, [r2, #399]
 189:Core/Src/ADBMS.cpp ****       {
 1324              		.loc 1 189 7 is_stmt 1 discriminator 3 view .LVU382
 1325 024c 0133     		adds	r3, r3, #1
 1326              	.LVL148:
 189:Core/Src/ADBMS.cpp ****       {
 1327              		.loc 1 189 7 is_stmt 0 discriminator 3 view .LVU383
 1328 024e DBB2     		uxtb	r3, r3
 1329              	.LVL149:
 1330              	.L95:
 189:Core/Src/ADBMS.cpp ****       {
 1331              		.loc 1 189 33 is_stmt 1 discriminator 1 view .LVU384
 1332 0250 A342     		cmp	r3, r4
 1333 0252 F1D3     		bcc	.L96
 1334 0254 4FE7     		b	.L61
 1335              	.LVL150:
 1336              	.L71:
 189:Core/Src/ADBMS.cpp ****       {
 1337              		.loc 1 189 33 is_stmt 0 discriminator 1 view .LVU385
 1338              	.LBE36:
 196:Core/Src/ADBMS.cpp ****       adBms6830ParseComm(tIC, ic, &read_buffer[0]);
 1339              		.loc 1 196 5 is_stmt 1 view .LVU386
 197:Core/Src/ADBMS.cpp ****       for (uint8_t cic = 0; cic < tIC; cic++)
 1340              		.loc 1 197 7 view .LVU387
 197:Core/Src/ADBMS.cpp ****       for (uint8_t cic = 0; cic < tIC; cic++)
 1341              		.loc 1 197 25 is_stmt 0 view .LVU388
 1342 0256 4A46     		mov	r2, r9
 1343 0258 3946     		mov	r1, r7
 1344 025a 2046     		mov	r0, r4
 1345 025c FFF7FEFF 		bl	_Z18adBms6830ParseCommhP9cell_asicPh
 1346              	.LVL151:
 198:Core/Src/ADBMS.cpp ****       {
 1347              		.loc 1 198 7 is_stmt 1 view .LVU389
 1348              	.LBB37:
 198:Core/Src/ADBMS.cpp ****       {
 1349              		.loc 1 198 20 is_stmt 0 view .LVU390
 1350 0260 0023     		movs	r3, #0
 198:Core/Src/ADBMS.cpp ****       {
 1351              		.loc 1 198 7 view .LVU391
 1352 0262 0BE0     		b	.L97
 1353              	.LVL152:
 1354              	.L98:
 200:Core/Src/ADBMS.cpp ****         ic[cic].cccrc.cmd_cntr = cmd_count[cic];
 1355              		.loc 1 200 9 is_stmt 1 discriminator 3 view .LVU392
 200:Core/Src/ADBMS.cpp ****         ic[cic].cccrc.cmd_cntr = cmd_count[cic];
 1356              		.loc 1 200 15 is_stmt 0 discriminator 3 view .LVU393
 1357 0264 4FF42872 		mov	r2, #672
 1358 0268 02FB0372 		mla	r2, r2, r3, r7
 200:Core/Src/ADBMS.cpp ****         ic[cic].cccrc.cmd_cntr = cmd_count[cic];
 1359              		.loc 1 200 47 discriminator 3 view .LVU394
 1360 026c E95C     		ldrb	r1, [r5, r3]	@ zero_extendqisi2
 200:Core/Src/ADBMS.cpp ****         ic[cic].cccrc.cmd_cntr = cmd_count[cic];
 1361              		.loc 1 200 32 discriminator 3 view .LVU395
 1362 026e 82F89811 		strb	r1, [r2, #408]
 201:Core/Src/ADBMS.cpp ****       }
ARM GAS  C:\Users\huawei\AppData\Local\Temp\ccpVCJY0.s 			page 43


 1363              		.loc 1 201 9 is_stmt 1 discriminator 3 view .LVU396
 201:Core/Src/ADBMS.cpp ****       }
 1364              		.loc 1 201 47 is_stmt 0 discriminator 3 view .LVU397
 1365 0272 F15C     		ldrb	r1, [r6, r3]	@ zero_extendqisi2
 201:Core/Src/ADBMS.cpp ****       }
 1366              		.loc 1 201 32 discriminator 3 view .LVU398
 1367 0274 82F88F11 		strb	r1, [r2, #399]
 198:Core/Src/ADBMS.cpp ****       {
 1368              		.loc 1 198 7 is_stmt 1 discriminator 3 view .LVU399
 1369 0278 0133     		adds	r3, r3, #1
 1370              	.LVL153:
 198:Core/Src/ADBMS.cpp ****       {
 1371              		.loc 1 198 7 is_stmt 0 discriminator 3 view .LVU400
 1372 027a DBB2     		uxtb	r3, r3
 1373              	.LVL154:
 1374              	.L97:
 198:Core/Src/ADBMS.cpp ****       {
 1375              		.loc 1 198 33 is_stmt 1 discriminator 1 view .LVU401
 1376 027c A342     		cmp	r3, r4
 1377 027e F1D3     		bcc	.L98
 1378 0280 39E7     		b	.L61
 1379              	.LVL155:
 1380              	.L76:
 198:Core/Src/ADBMS.cpp ****       {
 1381              		.loc 1 198 33 is_stmt 0 discriminator 1 view .LVU402
 1382              	.LBE37:
 205:Core/Src/ADBMS.cpp ****       adBms6830ParsePwm(tIC, ic, group, &read_buffer[0]);
 1383              		.loc 1 205 5 is_stmt 1 view .LVU403
 206:Core/Src/ADBMS.cpp ****       for (uint8_t cic = 0; cic < tIC; cic++)
 1384              		.loc 1 206 7 view .LVU404
 206:Core/Src/ADBMS.cpp ****       for (uint8_t cic = 0; cic < tIC; cic++)
 1385              		.loc 1 206 24 is_stmt 0 view .LVU405
 1386 0282 4B46     		mov	r3, r9
 1387 0284 5A46     		mov	r2, fp
 1388 0286 3946     		mov	r1, r7
 1389 0288 2046     		mov	r0, r4
 1390 028a FFF7FEFF 		bl	_Z17adBms6830ParsePwmhP9cell_asic3GRPPh
 1391              	.LVL156:
 207:Core/Src/ADBMS.cpp ****       {
 1392              		.loc 1 207 7 is_stmt 1 view .LVU406
 1393              	.LBB38:
 207:Core/Src/ADBMS.cpp ****       {
 1394              		.loc 1 207 20 is_stmt 0 view .LVU407
 1395 028e 0023     		movs	r3, #0
 207:Core/Src/ADBMS.cpp ****       {
 1396              		.loc 1 207 7 view .LVU408
 1397 0290 0BE0     		b	.L99
 1398              	.LVL157:
 1399              	.L100:
 209:Core/Src/ADBMS.cpp ****         ic[cic].cccrc.cmd_cntr = cmd_count[cic];
 1400              		.loc 1 209 9 is_stmt 1 discriminator 3 view .LVU409
 209:Core/Src/ADBMS.cpp ****         ic[cic].cccrc.cmd_cntr = cmd_count[cic];
 1401              		.loc 1 209 15 is_stmt 0 discriminator 3 view .LVU410
 1402 0292 4FF42872 		mov	r2, #672
 1403 0296 02FB0372 		mla	r2, r2, r3, r7
 209:Core/Src/ADBMS.cpp ****         ic[cic].cccrc.cmd_cntr = cmd_count[cic];
 1404              		.loc 1 209 46 discriminator 3 view .LVU411
ARM GAS  C:\Users\huawei\AppData\Local\Temp\ccpVCJY0.s 			page 44


 1405 029a E95C     		ldrb	r1, [r5, r3]	@ zero_extendqisi2
 209:Core/Src/ADBMS.cpp ****         ic[cic].cccrc.cmd_cntr = cmd_count[cic];
 1406              		.loc 1 209 31 discriminator 3 view .LVU412
 1407 029c 82F89911 		strb	r1, [r2, #409]
 210:Core/Src/ADBMS.cpp ****       }
 1408              		.loc 1 210 9 is_stmt 1 discriminator 3 view .LVU413
 210:Core/Src/ADBMS.cpp ****       }
 1409              		.loc 1 210 47 is_stmt 0 discriminator 3 view .LVU414
 1410 02a0 F15C     		ldrb	r1, [r6, r3]	@ zero_extendqisi2
 210:Core/Src/ADBMS.cpp ****       }
 1411              		.loc 1 210 32 discriminator 3 view .LVU415
 1412 02a2 82F88F11 		strb	r1, [r2, #399]
 207:Core/Src/ADBMS.cpp ****       {
 1413              		.loc 1 207 7 is_stmt 1 discriminator 3 view .LVU416
 1414 02a6 0133     		adds	r3, r3, #1
 1415              	.LVL158:
 207:Core/Src/ADBMS.cpp ****       {
 1416              		.loc 1 207 7 is_stmt 0 discriminator 3 view .LVU417
 1417 02a8 DBB2     		uxtb	r3, r3
 1418              	.LVL159:
 1419              	.L99:
 207:Core/Src/ADBMS.cpp ****       {
 1420              		.loc 1 207 33 is_stmt 1 discriminator 1 view .LVU418
 1421 02aa A342     		cmp	r3, r4
 1422 02ac F1D3     		bcc	.L100
 1423 02ae 22E7     		b	.L61
 1424              	.LVL160:
 1425              	.L70:
 207:Core/Src/ADBMS.cpp ****       {
 1426              		.loc 1 207 33 is_stmt 0 discriminator 1 view .LVU419
 1427              	.LBE38:
 214:Core/Src/ADBMS.cpp ****       adBms6830ParseSID(tIC, ic, &read_buffer[0]);
 1428              		.loc 1 214 5 is_stmt 1 view .LVU420
 215:Core/Src/ADBMS.cpp ****       for (uint8_t cic = 0; cic < tIC; cic++)
 1429              		.loc 1 215 7 view .LVU421
 215:Core/Src/ADBMS.cpp ****       for (uint8_t cic = 0; cic < tIC; cic++)
 1430              		.loc 1 215 24 is_stmt 0 view .LVU422
 1431 02b0 4A46     		mov	r2, r9
 1432 02b2 3946     		mov	r1, r7
 1433 02b4 2046     		mov	r0, r4
 1434 02b6 FFF7FEFF 		bl	_Z17adBms6830ParseSIDhP9cell_asicPh
 1435              	.LVL161:
 216:Core/Src/ADBMS.cpp ****       {
 1436              		.loc 1 216 7 is_stmt 1 view .LVU423
 1437              	.LBB39:
 216:Core/Src/ADBMS.cpp ****       {
 1438              		.loc 1 216 20 is_stmt 0 view .LVU424
 1439 02ba 0023     		movs	r3, #0
 216:Core/Src/ADBMS.cpp ****       {
 1440              		.loc 1 216 7 view .LVU425
 1441 02bc 0BE0     		b	.L101
 1442              	.LVL162:
 1443              	.L102:
 218:Core/Src/ADBMS.cpp ****         ic[cic].cccrc.cmd_cntr = cmd_count[cic];
 1444              		.loc 1 218 9 is_stmt 1 discriminator 3 view .LVU426
 218:Core/Src/ADBMS.cpp ****         ic[cic].cccrc.cmd_cntr = cmd_count[cic];
 1445              		.loc 1 218 15 is_stmt 0 discriminator 3 view .LVU427
ARM GAS  C:\Users\huawei\AppData\Local\Temp\ccpVCJY0.s 			page 45


 1446 02be 4FF42872 		mov	r2, #672
 1447 02c2 02FB0372 		mla	r2, r2, r3, r7
 218:Core/Src/ADBMS.cpp ****         ic[cic].cccrc.cmd_cntr = cmd_count[cic];
 1448              		.loc 1 218 46 discriminator 3 view .LVU428
 1449 02c6 E95C     		ldrb	r1, [r5, r3]	@ zero_extendqisi2
 218:Core/Src/ADBMS.cpp ****         ic[cic].cccrc.cmd_cntr = cmd_count[cic];
 1450              		.loc 1 218 31 discriminator 3 view .LVU429
 1451 02c8 82F89A11 		strb	r1, [r2, #410]
 219:Core/Src/ADBMS.cpp ****       }
 1452              		.loc 1 219 9 is_stmt 1 discriminator 3 view .LVU430
 219:Core/Src/ADBMS.cpp ****       }
 1453              		.loc 1 219 47 is_stmt 0 discriminator 3 view .LVU431
 1454 02cc F15C     		ldrb	r1, [r6, r3]	@ zero_extendqisi2
 219:Core/Src/ADBMS.cpp ****       }
 1455              		.loc 1 219 32 discriminator 3 view .LVU432
 1456 02ce 82F88F11 		strb	r1, [r2, #399]
 216:Core/Src/ADBMS.cpp ****       {
 1457              		.loc 1 216 7 is_stmt 1 discriminator 3 view .LVU433
 1458 02d2 0133     		adds	r3, r3, #1
 1459              	.LVL163:
 216:Core/Src/ADBMS.cpp ****       {
 1460              		.loc 1 216 7 is_stmt 0 discriminator 3 view .LVU434
 1461 02d4 DBB2     		uxtb	r3, r3
 1462              	.LVL164:
 1463              	.L101:
 216:Core/Src/ADBMS.cpp ****       {
 1464              		.loc 1 216 33 is_stmt 1 discriminator 1 view .LVU435
 1465 02d6 A342     		cmp	r3, r4
 1466 02d8 F1D3     		bcc	.L102
 1467 02da 0CE7     		b	.L61
 1468              	.LVL165:
 1469              	.L69:
 216:Core/Src/ADBMS.cpp ****       {
 1470              		.loc 1 216 33 is_stmt 0 discriminator 1 view .LVU436
 1471              	.LBE39:
 223:Core/Src/ADBMS.cpp ****       /* 32 byte cell data + 2 byte pec */
 1472              		.loc 1 223 5 is_stmt 1 view .LVU437
 225:Core/Src/ADBMS.cpp ****       for (uint8_t cic = 0; cic < tIC; cic++)
 1473              		.loc 1 225 7 view .LVU438
 225:Core/Src/ADBMS.cpp ****       for (uint8_t cic = 0; cic < tIC; cic++)
 1474              		.loc 1 225 25 is_stmt 0 view .LVU439
 1475 02dc 4B46     		mov	r3, r9
 1476 02de 5A46     		mov	r2, fp
 1477 02e0 3946     		mov	r1, r7
 1478 02e2 2046     		mov	r0, r4
 1479 02e4 FFF7FEFF 		bl	_Z18adBms6830ParseCellhP9cell_asic3GRPPh
 1480              	.LVL166:
 226:Core/Src/ADBMS.cpp ****       {
 1481              		.loc 1 226 7 is_stmt 1 view .LVU440
 1482              	.LBB40:
 226:Core/Src/ADBMS.cpp ****       {
 1483              		.loc 1 226 20 is_stmt 0 view .LVU441
 1484 02e8 0023     		movs	r3, #0
 226:Core/Src/ADBMS.cpp ****       {
 1485              		.loc 1 226 7 view .LVU442
 1486 02ea 0BE0     		b	.L103
 1487              	.LVL167:
ARM GAS  C:\Users\huawei\AppData\Local\Temp\ccpVCJY0.s 			page 46


 1488              	.L104:
 228:Core/Src/ADBMS.cpp ****         ic[cic].cccrc.cmd_cntr = cmd_count[cic];
 1489              		.loc 1 228 9 is_stmt 1 discriminator 3 view .LVU443
 228:Core/Src/ADBMS.cpp ****         ic[cic].cccrc.cmd_cntr = cmd_count[cic];
 1490              		.loc 1 228 15 is_stmt 0 discriminator 3 view .LVU444
 1491 02ec 4FF42872 		mov	r2, #672
 1492 02f0 02FB0372 		mla	r2, r2, r3, r7
 228:Core/Src/ADBMS.cpp ****         ic[cic].cccrc.cmd_cntr = cmd_count[cic];
 1493              		.loc 1 228 47 discriminator 3 view .LVU445
 1494 02f4 E95C     		ldrb	r1, [r5, r3]	@ zero_extendqisi2
 228:Core/Src/ADBMS.cpp ****         ic[cic].cccrc.cmd_cntr = cmd_count[cic];
 1495              		.loc 1 228 32 discriminator 3 view .LVU446
 1496 02f6 82F89111 		strb	r1, [r2, #401]
 229:Core/Src/ADBMS.cpp ****       }
 1497              		.loc 1 229 9 is_stmt 1 discriminator 3 view .LVU447
 229:Core/Src/ADBMS.cpp ****       }
 1498              		.loc 1 229 47 is_stmt 0 discriminator 3 view .LVU448
 1499 02fa F15C     		ldrb	r1, [r6, r3]	@ zero_extendqisi2
 229:Core/Src/ADBMS.cpp ****       }
 1500              		.loc 1 229 32 discriminator 3 view .LVU449
 1501 02fc 82F88F11 		strb	r1, [r2, #399]
 226:Core/Src/ADBMS.cpp ****       {
 1502              		.loc 1 226 7 is_stmt 1 discriminator 3 view .LVU450
 1503 0300 0133     		adds	r3, r3, #1
 1504              	.LVL168:
 226:Core/Src/ADBMS.cpp ****       {
 1505              		.loc 1 226 7 is_stmt 0 discriminator 3 view .LVU451
 1506 0302 DBB2     		uxtb	r3, r3
 1507              	.LVL169:
 1508              	.L103:
 226:Core/Src/ADBMS.cpp ****       {
 1509              		.loc 1 226 33 is_stmt 1 discriminator 1 view .LVU452
 1510 0304 A342     		cmp	r3, r4
 1511 0306 F1D3     		bcc	.L104
 1512 0308 F5E6     		b	.L61
 1513              	.LVL170:
 1514              	.L68:
 226:Core/Src/ADBMS.cpp ****       {
 1515              		.loc 1 226 33 is_stmt 0 discriminator 1 view .LVU453
 1516              	.LBE40:
 233:Core/Src/ADBMS.cpp ****       /* 32 byte avg cell data + 2 byte pec */
 1517              		.loc 1 233 5 is_stmt 1 view .LVU454
 235:Core/Src/ADBMS.cpp ****       for (uint8_t cic = 0; cic < tIC; cic++)
 1518              		.loc 1 235 7 view .LVU455
 235:Core/Src/ADBMS.cpp ****       for (uint8_t cic = 0; cic < tIC; cic++)
 1519              		.loc 1 235 32 is_stmt 0 view .LVU456
 1520 030a 4B46     		mov	r3, r9
 1521 030c 5A46     		mov	r2, fp
 1522 030e 3946     		mov	r1, r7
 1523 0310 2046     		mov	r0, r4
 1524 0312 FFF7FEFF 		bl	_Z25adBms6830ParseAverageCellhP9cell_asic3GRPPh
 1525              	.LVL171:
 236:Core/Src/ADBMS.cpp ****       {
 1526              		.loc 1 236 7 is_stmt 1 view .LVU457
 1527              	.LBB41:
 236:Core/Src/ADBMS.cpp ****       {
 1528              		.loc 1 236 20 is_stmt 0 view .LVU458
ARM GAS  C:\Users\huawei\AppData\Local\Temp\ccpVCJY0.s 			page 47


 1529 0316 0023     		movs	r3, #0
 236:Core/Src/ADBMS.cpp ****       {
 1530              		.loc 1 236 7 view .LVU459
 1531 0318 0BE0     		b	.L105
 1532              	.LVL172:
 1533              	.L106:
 238:Core/Src/ADBMS.cpp ****         ic[cic].cccrc.cmd_cntr = cmd_count[cic];
 1534              		.loc 1 238 9 is_stmt 1 discriminator 3 view .LVU460
 238:Core/Src/ADBMS.cpp ****         ic[cic].cccrc.cmd_cntr = cmd_count[cic];
 1535              		.loc 1 238 15 is_stmt 0 discriminator 3 view .LVU461
 1536 031a 4FF42872 		mov	r2, #672
 1537 031e 02FB0372 		mla	r2, r2, r3, r7
 238:Core/Src/ADBMS.cpp ****         ic[cic].cccrc.cmd_cntr = cmd_count[cic];
 1538              		.loc 1 238 48 discriminator 3 view .LVU462
 1539 0322 E95C     		ldrb	r1, [r5, r3]	@ zero_extendqisi2
 238:Core/Src/ADBMS.cpp ****         ic[cic].cccrc.cmd_cntr = cmd_count[cic];
 1540              		.loc 1 238 33 discriminator 3 view .LVU463
 1541 0324 82F89211 		strb	r1, [r2, #402]
 239:Core/Src/ADBMS.cpp ****       }
 1542              		.loc 1 239 9 is_stmt 1 discriminator 3 view .LVU464
 239:Core/Src/ADBMS.cpp ****       }
 1543              		.loc 1 239 47 is_stmt 0 discriminator 3 view .LVU465
 1544 0328 F15C     		ldrb	r1, [r6, r3]	@ zero_extendqisi2
 239:Core/Src/ADBMS.cpp ****       }
 1545              		.loc 1 239 32 discriminator 3 view .LVU466
 1546 032a 82F88F11 		strb	r1, [r2, #399]
 236:Core/Src/ADBMS.cpp ****       {
 1547              		.loc 1 236 7 is_stmt 1 discriminator 3 view .LVU467
 1548 032e 0133     		adds	r3, r3, #1
 1549              	.LVL173:
 236:Core/Src/ADBMS.cpp ****       {
 1550              		.loc 1 236 7 is_stmt 0 discriminator 3 view .LVU468
 1551 0330 DBB2     		uxtb	r3, r3
 1552              	.LVL174:
 1553              	.L105:
 236:Core/Src/ADBMS.cpp ****       {
 1554              		.loc 1 236 33 is_stmt 1 discriminator 1 view .LVU469
 1555 0332 A342     		cmp	r3, r4
 1556 0334 F1D3     		bcc	.L106
 1557 0336 DEE6     		b	.L61
 1558              	.L129:
 1559              		.align	2
 1560              	.L128:
 1561 0338 00000000 		.word	.LC1
 1562 033c 20000000 		.word	.LC2
 1563              	.LVL175:
 1564              	.L67:
 236:Core/Src/ADBMS.cpp ****       {
 1565              		.loc 1 236 33 is_stmt 0 discriminator 1 view .LVU470
 1566              	.LBE41:
 243:Core/Src/ADBMS.cpp ****       /* 32 byte scell volt data + 2 byte pec */
 1567              		.loc 1 243 5 is_stmt 1 view .LVU471
 245:Core/Src/ADBMS.cpp ****       for (uint8_t cic = 0; cic < tIC; cic++)
 1568              		.loc 1 245 7 view .LVU472
 245:Core/Src/ADBMS.cpp ****       for (uint8_t cic = 0; cic < tIC; cic++)
 1569              		.loc 1 245 26 is_stmt 0 view .LVU473
 1570 0340 4B46     		mov	r3, r9
ARM GAS  C:\Users\huawei\AppData\Local\Temp\ccpVCJY0.s 			page 48


 1571 0342 5A46     		mov	r2, fp
 1572 0344 3946     		mov	r1, r7
 1573 0346 2046     		mov	r0, r4
 1574 0348 FFF7FEFF 		bl	_Z19adBms6830ParseSCellhP9cell_asic3GRPPh
 1575              	.LVL176:
 246:Core/Src/ADBMS.cpp ****       {
 1576              		.loc 1 246 7 is_stmt 1 view .LVU474
 1577              	.LBB42:
 246:Core/Src/ADBMS.cpp ****       {
 1578              		.loc 1 246 20 is_stmt 0 view .LVU475
 1579 034c 0023     		movs	r3, #0
 246:Core/Src/ADBMS.cpp ****       {
 1580              		.loc 1 246 7 view .LVU476
 1581 034e 0BE0     		b	.L107
 1582              	.LVL177:
 1583              	.L108:
 248:Core/Src/ADBMS.cpp ****         ic[cic].cccrc.cmd_cntr = cmd_count[cic];
 1584              		.loc 1 248 9 is_stmt 1 discriminator 3 view .LVU477
 248:Core/Src/ADBMS.cpp ****         ic[cic].cccrc.cmd_cntr = cmd_count[cic];
 1585              		.loc 1 248 15 is_stmt 0 discriminator 3 view .LVU478
 1586 0350 4FF42872 		mov	r2, #672
 1587 0354 02FB0372 		mla	r2, r2, r3, r7
 248:Core/Src/ADBMS.cpp ****         ic[cic].cccrc.cmd_cntr = cmd_count[cic];
 1588              		.loc 1 248 48 discriminator 3 view .LVU479
 1589 0358 E95C     		ldrb	r1, [r5, r3]	@ zero_extendqisi2
 248:Core/Src/ADBMS.cpp ****         ic[cic].cccrc.cmd_cntr = cmd_count[cic];
 1590              		.loc 1 248 33 discriminator 3 view .LVU480
 1591 035a 82F89311 		strb	r1, [r2, #403]
 249:Core/Src/ADBMS.cpp ****       }
 1592              		.loc 1 249 9 is_stmt 1 discriminator 3 view .LVU481
 249:Core/Src/ADBMS.cpp ****       }
 1593              		.loc 1 249 47 is_stmt 0 discriminator 3 view .LVU482
 1594 035e F15C     		ldrb	r1, [r6, r3]	@ zero_extendqisi2
 249:Core/Src/ADBMS.cpp ****       }
 1595              		.loc 1 249 32 discriminator 3 view .LVU483
 1596 0360 82F88F11 		strb	r1, [r2, #399]
 246:Core/Src/ADBMS.cpp ****       {
 1597              		.loc 1 246 7 is_stmt 1 discriminator 3 view .LVU484
 1598 0364 0133     		adds	r3, r3, #1
 1599              	.LVL178:
 246:Core/Src/ADBMS.cpp ****       {
 1600              		.loc 1 246 7 is_stmt 0 discriminator 3 view .LVU485
 1601 0366 DBB2     		uxtb	r3, r3
 1602              	.LVL179:
 1603              	.L107:
 246:Core/Src/ADBMS.cpp ****       {
 1604              		.loc 1 246 33 is_stmt 1 discriminator 1 view .LVU486
 1605 0368 A342     		cmp	r3, r4
 1606 036a F1D3     		bcc	.L108
 1607 036c C3E6     		b	.L61
 1608              	.LVL180:
 1609              	.L64:
 246:Core/Src/ADBMS.cpp ****       {
 1610              		.loc 1 246 33 is_stmt 0 discriminator 1 view .LVU487
 1611              	.LBE42:
 253:Core/Src/ADBMS.cpp ****       /* 32 byte fcell data + 2 byte pec */
 1612              		.loc 1 253 5 is_stmt 1 view .LVU488
ARM GAS  C:\Users\huawei\AppData\Local\Temp\ccpVCJY0.s 			page 49


 255:Core/Src/ADBMS.cpp ****       for (uint8_t cic = 0; cic < tIC; cic++)
 1613              		.loc 1 255 7 view .LVU489
 255:Core/Src/ADBMS.cpp ****       for (uint8_t cic = 0; cic < tIC; cic++)
 1614              		.loc 1 255 26 is_stmt 0 view .LVU490
 1615 036e 4B46     		mov	r3, r9
 1616 0370 5A46     		mov	r2, fp
 1617 0372 3946     		mov	r1, r7
 1618 0374 2046     		mov	r0, r4
 1619 0376 FFF7FEFF 		bl	_Z19adBms6830ParseFCellhP9cell_asic3GRPPh
 1620              	.LVL181:
 256:Core/Src/ADBMS.cpp ****       {
 1621              		.loc 1 256 7 is_stmt 1 view .LVU491
 1622              	.LBB43:
 256:Core/Src/ADBMS.cpp ****       {
 1623              		.loc 1 256 20 is_stmt 0 view .LVU492
 1624 037a 0023     		movs	r3, #0
 256:Core/Src/ADBMS.cpp ****       {
 1625              		.loc 1 256 7 view .LVU493
 1626 037c 0BE0     		b	.L109
 1627              	.LVL182:
 1628              	.L110:
 258:Core/Src/ADBMS.cpp ****         ic[cic].cccrc.cmd_cntr = cmd_count[cic];
 1629              		.loc 1 258 9 is_stmt 1 discriminator 3 view .LVU494
 258:Core/Src/ADBMS.cpp ****         ic[cic].cccrc.cmd_cntr = cmd_count[cic];
 1630              		.loc 1 258 15 is_stmt 0 discriminator 3 view .LVU495
 1631 037e 4FF42872 		mov	r2, #672
 1632 0382 02FB0372 		mla	r2, r2, r3, r7
 258:Core/Src/ADBMS.cpp ****         ic[cic].cccrc.cmd_cntr = cmd_count[cic];
 1633              		.loc 1 258 48 discriminator 3 view .LVU496
 1634 0386 E95C     		ldrb	r1, [r5, r3]	@ zero_extendqisi2
 258:Core/Src/ADBMS.cpp ****         ic[cic].cccrc.cmd_cntr = cmd_count[cic];
 1635              		.loc 1 258 33 discriminator 3 view .LVU497
 1636 0388 82F89411 		strb	r1, [r2, #404]
 259:Core/Src/ADBMS.cpp ****       }
 1637              		.loc 1 259 9 is_stmt 1 discriminator 3 view .LVU498
 259:Core/Src/ADBMS.cpp ****       }
 1638              		.loc 1 259 47 is_stmt 0 discriminator 3 view .LVU499
 1639 038c F15C     		ldrb	r1, [r6, r3]	@ zero_extendqisi2
 259:Core/Src/ADBMS.cpp ****       }
 1640              		.loc 1 259 32 discriminator 3 view .LVU500
 1641 038e 82F88F11 		strb	r1, [r2, #399]
 256:Core/Src/ADBMS.cpp ****       {
 1642              		.loc 1 256 7 is_stmt 1 discriminator 3 view .LVU501
 1643 0392 0133     		adds	r3, r3, #1
 1644              	.LVL183:
 256:Core/Src/ADBMS.cpp ****       {
 1645              		.loc 1 256 7 is_stmt 0 discriminator 3 view .LVU502
 1646 0394 DBB2     		uxtb	r3, r3
 1647              	.LVL184:
 1648              	.L109:
 256:Core/Src/ADBMS.cpp ****       {
 1649              		.loc 1 256 33 is_stmt 1 discriminator 1 view .LVU503
 1650 0396 A342     		cmp	r3, r4
 1651 0398 F1D3     		bcc	.L110
 1652 039a ACE6     		b	.L61
 1653              	.LVL185:
 1654              	.L66:
ARM GAS  C:\Users\huawei\AppData\Local\Temp\ccpVCJY0.s 			page 50


 256:Core/Src/ADBMS.cpp ****       {
 1655              		.loc 1 256 33 is_stmt 0 discriminator 1 view .LVU504
 1656              	.LBE43:
 263:Core/Src/ADBMS.cpp ****       /* 64 byte + 2 byte pec = 32 byte cell data + 32 byte scell volt data */
 1657              		.loc 1 263 5 is_stmt 1 view .LVU505
 265:Core/Src/ADBMS.cpp ****       for (uint8_t cic = 0; cic < tIC; cic++)
 1658              		.loc 1 265 7 view .LVU506
 265:Core/Src/ADBMS.cpp ****       for (uint8_t cic = 0; cic < tIC; cic++)
 1659              		.loc 1 265 25 is_stmt 0 view .LVU507
 1660 039c 4B46     		mov	r3, r9
 1661 039e 5A46     		mov	r2, fp
 1662 03a0 3946     		mov	r1, r7
 1663 03a2 2046     		mov	r0, r4
 1664 03a4 FFF7FEFF 		bl	_Z18adBms6830ParseCellhP9cell_asic3GRPPh
 1665              	.LVL186:
 266:Core/Src/ADBMS.cpp ****       {
 1666              		.loc 1 266 7 is_stmt 1 view .LVU508
 1667              	.LBB44:
 266:Core/Src/ADBMS.cpp ****       {
 1668              		.loc 1 266 20 is_stmt 0 view .LVU509
 1669 03a8 0023     		movs	r3, #0
 266:Core/Src/ADBMS.cpp ****       {
 1670              		.loc 1 266 7 view .LVU510
 1671 03aa 0BE0     		b	.L111
 1672              	.LVL187:
 1673              	.L112:
 268:Core/Src/ADBMS.cpp ****         ic[cic].cccrc.cmd_cntr = cmd_count[cic];
 1674              		.loc 1 268 9 is_stmt 1 discriminator 3 view .LVU511
 268:Core/Src/ADBMS.cpp ****         ic[cic].cccrc.cmd_cntr = cmd_count[cic];
 1675              		.loc 1 268 15 is_stmt 0 discriminator 3 view .LVU512
 1676 03ac 4FF42872 		mov	r2, #672
 1677 03b0 02FB0372 		mla	r2, r2, r3, r7
 268:Core/Src/ADBMS.cpp ****         ic[cic].cccrc.cmd_cntr = cmd_count[cic];
 1678              		.loc 1 268 47 discriminator 3 view .LVU513
 1679 03b4 E95C     		ldrb	r1, [r5, r3]	@ zero_extendqisi2
 268:Core/Src/ADBMS.cpp ****         ic[cic].cccrc.cmd_cntr = cmd_count[cic];
 1680              		.loc 1 268 32 discriminator 3 view .LVU514
 1681 03b6 82F89111 		strb	r1, [r2, #401]
 269:Core/Src/ADBMS.cpp ****       }
 1682              		.loc 1 269 9 is_stmt 1 discriminator 3 view .LVU515
 269:Core/Src/ADBMS.cpp ****       }
 1683              		.loc 1 269 47 is_stmt 0 discriminator 3 view .LVU516
 1684 03ba F15C     		ldrb	r1, [r6, r3]	@ zero_extendqisi2
 269:Core/Src/ADBMS.cpp ****       }
 1685              		.loc 1 269 32 discriminator 3 view .LVU517
 1686 03bc 82F88F11 		strb	r1, [r2, #399]
 266:Core/Src/ADBMS.cpp ****       {
 1687              		.loc 1 266 7 is_stmt 1 discriminator 3 view .LVU518
 1688 03c0 0133     		adds	r3, r3, #1
 1689              	.LVL188:
 266:Core/Src/ADBMS.cpp ****       {
 1690              		.loc 1 266 7 is_stmt 0 discriminator 3 view .LVU519
 1691 03c2 DBB2     		uxtb	r3, r3
 1692              	.LVL189:
 1693              	.L111:
 266:Core/Src/ADBMS.cpp ****       {
 1694              		.loc 1 266 33 is_stmt 1 discriminator 1 view .LVU520
ARM GAS  C:\Users\huawei\AppData\Local\Temp\ccpVCJY0.s 			page 51


 1695 03c4 A342     		cmp	r3, r4
 1696 03c6 F1D3     		bcc	.L112
 1697              	.LBE44:
 271:Core/Src/ADBMS.cpp ****       for (uint8_t cic = 0; cic < tIC; cic++)
 1698              		.loc 1 271 7 view .LVU521
 271:Core/Src/ADBMS.cpp ****       for (uint8_t cic = 0; cic < tIC; cic++)
 1699              		.loc 1 271 26 is_stmt 0 view .LVU522
 1700 03c8 09F12003 		add	r3, r9, #32
 1701              	.LVL190:
 271:Core/Src/ADBMS.cpp ****       for (uint8_t cic = 0; cic < tIC; cic++)
 1702              		.loc 1 271 26 view .LVU523
 1703 03cc 5A46     		mov	r2, fp
 1704 03ce 3946     		mov	r1, r7
 1705 03d0 2046     		mov	r0, r4
 1706 03d2 FFF7FEFF 		bl	_Z19adBms6830ParseSCellhP9cell_asic3GRPPh
 1707              	.LVL191:
 272:Core/Src/ADBMS.cpp ****       {
 1708              		.loc 1 272 7 is_stmt 1 view .LVU524
 1709              	.LBB45:
 272:Core/Src/ADBMS.cpp ****       {
 1710              		.loc 1 272 20 is_stmt 0 view .LVU525
 1711 03d6 0023     		movs	r3, #0
 272:Core/Src/ADBMS.cpp ****       {
 1712              		.loc 1 272 7 view .LVU526
 1713 03d8 0BE0     		b	.L113
 1714              	.LVL192:
 1715              	.L114:
 274:Core/Src/ADBMS.cpp ****         ic[cic].cccrc.cmd_cntr = cmd_count[cic];
 1716              		.loc 1 274 9 is_stmt 1 discriminator 3 view .LVU527
 274:Core/Src/ADBMS.cpp ****         ic[cic].cccrc.cmd_cntr = cmd_count[cic];
 1717              		.loc 1 274 15 is_stmt 0 discriminator 3 view .LVU528
 1718 03da 4FF42872 		mov	r2, #672
 1719 03de 02FB0372 		mla	r2, r2, r3, r7
 274:Core/Src/ADBMS.cpp ****         ic[cic].cccrc.cmd_cntr = cmd_count[cic];
 1720              		.loc 1 274 48 discriminator 3 view .LVU529
 1721 03e2 E95C     		ldrb	r1, [r5, r3]	@ zero_extendqisi2
 274:Core/Src/ADBMS.cpp ****         ic[cic].cccrc.cmd_cntr = cmd_count[cic];
 1722              		.loc 1 274 33 discriminator 3 view .LVU530
 1723 03e4 82F89311 		strb	r1, [r2, #403]
 275:Core/Src/ADBMS.cpp ****       }
 1724              		.loc 1 275 9 is_stmt 1 discriminator 3 view .LVU531
 275:Core/Src/ADBMS.cpp ****       }
 1725              		.loc 1 275 47 is_stmt 0 discriminator 3 view .LVU532
 1726 03e8 F15C     		ldrb	r1, [r6, r3]	@ zero_extendqisi2
 275:Core/Src/ADBMS.cpp ****       }
 1727              		.loc 1 275 32 discriminator 3 view .LVU533
 1728 03ea 82F88F11 		strb	r1, [r2, #399]
 272:Core/Src/ADBMS.cpp ****       {
 1729              		.loc 1 272 7 is_stmt 1 discriminator 3 view .LVU534
 1730 03ee 0133     		adds	r3, r3, #1
 1731              	.LVL193:
 272:Core/Src/ADBMS.cpp ****       {
 1732              		.loc 1 272 7 is_stmt 0 discriminator 3 view .LVU535
 1733 03f0 DBB2     		uxtb	r3, r3
 1734              	.LVL194:
 1735              	.L113:
 272:Core/Src/ADBMS.cpp ****       {
ARM GAS  C:\Users\huawei\AppData\Local\Temp\ccpVCJY0.s 			page 52


 1736              		.loc 1 272 33 is_stmt 1 discriminator 1 view .LVU536
 1737 03f2 A342     		cmp	r3, r4
 1738 03f4 F1D3     		bcc	.L114
 1739 03f6 7EE6     		b	.L61
 1740              	.LVL195:
 1741              	.L65:
 272:Core/Src/ADBMS.cpp ****       {
 1742              		.loc 1 272 33 is_stmt 0 discriminator 1 view .LVU537
 1743              	.LBE45:
 279:Core/Src/ADBMS.cpp ****       /* 64 byte + 2 byte pec = 32 byte avg cell data + 32 byte scell volt data */
 1744              		.loc 1 279 5 is_stmt 1 view .LVU538
 281:Core/Src/ADBMS.cpp ****       for (uint8_t cic = 0; cic < tIC; cic++)
 1745              		.loc 1 281 7 view .LVU539
 281:Core/Src/ADBMS.cpp ****       for (uint8_t cic = 0; cic < tIC; cic++)
 1746              		.loc 1 281 32 is_stmt 0 view .LVU540
 1747 03f8 4B46     		mov	r3, r9
 1748 03fa 5A46     		mov	r2, fp
 1749 03fc 3946     		mov	r1, r7
 1750 03fe 2046     		mov	r0, r4
 1751 0400 FFF7FEFF 		bl	_Z25adBms6830ParseAverageCellhP9cell_asic3GRPPh
 1752              	.LVL196:
 282:Core/Src/ADBMS.cpp ****       {
 1753              		.loc 1 282 7 is_stmt 1 view .LVU541
 1754              	.LBB46:
 282:Core/Src/ADBMS.cpp ****       {
 1755              		.loc 1 282 20 is_stmt 0 view .LVU542
 1756 0404 0023     		movs	r3, #0
 282:Core/Src/ADBMS.cpp ****       {
 1757              		.loc 1 282 7 view .LVU543
 1758 0406 0BE0     		b	.L115
 1759              	.LVL197:
 1760              	.L116:
 284:Core/Src/ADBMS.cpp ****         ic[cic].cccrc.cmd_cntr = cmd_count[cic];
 1761              		.loc 1 284 9 is_stmt 1 discriminator 3 view .LVU544
 284:Core/Src/ADBMS.cpp ****         ic[cic].cccrc.cmd_cntr = cmd_count[cic];
 1762              		.loc 1 284 15 is_stmt 0 discriminator 3 view .LVU545
 1763 0408 4FF42872 		mov	r2, #672
 1764 040c 02FB0372 		mla	r2, r2, r3, r7
 284:Core/Src/ADBMS.cpp ****         ic[cic].cccrc.cmd_cntr = cmd_count[cic];
 1765              		.loc 1 284 48 discriminator 3 view .LVU546
 1766 0410 E95C     		ldrb	r1, [r5, r3]	@ zero_extendqisi2
 284:Core/Src/ADBMS.cpp ****         ic[cic].cccrc.cmd_cntr = cmd_count[cic];
 1767              		.loc 1 284 33 discriminator 3 view .LVU547
 1768 0412 82F89211 		strb	r1, [r2, #402]
 285:Core/Src/ADBMS.cpp ****       }
 1769              		.loc 1 285 9 is_stmt 1 discriminator 3 view .LVU548
 285:Core/Src/ADBMS.cpp ****       }
 1770              		.loc 1 285 47 is_stmt 0 discriminator 3 view .LVU549
 1771 0416 F15C     		ldrb	r1, [r6, r3]	@ zero_extendqisi2
 285:Core/Src/ADBMS.cpp ****       }
 1772              		.loc 1 285 32 discriminator 3 view .LVU550
 1773 0418 82F88F11 		strb	r1, [r2, #399]
 282:Core/Src/ADBMS.cpp ****       {
 1774              		.loc 1 282 7 is_stmt 1 discriminator 3 view .LVU551
 1775 041c 0133     		adds	r3, r3, #1
 1776              	.LVL198:
 282:Core/Src/ADBMS.cpp ****       {
ARM GAS  C:\Users\huawei\AppData\Local\Temp\ccpVCJY0.s 			page 53


 1777              		.loc 1 282 7 is_stmt 0 discriminator 3 view .LVU552
 1778 041e DBB2     		uxtb	r3, r3
 1779              	.LVL199:
 1780              	.L115:
 282:Core/Src/ADBMS.cpp ****       {
 1781              		.loc 1 282 33 is_stmt 1 discriminator 1 view .LVU553
 1782 0420 A342     		cmp	r3, r4
 1783 0422 F1D3     		bcc	.L116
 1784              	.LBE46:
 287:Core/Src/ADBMS.cpp ****       for (uint8_t cic = 0; cic < tIC; cic++)
 1785              		.loc 1 287 7 view .LVU554
 287:Core/Src/ADBMS.cpp ****       for (uint8_t cic = 0; cic < tIC; cic++)
 1786              		.loc 1 287 26 is_stmt 0 view .LVU555
 1787 0424 09F12003 		add	r3, r9, #32
 1788              	.LVL200:
 287:Core/Src/ADBMS.cpp ****       for (uint8_t cic = 0; cic < tIC; cic++)
 1789              		.loc 1 287 26 view .LVU556
 1790 0428 5A46     		mov	r2, fp
 1791 042a 3946     		mov	r1, r7
 1792 042c 2046     		mov	r0, r4
 1793 042e FFF7FEFF 		bl	_Z19adBms6830ParseSCellhP9cell_asic3GRPPh
 1794              	.LVL201:
 288:Core/Src/ADBMS.cpp ****       {
 1795              		.loc 1 288 7 is_stmt 1 view .LVU557
 1796              	.LBB47:
 288:Core/Src/ADBMS.cpp ****       {
 1797              		.loc 1 288 20 is_stmt 0 view .LVU558
 1798 0432 0023     		movs	r3, #0
 288:Core/Src/ADBMS.cpp ****       {
 1799              		.loc 1 288 7 view .LVU559
 1800 0434 0BE0     		b	.L117
 1801              	.LVL202:
 1802              	.L118:
 290:Core/Src/ADBMS.cpp ****         ic[cic].cccrc.cmd_cntr = cmd_count[cic];
 1803              		.loc 1 290 9 is_stmt 1 discriminator 3 view .LVU560
 290:Core/Src/ADBMS.cpp ****         ic[cic].cccrc.cmd_cntr = cmd_count[cic];
 1804              		.loc 1 290 15 is_stmt 0 discriminator 3 view .LVU561
 1805 0436 4FF42872 		mov	r2, #672
 1806 043a 02FB0372 		mla	r2, r2, r3, r7
 290:Core/Src/ADBMS.cpp ****         ic[cic].cccrc.cmd_cntr = cmd_count[cic];
 1807              		.loc 1 290 48 discriminator 3 view .LVU562
 1808 043e E95C     		ldrb	r1, [r5, r3]	@ zero_extendqisi2
 290:Core/Src/ADBMS.cpp ****         ic[cic].cccrc.cmd_cntr = cmd_count[cic];
 1809              		.loc 1 290 33 discriminator 3 view .LVU563
 1810 0440 82F89311 		strb	r1, [r2, #403]
 291:Core/Src/ADBMS.cpp ****       }
 1811              		.loc 1 291 9 is_stmt 1 discriminator 3 view .LVU564
 291:Core/Src/ADBMS.cpp ****       }
 1812              		.loc 1 291 47 is_stmt 0 discriminator 3 view .LVU565
 1813 0444 F15C     		ldrb	r1, [r6, r3]	@ zero_extendqisi2
 291:Core/Src/ADBMS.cpp ****       }
 1814              		.loc 1 291 32 discriminator 3 view .LVU566
 1815 0446 82F88F11 		strb	r1, [r2, #399]
 288:Core/Src/ADBMS.cpp ****       {
 1816              		.loc 1 288 7 is_stmt 1 discriminator 3 view .LVU567
 1817 044a 0133     		adds	r3, r3, #1
 1818              	.LVL203:
ARM GAS  C:\Users\huawei\AppData\Local\Temp\ccpVCJY0.s 			page 54


 288:Core/Src/ADBMS.cpp ****       {
 1819              		.loc 1 288 7 is_stmt 0 discriminator 3 view .LVU568
 1820 044c DBB2     		uxtb	r3, r3
 1821              	.LVL204:
 1822              	.L117:
 288:Core/Src/ADBMS.cpp ****       {
 1823              		.loc 1 288 33 is_stmt 1 discriminator 1 view .LVU569
 1824 044e A342     		cmp	r3, r4
 1825 0450 F1D3     		bcc	.L118
 1826 0452 50E6     		b	.L61
 1827              	.LVL205:
 1828              	.L62:
 288:Core/Src/ADBMS.cpp ****       {
 1829              		.loc 1 288 33 is_stmt 0 discriminator 1 view .LVU570
 1830              	.LBE47:
 295:Core/Src/ADBMS.cpp ****       /* 68 byte + 2 byte pec:
 1831              		.loc 1 295 5 is_stmt 1 view .LVU571
 300:Core/Src/ADBMS.cpp ****       for (uint8_t cic = 0; cic < tIC; cic++)
 1832              		.loc 1 300 7 view .LVU572
 300:Core/Src/ADBMS.cpp ****       for (uint8_t cic = 0; cic < tIC; cic++)
 1833              		.loc 1 300 24 is_stmt 0 view .LVU573
 1834 0454 4B46     		mov	r3, r9
 1835 0456 5A46     		mov	r2, fp
 1836 0458 3946     		mov	r1, r7
 1837 045a 2046     		mov	r0, r4
 1838 045c FFF7FEFF 		bl	_Z17adBms6830ParseAuxhP9cell_asic3GRPPh
 1839              	.LVL206:
 301:Core/Src/ADBMS.cpp ****       {
 1840              		.loc 1 301 7 is_stmt 1 view .LVU574
 1841              	.LBB48:
 301:Core/Src/ADBMS.cpp ****       {
 1842              		.loc 1 301 20 is_stmt 0 view .LVU575
 1843 0460 0023     		movs	r3, #0
 301:Core/Src/ADBMS.cpp ****       {
 1844              		.loc 1 301 7 view .LVU576
 1845 0462 0BE0     		b	.L119
 1846              	.LVL207:
 1847              	.L120:
 303:Core/Src/ADBMS.cpp ****         ic[cic].cccrc.cmd_cntr = cmd_count[cic];
 1848              		.loc 1 303 9 is_stmt 1 discriminator 3 view .LVU577
 303:Core/Src/ADBMS.cpp ****         ic[cic].cccrc.cmd_cntr = cmd_count[cic];
 1849              		.loc 1 303 15 is_stmt 0 discriminator 3 view .LVU578
 1850 0464 4FF42872 		mov	r2, #672
 1851 0468 02FB0372 		mla	r2, r2, r3, r7
 303:Core/Src/ADBMS.cpp ****         ic[cic].cccrc.cmd_cntr = cmd_count[cic];
 1852              		.loc 1 303 46 discriminator 3 view .LVU579
 1853 046c E95C     		ldrb	r1, [r5, r3]	@ zero_extendqisi2
 303:Core/Src/ADBMS.cpp ****         ic[cic].cccrc.cmd_cntr = cmd_count[cic];
 1854              		.loc 1 303 31 discriminator 3 view .LVU580
 1855 046e 82F89511 		strb	r1, [r2, #405]
 304:Core/Src/ADBMS.cpp ****       }
 1856              		.loc 1 304 9 is_stmt 1 discriminator 3 view .LVU581
 304:Core/Src/ADBMS.cpp ****       }
 1857              		.loc 1 304 47 is_stmt 0 discriminator 3 view .LVU582
 1858 0472 F15C     		ldrb	r1, [r6, r3]	@ zero_extendqisi2
 304:Core/Src/ADBMS.cpp ****       }
 1859              		.loc 1 304 32 discriminator 3 view .LVU583
ARM GAS  C:\Users\huawei\AppData\Local\Temp\ccpVCJY0.s 			page 55


 1860 0474 82F88F11 		strb	r1, [r2, #399]
 301:Core/Src/ADBMS.cpp ****       {
 1861              		.loc 1 301 7 is_stmt 1 discriminator 3 view .LVU584
 1862 0478 0133     		adds	r3, r3, #1
 1863              	.LVL208:
 301:Core/Src/ADBMS.cpp ****       {
 1864              		.loc 1 301 7 is_stmt 0 discriminator 3 view .LVU585
 1865 047a DBB2     		uxtb	r3, r3
 1866              	.LVL209:
 1867              	.L119:
 301:Core/Src/ADBMS.cpp ****       {
 1868              		.loc 1 301 33 is_stmt 1 discriminator 1 view .LVU586
 1869 047c A342     		cmp	r3, r4
 1870 047e F1D3     		bcc	.L120
 1871              	.LBE48:
 306:Core/Src/ADBMS.cpp ****       for (uint8_t cic = 0; cic < tIC; cic++)
 1872              		.loc 1 306 7 view .LVU587
 306:Core/Src/ADBMS.cpp ****       for (uint8_t cic = 0; cic < tIC; cic++)
 1873              		.loc 1 306 25 is_stmt 0 view .LVU588
 1874 0480 09F11803 		add	r3, r9, #24
 1875              	.LVL210:
 306:Core/Src/ADBMS.cpp ****       for (uint8_t cic = 0; cic < tIC; cic++)
 1876              		.loc 1 306 25 view .LVU589
 1877 0484 5A46     		mov	r2, fp
 1878 0486 3946     		mov	r1, r7
 1879 0488 2046     		mov	r0, r4
 1880 048a FFF7FEFF 		bl	_Z18adBms6830ParseRAuxhP9cell_asic3GRPPh
 1881              	.LVL211:
 307:Core/Src/ADBMS.cpp ****       {
 1882              		.loc 1 307 7 is_stmt 1 view .LVU590
 1883              	.LBB49:
 307:Core/Src/ADBMS.cpp ****       {
 1884              		.loc 1 307 20 is_stmt 0 view .LVU591
 1885 048e 0023     		movs	r3, #0
 307:Core/Src/ADBMS.cpp ****       {
 1886              		.loc 1 307 7 view .LVU592
 1887 0490 0BE0     		b	.L121
 1888              	.LVL212:
 1889              	.L122:
 309:Core/Src/ADBMS.cpp ****         ic[cic].cccrc.cmd_cntr = cmd_count[cic];
 1890              		.loc 1 309 9 is_stmt 1 discriminator 3 view .LVU593
 309:Core/Src/ADBMS.cpp ****         ic[cic].cccrc.cmd_cntr = cmd_count[cic];
 1891              		.loc 1 309 15 is_stmt 0 discriminator 3 view .LVU594
 1892 0492 4FF42872 		mov	r2, #672
 1893 0496 02FB0372 		mla	r2, r2, r3, r7
 309:Core/Src/ADBMS.cpp ****         ic[cic].cccrc.cmd_cntr = cmd_count[cic];
 1894              		.loc 1 309 47 discriminator 3 view .LVU595
 1895 049a E95C     		ldrb	r1, [r5, r3]	@ zero_extendqisi2
 309:Core/Src/ADBMS.cpp ****         ic[cic].cccrc.cmd_cntr = cmd_count[cic];
 1896              		.loc 1 309 32 discriminator 3 view .LVU596
 1897 049c 82F89611 		strb	r1, [r2, #406]
 310:Core/Src/ADBMS.cpp ****       }
 1898              		.loc 1 310 9 is_stmt 1 discriminator 3 view .LVU597
 310:Core/Src/ADBMS.cpp ****       }
 1899              		.loc 1 310 47 is_stmt 0 discriminator 3 view .LVU598
 1900 04a0 F15C     		ldrb	r1, [r6, r3]	@ zero_extendqisi2
 310:Core/Src/ADBMS.cpp ****       }
ARM GAS  C:\Users\huawei\AppData\Local\Temp\ccpVCJY0.s 			page 56


 1901              		.loc 1 310 32 discriminator 3 view .LVU599
 1902 04a2 82F88F11 		strb	r1, [r2, #399]
 307:Core/Src/ADBMS.cpp ****       {
 1903              		.loc 1 307 7 is_stmt 1 discriminator 3 view .LVU600
 1904 04a6 0133     		adds	r3, r3, #1
 1905              	.LVL213:
 307:Core/Src/ADBMS.cpp ****       {
 1906              		.loc 1 307 7 is_stmt 0 discriminator 3 view .LVU601
 1907 04a8 DBB2     		uxtb	r3, r3
 1908              	.LVL214:
 1909              	.L121:
 307:Core/Src/ADBMS.cpp ****       {
 1910              		.loc 1 307 33 is_stmt 1 discriminator 1 view .LVU602
 1911 04aa A342     		cmp	r3, r4
 1912 04ac F1D3     		bcc	.L122
 1913              	.LBE49:
 312:Core/Src/ADBMS.cpp ****       for (uint8_t cic = 0; cic < tIC; cic++)
 1914              		.loc 1 312 7 view .LVU603
 312:Core/Src/ADBMS.cpp ****       for (uint8_t cic = 0; cic < tIC; cic++)
 1915              		.loc 1 312 27 is_stmt 0 view .LVU604
 1916 04ae 09F12C03 		add	r3, r9, #44
 1917              	.LVL215:
 312:Core/Src/ADBMS.cpp ****       for (uint8_t cic = 0; cic < tIC; cic++)
 1918              		.loc 1 312 27 view .LVU605
 1919 04b2 5A46     		mov	r2, fp
 1920 04b4 3946     		mov	r1, r7
 1921 04b6 2046     		mov	r0, r4
 1922 04b8 FFF7FEFF 		bl	_Z20adBms6830ParseStatushP9cell_asic3GRPPh
 1923              	.LVL216:
 313:Core/Src/ADBMS.cpp ****       {
 1924              		.loc 1 313 7 is_stmt 1 view .LVU606
 1925              	.LBB50:
 313:Core/Src/ADBMS.cpp ****       {
 1926              		.loc 1 313 20 is_stmt 0 view .LVU607
 1927 04bc 0023     		movs	r3, #0
 313:Core/Src/ADBMS.cpp ****       {
 1928              		.loc 1 313 7 view .LVU608
 1929 04be 0BE0     		b	.L123
 1930              	.LVL217:
 1931              	.L124:
 315:Core/Src/ADBMS.cpp ****         ic[cic].cccrc.cmd_cntr = cmd_count[cic];
 1932              		.loc 1 315 9 is_stmt 1 discriminator 3 view .LVU609
 315:Core/Src/ADBMS.cpp ****         ic[cic].cccrc.cmd_cntr = cmd_count[cic];
 1933              		.loc 1 315 15 is_stmt 0 discriminator 3 view .LVU610
 1934 04c0 4FF42872 		mov	r2, #672
 1935 04c4 02FB0372 		mla	r2, r2, r3, r7
 315:Core/Src/ADBMS.cpp ****         ic[cic].cccrc.cmd_cntr = cmd_count[cic];
 1936              		.loc 1 315 47 discriminator 3 view .LVU611
 1937 04c8 E95C     		ldrb	r1, [r5, r3]	@ zero_extendqisi2
 315:Core/Src/ADBMS.cpp ****         ic[cic].cccrc.cmd_cntr = cmd_count[cic];
 1938              		.loc 1 315 32 discriminator 3 view .LVU612
 1939 04ca 82F89711 		strb	r1, [r2, #407]
 316:Core/Src/ADBMS.cpp ****       }
 1940              		.loc 1 316 9 is_stmt 1 discriminator 3 view .LVU613
 316:Core/Src/ADBMS.cpp ****       }
 1941              		.loc 1 316 47 is_stmt 0 discriminator 3 view .LVU614
 1942 04ce F15C     		ldrb	r1, [r6, r3]	@ zero_extendqisi2
ARM GAS  C:\Users\huawei\AppData\Local\Temp\ccpVCJY0.s 			page 57


 316:Core/Src/ADBMS.cpp ****       }
 1943              		.loc 1 316 32 discriminator 3 view .LVU615
 1944 04d0 82F88F11 		strb	r1, [r2, #399]
 313:Core/Src/ADBMS.cpp ****       {
 1945              		.loc 1 313 7 is_stmt 1 discriminator 3 view .LVU616
 1946 04d4 0133     		adds	r3, r3, #1
 1947              	.LVL218:
 313:Core/Src/ADBMS.cpp ****       {
 1948              		.loc 1 313 7 is_stmt 0 discriminator 3 view .LVU617
 1949 04d6 DBB2     		uxtb	r3, r3
 1950              	.LVL219:
 1951              	.L123:
 313:Core/Src/ADBMS.cpp ****       {
 1952              		.loc 1 313 33 is_stmt 1 discriminator 1 view .LVU618
 1953 04d8 A342     		cmp	r3, r4
 1954 04da F1D3     		bcc	.L124
 1955 04dc 0BE6     		b	.L61
 1956              	.LBE50:
 1957              	.LBE51:
 1958              	.LBE53:
 1959              	.LBE55:
 1960              	.LBE57:
 1961              		.cfi_endproc
 1962              	.LFE248:
 1963              		.fnend
 1965 04de 00BF     		.section	.rodata._Z12spiWriteDatahPhS_.str1.4,"aMS",%progbits,1
 1966              		.align	2
 1967              	.LC3:
 1968 0000 20466169 		.ascii	" Failed to allocate cmd array memory \000"
 1968      6C656420 
 1968      746F2061 
 1968      6C6C6F63 
 1968      61746520 
 1969              		.section	.text._Z12spiWriteDatahPhS_,"ax",%progbits
 1970              		.align	1
 1971              		.global	_Z12spiWriteDatahPhS_
 1972              		.syntax unified
 1973              		.thumb
 1974              		.thumb_func
 1976              	_Z12spiWriteDatahPhS_:
 1977              		.fnstart
 1978              	.LVL220:
 1979              	.LFB251:
 552:Core/Src/ADBMS.cpp ****   uint8_t BYTES_IN_REG = TX_DATA;
 1980              		.loc 1 552 1 view -0
 1981              		.cfi_startproc
 1982              		@ args = 0, pretend = 0, frame = 8
 1983              		@ frame_needed = 0, uses_anonymous_args = 0
 552:Core/Src/ADBMS.cpp ****   uint8_t BYTES_IN_REG = TX_DATA;
 1984              		.loc 1 552 1 is_stmt 0 view .LVU620
 1985 0000 2DE9F041 		push	{r4, r5, r6, r7, r8, lr}
 1986              		.save {r4, r5, r6, r7, r8, lr}
 1987              	.LCFI13:
 1988              		.cfi_def_cfa_offset 24
 1989              		.cfi_offset 4, -24
 1990              		.cfi_offset 5, -20
 1991              		.cfi_offset 6, -16
ARM GAS  C:\Users\huawei\AppData\Local\Temp\ccpVCJY0.s 			page 58


 1992              		.cfi_offset 7, -12
 1993              		.cfi_offset 8, -8
 1994              		.cfi_offset 14, -4
 1995              		.pad #8
 1996 0004 82B0     		sub	sp, sp, #8
 1997              	.LCFI14:
 1998              		.cfi_def_cfa_offset 32
 1999 0006 0546     		mov	r5, r0
 2000 0008 0C46     		mov	r4, r1
 2001 000a 1746     		mov	r7, r2
 553:Core/Src/ADBMS.cpp ****   uint8_t CMD_LEN = 4 + (RX_DATA * tIC);
 2002              		.loc 1 553 3 is_stmt 1 view .LVU621
 2003              	.LVL221:
 554:Core/Src/ADBMS.cpp ****   uint16_t data_pec, cmd_pec;
 2004              		.loc 1 554 3 view .LVU622
 554:Core/Src/ADBMS.cpp ****   uint16_t data_pec, cmd_pec;
 2005              		.loc 1 554 23 is_stmt 0 view .LVU623
 2006 000c 4FEAC008 		lsl	r8, r0, #3
 2007 0010 5FFA88F8 		uxtb	r8, r8
 554:Core/Src/ADBMS.cpp ****   uint16_t data_pec, cmd_pec;
 2008              		.loc 1 554 11 view .LVU624
 2009 0014 08F10408 		add	r8, r8, #4
 2010 0018 5FFA88F8 		uxtb	r8, r8
 2011              	.LVL222:
 555:Core/Src/ADBMS.cpp ****   uint8_t *cmd, copyArray[TX_DATA], src_address = 0;
 2012              		.loc 1 555 3 is_stmt 1 view .LVU625
 556:Core/Src/ADBMS.cpp ****   uint8_t cmd_index;
 2013              		.loc 1 556 3 view .LVU626
 557:Core/Src/ADBMS.cpp ****   cmd = (uint8_t *)calloc(CMD_LEN, sizeof(uint8_t));
 2014              		.loc 1 557 3 view .LVU627
 558:Core/Src/ADBMS.cpp ****   if(cmd == NULL)
 2015              		.loc 1 558 3 view .LVU628
 558:Core/Src/ADBMS.cpp ****   if(cmd == NULL)
 2016              		.loc 1 558 26 is_stmt 0 view .LVU629
 2017 001c 0121     		movs	r1, #1
 2018              	.LVL223:
 558:Core/Src/ADBMS.cpp ****   if(cmd == NULL)
 2019              		.loc 1 558 26 view .LVU630
 2020 001e 4046     		mov	r0, r8
 2021              	.LVL224:
 558:Core/Src/ADBMS.cpp ****   if(cmd == NULL)
 2022              		.loc 1 558 26 view .LVU631
 2023 0020 FFF7FEFF 		bl	calloc
 2024              	.LVL225:
 559:Core/Src/ADBMS.cpp ****   {
 2025              		.loc 1 559 3 is_stmt 1 view .LVU632
 2026              	.LBB58:
 2027 0024 70B1     		cbz	r0, .L137
 2028 0026 0646     		mov	r6, r0
 2029              	.LBB59:
 566:Core/Src/ADBMS.cpp ****     cmd[1] = tx_cmd[1];
 2030              		.loc 1 566 5 view .LVU633
 566:Core/Src/ADBMS.cpp ****     cmd[1] = tx_cmd[1];
 2031              		.loc 1 566 22 is_stmt 0 view .LVU634
 2032 0028 2378     		ldrb	r3, [r4]	@ zero_extendqisi2
 566:Core/Src/ADBMS.cpp ****     cmd[1] = tx_cmd[1];
 2033              		.loc 1 566 12 view .LVU635
ARM GAS  C:\Users\huawei\AppData\Local\Temp\ccpVCJY0.s 			page 59


 2034 002a 0370     		strb	r3, [r0]
 567:Core/Src/ADBMS.cpp ****     cmd_pec = Pec15_Calc(2, cmd);
 2035              		.loc 1 567 5 is_stmt 1 view .LVU636
 567:Core/Src/ADBMS.cpp ****     cmd_pec = Pec15_Calc(2, cmd);
 2036              		.loc 1 567 12 is_stmt 0 view .LVU637
 2037 002c 6378     		ldrb	r3, [r4, #1]	@ zero_extendqisi2
 2038 002e 4370     		strb	r3, [r0, #1]
 568:Core/Src/ADBMS.cpp ****     cmd[2] = (uint8_t)(cmd_pec >> 8);
 2039              		.loc 1 568 5 is_stmt 1 view .LVU638
 568:Core/Src/ADBMS.cpp ****     cmd[2] = (uint8_t)(cmd_pec >> 8);
 2040              		.loc 1 568 25 is_stmt 0 view .LVU639
 2041 0030 0146     		mov	r1, r0
 2042 0032 0220     		movs	r0, #2
 2043              	.LVL226:
 568:Core/Src/ADBMS.cpp ****     cmd[2] = (uint8_t)(cmd_pec >> 8);
 2044              		.loc 1 568 25 view .LVU640
 2045 0034 FFF7FEFF 		bl	_Z10Pec15_CalchPh
 2046              	.LVL227:
 569:Core/Src/ADBMS.cpp ****     cmd[3] = (uint8_t)(cmd_pec);
 2047              		.loc 1 569 5 is_stmt 1 view .LVU641
 569:Core/Src/ADBMS.cpp ****     cmd[3] = (uint8_t)(cmd_pec);
 2048              		.loc 1 569 32 is_stmt 0 view .LVU642
 2049 0038 C0F30F23 		ubfx	r3, r0, #8, #16
 569:Core/Src/ADBMS.cpp ****     cmd[3] = (uint8_t)(cmd_pec);
 2050              		.loc 1 569 12 view .LVU643
 2051 003c B370     		strb	r3, [r6, #2]
 570:Core/Src/ADBMS.cpp ****     cmd_index = 4;
 2052              		.loc 1 570 5 is_stmt 1 view .LVU644
 570:Core/Src/ADBMS.cpp ****     cmd_index = 4;
 2053              		.loc 1 570 12 is_stmt 0 view .LVU645
 2054 003e F070     		strb	r0, [r6, #3]
 571:Core/Src/ADBMS.cpp ****     /* executes for each LTC68xx, this loops starts with the last IC on the stack */
 2055              		.loc 1 571 5 is_stmt 1 view .LVU646
 2056              	.LVL228:
 573:Core/Src/ADBMS.cpp ****     {
 2057              		.loc 1 573 5 view .LVU647
 571:Core/Src/ADBMS.cpp ****     /* executes for each LTC68xx, this loops starts with the last IC on the stack */
 2058              		.loc 1 571 15 is_stmt 0 view .LVU648
 2059 0040 0424     		movs	r4, #4
 2060              	.LVL229:
 2061              	.LBB60:
 573:Core/Src/ADBMS.cpp ****     {
 2062              		.loc 1 573 5 view .LVU649
 2063 0042 27E0     		b	.L132
 2064              	.LVL230:
 2065              	.L137:
 573:Core/Src/ADBMS.cpp ****     {
 2066              		.loc 1 573 5 view .LVU650
 2067              	.LBE60:
 2068              	.LBE59:
 561:Core/Src/ADBMS.cpp ****     exit(0);
 2069              		.loc 1 561 5 is_stmt 1 view .LVU651
 561:Core/Src/ADBMS.cpp ****     exit(0);
 2070              		.loc 1 561 11 is_stmt 0 view .LVU652
 2071 0044 2048     		ldr	r0, .L139
 2072              	.LVL231:
 561:Core/Src/ADBMS.cpp ****     exit(0);
ARM GAS  C:\Users\huawei\AppData\Local\Temp\ccpVCJY0.s 			page 60


 2073              		.loc 1 561 11 view .LVU653
 2074 0046 FFF7FEFF 		bl	puts
 2075              	.LVL232:
 562:Core/Src/ADBMS.cpp ****   }
 2076              		.loc 1 562 5 is_stmt 1 view .LVU654
 562:Core/Src/ADBMS.cpp ****   }
 2077              		.loc 1 562 9 is_stmt 0 view .LVU655
 2078 004a 0020     		movs	r0, #0
 2079 004c FFF7FEFF 		bl	exit
 2080              	.LVL233:
 2081              	.L134:
 2082              	.LBB66:
 2083              	.LBB65:
 2084              	.LBB61:
 2085              	.LBB62:
 579:Core/Src/ADBMS.cpp ****         cmd_index = cmd_index + 1;
 2086              		.loc 1 579 9 is_stmt 1 discriminator 3 view .LVU656
 579:Core/Src/ADBMS.cpp ****         cmd_index = cmd_index + 1;
 2087              		.loc 1 579 43 is_stmt 0 discriminator 3 view .LVU657
 2088 0050 6B1E     		subs	r3, r5, #1
 579:Core/Src/ADBMS.cpp ****         cmd_index = cmd_index + 1;
 2089              		.loc 1 579 46 discriminator 3 view .LVU658
 2090 0052 03EB4303 		add	r3, r3, r3, lsl #1
 579:Core/Src/ADBMS.cpp ****         cmd_index = cmd_index + 1;
 2091              		.loc 1 579 49 discriminator 3 view .LVU659
 2092 0056 02EB4303 		add	r3, r2, r3, lsl #1
 579:Core/Src/ADBMS.cpp ****         cmd_index = cmd_index + 1;
 2093              		.loc 1 579 62 discriminator 3 view .LVU660
 2094 005a FB5C     		ldrb	r3, [r7, r3]	@ zero_extendqisi2
 579:Core/Src/ADBMS.cpp ****         cmd_index = cmd_index + 1;
 2095              		.loc 1 579 24 discriminator 3 view .LVU661
 2096 005c 3355     		strb	r3, [r6, r4]
 580:Core/Src/ADBMS.cpp ****       }
 2097              		.loc 1 580 9 is_stmt 1 discriminator 3 view .LVU662
 580:Core/Src/ADBMS.cpp ****       }
 2098              		.loc 1 580 19 is_stmt 0 discriminator 3 view .LVU663
 2099 005e 0134     		adds	r4, r4, #1
 2100              	.LVL234:
 580:Core/Src/ADBMS.cpp ****       }
 2101              		.loc 1 580 19 discriminator 3 view .LVU664
 2102 0060 E4B2     		uxtb	r4, r4
 2103              	.LVL235:
 577:Core/Src/ADBMS.cpp ****       {
 2104              		.loc 1 577 7 is_stmt 1 discriminator 3 view .LVU665
 2105 0062 0132     		adds	r2, r2, #1
 2106              	.LVL236:
 577:Core/Src/ADBMS.cpp ****       {
 2107              		.loc 1 577 7 is_stmt 0 discriminator 3 view .LVU666
 2108 0064 D2B2     		uxtb	r2, r2
 2109              	.LVL237:
 2110              	.L133:
 577:Core/Src/ADBMS.cpp ****       {
 2111              		.loc 1 577 51 is_stmt 1 discriminator 1 view .LVU667
 2112 0066 052A     		cmp	r2, #5
 2113 0068 F2D9     		bls	.L134
 577:Core/Src/ADBMS.cpp ****       {
 2114              		.loc 1 577 51 is_stmt 0 discriminator 1 view .LVU668
ARM GAS  C:\Users\huawei\AppData\Local\Temp\ccpVCJY0.s 			page 61


 2115              	.LBE62:
 583:Core/Src/ADBMS.cpp ****       /* calculating the PEC for each Ics configuration register data */
 2116              		.loc 1 583 7 is_stmt 1 discriminator 2 view .LVU669
 583:Core/Src/ADBMS.cpp ****       /* calculating the PEC for each Ics configuration register data */
 2117              		.loc 1 583 29 is_stmt 0 discriminator 2 view .LVU670
 2118 006a 7B18     		adds	r3, r7, r1
 583:Core/Src/ADBMS.cpp ****       /* calculating the PEC for each Ics configuration register data */
 2119              		.loc 1 583 13 discriminator 2 view .LVU671
 2120 006c 7858     		ldr	r0, [r7, r1]	@ unaligned
 2121 006e 0090     		str	r0, [sp]
 2122 0070 9B88     		ldrh	r3, [r3, #4]	@ unaligned
 2123 0072 ADF80430 		strh	r3, [sp, #4]	@ unaligned
 585:Core/Src/ADBMS.cpp ****       cmd[cmd_index] = (uint8_t)(data_pec >> 8);
 2124              		.loc 1 585 7 is_stmt 1 discriminator 2 view .LVU672
 585:Core/Src/ADBMS.cpp ****       cmd[cmd_index] = (uint8_t)(data_pec >> 8);
 2125              		.loc 1 585 38 is_stmt 0 discriminator 2 view .LVU673
 2126 0076 6A46     		mov	r2, sp
 2127              	.LVL238:
 585:Core/Src/ADBMS.cpp ****       cmd[cmd_index] = (uint8_t)(data_pec >> 8);
 2128              		.loc 1 585 38 discriminator 2 view .LVU674
 2129 0078 0621     		movs	r1, #6
 2130              	.LVL239:
 585:Core/Src/ADBMS.cpp ****       cmd[cmd_index] = (uint8_t)(data_pec >> 8);
 2131              		.loc 1 585 38 discriminator 2 view .LVU675
 2132 007a 0120     		movs	r0, #1
 2133 007c FFF7FEFF 		bl	_Z10pec10_calcbiPh
 2134              	.LVL240:
 586:Core/Src/ADBMS.cpp ****       cmd_index = cmd_index + 1;
 2135              		.loc 1 586 7 is_stmt 1 discriminator 2 view .LVU676
 586:Core/Src/ADBMS.cpp ****       cmd_index = cmd_index + 1;
 2136              		.loc 1 586 43 is_stmt 0 discriminator 2 view .LVU677
 2137 0080 C0F30F23 		ubfx	r3, r0, #8, #16
 586:Core/Src/ADBMS.cpp ****       cmd_index = cmd_index + 1;
 2138              		.loc 1 586 22 discriminator 2 view .LVU678
 2139 0084 3355     		strb	r3, [r6, r4]
 587:Core/Src/ADBMS.cpp ****       cmd[cmd_index] = (uint8_t)data_pec;
 2140              		.loc 1 587 7 is_stmt 1 discriminator 2 view .LVU679
 587:Core/Src/ADBMS.cpp ****       cmd[cmd_index] = (uint8_t)data_pec;
 2141              		.loc 1 587 17 is_stmt 0 discriminator 2 view .LVU680
 2142 0086 631C     		adds	r3, r4, #1
 2143 0088 DBB2     		uxtb	r3, r3
 2144              	.LVL241:
 588:Core/Src/ADBMS.cpp ****       cmd_index = cmd_index + 1;
 2145              		.loc 1 588 7 is_stmt 1 discriminator 2 view .LVU681
 588:Core/Src/ADBMS.cpp ****       cmd_index = cmd_index + 1;
 2146              		.loc 1 588 22 is_stmt 0 discriminator 2 view .LVU682
 2147 008a F054     		strb	r0, [r6, r3]
 589:Core/Src/ADBMS.cpp ****     }
 2148              		.loc 1 589 7 is_stmt 1 discriminator 2 view .LVU683
 589:Core/Src/ADBMS.cpp ****     }
 2149              		.loc 1 589 17 is_stmt 0 discriminator 2 view .LVU684
 2150 008c 0234     		adds	r4, r4, #2
 2151 008e E4B2     		uxtb	r4, r4
 2152              	.LVL242:
 589:Core/Src/ADBMS.cpp ****     }
 2153              		.loc 1 589 17 discriminator 2 view .LVU685
 2154              	.LBE61:
ARM GAS  C:\Users\huawei\AppData\Local\Temp\ccpVCJY0.s 			page 62


 573:Core/Src/ADBMS.cpp ****     {
 2155              		.loc 1 573 5 is_stmt 1 discriminator 2 view .LVU686
 2156 0090 013D     		subs	r5, r5, #1
 2157              	.LVL243:
 573:Core/Src/ADBMS.cpp ****     {
 2158              		.loc 1 573 5 is_stmt 0 discriminator 2 view .LVU687
 2159 0092 EDB2     		uxtb	r5, r5
 2160              	.LVL244:
 2161              	.L132:
 573:Core/Src/ADBMS.cpp ****     {
 2162              		.loc 1 573 47 is_stmt 1 discriminator 1 view .LVU688
 2163 0094 35B1     		cbz	r5, .L138
 2164              	.LBB64:
 575:Core/Src/ADBMS.cpp ****       /* The first configuration written is received by the last IC in the daisy chain */
 2165              		.loc 1 575 7 view .LVU689
 575:Core/Src/ADBMS.cpp ****       /* The first configuration written is received by the last IC in the daisy chain */
 2166              		.loc 1 575 19 is_stmt 0 view .LVU690
 2167 0096 05EB4501 		add	r1, r5, r5, lsl #1
 2168 009a 4900     		lsls	r1, r1, #1
 2169 009c 0639     		subs	r1, r1, #6
 2170 009e C9B2     		uxtb	r1, r1
 2171              	.LVL245:
 577:Core/Src/ADBMS.cpp ****       {
 2172              		.loc 1 577 7 is_stmt 1 view .LVU691
 2173              	.LBB63:
 577:Core/Src/ADBMS.cpp ****       {
 2174              		.loc 1 577 20 is_stmt 0 view .LVU692
 2175 00a0 0022     		movs	r2, #0
 577:Core/Src/ADBMS.cpp ****       {
 2176              		.loc 1 577 7 view .LVU693
 2177 00a2 E0E7     		b	.L133
 2178              	.LVL246:
 2179              	.L138:
 577:Core/Src/ADBMS.cpp ****       {
 2180              		.loc 1 577 7 view .LVU694
 2181              	.LBE63:
 2182              	.LBE64:
 2183              	.LBE65:
 591:Core/Src/ADBMS.cpp ****     HAL_SPI_Transmit(hspi, &cmd[0], CMD_LEN, SPI_TIME_OUT); /* SPI1 , data, size, timeout */
 2184              		.loc 1 591 5 is_stmt 1 view .LVU695
 591:Core/Src/ADBMS.cpp ****     HAL_SPI_Transmit(hspi, &cmd[0], CMD_LEN, SPI_TIME_OUT); /* SPI1 , data, size, timeout */
 2185              		.loc 1 591 15 is_stmt 0 view .LVU696
 2186 00a4 FFF7FEFF 		bl	_Z10adBmsCsLowv
 2187              	.LVL247:
 592:Core/Src/ADBMS.cpp ****     adBmsCsHigh();
 2188              		.loc 1 592 5 is_stmt 1 view .LVU697
 592:Core/Src/ADBMS.cpp ****     adBmsCsHigh();
 2189              		.loc 1 592 21 is_stmt 0 view .LVU698
 2190 00a8 4FF0FF33 		mov	r3, #-1
 2191 00ac 4246     		mov	r2, r8
 2192 00ae 3146     		mov	r1, r6
 2193 00b0 0648     		ldr	r0, .L139+4
 2194 00b2 0068     		ldr	r0, [r0]
 2195 00b4 FFF7FEFF 		bl	HAL_SPI_Transmit
 2196              	.LVL248:
 593:Core/Src/ADBMS.cpp ****   }
 2197              		.loc 1 593 5 is_stmt 1 view .LVU699
ARM GAS  C:\Users\huawei\AppData\Local\Temp\ccpVCJY0.s 			page 63


 593:Core/Src/ADBMS.cpp ****   }
 2198              		.loc 1 593 16 is_stmt 0 view .LVU700
 2199 00b8 FFF7FEFF 		bl	_Z11adBmsCsHighv
 2200              	.LVL249:
 2201              	.LBE66:
 2202              	.LBE58:
 595:Core/Src/ADBMS.cpp **** }
 2203              		.loc 1 595 3 is_stmt 1 view .LVU701
 595:Core/Src/ADBMS.cpp **** }
 2204              		.loc 1 595 7 is_stmt 0 view .LVU702
 2205 00bc 3046     		mov	r0, r6
 2206 00be FFF7FEFF 		bl	free
 2207              	.LVL250:
 596:Core/Src/ADBMS.cpp **** 
 2208              		.loc 1 596 1 view .LVU703
 2209 00c2 02B0     		add	sp, sp, #8
 2210              	.LCFI15:
 2211              		.cfi_def_cfa_offset 24
 2212              		@ sp needed
 2213 00c4 BDE8F081 		pop	{r4, r5, r6, r7, r8, pc}
 2214              	.LVL251:
 2215              	.L140:
 596:Core/Src/ADBMS.cpp **** 
 2216              		.loc 1 596 1 view .LVU704
 2217              		.align	2
 2218              	.L139:
 2219 00c8 00000000 		.word	.LC3
 2220 00cc 00000000 		.word	hspi
 2221              		.cfi_endproc
 2222              	.LFE251:
 2223              		.fnend
 2225              		.section	.rodata._Z14adBmsWriteDatahP9cell_asicPh4TYPE3GRP.str1.4,"aMS",%progbits,1
 2226              		.align	2
 2227              	.LC4:
 2228 0000 20466169 		.ascii	" Failed to allocate write_buffer array memory \000"
 2228      6C656420 
 2228      746F2061 
 2228      6C6C6F63 
 2228      61746520 
 2229              		.section	.text._Z14adBmsWriteDatahP9cell_asicPh4TYPE3GRP,"ax",%progbits
 2230              		.align	1
 2231              		.global	_Z14adBmsWriteDatahP9cell_asicPh4TYPE3GRP
 2232              		.syntax unified
 2233              		.thumb
 2234              		.thumb_func
 2236              	_Z14adBmsWriteDatahP9cell_asicPh4TYPE3GRP:
 2237              		.fnstart
 2238              	.LVL252:
 2239              	.LFB249:
 352:Core/Src/ADBMS.cpp ****   uint8_t data_len = TX_DATA, write_size = (TX_DATA * tIC);
 2240              		.loc 1 352 1 is_stmt 1 view -0
 2241              		.cfi_startproc
 2242              		@ args = 4, pretend = 0, frame = 0
 2243              		@ frame_needed = 0, uses_anonymous_args = 0
 352:Core/Src/ADBMS.cpp ****   uint8_t data_len = TX_DATA, write_size = (TX_DATA * tIC);
 2244              		.loc 1 352 1 is_stmt 0 view .LVU706
 2245 0000 2DE9F843 		push	{r3, r4, r5, r6, r7, r8, r9, lr}
ARM GAS  C:\Users\huawei\AppData\Local\Temp\ccpVCJY0.s 			page 64


 2246              		.save {r3, r4, r5, r6, r7, r8, r9, lr}
 2247              	.LCFI16:
 2248              		.cfi_def_cfa_offset 32
 2249              		.cfi_offset 3, -32
 2250              		.cfi_offset 4, -28
 2251              		.cfi_offset 5, -24
 2252              		.cfi_offset 6, -20
 2253              		.cfi_offset 7, -16
 2254              		.cfi_offset 8, -12
 2255              		.cfi_offset 9, -8
 2256              		.cfi_offset 14, -4
 2257 0004 0646     		mov	r6, r0
 2258 0006 0C46     		mov	r4, r1
 2259 0008 1746     		mov	r7, r2
 2260 000a 9846     		mov	r8, r3
 2261 000c 9DF82090 		ldrb	r9, [sp, #32]	@ zero_extendqisi2
 353:Core/Src/ADBMS.cpp ****   uint8_t *write_buffer = (uint8_t *)calloc(write_size, sizeof(uint8_t));
 2262              		.loc 1 353 3 is_stmt 1 view .LVU707
 2263              	.LVL253:
 353:Core/Src/ADBMS.cpp ****   uint8_t *write_buffer = (uint8_t *)calloc(write_size, sizeof(uint8_t));
 2264              		.loc 1 353 31 is_stmt 0 view .LVU708
 2265 0010 00EB4000 		add	r0, r0, r0, lsl #1
 2266              	.LVL254:
 353:Core/Src/ADBMS.cpp ****   uint8_t *write_buffer = (uint8_t *)calloc(write_size, sizeof(uint8_t));
 2267              		.loc 1 353 31 view .LVU709
 2268 0014 4000     		lsls	r0, r0, #1
 2269              	.LVL255:
 354:Core/Src/ADBMS.cpp ****   if(write_buffer == NULL)
 2270              		.loc 1 354 3 is_stmt 1 view .LVU710
 354:Core/Src/ADBMS.cpp ****   if(write_buffer == NULL)
 2271              		.loc 1 354 44 is_stmt 0 view .LVU711
 2272 0016 0121     		movs	r1, #1
 2273              	.LVL256:
 354:Core/Src/ADBMS.cpp ****   if(write_buffer == NULL)
 2274              		.loc 1 354 44 view .LVU712
 2275 0018 00F0FE00 		and	r0, r0, #254
 2276              	.LVL257:
 354:Core/Src/ADBMS.cpp ****   if(write_buffer == NULL)
 2277              		.loc 1 354 44 view .LVU713
 2278 001c FFF7FEFF 		bl	calloc
 2279              	.LVL258:
 355:Core/Src/ADBMS.cpp ****   {
 2280              		.loc 1 355 3 is_stmt 1 view .LVU714
 2281              	.LBB67:
 2282 0020 50B1     		cbz	r0, .L179
 2283 0022 0546     		mov	r5, r0
 2284              	.LBE67:
 362:Core/Src/ADBMS.cpp ****     {
 2285              		.loc 1 362 5 view .LVU715
 2286              	.LBB97:
 2287              	.LBB68:
 2288 0024 A8F10403 		sub	r3, r8, #4
 2289 0028 072B     		cmp	r3, #7
 2290 002a 11D8     		bhi	.L143
 2291 002c DFE803F0 		tbb	[pc, r3]
 2292              	.L145:
 2293 0030 6E       		.byte	(.L148-.L145)/2
ARM GAS  C:\Users\huawei\AppData\Local\Temp\ccpVCJY0.s 			page 65


 2294 0031 10       		.byte	(.L143-.L145)/2
 2295 0032 10       		.byte	(.L143-.L145)/2
 2296 0033 10       		.byte	(.L143-.L145)/2
 2297 0034 0A       		.byte	(.L147-.L145)/2
 2298 0035 52       		.byte	(.L146-.L145)/2
 2299 0036 10       		.byte	(.L143-.L145)/2
 2300 0037 AE       		.byte	(.L144-.L145)/2
 2301              		.p2align 1
 2302              	.L179:
 362:Core/Src/ADBMS.cpp ****     {
 2303              		.loc 1 362 5 is_stmt 0 view .LVU716
 2304              	.LBE68:
 357:Core/Src/ADBMS.cpp ****     exit(0);
 2305              		.loc 1 357 5 is_stmt 1 view .LVU717
 357:Core/Src/ADBMS.cpp ****     exit(0);
 2306              		.loc 1 357 11 is_stmt 0 view .LVU718
 2307 0038 6348     		ldr	r0, .L180
 2308              	.LVL259:
 357:Core/Src/ADBMS.cpp ****     exit(0);
 2309              		.loc 1 357 11 view .LVU719
 2310 003a FFF7FEFF 		bl	puts
 2311              	.LVL260:
 358:Core/Src/ADBMS.cpp ****   }
 2312              		.loc 1 358 5 is_stmt 1 view .LVU720
 358:Core/Src/ADBMS.cpp ****   }
 2313              		.loc 1 358 9 is_stmt 0 view .LVU721
 2314 003e 0020     		movs	r0, #0
 2315 0040 FFF7FEFF 		bl	exit
 2316              	.LVL261:
 2317              	.L147:
 2318              	.LBB95:
 2319              	.LBB69:
 364:Core/Src/ADBMS.cpp ****       switch (group)
 2320              		.loc 1 364 5 is_stmt 1 view .LVU722
 365:Core/Src/ADBMS.cpp ****       {
 2321              		.loc 1 365 7 view .LVU723
 2322              	.LBB70:
 2323 0044 B9F1010F 		cmp	r9, #1
 2324 0048 0CD0     		beq	.L149
 2325 004a B9F1020F 		cmp	r9, #2
 2326 004e 25D0     		beq	.L150
 2327              	.LVL262:
 2328              	.L143:
 365:Core/Src/ADBMS.cpp ****       {
 2329              		.loc 1 365 7 is_stmt 0 view .LVU724
 2330              	.LBE70:
 2331              	.LBE69:
 2332              	.LBE95:
 2333              	.LBE97:
 442:Core/Src/ADBMS.cpp **** 
 2334              		.loc 1 442 3 is_stmt 1 view .LVU725
 442:Core/Src/ADBMS.cpp **** 
 2335              		.loc 1 442 15 is_stmt 0 view .LVU726
 2336 0050 2A46     		mov	r2, r5
 2337 0052 3946     		mov	r1, r7
 2338 0054 3046     		mov	r0, r6
 2339 0056 FFF7FEFF 		bl	_Z12spiWriteDatahPhS_
ARM GAS  C:\Users\huawei\AppData\Local\Temp\ccpVCJY0.s 			page 66


 2340              	.LVL263:
 444:Core/Src/ADBMS.cpp **** }
 2341              		.loc 1 444 3 is_stmt 1 view .LVU727
 444:Core/Src/ADBMS.cpp **** }
 2342              		.loc 1 444 7 is_stmt 0 view .LVU728
 2343 005a 2846     		mov	r0, r5
 2344 005c FFF7FEFF 		bl	free
 2345              	.LVL264:
 445:Core/Src/ADBMS.cpp **** 
 2346              		.loc 1 445 1 view .LVU729
 2347 0060 BDE8F883 		pop	{r3, r4, r5, r6, r7, r8, r9, pc}
 2348              	.LVL265:
 2349              	.L149:
 2350              	.LBB98:
 2351              	.LBB96:
 2352              	.LBB94:
 2353              	.LBB78:
 2354              	.LBB71:
 367:Core/Src/ADBMS.cpp ****         adBms6830CreateConfiga(tIC, &ic[0]);
 2355              		.loc 1 367 7 is_stmt 1 view .LVU730
 368:Core/Src/ADBMS.cpp ****         for (uint8_t cic = 0; cic < tIC; cic++)
 2356              		.loc 1 368 9 view .LVU731
 368:Core/Src/ADBMS.cpp ****         for (uint8_t cic = 0; cic < tIC; cic++)
 2357              		.loc 1 368 31 is_stmt 0 view .LVU732
 2358 0064 2146     		mov	r1, r4
 2359 0066 3046     		mov	r0, r6
 2360              	.LVL266:
 368:Core/Src/ADBMS.cpp ****         for (uint8_t cic = 0; cic < tIC; cic++)
 2361              		.loc 1 368 31 view .LVU733
 2362 0068 FFF7FEFF 		bl	_Z22adBms6830CreateConfigahP9cell_asic
 2363              	.LVL267:
 369:Core/Src/ADBMS.cpp ****         {
 2364              		.loc 1 369 9 is_stmt 1 view .LVU734
 2365              	.LBB72:
 369:Core/Src/ADBMS.cpp ****         {
 2366              		.loc 1 369 22 is_stmt 0 view .LVU735
 2367 006c 0020     		movs	r0, #0
 369:Core/Src/ADBMS.cpp ****         {
 2368              		.loc 1 369 9 view .LVU736
 2369 006e 11E0     		b	.L151
 2370              	.LVL268:
 2371              	.L152:
 2372              	.LBB73:
 373:Core/Src/ADBMS.cpp ****           }
 2373              		.loc 1 373 13 is_stmt 1 discriminator 3 view .LVU737
 373:Core/Src/ADBMS.cpp ****           }
 2374              		.loc 1 373 59 is_stmt 0 discriminator 3 view .LVU738
 2375 0070 4FF42872 		mov	r2, #672
 2376 0074 02FB0042 		mla	r2, r2, r0, r4
 373:Core/Src/ADBMS.cpp ****           }
 2377              		.loc 1 373 31 discriminator 3 view .LVU739
 2378 0078 00EB4001 		add	r1, r0, r0, lsl #1
 373:Core/Src/ADBMS.cpp ****           }
 2379              		.loc 1 373 43 discriminator 3 view .LVU740
 2380 007c 03EB4101 		add	r1, r3, r1, lsl #1
 373:Core/Src/ADBMS.cpp ****           }
 2381              		.loc 1 373 81 discriminator 3 view .LVU741
ARM GAS  C:\Users\huawei\AppData\Local\Temp\ccpVCJY0.s 			page 67


 2382 0080 1A44     		add	r2, r2, r3
 2383 0082 92F81F21 		ldrb	r2, [r2, #287]	@ zero_extendqisi2
 373:Core/Src/ADBMS.cpp ****           }
 2384              		.loc 1 373 51 discriminator 3 view .LVU742
 2385 0086 6A54     		strb	r2, [r5, r1]
 371:Core/Src/ADBMS.cpp ****           {
 2386              		.loc 1 371 11 is_stmt 1 discriminator 3 view .LVU743
 2387 0088 0133     		adds	r3, r3, #1
 2388              	.LVL269:
 371:Core/Src/ADBMS.cpp ****           {
 2389              		.loc 1 371 11 is_stmt 0 discriminator 3 view .LVU744
 2390 008a DBB2     		uxtb	r3, r3
 2391              	.LVL270:
 2392              	.L153:
 371:Core/Src/ADBMS.cpp ****           {
 2393              		.loc 1 371 39 is_stmt 1 discriminator 1 view .LVU745
 2394 008c 052B     		cmp	r3, #5
 2395 008e EFD9     		bls	.L152
 2396              	.LBE73:
 369:Core/Src/ADBMS.cpp ****         {
 2397              		.loc 1 369 9 discriminator 2 view .LVU746
 2398 0090 0130     		adds	r0, r0, #1
 2399              	.LVL271:
 369:Core/Src/ADBMS.cpp ****         {
 2400              		.loc 1 369 9 is_stmt 0 discriminator 2 view .LVU747
 2401 0092 C0B2     		uxtb	r0, r0
 2402              	.LVL272:
 2403              	.L151:
 369:Core/Src/ADBMS.cpp ****         {
 2404              		.loc 1 369 35 is_stmt 1 discriminator 1 view .LVU748
 2405 0094 B042     		cmp	r0, r6
 2406 0096 DBD2     		bcs	.L143
 2407              	.LBB74:
 371:Core/Src/ADBMS.cpp ****           {
 2408              		.loc 1 371 24 is_stmt 0 view .LVU749
 2409 0098 0023     		movs	r3, #0
 2410 009a F7E7     		b	.L153
 2411              	.LVL273:
 2412              	.L150:
 371:Core/Src/ADBMS.cpp ****           {
 2413              		.loc 1 371 24 view .LVU750
 2414              	.LBE74:
 2415              	.LBE72:
 377:Core/Src/ADBMS.cpp ****         adBms6830CreateConfigb(tIC, &ic[0]);
 2416              		.loc 1 377 7 is_stmt 1 view .LVU751
 378:Core/Src/ADBMS.cpp ****         for (uint8_t cic = 0; cic < tIC; cic++)
 2417              		.loc 1 378 9 view .LVU752
 378:Core/Src/ADBMS.cpp ****         for (uint8_t cic = 0; cic < tIC; cic++)
 2418              		.loc 1 378 31 is_stmt 0 view .LVU753
 2419 009c 2146     		mov	r1, r4
 2420 009e 3046     		mov	r0, r6
 2421              	.LVL274:
 378:Core/Src/ADBMS.cpp ****         for (uint8_t cic = 0; cic < tIC; cic++)
 2422              		.loc 1 378 31 view .LVU754
 2423 00a0 FFF7FEFF 		bl	_Z22adBms6830CreateConfigbhP9cell_asic
 2424              	.LVL275:
 379:Core/Src/ADBMS.cpp ****         {
ARM GAS  C:\Users\huawei\AppData\Local\Temp\ccpVCJY0.s 			page 68


 2425              		.loc 1 379 9 is_stmt 1 view .LVU755
 2426              	.LBB75:
 379:Core/Src/ADBMS.cpp ****         {
 2427              		.loc 1 379 22 is_stmt 0 view .LVU756
 2428 00a4 0020     		movs	r0, #0
 379:Core/Src/ADBMS.cpp ****         {
 2429              		.loc 1 379 9 view .LVU757
 2430 00a6 11E0     		b	.L154
 2431              	.LVL276:
 2432              	.L155:
 2433              	.LBB76:
 383:Core/Src/ADBMS.cpp ****           }
 2434              		.loc 1 383 13 is_stmt 1 discriminator 3 view .LVU758
 383:Core/Src/ADBMS.cpp ****           }
 2435              		.loc 1 383 59 is_stmt 0 discriminator 3 view .LVU759
 2436 00a8 4FF42872 		mov	r2, #672
 2437 00ac 02FB0042 		mla	r2, r2, r0, r4
 383:Core/Src/ADBMS.cpp ****           }
 2438              		.loc 1 383 31 discriminator 3 view .LVU760
 2439 00b0 00EB4001 		add	r1, r0, r0, lsl #1
 383:Core/Src/ADBMS.cpp ****           }
 2440              		.loc 1 383 43 discriminator 3 view .LVU761
 2441 00b4 03EB4101 		add	r1, r3, r1, lsl #1
 383:Core/Src/ADBMS.cpp ****           }
 2442              		.loc 1 383 81 discriminator 3 view .LVU762
 2443 00b8 1A44     		add	r2, r2, r3
 2444 00ba 92F82D21 		ldrb	r2, [r2, #301]	@ zero_extendqisi2
 383:Core/Src/ADBMS.cpp ****           }
 2445              		.loc 1 383 51 discriminator 3 view .LVU763
 2446 00be 6A54     		strb	r2, [r5, r1]
 381:Core/Src/ADBMS.cpp ****           {
 2447              		.loc 1 381 11 is_stmt 1 discriminator 3 view .LVU764
 2448 00c0 0133     		adds	r3, r3, #1
 2449              	.LVL277:
 381:Core/Src/ADBMS.cpp ****           {
 2450              		.loc 1 381 11 is_stmt 0 discriminator 3 view .LVU765
 2451 00c2 DBB2     		uxtb	r3, r3
 2452              	.LVL278:
 2453              	.L156:
 381:Core/Src/ADBMS.cpp ****           {
 2454              		.loc 1 381 39 is_stmt 1 discriminator 1 view .LVU766
 2455 00c4 052B     		cmp	r3, #5
 2456 00c6 EFD9     		bls	.L155
 2457              	.LBE76:
 379:Core/Src/ADBMS.cpp ****         {
 2458              		.loc 1 379 9 discriminator 2 view .LVU767
 2459 00c8 0130     		adds	r0, r0, #1
 2460              	.LVL279:
 379:Core/Src/ADBMS.cpp ****         {
 2461              		.loc 1 379 9 is_stmt 0 discriminator 2 view .LVU768
 2462 00ca C0B2     		uxtb	r0, r0
 2463              	.LVL280:
 2464              	.L154:
 379:Core/Src/ADBMS.cpp ****         {
 2465              		.loc 1 379 35 is_stmt 1 discriminator 1 view .LVU769
 2466 00cc B042     		cmp	r0, r6
 2467 00ce BFD2     		bcs	.L143
ARM GAS  C:\Users\huawei\AppData\Local\Temp\ccpVCJY0.s 			page 69


 2468              	.LBB77:
 381:Core/Src/ADBMS.cpp ****           {
 2469              		.loc 1 381 24 is_stmt 0 view .LVU770
 2470 00d0 0023     		movs	r3, #0
 2471 00d2 F7E7     		b	.L156
 2472              	.LVL281:
 2473              	.L146:
 381:Core/Src/ADBMS.cpp ****           {
 2474              		.loc 1 381 24 view .LVU771
 2475              	.LBE77:
 2476              	.LBE75:
 2477              	.LBE71:
 2478              	.LBE78:
 390:Core/Src/ADBMS.cpp ****       adBms6830CreateComm(tIC, &ic[0]);
 2479              		.loc 1 390 5 is_stmt 1 view .LVU772
 391:Core/Src/ADBMS.cpp ****       for (uint8_t cic = 0; cic < tIC; cic++)
 2480              		.loc 1 391 7 view .LVU773
 391:Core/Src/ADBMS.cpp ****       for (uint8_t cic = 0; cic < tIC; cic++)
 2481              		.loc 1 391 26 is_stmt 0 view .LVU774
 2482 00d4 2146     		mov	r1, r4
 2483 00d6 3046     		mov	r0, r6
 2484              	.LVL282:
 391:Core/Src/ADBMS.cpp ****       for (uint8_t cic = 0; cic < tIC; cic++)
 2485              		.loc 1 391 26 view .LVU775
 2486 00d8 FFF7FEFF 		bl	_Z19adBms6830CreateCommhP9cell_asic
 2487              	.LVL283:
 392:Core/Src/ADBMS.cpp ****       {
 2488              		.loc 1 392 7 is_stmt 1 view .LVU776
 2489              	.LBB79:
 392:Core/Src/ADBMS.cpp ****       {
 2490              		.loc 1 392 20 is_stmt 0 view .LVU777
 2491 00dc 0020     		movs	r0, #0
 392:Core/Src/ADBMS.cpp ****       {
 2492              		.loc 1 392 7 view .LVU778
 2493 00de 11E0     		b	.L157
 2494              	.LVL284:
 2495              	.L158:
 2496              	.LBB80:
 396:Core/Src/ADBMS.cpp ****         }
 2497              		.loc 1 396 11 is_stmt 1 discriminator 3 view .LVU779
 396:Core/Src/ADBMS.cpp ****         }
 2498              		.loc 1 396 57 is_stmt 0 discriminator 3 view .LVU780
 2499 00e0 4FF42872 		mov	r2, #672
 2500 00e4 02FB0042 		mla	r2, r2, r0, r4
 396:Core/Src/ADBMS.cpp ****         }
 2501              		.loc 1 396 29 discriminator 3 view .LVU781
 2502 00e8 00EB4001 		add	r1, r0, r0, lsl #1
 396:Core/Src/ADBMS.cpp ****         }
 2503              		.loc 1 396 41 discriminator 3 view .LVU782
 2504 00ec 03EB4101 		add	r1, r3, r1, lsl #1
 396:Core/Src/ADBMS.cpp ****         }
 2505              		.loc 1 396 75 discriminator 3 view .LVU783
 2506 00f0 1A44     		add	r2, r2, r3
 2507 00f2 92F85721 		ldrb	r2, [r2, #343]	@ zero_extendqisi2
 396:Core/Src/ADBMS.cpp ****         }
 2508              		.loc 1 396 49 discriminator 3 view .LVU784
 2509 00f6 6A54     		strb	r2, [r5, r1]
ARM GAS  C:\Users\huawei\AppData\Local\Temp\ccpVCJY0.s 			page 70


 394:Core/Src/ADBMS.cpp ****         {
 2510              		.loc 1 394 9 is_stmt 1 discriminator 3 view .LVU785
 2511 00f8 0133     		adds	r3, r3, #1
 2512              	.LVL285:
 394:Core/Src/ADBMS.cpp ****         {
 2513              		.loc 1 394 9 is_stmt 0 discriminator 3 view .LVU786
 2514 00fa DBB2     		uxtb	r3, r3
 2515              	.LVL286:
 2516              	.L159:
 394:Core/Src/ADBMS.cpp ****         {
 2517              		.loc 1 394 37 is_stmt 1 discriminator 1 view .LVU787
 2518 00fc 052B     		cmp	r3, #5
 2519 00fe EFD9     		bls	.L158
 2520              	.LBE80:
 392:Core/Src/ADBMS.cpp ****       {
 2521              		.loc 1 392 7 discriminator 2 view .LVU788
 2522 0100 0130     		adds	r0, r0, #1
 2523              	.LVL287:
 392:Core/Src/ADBMS.cpp ****       {
 2524              		.loc 1 392 7 is_stmt 0 discriminator 2 view .LVU789
 2525 0102 C0B2     		uxtb	r0, r0
 2526              	.LVL288:
 2527              	.L157:
 392:Core/Src/ADBMS.cpp ****       {
 2528              		.loc 1 392 33 is_stmt 1 discriminator 1 view .LVU790
 2529 0104 B042     		cmp	r0, r6
 2530 0106 A3D2     		bcs	.L143
 2531              	.LBB81:
 394:Core/Src/ADBMS.cpp ****         {
 2532              		.loc 1 394 22 is_stmt 0 view .LVU791
 2533 0108 0023     		movs	r3, #0
 2534 010a F7E7     		b	.L159
 2535              	.LVL289:
 2536              	.L148:
 394:Core/Src/ADBMS.cpp ****         {
 2537              		.loc 1 394 22 view .LVU792
 2538              	.LBE81:
 2539              	.LBE79:
 401:Core/Src/ADBMS.cpp ****       switch (group)
 2540              		.loc 1 401 5 is_stmt 1 view .LVU793
 402:Core/Src/ADBMS.cpp ****       {
 2541              		.loc 1 402 7 view .LVU794
 2542              	.LBB82:
 2543 010c B9F1010F 		cmp	r9, #1
 2544 0110 08D0     		beq	.L160
 2545 0112 B9F1020F 		cmp	r9, #2
 2546 0116 9BD1     		bne	.L143
 2547              	.LBB83:
 414:Core/Src/ADBMS.cpp ****         adBms6830CreatePwmb(tIC, &ic[0]);
 2548              		.loc 1 414 7 view .LVU795
 415:Core/Src/ADBMS.cpp ****         for (uint8_t cic = 0; cic < tIC; cic++)
 2549              		.loc 1 415 9 view .LVU796
 415:Core/Src/ADBMS.cpp ****         for (uint8_t cic = 0; cic < tIC; cic++)
 2550              		.loc 1 415 28 is_stmt 0 view .LVU797
 2551 0118 2146     		mov	r1, r4
 2552 011a 3046     		mov	r0, r6
 2553              	.LVL290:
ARM GAS  C:\Users\huawei\AppData\Local\Temp\ccpVCJY0.s 			page 71


 415:Core/Src/ADBMS.cpp ****         for (uint8_t cic = 0; cic < tIC; cic++)
 2554              		.loc 1 415 28 view .LVU798
 2555 011c FFF7FEFF 		bl	_Z19adBms6830CreatePwmbhP9cell_asic
 2556              	.LVL291:
 416:Core/Src/ADBMS.cpp ****         {
 2557              		.loc 1 416 9 is_stmt 1 view .LVU799
 2558              	.LBB84:
 416:Core/Src/ADBMS.cpp ****         {
 2559              		.loc 1 416 22 is_stmt 0 view .LVU800
 2560 0120 0020     		movs	r0, #0
 416:Core/Src/ADBMS.cpp ****         {
 2561              		.loc 1 416 9 view .LVU801
 2562 0122 2EE0     		b	.L165
 2563              	.LVL292:
 2564              	.L160:
 416:Core/Src/ADBMS.cpp ****         {
 2565              		.loc 1 416 9 view .LVU802
 2566              	.LBE84:
 404:Core/Src/ADBMS.cpp ****         adBms6830CreatePwma(tIC, &ic[0]);
 2567              		.loc 1 404 7 is_stmt 1 view .LVU803
 405:Core/Src/ADBMS.cpp ****         for (uint8_t cic = 0; cic < tIC; cic++)
 2568              		.loc 1 405 9 view .LVU804
 405:Core/Src/ADBMS.cpp ****         for (uint8_t cic = 0; cic < tIC; cic++)
 2569              		.loc 1 405 28 is_stmt 0 view .LVU805
 2570 0124 2146     		mov	r1, r4
 2571 0126 3046     		mov	r0, r6
 2572              	.LVL293:
 405:Core/Src/ADBMS.cpp ****         for (uint8_t cic = 0; cic < tIC; cic++)
 2573              		.loc 1 405 28 view .LVU806
 2574 0128 FFF7FEFF 		bl	_Z19adBms6830CreatePwmahP9cell_asic
 2575              	.LVL294:
 406:Core/Src/ADBMS.cpp ****         {
 2576              		.loc 1 406 9 is_stmt 1 view .LVU807
 2577              	.LBB87:
 406:Core/Src/ADBMS.cpp ****         {
 2578              		.loc 1 406 22 is_stmt 0 view .LVU808
 2579 012c 0020     		movs	r0, #0
 406:Core/Src/ADBMS.cpp ****         {
 2580              		.loc 1 406 9 view .LVU809
 2581 012e 11E0     		b	.L162
 2582              	.LVL295:
 2583              	.L163:
 2584              	.LBB88:
 410:Core/Src/ADBMS.cpp ****           }
 2585              		.loc 1 410 13 is_stmt 1 discriminator 3 view .LVU810
 410:Core/Src/ADBMS.cpp ****           }
 2586              		.loc 1 410 59 is_stmt 0 discriminator 3 view .LVU811
 2587 0130 4FF42872 		mov	r2, #672
 2588 0134 02FB0042 		mla	r2, r2, r0, r4
 410:Core/Src/ADBMS.cpp ****           }
 2589              		.loc 1 410 31 discriminator 3 view .LVU812
 2590 0138 00EB4001 		add	r1, r0, r0, lsl #1
 410:Core/Src/ADBMS.cpp ****           }
 2591              		.loc 1 410 43 discriminator 3 view .LVU813
 2592 013c 03EB4101 		add	r1, r3, r1, lsl #1
 410:Core/Src/ADBMS.cpp ****           }
 2593              		.loc 1 410 78 discriminator 3 view .LVU814
ARM GAS  C:\Users\huawei\AppData\Local\Temp\ccpVCJY0.s 			page 72


 2594 0140 1A44     		add	r2, r2, r3
 2595 0142 92F86521 		ldrb	r2, [r2, #357]	@ zero_extendqisi2
 410:Core/Src/ADBMS.cpp ****           }
 2596              		.loc 1 410 51 discriminator 3 view .LVU815
 2597 0146 6A54     		strb	r2, [r5, r1]
 408:Core/Src/ADBMS.cpp ****           {
 2598              		.loc 1 408 11 is_stmt 1 discriminator 3 view .LVU816
 2599 0148 0133     		adds	r3, r3, #1
 2600              	.LVL296:
 408:Core/Src/ADBMS.cpp ****           {
 2601              		.loc 1 408 11 is_stmt 0 discriminator 3 view .LVU817
 2602 014a DBB2     		uxtb	r3, r3
 2603              	.LVL297:
 2604              	.L164:
 408:Core/Src/ADBMS.cpp ****           {
 2605              		.loc 1 408 39 is_stmt 1 discriminator 1 view .LVU818
 2606 014c 052B     		cmp	r3, #5
 2607 014e EFD9     		bls	.L163
 2608              	.LBE88:
 406:Core/Src/ADBMS.cpp ****         {
 2609              		.loc 1 406 9 discriminator 2 view .LVU819
 2610 0150 0130     		adds	r0, r0, #1
 2611              	.LVL298:
 406:Core/Src/ADBMS.cpp ****         {
 2612              		.loc 1 406 9 is_stmt 0 discriminator 2 view .LVU820
 2613 0152 C0B2     		uxtb	r0, r0
 2614              	.LVL299:
 2615              	.L162:
 406:Core/Src/ADBMS.cpp ****         {
 2616              		.loc 1 406 35 is_stmt 1 discriminator 1 view .LVU821
 2617 0154 B042     		cmp	r0, r6
 2618 0156 BFF47BAF 		bcs	.L143
 2619              	.LBB89:
 408:Core/Src/ADBMS.cpp ****           {
 2620              		.loc 1 408 24 is_stmt 0 view .LVU822
 2621 015a 0023     		movs	r3, #0
 2622 015c F6E7     		b	.L164
 2623              	.LVL300:
 2624              	.L166:
 408:Core/Src/ADBMS.cpp ****           {
 2625              		.loc 1 408 24 view .LVU823
 2626              	.LBE89:
 2627              	.LBE87:
 2628              	.LBB90:
 2629              	.LBB85:
 420:Core/Src/ADBMS.cpp ****           }
 2630              		.loc 1 420 13 is_stmt 1 discriminator 3 view .LVU824
 420:Core/Src/ADBMS.cpp ****           }
 2631              		.loc 1 420 59 is_stmt 0 discriminator 3 view .LVU825
 2632 015e 4FF42872 		mov	r2, #672
 2633 0162 02FB0042 		mla	r2, r2, r0, r4
 420:Core/Src/ADBMS.cpp ****           }
 2634              		.loc 1 420 31 discriminator 3 view .LVU826
 2635 0166 00EB4001 		add	r1, r0, r0, lsl #1
 420:Core/Src/ADBMS.cpp ****           }
 2636              		.loc 1 420 43 discriminator 3 view .LVU827
 2637 016a 03EB4101 		add	r1, r3, r1, lsl #1
ARM GAS  C:\Users\huawei\AppData\Local\Temp\ccpVCJY0.s 			page 73


 420:Core/Src/ADBMS.cpp ****           }
 2638              		.loc 1 420 78 discriminator 3 view .LVU828
 2639 016e 1A44     		add	r2, r2, r3
 2640 0170 92F87321 		ldrb	r2, [r2, #371]	@ zero_extendqisi2
 420:Core/Src/ADBMS.cpp ****           }
 2641              		.loc 1 420 51 discriminator 3 view .LVU829
 2642 0174 6A54     		strb	r2, [r5, r1]
 418:Core/Src/ADBMS.cpp ****           {
 2643              		.loc 1 418 11 is_stmt 1 discriminator 3 view .LVU830
 2644 0176 0133     		adds	r3, r3, #1
 2645              	.LVL301:
 418:Core/Src/ADBMS.cpp ****           {
 2646              		.loc 1 418 11 is_stmt 0 discriminator 3 view .LVU831
 2647 0178 DBB2     		uxtb	r3, r3
 2648              	.LVL302:
 2649              	.L167:
 418:Core/Src/ADBMS.cpp ****           {
 2650              		.loc 1 418 39 is_stmt 1 discriminator 1 view .LVU832
 2651 017a 052B     		cmp	r3, #5
 2652 017c EFD9     		bls	.L166
 2653              	.LBE85:
 416:Core/Src/ADBMS.cpp ****         {
 2654              		.loc 1 416 9 discriminator 2 view .LVU833
 2655 017e 0130     		adds	r0, r0, #1
 2656              	.LVL303:
 416:Core/Src/ADBMS.cpp ****         {
 2657              		.loc 1 416 9 is_stmt 0 discriminator 2 view .LVU834
 2658 0180 C0B2     		uxtb	r0, r0
 2659              	.LVL304:
 2660              	.L165:
 416:Core/Src/ADBMS.cpp ****         {
 2661              		.loc 1 416 35 is_stmt 1 discriminator 1 view .LVU835
 2662 0182 B042     		cmp	r0, r6
 2663 0184 BFF464AF 		bcs	.L143
 2664              	.LBB86:
 418:Core/Src/ADBMS.cpp ****           {
 2665              		.loc 1 418 24 is_stmt 0 view .LVU836
 2666 0188 0023     		movs	r3, #0
 2667 018a F6E7     		b	.L167
 2668              	.LVL305:
 2669              	.L144:
 418:Core/Src/ADBMS.cpp ****           {
 2670              		.loc 1 418 24 view .LVU837
 2671              	.LBE86:
 2672              	.LBE90:
 2673              	.LBE83:
 2674              	.LBE82:
 427:Core/Src/ADBMS.cpp ****       adBms6830CreateClrflagData(tIC, &ic[0]);
 2675              		.loc 1 427 5 is_stmt 1 view .LVU838
 428:Core/Src/ADBMS.cpp ****       for (uint8_t cic = 0; cic < tIC; cic++)
 2676              		.loc 1 428 7 view .LVU839
 428:Core/Src/ADBMS.cpp ****       for (uint8_t cic = 0; cic < tIC; cic++)
 2677              		.loc 1 428 33 is_stmt 0 view .LVU840
 2678 018c 2146     		mov	r1, r4
 2679 018e 3046     		mov	r0, r6
 2680              	.LVL306:
 428:Core/Src/ADBMS.cpp ****       for (uint8_t cic = 0; cic < tIC; cic++)
ARM GAS  C:\Users\huawei\AppData\Local\Temp\ccpVCJY0.s 			page 74


 2681              		.loc 1 428 33 view .LVU841
 2682 0190 FFF7FEFF 		bl	_Z26adBms6830CreateClrflagDatahP9cell_asic
 2683              	.LVL307:
 429:Core/Src/ADBMS.cpp ****       {
 2684              		.loc 1 429 7 is_stmt 1 view .LVU842
 2685              	.LBB91:
 429:Core/Src/ADBMS.cpp ****       {
 2686              		.loc 1 429 20 is_stmt 0 view .LVU843
 2687 0194 0020     		movs	r0, #0
 429:Core/Src/ADBMS.cpp ****       {
 2688              		.loc 1 429 7 view .LVU844
 2689 0196 11E0     		b	.L168
 2690              	.LVL308:
 2691              	.L169:
 2692              	.LBB92:
 433:Core/Src/ADBMS.cpp ****         }
 2693              		.loc 1 433 11 is_stmt 1 discriminator 3 view .LVU845
 433:Core/Src/ADBMS.cpp ****         }
 2694              		.loc 1 433 57 is_stmt 0 discriminator 3 view .LVU846
 2695 0198 4FF42872 		mov	r2, #672
 2696 019c 02FB0042 		mla	r2, r2, r0, r4
 433:Core/Src/ADBMS.cpp ****         }
 2697              		.loc 1 433 29 discriminator 3 view .LVU847
 2698 01a0 00EB4001 		add	r1, r0, r0, lsl #1
 433:Core/Src/ADBMS.cpp ****         }
 2699              		.loc 1 433 41 discriminator 3 view .LVU848
 2700 01a4 03EB4101 		add	r1, r3, r1, lsl #1
 433:Core/Src/ADBMS.cpp ****         }
 2701              		.loc 1 433 79 discriminator 3 view .LVU849
 2702 01a8 1A44     		add	r2, r2, r3
 2703 01aa 92F83B21 		ldrb	r2, [r2, #315]	@ zero_extendqisi2
 433:Core/Src/ADBMS.cpp ****         }
 2704              		.loc 1 433 49 discriminator 3 view .LVU850
 2705 01ae 6A54     		strb	r2, [r5, r1]
 431:Core/Src/ADBMS.cpp ****         {
 2706              		.loc 1 431 9 is_stmt 1 discriminator 3 view .LVU851
 2707 01b0 0133     		adds	r3, r3, #1
 2708              	.LVL309:
 431:Core/Src/ADBMS.cpp ****         {
 2709              		.loc 1 431 9 is_stmt 0 discriminator 3 view .LVU852
 2710 01b2 DBB2     		uxtb	r3, r3
 2711              	.LVL310:
 2712              	.L170:
 431:Core/Src/ADBMS.cpp ****         {
 2713              		.loc 1 431 37 is_stmt 1 discriminator 1 view .LVU853
 2714 01b4 052B     		cmp	r3, #5
 2715 01b6 EFD9     		bls	.L169
 2716              	.LBE92:
 429:Core/Src/ADBMS.cpp ****       {
 2717              		.loc 1 429 7 discriminator 2 view .LVU854
 2718 01b8 0130     		adds	r0, r0, #1
 2719              	.LVL311:
 429:Core/Src/ADBMS.cpp ****       {
 2720              		.loc 1 429 7 is_stmt 0 discriminator 2 view .LVU855
 2721 01ba C0B2     		uxtb	r0, r0
 2722              	.LVL312:
 2723              	.L168:
ARM GAS  C:\Users\huawei\AppData\Local\Temp\ccpVCJY0.s 			page 75


 429:Core/Src/ADBMS.cpp ****       {
 2724              		.loc 1 429 33 is_stmt 1 discriminator 1 view .LVU856
 2725 01bc B042     		cmp	r0, r6
 2726 01be BFF447AF 		bcs	.L143
 2727              	.LBB93:
 431:Core/Src/ADBMS.cpp ****         {
 2728              		.loc 1 431 22 is_stmt 0 view .LVU857
 2729 01c2 0023     		movs	r3, #0
 2730 01c4 F6E7     		b	.L170
 2731              	.L181:
 2732 01c6 00BF     		.align	2
 2733              	.L180:
 2734 01c8 00000000 		.word	.LC4
 2735              	.LBE93:
 2736              	.LBE91:
 2737              	.LBE94:
 2738              	.LBE96:
 2739              	.LBE98:
 2740              		.cfi_endproc
 2741              	.LFE249:
 2742              		.fnend
 2744              		.section	.text._Z12adBmsPollAdcPh,"ax",%progbits
 2745              		.align	1
 2746              		.global	_Z12adBmsPollAdcPh
 2747              		.syntax unified
 2748              		.thumb
 2749              		.thumb_func
 2751              	_Z12adBmsPollAdcPh:
 2752              		.fnstart
 2753              	.LVL313:
 2754              	.LFB254:
 703:Core/Src/ADBMS.cpp **** 
 704:Core/Src/ADBMS.cpp **** /**
 705:Core/Src/ADBMS.cpp **** *******************************************************************************
 706:Core/Src/ADBMS.cpp **** * Function: adBmsPollAdc
 707:Core/Src/ADBMS.cpp **** * @brief PLADC Command.
 708:Core/Src/ADBMS.cpp **** *
 709:Core/Src/ADBMS.cpp **** * @details Send poll adc command and retun adc conversion count.
 710:Core/Src/ADBMS.cpp **** *
 711:Core/Src/ADBMS.cpp **** * Parameters:
 712:Core/Src/ADBMS.cpp **** *
 713:Core/Src/ADBMS.cpp **** * @param [in]  tIC      Total IC
 714:Core/Src/ADBMS.cpp **** *
 715:Core/Src/ADBMS.cpp **** * @param [in]  tx_cmd   Tx command byte
 716:Core/Src/ADBMS.cpp **** *
 717:Core/Src/ADBMS.cpp **** * @return None
 718:Core/Src/ADBMS.cpp **** *
 719:Core/Src/ADBMS.cpp **** *******************************************************************************
 720:Core/Src/ADBMS.cpp **** */
 721:Core/Src/ADBMS.cpp **** uint32_t adBmsPollAdc(uint8_t tx_cmd[2])
 722:Core/Src/ADBMS.cpp **** {
 2755              		.loc 1 722 1 is_stmt 1 view -0
 2756              		.cfi_startproc
 2757              		@ args = 0, pretend = 0, frame = 8
 2758              		@ frame_needed = 0, uses_anonymous_args = 0
 2759              		.loc 1 722 1 is_stmt 0 view .LVU859
 2760 0000 00B5     		push	{lr}
ARM GAS  C:\Users\huawei\AppData\Local\Temp\ccpVCJY0.s 			page 76


 2761              		.save {lr}
 2762              	.LCFI17:
 2763              		.cfi_def_cfa_offset 4
 2764              		.cfi_offset 14, -4
 2765              		.pad #12
 2766 0002 83B0     		sub	sp, sp, #12
 2767              	.LCFI18:
 2768              		.cfi_def_cfa_offset 16
 723:Core/Src/ADBMS.cpp ****   uint32_t conv_count = 0; // sure olcmek icindi kullanilmiyor
 2769              		.loc 1 723 3 is_stmt 1 view .LVU860
 2770              	.LVL314:
 724:Core/Src/ADBMS.cpp ****   uint8_t cmd[4];
 2771              		.loc 1 724 3 view .LVU861
 725:Core/Src/ADBMS.cpp ****   uint16_t cmd_pec;
 2772              		.loc 1 725 3 view .LVU862
 726:Core/Src/ADBMS.cpp ****   uint8_t read_data = 0x00;
 2773              		.loc 1 726 3 view .LVU863
 2774              		.loc 1 726 11 is_stmt 0 view .LVU864
 2775 0004 0023     		movs	r3, #0
 2776 0006 8DF80330 		strb	r3, [sp, #3]
 727:Core/Src/ADBMS.cpp ****   uint8_t SDO_Line = 0xFF;
 2777              		.loc 1 727 3 is_stmt 1 view .LVU865
 2778              	.LVL315:
 728:Core/Src/ADBMS.cpp ****   cmd[0] = tx_cmd[0];
 2779              		.loc 1 728 3 view .LVU866
 2780              		.loc 1 728 20 is_stmt 0 view .LVU867
 2781 000a 0378     		ldrb	r3, [r0]	@ zero_extendqisi2
 2782              		.loc 1 728 10 view .LVU868
 2783 000c 8DF80430 		strb	r3, [sp, #4]
 729:Core/Src/ADBMS.cpp ****   cmd[1] = tx_cmd[1];
 2784              		.loc 1 729 3 is_stmt 1 view .LVU869
 2785              		.loc 1 729 10 is_stmt 0 view .LVU870
 2786 0010 4378     		ldrb	r3, [r0, #1]	@ zero_extendqisi2
 2787 0012 8DF80530 		strb	r3, [sp, #5]
 730:Core/Src/ADBMS.cpp ****   cmd_pec = Pec15_Calc(2, cmd);
 2788              		.loc 1 730 3 is_stmt 1 view .LVU871
 2789              		.loc 1 730 23 is_stmt 0 view .LVU872
 2790 0016 01A9     		add	r1, sp, #4
 2791 0018 0220     		movs	r0, #2
 2792              	.LVL316:
 2793              		.loc 1 730 23 view .LVU873
 2794 001a FFF7FEFF 		bl	_Z10Pec15_CalchPh
 2795              	.LVL317:
 731:Core/Src/ADBMS.cpp ****   cmd[2] = (uint8_t)(cmd_pec >> 8);
 2796              		.loc 1 731 3 is_stmt 1 view .LVU874
 2797              		.loc 1 731 30 is_stmt 0 view .LVU875
 2798 001e C0F30F23 		ubfx	r3, r0, #8, #16
 2799              		.loc 1 731 10 view .LVU876
 2800 0022 8DF80630 		strb	r3, [sp, #6]
 732:Core/Src/ADBMS.cpp ****   cmd[3] = (uint8_t)(cmd_pec);
 2801              		.loc 1 732 3 is_stmt 1 view .LVU877
 2802              		.loc 1 732 10 is_stmt 0 view .LVU878
 2803 0026 8DF80700 		strb	r0, [sp, #7]
 733:Core/Src/ADBMS.cpp ****   adBmsCsLow();
 2804              		.loc 1 733 3 is_stmt 1 view .LVU879
 2805              		.loc 1 733 13 is_stmt 0 view .LVU880
 2806 002a FFF7FEFF 		bl	_Z10adBmsCsLowv
ARM GAS  C:\Users\huawei\AppData\Local\Temp\ccpVCJY0.s 			page 77


 2807              	.LVL318:
 734:Core/Src/ADBMS.cpp ****   HAL_SPI_Transmit(hspi, &cmd[0], 4, SPI_TIME_OUT);
 2808              		.loc 1 734 3 is_stmt 1 view .LVU881
 2809              		.loc 1 734 19 is_stmt 0 view .LVU882
 2810 002e 4FF0FF33 		mov	r3, #-1
 2811 0032 0422     		movs	r2, #4
 2812 0034 0DEB0201 		add	r1, sp, r2
 2813 0038 0B48     		ldr	r0, .L185
 2814 003a 0068     		ldr	r0, [r0]
 2815 003c FFF7FEFF 		bl	HAL_SPI_Transmit
 2816              	.LVL319:
 2817              	.L183:
 735:Core/Src/ADBMS.cpp ****   do{
 2818              		.loc 1 735 3 is_stmt 1 view .LVU883
 736:Core/Src/ADBMS.cpp ****     HAL_SPI_Receive(hspi, &read_data, 1, SPI_TIME_OUT);
 2819              		.loc 1 736 5 view .LVU884
 2820              		.loc 1 736 20 is_stmt 0 view .LVU885
 2821 0040 4FF0FF33 		mov	r3, #-1
 2822 0044 0122     		movs	r2, #1
 2823 0046 0DF10301 		add	r1, sp, #3
 2824 004a 0748     		ldr	r0, .L185
 2825 004c 0068     		ldr	r0, [r0]
 2826 004e FFF7FEFF 		bl	HAL_SPI_Receive
 2827              	.LVL320:
 737:Core/Src/ADBMS.cpp ****   }while(!(read_data == SDO_Line));
 2828              		.loc 1 737 10 is_stmt 1 view .LVU886
 2829 0052 9DF80330 		ldrb	r3, [sp, #3]	@ zero_extendqisi2
 2830 0056 FF2B     		cmp	r3, #255
 2831 0058 F2D1     		bne	.L183
 738:Core/Src/ADBMS.cpp ****   adBmsCsHigh();
 2832              		.loc 1 738 3 view .LVU887
 2833              		.loc 1 738 14 is_stmt 0 view .LVU888
 2834 005a FFF7FEFF 		bl	_Z11adBmsCsHighv
 2835              	.LVL321:
 739:Core/Src/ADBMS.cpp ****   return(conv_count);
 2836              		.loc 1 739 3 is_stmt 1 view .LVU889
 740:Core/Src/ADBMS.cpp **** }
 2837              		.loc 1 740 1 is_stmt 0 view .LVU890
 2838 005e 0020     		movs	r0, #0
 2839 0060 03B0     		add	sp, sp, #12
 2840              	.LCFI19:
 2841              		.cfi_def_cfa_offset 4
 2842              		@ sp needed
 2843 0062 5DF804FB 		ldr	pc, [sp], #4
 2844              	.L186:
 2845 0066 00BF     		.align	2
 2846              	.L185:
 2847 0068 00000000 		.word	hspi
 2848              		.cfi_endproc
 2849              	.LFE254:
 2850              		.fnend
 2852              		.section	.text._Z14adBms6830_Adcv2RD4CONT3DCP4RSTF6OW_C_S,"ax",%progbits
 2853              		.align	1
 2854              		.global	_Z14adBms6830_Adcv2RD4CONT3DCP4RSTF6OW_C_S
 2855              		.syntax unified
 2856              		.thumb
 2857              		.thumb_func
ARM GAS  C:\Users\huawei\AppData\Local\Temp\ccpVCJY0.s 			page 78


 2859              	_Z14adBms6830_Adcv2RD4CONT3DCP4RSTF6OW_C_S:
 2860              		.fnstart
 2861              	.LVL322:
 2862              	.LFB255:
 741:Core/Src/ADBMS.cpp **** 
 742:Core/Src/ADBMS.cpp **** /**
 743:Core/Src/ADBMS.cpp **** *******************************************************************************
 744:Core/Src/ADBMS.cpp **** * Function: adBms6830_Adcv
 745:Core/Src/ADBMS.cpp **** * @brief ADCV Command.
 746:Core/Src/ADBMS.cpp **** *
 747:Core/Src/ADBMS.cpp **** * @details Send adcv command to start cell voltage conversion.
 748:Core/Src/ADBMS.cpp **** *
 749:Core/Src/ADBMS.cpp **** * Parameters:
 750:Core/Src/ADBMS.cpp **** *
 751:Core/Src/ADBMS.cpp **** * @param [in]  RD      Enum type Read bit
 752:Core/Src/ADBMS.cpp **** *
 753:Core/Src/ADBMS.cpp **** * @param [in]  CONT   Enum type continuous measurement bit
 754:Core/Src/ADBMS.cpp **** *
 755:Core/Src/ADBMS.cpp **** * @param [in]  DCP   Enum type discharge bit
 756:Core/Src/ADBMS.cpp **** *
 757:Core/Src/ADBMS.cpp **** * @param [in]  RSTF   Enum type Reset filter
 758:Core/Src/ADBMS.cpp **** *
 759:Core/Src/ADBMS.cpp **** * @param [in]  OW_C_S   Enum type open wire c/s
 760:Core/Src/ADBMS.cpp **** *
 761:Core/Src/ADBMS.cpp **** * @return None
 762:Core/Src/ADBMS.cpp **** *
 763:Core/Src/ADBMS.cpp **** *******************************************************************************
 764:Core/Src/ADBMS.cpp **** */
 765:Core/Src/ADBMS.cpp **** void adBms6830_Adcv
 766:Core/Src/ADBMS.cpp **** (
 767:Core/Src/ADBMS.cpp **** RD rd,
 768:Core/Src/ADBMS.cpp **** CONT cont,
 769:Core/Src/ADBMS.cpp **** DCP dcp,
 770:Core/Src/ADBMS.cpp **** RSTF rstf,
 771:Core/Src/ADBMS.cpp **** OW_C_S owcs
 772:Core/Src/ADBMS.cpp **** )
 773:Core/Src/ADBMS.cpp **** {
 2863              		.loc 1 773 1 is_stmt 1 view -0
 2864              		.cfi_startproc
 2865              		@ args = 4, pretend = 0, frame = 8
 2866              		@ frame_needed = 0, uses_anonymous_args = 0
 2867              		.loc 1 773 1 is_stmt 0 view .LVU892
 2868 0000 00B5     		push	{lr}
 2869              		.save {lr}
 2870              	.LCFI20:
 2871              		.cfi_def_cfa_offset 4
 2872              		.cfi_offset 14, -4
 2873              		.pad #12
 2874 0002 83B0     		sub	sp, sp, #12
 2875              	.LCFI21:
 2876              		.cfi_def_cfa_offset 16
 774:Core/Src/ADBMS.cpp ****   uint8_t cmd[2];
 2877              		.loc 1 774 3 is_stmt 1 view .LVU893
 775:Core/Src/ADBMS.cpp ****   cmd[0] = 0x02 + rd;
 2878              		.loc 1 775 3 view .LVU894
 2879              		.loc 1 775 17 is_stmt 0 view .LVU895
 2880 0004 0230     		adds	r0, r0, #2
ARM GAS  C:\Users\huawei\AppData\Local\Temp\ccpVCJY0.s 			page 79


 2881              	.LVL323:
 2882              		.loc 1 775 10 view .LVU896
 2883 0006 8DF80400 		strb	r0, [sp, #4]
 776:Core/Src/ADBMS.cpp ****   cmd[1] = (cont<<7)+(dcp<<4)+(rstf<<2)+(owcs & 0x03) + 0x60;
 2884              		.loc 1 776 3 is_stmt 1 view .LVU897
 2885              		.loc 1 776 17 is_stmt 0 view .LVU898
 2886 000a C901     		lsls	r1, r1, #7
 2887              	.LVL324:
 2888              		.loc 1 776 17 view .LVU899
 2889 000c C9B2     		uxtb	r1, r1
 2890              		.loc 1 776 26 view .LVU900
 2891 000e 1201     		lsls	r2, r2, #4
 2892              	.LVL325:
 2893              		.loc 1 776 26 view .LVU901
 2894 0010 D2B2     		uxtb	r2, r2
 2895              		.loc 1 776 21 view .LVU902
 2896 0012 1144     		add	r1, r1, r2
 2897 0014 C9B2     		uxtb	r1, r1
 2898              		.loc 1 776 36 view .LVU903
 2899 0016 9B00     		lsls	r3, r3, #2
 2900              	.LVL326:
 2901              		.loc 1 776 36 view .LVU904
 2902 0018 DBB2     		uxtb	r3, r3
 2903              		.loc 1 776 30 view .LVU905
 2904 001a 0B44     		add	r3, r3, r1
 2905 001c DBB2     		uxtb	r3, r3
 2906              		.loc 1 776 47 view .LVU906
 2907 001e 9DF81020 		ldrb	r2, [sp, #16]	@ zero_extendqisi2
 2908 0022 02F00302 		and	r2, r2, #3
 2909              		.loc 1 776 40 view .LVU907
 2910 0026 1344     		add	r3, r3, r2
 2911 0028 DBB2     		uxtb	r3, r3
 2912              		.loc 1 776 55 view .LVU908
 2913 002a 6033     		adds	r3, r3, #96
 2914              		.loc 1 776 10 view .LVU909
 2915 002c 8DF80530 		strb	r3, [sp, #5]
 777:Core/Src/ADBMS.cpp ****   spiSendCmd(cmd);
 2916              		.loc 1 777 3 is_stmt 1 view .LVU910
 2917              		.loc 1 777 13 is_stmt 0 view .LVU911
 2918 0030 01A8     		add	r0, sp, #4
 2919 0032 FFF7FEFF 		bl	_Z10spiSendCmdPh
 2920              	.LVL327:
 778:Core/Src/ADBMS.cpp **** }
 2921              		.loc 1 778 1 view .LVU912
 2922 0036 03B0     		add	sp, sp, #12
 2923              	.LCFI22:
 2924              		.cfi_def_cfa_offset 4
 2925              		@ sp needed
 2926 0038 5DF804FB 		ldr	pc, [sp], #4
 2927              		.loc 1 778 1 view .LVU913
 2928              		.cfi_endproc
 2929              	.LFE255:
 2930              		.fnend
 2932              		.section	.text._Z14adBms6830_Adsv4CONT3DCP6OW_C_S,"ax",%progbits
 2933              		.align	1
 2934              		.global	_Z14adBms6830_Adsv4CONT3DCP6OW_C_S
 2935              		.syntax unified
ARM GAS  C:\Users\huawei\AppData\Local\Temp\ccpVCJY0.s 			page 80


 2936              		.thumb
 2937              		.thumb_func
 2939              	_Z14adBms6830_Adsv4CONT3DCP6OW_C_S:
 2940              		.fnstart
 2941              	.LVL328:
 2942              	.LFB256:
 779:Core/Src/ADBMS.cpp **** 
 780:Core/Src/ADBMS.cpp **** /**
 781:Core/Src/ADBMS.cpp **** *******************************************************************************
 782:Core/Src/ADBMS.cpp **** * Function: adBms6830_Adsv
 783:Core/Src/ADBMS.cpp **** * @brief ADSV Command.
 784:Core/Src/ADBMS.cpp **** *
 785:Core/Src/ADBMS.cpp **** * @details Send s_adcv command to start cell voltage conversion.
 786:Core/Src/ADBMS.cpp **** *
 787:Core/Src/ADBMS.cpp **** * Parameters:
 788:Core/Src/ADBMS.cpp **** *
 789:Core/Src/ADBMS.cpp **** * @param [in]  cont    Enum type continuous measurement bit
 790:Core/Src/ADBMS.cpp **** *
 791:Core/Src/ADBMS.cpp **** * @param [in]  dcp    Enum type discharge bit
 792:Core/Src/ADBMS.cpp **** *
 793:Core/Src/ADBMS.cpp **** * @param [in]  owcs   Enum type open wire c/s
 794:Core/Src/ADBMS.cpp **** *
 795:Core/Src/ADBMS.cpp **** * @return None
 796:Core/Src/ADBMS.cpp **** *
 797:Core/Src/ADBMS.cpp **** *******************************************************************************
 798:Core/Src/ADBMS.cpp **** */
 799:Core/Src/ADBMS.cpp **** void adBms6830_Adsv
 800:Core/Src/ADBMS.cpp **** (
 801:Core/Src/ADBMS.cpp **** CONT cont,
 802:Core/Src/ADBMS.cpp **** DCP dcp,
 803:Core/Src/ADBMS.cpp **** OW_C_S owcs
 804:Core/Src/ADBMS.cpp **** )
 805:Core/Src/ADBMS.cpp **** {
 2943              		.loc 1 805 1 is_stmt 1 view -0
 2944              		.cfi_startproc
 2945              		@ args = 0, pretend = 0, frame = 8
 2946              		@ frame_needed = 0, uses_anonymous_args = 0
 2947              		.loc 1 805 1 is_stmt 0 view .LVU915
 2948 0000 00B5     		push	{lr}
 2949              		.save {lr}
 2950              	.LCFI23:
 2951              		.cfi_def_cfa_offset 4
 2952              		.cfi_offset 14, -4
 2953              		.pad #12
 2954 0002 83B0     		sub	sp, sp, #12
 2955              	.LCFI24:
 2956              		.cfi_def_cfa_offset 16
 806:Core/Src/ADBMS.cpp ****   uint8_t cmd[2];
 2957              		.loc 1 806 3 is_stmt 1 view .LVU916
 807:Core/Src/ADBMS.cpp ****   cmd[0] = 0x01;
 2958              		.loc 1 807 3 view .LVU917
 2959              		.loc 1 807 10 is_stmt 0 view .LVU918
 2960 0004 0123     		movs	r3, #1
 2961 0006 8DF80430 		strb	r3, [sp, #4]
 808:Core/Src/ADBMS.cpp ****   cmd[1] = (cont<<7)+(dcp<<4)+(owcs &0x03) + 0x68;
 2962              		.loc 1 808 3 is_stmt 1 view .LVU919
 2963              		.loc 1 808 17 is_stmt 0 view .LVU920
ARM GAS  C:\Users\huawei\AppData\Local\Temp\ccpVCJY0.s 			page 81


 2964 000a C001     		lsls	r0, r0, #7
 2965              	.LVL329:
 2966              		.loc 1 808 17 view .LVU921
 2967 000c C0B2     		uxtb	r0, r0
 2968              		.loc 1 808 26 view .LVU922
 2969 000e 0901     		lsls	r1, r1, #4
 2970              	.LVL330:
 2971              		.loc 1 808 26 view .LVU923
 2972 0010 C9B2     		uxtb	r1, r1
 2973              		.loc 1 808 21 view .LVU924
 2974 0012 0844     		add	r0, r0, r1
 2975 0014 C0B2     		uxtb	r0, r0
 2976              		.loc 1 808 37 view .LVU925
 2977 0016 02F00302 		and	r2, r2, #3
 2978              	.LVL331:
 2979              		.loc 1 808 30 view .LVU926
 2980 001a 1044     		add	r0, r0, r2
 2981 001c C0B2     		uxtb	r0, r0
 2982              		.loc 1 808 44 view .LVU927
 2983 001e 6830     		adds	r0, r0, #104
 2984              		.loc 1 808 10 view .LVU928
 2985 0020 8DF80500 		strb	r0, [sp, #5]
 809:Core/Src/ADBMS.cpp ****   spiSendCmd(cmd);
 2986              		.loc 1 809 3 is_stmt 1 view .LVU929
 2987              		.loc 1 809 13 is_stmt 0 view .LVU930
 2988 0024 01A8     		add	r0, sp, #4
 2989 0026 FFF7FEFF 		bl	_Z10spiSendCmdPh
 2990              	.LVL332:
 810:Core/Src/ADBMS.cpp **** }
 2991              		.loc 1 810 1 view .LVU931
 2992 002a 03B0     		add	sp, sp, #12
 2993              	.LCFI25:
 2994              		.cfi_def_cfa_offset 4
 2995              		@ sp needed
 2996 002c 5DF804FB 		ldr	pc, [sp], #4
 2997              		.cfi_endproc
 2998              	.LFE256:
 2999              		.fnend
 3001              		.section	.text._Z14adBms6830_Adax6OW_AUX3PUP2CH,"ax",%progbits
 3002              		.align	1
 3003              		.global	_Z14adBms6830_Adax6OW_AUX3PUP2CH
 3004              		.syntax unified
 3005              		.thumb
 3006              		.thumb_func
 3008              	_Z14adBms6830_Adax6OW_AUX3PUP2CH:
 3009              		.fnstart
 3010              	.LVL333:
 3011              	.LFB257:
 811:Core/Src/ADBMS.cpp **** 
 812:Core/Src/ADBMS.cpp **** /**
 813:Core/Src/ADBMS.cpp **** *******************************************************************************
 814:Core/Src/ADBMS.cpp **** * Function: adBms6830_Adax
 815:Core/Src/ADBMS.cpp **** * @brief ADAX Command.
 816:Core/Src/ADBMS.cpp **** *
 817:Core/Src/ADBMS.cpp **** * @details Send Aux command to starts auxiliary conversion.
 818:Core/Src/ADBMS.cpp **** *
 819:Core/Src/ADBMS.cpp **** * Parameters:
ARM GAS  C:\Users\huawei\AppData\Local\Temp\ccpVCJY0.s 			page 82


 820:Core/Src/ADBMS.cpp **** *
 821:Core/Src/ADBMS.cpp **** * @param [in]  owcs    Enum type open wire c/s
 822:Core/Src/ADBMS.cpp **** *
 823:Core/Src/ADBMS.cpp **** * @param [in]  pup    Enum type Pull Down current during aux conversion
 824:Core/Src/ADBMS.cpp **** *
 825:Core/Src/ADBMS.cpp **** * @param [in]  ch    Enum type gpio Channel selection
 826:Core/Src/ADBMS.cpp **** *
 827:Core/Src/ADBMS.cpp **** * @return None
 828:Core/Src/ADBMS.cpp **** *
 829:Core/Src/ADBMS.cpp **** *******************************************************************************
 830:Core/Src/ADBMS.cpp **** */
 831:Core/Src/ADBMS.cpp **** void adBms6830_Adax
 832:Core/Src/ADBMS.cpp **** (
 833:Core/Src/ADBMS.cpp **** OW_AUX owaux,
 834:Core/Src/ADBMS.cpp **** PUP pup,
 835:Core/Src/ADBMS.cpp **** CH ch
 836:Core/Src/ADBMS.cpp **** )
 837:Core/Src/ADBMS.cpp **** {
 3012              		.loc 1 837 1 is_stmt 1 view -0
 3013              		.cfi_startproc
 3014              		@ args = 0, pretend = 0, frame = 8
 3015              		@ frame_needed = 0, uses_anonymous_args = 0
 3016              		.loc 1 837 1 is_stmt 0 view .LVU933
 3017 0000 00B5     		push	{lr}
 3018              		.save {lr}
 3019              	.LCFI26:
 3020              		.cfi_def_cfa_offset 4
 3021              		.cfi_offset 14, -4
 3022              		.pad #12
 3023 0002 83B0     		sub	sp, sp, #12
 3024              	.LCFI27:
 3025              		.cfi_def_cfa_offset 16
 838:Core/Src/ADBMS.cpp ****   uint8_t cmd[2];
 3026              		.loc 1 838 3 is_stmt 1 view .LVU934
 839:Core/Src/ADBMS.cpp ****   cmd[0] = 0x04 + owaux;
 3027              		.loc 1 839 3 view .LVU935
 3028              		.loc 1 839 17 is_stmt 0 view .LVU936
 3029 0004 0430     		adds	r0, r0, #4
 3030              	.LVL334:
 3031              		.loc 1 839 10 view .LVU937
 3032 0006 8DF80400 		strb	r0, [sp, #4]
 840:Core/Src/ADBMS.cpp ****   cmd[1] = (pup << 7) + (((ch >>4)&0x01)<<6) + (ch & 0x0F) + 0x10;
 3033              		.loc 1 840 3 is_stmt 1 view .LVU938
 3034              		.loc 1 840 17 is_stmt 0 view .LVU939
 3035 000a CB01     		lsls	r3, r1, #7
 3036 000c DBB2     		uxtb	r3, r3
 3037              		.loc 1 840 31 view .LVU940
 3038 000e 1109     		lsrs	r1, r2, #4
 3039              	.LVL335:
 3040              		.loc 1 840 41 view .LVU941
 3041 0010 8901     		lsls	r1, r1, #6
 3042 0012 01F04001 		and	r1, r1, #64
 3043              		.loc 1 840 23 view .LVU942
 3044 0016 0B44     		add	r3, r3, r1
 3045 0018 DBB2     		uxtb	r3, r3
 3046              		.loc 1 840 52 view .LVU943
 3047 001a 02F00F02 		and	r2, r2, #15
ARM GAS  C:\Users\huawei\AppData\Local\Temp\ccpVCJY0.s 			page 83


 3048              	.LVL336:
 3049              		.loc 1 840 46 view .LVU944
 3050 001e 1344     		add	r3, r3, r2
 3051 0020 DBB2     		uxtb	r3, r3
 3052              		.loc 1 840 60 view .LVU945
 3053 0022 1033     		adds	r3, r3, #16
 3054              		.loc 1 840 10 view .LVU946
 3055 0024 8DF80530 		strb	r3, [sp, #5]
 841:Core/Src/ADBMS.cpp ****   spiSendCmd(cmd);
 3056              		.loc 1 841 3 is_stmt 1 view .LVU947
 3057              		.loc 1 841 13 is_stmt 0 view .LVU948
 3058 0028 01A8     		add	r0, sp, #4
 3059 002a FFF7FEFF 		bl	_Z10spiSendCmdPh
 3060              	.LVL337:
 842:Core/Src/ADBMS.cpp **** }
 3061              		.loc 1 842 1 view .LVU949
 3062 002e 03B0     		add	sp, sp, #12
 3063              	.LCFI28:
 3064              		.cfi_def_cfa_offset 4
 3065              		@ sp needed
 3066 0030 5DF804FB 		ldr	pc, [sp], #4
 3067              		.cfi_endproc
 3068              	.LFE257:
 3069              		.fnend
 3071              		.section	.text._Z15adBms6830_Adax22CH,"ax",%progbits
 3072              		.align	1
 3073              		.global	_Z15adBms6830_Adax22CH
 3074              		.syntax unified
 3075              		.thumb
 3076              		.thumb_func
 3078              	_Z15adBms6830_Adax22CH:
 3079              		.fnstart
 3080              	.LVL338:
 3081              	.LFB258:
 843:Core/Src/ADBMS.cpp **** /**
 844:Core/Src/ADBMS.cpp **** *******************************************************************************
 845:Core/Src/ADBMS.cpp **** * Function: adBms6830_Adax2
 846:Core/Src/ADBMS.cpp **** * @brief ADAX2 Command.
 847:Core/Src/ADBMS.cpp **** *
 848:Core/Src/ADBMS.cpp **** * @details Send Aux2 command to starts auxiliary conversion.
 849:Core/Src/ADBMS.cpp **** *
 850:Core/Src/ADBMS.cpp **** * Parameters:
 851:Core/Src/ADBMS.cpp **** *
 852:Core/Src/ADBMS.cpp **** * @param [in]  ch    Enum type gpio Channel selection
 853:Core/Src/ADBMS.cpp **** *
 854:Core/Src/ADBMS.cpp **** * @return None
 855:Core/Src/ADBMS.cpp **** *
 856:Core/Src/ADBMS.cpp **** *******************************************************************************
 857:Core/Src/ADBMS.cpp **** */
 858:Core/Src/ADBMS.cpp **** void adBms6830_Adax2
 859:Core/Src/ADBMS.cpp **** (
 860:Core/Src/ADBMS.cpp **** CH ch
 861:Core/Src/ADBMS.cpp **** )
 862:Core/Src/ADBMS.cpp **** {
 3082              		.loc 1 862 1 is_stmt 1 view -0
 3083              		.cfi_startproc
 3084              		@ args = 0, pretend = 0, frame = 8
ARM GAS  C:\Users\huawei\AppData\Local\Temp\ccpVCJY0.s 			page 84


 3085              		@ frame_needed = 0, uses_anonymous_args = 0
 3086              		.loc 1 862 1 is_stmt 0 view .LVU951
 3087 0000 00B5     		push	{lr}
 3088              		.save {lr}
 3089              	.LCFI29:
 3090              		.cfi_def_cfa_offset 4
 3091              		.cfi_offset 14, -4
 3092              		.pad #12
 3093 0002 83B0     		sub	sp, sp, #12
 3094              	.LCFI30:
 3095              		.cfi_def_cfa_offset 16
 863:Core/Src/ADBMS.cpp ****   uint8_t cmd[2];
 3096              		.loc 1 863 3 is_stmt 1 view .LVU952
 864:Core/Src/ADBMS.cpp ****   cmd[0] = 0x04;
 3097              		.loc 1 864 3 view .LVU953
 3098              		.loc 1 864 10 is_stmt 0 view .LVU954
 3099 0004 0423     		movs	r3, #4
 3100 0006 8DF80430 		strb	r3, [sp, #4]
 865:Core/Src/ADBMS.cpp ****   cmd[1] = (ch & 0x0F);
 3101              		.loc 1 865 3 is_stmt 1 view .LVU955
 3102              		.loc 1 865 16 is_stmt 0 view .LVU956
 3103 000a 00F00F00 		and	r0, r0, #15
 3104              	.LVL339:
 3105              		.loc 1 865 10 view .LVU957
 3106 000e 8DF80500 		strb	r0, [sp, #5]
 866:Core/Src/ADBMS.cpp ****   spiSendCmd(cmd);
 3107              		.loc 1 866 3 is_stmt 1 view .LVU958
 3108              		.loc 1 866 13 is_stmt 0 view .LVU959
 3109 0012 0DEB0300 		add	r0, sp, r3
 3110 0016 FFF7FEFF 		bl	_Z10spiSendCmdPh
 3111              	.LVL340:
 867:Core/Src/ADBMS.cpp **** }
 3112              		.loc 1 867 1 view .LVU960
 3113 001a 03B0     		add	sp, sp, #12
 3114              	.LCFI31:
 3115              		.cfi_def_cfa_offset 4
 3116              		@ sp needed
 3117 001c 5DF804FB 		ldr	pc, [sp], #4
 3118              		.cfi_endproc
 3119              	.LFE258:
 3120              		.fnend
 3122              		.section	.rodata._Z32adBms6830_clear_cell_measurementh.str1.4,"aMS",%progbits,1
 3123              		.align	2
 3124              	.LC5:
 3125 0000 43656C6C 		.ascii	"Cell Registers Cleared\012\000"
 3125      20526567 
 3125      69737465 
 3125      72732043 
 3125      6C656172 
 3126              		.section	.text._Z32adBms6830_clear_cell_measurementh,"ax",%progbits
 3127              		.align	1
 3128              		.global	_Z32adBms6830_clear_cell_measurementh
 3129              		.syntax unified
 3130              		.thumb
 3131              		.thumb_func
 3133              	_Z32adBms6830_clear_cell_measurementh:
 3134              		.fnstart
ARM GAS  C:\Users\huawei\AppData\Local\Temp\ccpVCJY0.s 			page 85


 3135              	.LVL341:
 3136              	.LFB274:
 868:Core/Src/ADBMS.cpp **** 
 869:Core/Src/ADBMS.cpp **** /**
 870:Core/Src/ADBMS.cpp **** *******************************************************************************
 871:Core/Src/ADBMS.cpp **** * @brief Write and Read Configuration Register A/B
 872:Core/Src/ADBMS.cpp **** *******************************************************************************
 873:Core/Src/ADBMS.cpp **** */
 874:Core/Src/ADBMS.cpp **** void adBms6830_write_read_config(uint8_t tIC, cell_asic *ic)
 875:Core/Src/ADBMS.cpp **** {
 876:Core/Src/ADBMS.cpp ****   adBmsWakeupIc(tIC);
 877:Core/Src/ADBMS.cpp ****   adBmsWriteData(tIC, &ic[0], WRCFGA, Config, A);
 878:Core/Src/ADBMS.cpp ****   adBmsWriteData(tIC, &ic[0], WRCFGB, Config, B);
 879:Core/Src/ADBMS.cpp ****   adBmsReadData(tIC, &ic[0], RDCFGA, Config, A);
 880:Core/Src/ADBMS.cpp ****   adBmsReadData(tIC, &ic[0], RDCFGB, Config, B);
 881:Core/Src/ADBMS.cpp ****   printWriteConfig(tIC, &ic[0], Config, ALL_GRP);
 882:Core/Src/ADBMS.cpp ****   printReadConfig(tIC, &ic[0], Config, ALL_GRP);
 883:Core/Src/ADBMS.cpp **** }
 884:Core/Src/ADBMS.cpp **** 
 885:Core/Src/ADBMS.cpp **** /**
 886:Core/Src/ADBMS.cpp **** *******************************************************************************
 887:Core/Src/ADBMS.cpp **** * @brief Read Configuration Register A/B
 888:Core/Src/ADBMS.cpp **** *******************************************************************************
 889:Core/Src/ADBMS.cpp **** */
 890:Core/Src/ADBMS.cpp **** void adBms6830_read_config(uint8_t tIC, cell_asic *ic)
 891:Core/Src/ADBMS.cpp **** {
 892:Core/Src/ADBMS.cpp ****   adBmsWakeupIc(tIC);
 893:Core/Src/ADBMS.cpp ****   adBmsReadData(tIC, &ic[0], RDCFGA, Config, A);
 894:Core/Src/ADBMS.cpp ****   adBmsReadData(tIC, &ic[0], RDCFGB, Config, B);
 895:Core/Src/ADBMS.cpp ****   printReadConfig(tIC, &ic[0], Config, ALL_GRP);
 896:Core/Src/ADBMS.cpp **** }
 897:Core/Src/ADBMS.cpp **** 
 898:Core/Src/ADBMS.cpp **** /**
 899:Core/Src/ADBMS.cpp **** *******************************************************************************
 900:Core/Src/ADBMS.cpp **** * @brief Start ADC Cell Voltage Measurement
 901:Core/Src/ADBMS.cpp **** *******************************************************************************
 902:Core/Src/ADBMS.cpp **** */
 903:Core/Src/ADBMS.cpp **** void adBms6830_start_adc_cell_voltage_measurment(uint8_t tIC)
 904:Core/Src/ADBMS.cpp **** {
 905:Core/Src/ADBMS.cpp ****   adBmsWakeupIc(tIC);
 906:Core/Src/ADBMS.cpp ****   adBms6830_Adcv(REDUNDANT_MEASUREMENT, CONTINUOUS_MEASUREMENT, DISCHARGE_PERMITTED, RESET_FILTER, 
 907:Core/Src/ADBMS.cpp ****   pladc_count = adBmsPollAdc(PLADC);
 908:Core/Src/ADBMS.cpp ****   printf("Cell conversion completed\n");
 909:Core/Src/ADBMS.cpp **** 
 910:Core/Src/ADBMS.cpp ****   printPollAdcConvTime(pladc_count);
 911:Core/Src/ADBMS.cpp **** }
 912:Core/Src/ADBMS.cpp **** 
 913:Core/Src/ADBMS.cpp **** /**
 914:Core/Src/ADBMS.cpp **** *******************************************************************************
 915:Core/Src/ADBMS.cpp **** * @brief Read Cell Voltages
 916:Core/Src/ADBMS.cpp **** *******************************************************************************
 917:Core/Src/ADBMS.cpp **** */
 918:Core/Src/ADBMS.cpp **** void adBms6830_read_cell_voltages(uint8_t tIC, cell_asic *ic)
 919:Core/Src/ADBMS.cpp **** {
 920:Core/Src/ADBMS.cpp ****   adBmsWakeupIc(tIC);
 921:Core/Src/ADBMS.cpp ****   adBmsReadData(tIC, &ic[0], RDCVA, Cell, A);
 922:Core/Src/ADBMS.cpp ****   adBmsReadData(tIC, &ic[0], RDCVB, Cell, B);
ARM GAS  C:\Users\huawei\AppData\Local\Temp\ccpVCJY0.s 			page 86


 923:Core/Src/ADBMS.cpp ****   adBmsReadData(tIC, &ic[0], RDCVC, Cell, C);
 924:Core/Src/ADBMS.cpp ****   adBmsReadData(tIC, &ic[0], RDCVD, Cell, D);
 925:Core/Src/ADBMS.cpp ****   adBmsReadData(tIC, &ic[0], RDCVE, Cell, E);
 926:Core/Src/ADBMS.cpp ****   adBmsReadData(tIC, &ic[0], RDCVF, Cell, F);
 927:Core/Src/ADBMS.cpp ****   printVoltages(tIC, &ic[0], Cell);
 928:Core/Src/ADBMS.cpp **** }
 929:Core/Src/ADBMS.cpp **** 
 930:Core/Src/ADBMS.cpp **** /**
 931:Core/Src/ADBMS.cpp **** *******************************************************************************
 932:Core/Src/ADBMS.cpp **** * @brief Start ADC S-Voltage Measurement
 933:Core/Src/ADBMS.cpp **** *******************************************************************************
 934:Core/Src/ADBMS.cpp **** */
 935:Core/Src/ADBMS.cpp **** void adBms6830_start_adc_s_voltage_measurment(uint8_t tIC)
 936:Core/Src/ADBMS.cpp **** {
 937:Core/Src/ADBMS.cpp ****   adBmsWakeupIc(tIC);
 938:Core/Src/ADBMS.cpp ****   adBms6830_Adsv(CONTINUOUS_MEASUREMENT, DISCHARGE_PERMITTED, CELL_OPEN_WIRE_DETECTION);
 939:Core/Src/ADBMS.cpp ****   pladc_count = adBmsPollAdc(PLADC);
 940:Core/Src/ADBMS.cpp ****   printf("S-Voltage conversion completed\n");
 941:Core/Src/ADBMS.cpp **** 
 942:Core/Src/ADBMS.cpp ****   printPollAdcConvTime(pladc_count);
 943:Core/Src/ADBMS.cpp **** }
 944:Core/Src/ADBMS.cpp **** 
 945:Core/Src/ADBMS.cpp **** /**
 946:Core/Src/ADBMS.cpp **** *******************************************************************************
 947:Core/Src/ADBMS.cpp **** * @brief Read S-Voltages
 948:Core/Src/ADBMS.cpp **** *******************************************************************************
 949:Core/Src/ADBMS.cpp **** */
 950:Core/Src/ADBMS.cpp **** void adBms6830_read_s_voltages(uint8_t tIC, cell_asic *ic)
 951:Core/Src/ADBMS.cpp **** {
 952:Core/Src/ADBMS.cpp ****   adBmsWakeupIc(tIC);
 953:Core/Src/ADBMS.cpp ****   adBmsReadData(tIC, &ic[0], RDSVA, S_volt, A);
 954:Core/Src/ADBMS.cpp ****   adBmsReadData(tIC, &ic[0], RDSVB, S_volt, B);
 955:Core/Src/ADBMS.cpp ****   adBmsReadData(tIC, &ic[0], RDSVC, S_volt, C);
 956:Core/Src/ADBMS.cpp ****   adBmsReadData(tIC, &ic[0], RDSVD, S_volt, D);
 957:Core/Src/ADBMS.cpp ****   adBmsReadData(tIC, &ic[0], RDSVE, S_volt, E);
 958:Core/Src/ADBMS.cpp ****   adBmsReadData(tIC, &ic[0], RDSVF, S_volt, F);
 959:Core/Src/ADBMS.cpp ****   printVoltages(tIC, &ic[0], S_volt);
 960:Core/Src/ADBMS.cpp **** }
 961:Core/Src/ADBMS.cpp **** 
 962:Core/Src/ADBMS.cpp **** /**
 963:Core/Src/ADBMS.cpp **** *******************************************************************************
 964:Core/Src/ADBMS.cpp **** * @brief Start Avarage Cell Voltage Measurement
 965:Core/Src/ADBMS.cpp **** *******************************************************************************
 966:Core/Src/ADBMS.cpp **** */
 967:Core/Src/ADBMS.cpp **** void adBms6830_start_avgcell_voltage_measurment(uint8_t tIC)
 968:Core/Src/ADBMS.cpp **** {
 969:Core/Src/ADBMS.cpp ****   adBmsWakeupIc(tIC);
 970:Core/Src/ADBMS.cpp ****   adBms6830_Adcv(RD_ON, CONTINUOUS_MEASUREMENT, DISCHARGE_PERMITTED, RESET_FILTER, CELL_OPEN_WIRE_D
 971:Core/Src/ADBMS.cpp ****   pladc_count = adBmsPollAdc(PLADC);
 972:Core/Src/ADBMS.cpp ****   printf("Avg Cell voltage conversion completed\n");
 973:Core/Src/ADBMS.cpp **** 
 974:Core/Src/ADBMS.cpp ****   printPollAdcConvTime(pladc_count);
 975:Core/Src/ADBMS.cpp **** }
 976:Core/Src/ADBMS.cpp **** 
 977:Core/Src/ADBMS.cpp **** /**
 978:Core/Src/ADBMS.cpp **** *******************************************************************************
 979:Core/Src/ADBMS.cpp **** * @brief Read Avarage Cell Voltages
ARM GAS  C:\Users\huawei\AppData\Local\Temp\ccpVCJY0.s 			page 87


 980:Core/Src/ADBMS.cpp **** *******************************************************************************
 981:Core/Src/ADBMS.cpp **** */
 982:Core/Src/ADBMS.cpp **** void adBms6830_read_avgcell_voltages(uint8_t tIC, cell_asic *ic)
 983:Core/Src/ADBMS.cpp **** {
 984:Core/Src/ADBMS.cpp ****   adBmsWakeupIc(tIC);
 985:Core/Src/ADBMS.cpp ****   adBmsReadData(tIC, &ic[0], RDACA, AvgCell, A);
 986:Core/Src/ADBMS.cpp ****   adBmsReadData(tIC, &ic[0], RDACB, AvgCell, B);
 987:Core/Src/ADBMS.cpp ****   adBmsReadData(tIC, &ic[0], RDACC, AvgCell, C);
 988:Core/Src/ADBMS.cpp ****   adBmsReadData(tIC, &ic[0], RDACD, AvgCell, D);
 989:Core/Src/ADBMS.cpp ****   adBmsReadData(tIC, &ic[0], RDACE, AvgCell, E);
 990:Core/Src/ADBMS.cpp ****   adBmsReadData(tIC, &ic[0], RDACF, AvgCell, F);
 991:Core/Src/ADBMS.cpp ****   printVoltages(tIC, &ic[0], AvgCell);
 992:Core/Src/ADBMS.cpp **** }
 993:Core/Src/ADBMS.cpp **** 
 994:Core/Src/ADBMS.cpp **** /**
 995:Core/Src/ADBMS.cpp **** *******************************************************************************
 996:Core/Src/ADBMS.cpp **** * @brief Start Filtered Cell Voltages Measurement
 997:Core/Src/ADBMS.cpp **** *******************************************************************************
 998:Core/Src/ADBMS.cpp **** */
 999:Core/Src/ADBMS.cpp **** void adBms6830_start_fcell_voltage_measurment(uint8_t tIC)
1000:Core/Src/ADBMS.cpp **** {
1001:Core/Src/ADBMS.cpp ****   adBmsWakeupIc(tIC);
1002:Core/Src/ADBMS.cpp ****   adBms6830_Adcv(REDUNDANT_MEASUREMENT, CONTINUOUS_MEASUREMENT, DISCHARGE_PERMITTED, RESET_FILTER, 
1003:Core/Src/ADBMS.cpp ****   pladc_count = adBmsPollAdc(PLADC);
1004:Core/Src/ADBMS.cpp ****   printf("F Cell voltage conversion completed\n");
1005:Core/Src/ADBMS.cpp **** 
1006:Core/Src/ADBMS.cpp ****   printPollAdcConvTime(pladc_count);
1007:Core/Src/ADBMS.cpp **** }
1008:Core/Src/ADBMS.cpp **** 
1009:Core/Src/ADBMS.cpp **** /**
1010:Core/Src/ADBMS.cpp **** *******************************************************************************
1011:Core/Src/ADBMS.cpp **** * @brief Read Filtered Cell Voltages
1012:Core/Src/ADBMS.cpp **** *******************************************************************************
1013:Core/Src/ADBMS.cpp **** */
1014:Core/Src/ADBMS.cpp **** void adBms6830_read_fcell_voltages(uint8_t tIC, cell_asic *ic)
1015:Core/Src/ADBMS.cpp **** {
1016:Core/Src/ADBMS.cpp ****   adBmsWakeupIc(tIC);
1017:Core/Src/ADBMS.cpp ****   adBmsReadData(tIC, &ic[0], RDFCA, F_volt, A);
1018:Core/Src/ADBMS.cpp ****   adBmsReadData(tIC, &ic[0], RDFCB, F_volt, B);
1019:Core/Src/ADBMS.cpp ****   adBmsReadData(tIC, &ic[0], RDFCC, F_volt, C);
1020:Core/Src/ADBMS.cpp ****   adBmsReadData(tIC, &ic[0], RDFCD, F_volt, D);
1021:Core/Src/ADBMS.cpp ****   adBmsReadData(tIC, &ic[0], RDFCE, F_volt, E);
1022:Core/Src/ADBMS.cpp ****   adBmsReadData(tIC, &ic[0], RDFCF, F_volt, F);
1023:Core/Src/ADBMS.cpp ****   printVoltages(tIC, &ic[0], F_volt);
1024:Core/Src/ADBMS.cpp **** }
1025:Core/Src/ADBMS.cpp **** 
1026:Core/Src/ADBMS.cpp **** /**
1027:Core/Src/ADBMS.cpp **** *******************************************************************************
1028:Core/Src/ADBMS.cpp **** * @brief Start AUX, VMV, V+ Voltages Measurement
1029:Core/Src/ADBMS.cpp **** *******************************************************************************
1030:Core/Src/ADBMS.cpp **** */
1031:Core/Src/ADBMS.cpp **** void adBms6830_start_aux_voltage_measurment(uint8_t tIC, cell_asic *ic)
1032:Core/Src/ADBMS.cpp **** {
1033:Core/Src/ADBMS.cpp ****   for(uint8_t cic = 0; cic < tIC; cic++)
1034:Core/Src/ADBMS.cpp ****   {
1035:Core/Src/ADBMS.cpp ****     /* Init config A */
1036:Core/Src/ADBMS.cpp ****     ic[cic].tx_cfga.refon = PWR_UP;
ARM GAS  C:\Users\huawei\AppData\Local\Temp\ccpVCJY0.s 			page 88


1037:Core/Src/ADBMS.cpp ****     ic[cic].tx_cfga.gpo = 0X3FF; /* All GPIO pull down off */
1038:Core/Src/ADBMS.cpp ****   }
1039:Core/Src/ADBMS.cpp ****   adBmsWakeupIc(tIC);
1040:Core/Src/ADBMS.cpp ****   adBmsWriteData(tIC, &ic[0], WRCFGA, Config, A);
1041:Core/Src/ADBMS.cpp ****   adBms6830_Adax(AUX_OPEN_WIRE_DETECTION, OPEN_WIRE_CURRENT_SOURCE, AUX_CH_TO_CONVERT);
1042:Core/Src/ADBMS.cpp ****   pladc_count = adBmsPollAdc(PLADC);
1043:Core/Src/ADBMS.cpp ****   printf("Aux voltage conversion completed\n");
1044:Core/Src/ADBMS.cpp **** 
1045:Core/Src/ADBMS.cpp ****   printPollAdcConvTime(pladc_count);
1046:Core/Src/ADBMS.cpp **** }
1047:Core/Src/ADBMS.cpp **** 
1048:Core/Src/ADBMS.cpp **** /**
1049:Core/Src/ADBMS.cpp **** *******************************************************************************
1050:Core/Src/ADBMS.cpp **** * @brief Read AUX, VMV, V+ Voltages
1051:Core/Src/ADBMS.cpp **** *******************************************************************************
1052:Core/Src/ADBMS.cpp **** */
1053:Core/Src/ADBMS.cpp **** void adBms6830_read_aux_voltages(uint8_t tIC, cell_asic *ic)
1054:Core/Src/ADBMS.cpp **** {
1055:Core/Src/ADBMS.cpp ****   adBmsWakeupIc(tIC);
1056:Core/Src/ADBMS.cpp ****   adBmsReadData(tIC, &ic[0], RDAUXA, Aux, A);
1057:Core/Src/ADBMS.cpp ****   adBmsReadData(tIC, &ic[0], RDAUXB, Aux, B);
1058:Core/Src/ADBMS.cpp ****   adBmsReadData(tIC, &ic[0], RDAUXC, Aux, C);
1059:Core/Src/ADBMS.cpp ****   adBmsReadData(tIC, &ic[0], RDAUXD, Aux, D);
1060:Core/Src/ADBMS.cpp ****   printVoltages(tIC, &ic[0], Aux);
1061:Core/Src/ADBMS.cpp **** }
1062:Core/Src/ADBMS.cpp **** 
1063:Core/Src/ADBMS.cpp **** /**
1064:Core/Src/ADBMS.cpp **** *******************************************************************************
1065:Core/Src/ADBMS.cpp **** * @brief Start Redundant GPIO Voltages Measurement
1066:Core/Src/ADBMS.cpp **** *******************************************************************************
1067:Core/Src/ADBMS.cpp **** */
1068:Core/Src/ADBMS.cpp **** void adBms6830_start_raux_voltage_measurment(uint8_t tIC,  cell_asic *ic)
1069:Core/Src/ADBMS.cpp **** {
1070:Core/Src/ADBMS.cpp ****   for(uint8_t cic = 0; cic < tIC; cic++)
1071:Core/Src/ADBMS.cpp ****   {
1072:Core/Src/ADBMS.cpp ****     /* Init config A */
1073:Core/Src/ADBMS.cpp ****     ic[cic].tx_cfga.refon = PWR_UP;
1074:Core/Src/ADBMS.cpp ****     ic[cic].tx_cfga.gpo = 0X3FF; /* All GPIO pull down off */
1075:Core/Src/ADBMS.cpp ****   }
1076:Core/Src/ADBMS.cpp ****   adBmsWakeupIc(tIC);
1077:Core/Src/ADBMS.cpp ****   adBmsWriteData(tIC, &ic[0], WRCFGA, Config, A);
1078:Core/Src/ADBMS.cpp ****   adBms6830_Adax2(AUX_CH_TO_CONVERT);
1079:Core/Src/ADBMS.cpp ****   pladc_count = adBmsPollAdc(PLADC);
1080:Core/Src/ADBMS.cpp ****   printf("RAux voltage conversion completed\n");
1081:Core/Src/ADBMS.cpp **** 
1082:Core/Src/ADBMS.cpp ****   printPollAdcConvTime(pladc_count);
1083:Core/Src/ADBMS.cpp **** }
1084:Core/Src/ADBMS.cpp **** 
1085:Core/Src/ADBMS.cpp **** /**
1086:Core/Src/ADBMS.cpp **** *******************************************************************************
1087:Core/Src/ADBMS.cpp **** * @brief Read Redundant GPIO Voltages
1088:Core/Src/ADBMS.cpp **** *******************************************************************************
1089:Core/Src/ADBMS.cpp **** */
1090:Core/Src/ADBMS.cpp **** void adBms6830_read_raux_voltages(uint8_t tIC, cell_asic *ic)
1091:Core/Src/ADBMS.cpp **** {
1092:Core/Src/ADBMS.cpp ****   adBmsWakeupIc(tIC);
1093:Core/Src/ADBMS.cpp ****   adBmsReadData(tIC, &ic[0], RDRAXA, RAux, A);
ARM GAS  C:\Users\huawei\AppData\Local\Temp\ccpVCJY0.s 			page 89


1094:Core/Src/ADBMS.cpp ****   adBmsReadData(tIC, &ic[0], RDRAXB, RAux, B);
1095:Core/Src/ADBMS.cpp ****   adBmsReadData(tIC, &ic[0], RDRAXC, RAux, C);
1096:Core/Src/ADBMS.cpp ****   adBmsReadData(tIC, &ic[0], RDRAXD, RAux, D);
1097:Core/Src/ADBMS.cpp ****   printVoltages(tIC, &ic[0], RAux);
1098:Core/Src/ADBMS.cpp **** }
1099:Core/Src/ADBMS.cpp **** 
1100:Core/Src/ADBMS.cpp **** /**
1101:Core/Src/ADBMS.cpp **** *******************************************************************************
1102:Core/Src/ADBMS.cpp **** * @brief Read Status Reg. A, B, C, D and E.
1103:Core/Src/ADBMS.cpp **** *******************************************************************************
1104:Core/Src/ADBMS.cpp **** */
1105:Core/Src/ADBMS.cpp **** void adBms6830_read_status_registers(uint8_t tIC, cell_asic *ic)
1106:Core/Src/ADBMS.cpp **** {
1107:Core/Src/ADBMS.cpp ****   adBmsWakeupIc(tIC);
1108:Core/Src/ADBMS.cpp ****   adBmsWriteData(tIC, &ic[0], WRCFGA, Config, A);
1109:Core/Src/ADBMS.cpp ****   adBmsWriteData(tIC, &ic[0], WRCFGB, Config, B);
1110:Core/Src/ADBMS.cpp ****   adBms6830_Adax(AUX_OPEN_WIRE_DETECTION, OPEN_WIRE_CURRENT_SOURCE, AUX_CH_TO_CONVERT);
1111:Core/Src/ADBMS.cpp ****   pladc_count = adBmsPollAdc(PLADC);
1112:Core/Src/ADBMS.cpp ****   adBms6830_Adcv(REDUNDANT_MEASUREMENT, CONTINUOUS_MEASUREMENT, DISCHARGE_PERMITTED, RESET_FILTER, 
1113:Core/Src/ADBMS.cpp ****   pladc_count = pladc_count + adBmsPollAdc(PLADC);
1114:Core/Src/ADBMS.cpp **** 
1115:Core/Src/ADBMS.cpp ****   adBmsReadData(tIC, &ic[0], RDSTATA, Status, A);
1116:Core/Src/ADBMS.cpp ****   adBmsReadData(tIC, &ic[0], RDSTATB, Status, B);
1117:Core/Src/ADBMS.cpp ****   adBmsReadData(tIC, &ic[0], RDSTATC, Status, C);
1118:Core/Src/ADBMS.cpp ****   adBmsReadData(tIC, &ic[0], RDSTATD, Status, D);
1119:Core/Src/ADBMS.cpp ****   adBmsReadData(tIC, &ic[0], RDSTATE, Status, E);
1120:Core/Src/ADBMS.cpp ****   printPollAdcConvTime(pladc_count);
1121:Core/Src/ADBMS.cpp ****   printStatus(tIC, &ic[0], Status, ALL_GRP);
1122:Core/Src/ADBMS.cpp **** }
1123:Core/Src/ADBMS.cpp **** 
1124:Core/Src/ADBMS.cpp **** /**
1125:Core/Src/ADBMS.cpp **** *******************************************************************************
1126:Core/Src/ADBMS.cpp **** * @brief Clear Cell measurement reg.
1127:Core/Src/ADBMS.cpp **** *******************************************************************************
1128:Core/Src/ADBMS.cpp **** */
1129:Core/Src/ADBMS.cpp **** void adBms6830_clear_cell_measurement(uint8_t tIC)
1130:Core/Src/ADBMS.cpp **** {
 3137              		.loc 1 1130 1 is_stmt 1 view -0
 3138              		.cfi_startproc
 3139              		@ args = 0, pretend = 0, frame = 0
 3140              		@ frame_needed = 0, uses_anonymous_args = 0
 3141              		.loc 1 1130 1 is_stmt 0 view .LVU962
 3142 0000 08B5     		push	{r3, lr}
 3143              		.save {r3, lr}
 3144              	.LCFI32:
 3145              		.cfi_def_cfa_offset 8
 3146              		.cfi_offset 3, -8
 3147              		.cfi_offset 14, -4
1131:Core/Src/ADBMS.cpp ****   adBmsWakeupIc(tIC);
 3148              		.loc 1 1131 3 is_stmt 1 view .LVU963
 3149              		.loc 1 1131 16 is_stmt 0 view .LVU964
 3150 0002 FFF7FEFF 		bl	_Z13adBmsWakeupIch
 3151              	.LVL342:
1132:Core/Src/ADBMS.cpp ****   spiSendCmd(CLRCELL);
 3152              		.loc 1 1132 3 is_stmt 1 view .LVU965
 3153              		.loc 1 1132 13 is_stmt 0 view .LVU966
 3154 0006 0348     		ldr	r0, .L197
ARM GAS  C:\Users\huawei\AppData\Local\Temp\ccpVCJY0.s 			page 90


 3155 0008 FFF7FEFF 		bl	_Z10spiSendCmdPh
 3156              	.LVL343:
1133:Core/Src/ADBMS.cpp **** 
1134:Core/Src/ADBMS.cpp ****   printf("Cell Registers Cleared\n\n");
 3157              		.loc 1 1134 3 is_stmt 1 view .LVU967
 3158              		.loc 1 1134 9 is_stmt 0 view .LVU968
 3159 000c 0248     		ldr	r0, .L197+4
 3160 000e FFF7FEFF 		bl	puts
 3161              	.LVL344:
1135:Core/Src/ADBMS.cpp **** }
 3162              		.loc 1 1135 1 view .LVU969
 3163 0012 08BD     		pop	{r3, pc}
 3164              	.L198:
 3165              		.align	2
 3166              	.L197:
 3167 0014 00000000 		.word	CLRCELL
 3168 0018 00000000 		.word	.LC5
 3169              		.cfi_endproc
 3170              	.LFE274:
 3171              		.fnend
 3173              		.section	.rodata._Z31adBms6830_clear_aux_measurementh.str1.4,"aMS",%progbits,1
 3174              		.align	2
 3175              	.LC6:
 3176 0000 41757820 		.ascii	"Aux Registers Cleared\012\000"
 3176      52656769 
 3176      73746572 
 3176      7320436C 
 3176      65617265 
 3177              		.section	.text._Z31adBms6830_clear_aux_measurementh,"ax",%progbits
 3178              		.align	1
 3179              		.global	_Z31adBms6830_clear_aux_measurementh
 3180              		.syntax unified
 3181              		.thumb
 3182              		.thumb_func
 3184              	_Z31adBms6830_clear_aux_measurementh:
 3185              		.fnstart
 3186              	.LVL345:
 3187              	.LFB275:
1136:Core/Src/ADBMS.cpp **** 
1137:Core/Src/ADBMS.cpp **** /**
1138:Core/Src/ADBMS.cpp **** *******************************************************************************
1139:Core/Src/ADBMS.cpp **** * @brief Clear Aux measurement reg.
1140:Core/Src/ADBMS.cpp **** *******************************************************************************
1141:Core/Src/ADBMS.cpp **** */
1142:Core/Src/ADBMS.cpp **** void adBms6830_clear_aux_measurement(uint8_t tIC)
1143:Core/Src/ADBMS.cpp **** {
 3188              		.loc 1 1143 1 is_stmt 1 view -0
 3189              		.cfi_startproc
 3190              		@ args = 0, pretend = 0, frame = 0
 3191              		@ frame_needed = 0, uses_anonymous_args = 0
 3192              		.loc 1 1143 1 is_stmt 0 view .LVU971
 3193 0000 08B5     		push	{r3, lr}
 3194              		.save {r3, lr}
 3195              	.LCFI33:
 3196              		.cfi_def_cfa_offset 8
 3197              		.cfi_offset 3, -8
 3198              		.cfi_offset 14, -4
ARM GAS  C:\Users\huawei\AppData\Local\Temp\ccpVCJY0.s 			page 91


1144:Core/Src/ADBMS.cpp ****   adBmsWakeupIc(tIC);
 3199              		.loc 1 1144 3 is_stmt 1 view .LVU972
 3200              		.loc 1 1144 16 is_stmt 0 view .LVU973
 3201 0002 FFF7FEFF 		bl	_Z13adBmsWakeupIch
 3202              	.LVL346:
1145:Core/Src/ADBMS.cpp ****   spiSendCmd(CLRAUX);
 3203              		.loc 1 1145 3 is_stmt 1 view .LVU974
 3204              		.loc 1 1145 13 is_stmt 0 view .LVU975
 3205 0006 0348     		ldr	r0, .L201
 3206 0008 FFF7FEFF 		bl	_Z10spiSendCmdPh
 3207              	.LVL347:
1146:Core/Src/ADBMS.cpp **** 
1147:Core/Src/ADBMS.cpp ****   printf("Aux Registers Cleared\n\n");
 3208              		.loc 1 1147 3 is_stmt 1 view .LVU976
 3209              		.loc 1 1147 9 is_stmt 0 view .LVU977
 3210 000c 0248     		ldr	r0, .L201+4
 3211 000e FFF7FEFF 		bl	puts
 3212              	.LVL348:
1148:Core/Src/ADBMS.cpp **** }
 3213              		.loc 1 1148 1 view .LVU978
 3214 0012 08BD     		pop	{r3, pc}
 3215              	.L202:
 3216              		.align	2
 3217              	.L201:
 3218 0014 00000000 		.word	CLRAUX
 3219 0018 00000000 		.word	.LC6
 3220              		.cfi_endproc
 3221              	.LFE275:
 3222              		.fnend
 3224              		.section	.rodata._Z32adBms6830_clear_spin_measurementh.str1.4,"aMS",%progbits,1
 3225              		.align	2
 3226              	.LC7:
 3227 0000 5370696E 		.ascii	"Spin Registers Cleared\012\000"
 3227      20526567 
 3227      69737465 
 3227      72732043 
 3227      6C656172 
 3228              		.section	.text._Z32adBms6830_clear_spin_measurementh,"ax",%progbits
 3229              		.align	1
 3230              		.global	_Z32adBms6830_clear_spin_measurementh
 3231              		.syntax unified
 3232              		.thumb
 3233              		.thumb_func
 3235              	_Z32adBms6830_clear_spin_measurementh:
 3236              		.fnstart
 3237              	.LVL349:
 3238              	.LFB276:
1149:Core/Src/ADBMS.cpp **** 
1150:Core/Src/ADBMS.cpp **** /**
1151:Core/Src/ADBMS.cpp **** *******************************************************************************
1152:Core/Src/ADBMS.cpp **** * @brief Clear spin measurement reg.
1153:Core/Src/ADBMS.cpp **** *******************************************************************************
1154:Core/Src/ADBMS.cpp **** */
1155:Core/Src/ADBMS.cpp **** void adBms6830_clear_spin_measurement(uint8_t tIC)
1156:Core/Src/ADBMS.cpp **** {
 3239              		.loc 1 1156 1 is_stmt 1 view -0
 3240              		.cfi_startproc
ARM GAS  C:\Users\huawei\AppData\Local\Temp\ccpVCJY0.s 			page 92


 3241              		@ args = 0, pretend = 0, frame = 0
 3242              		@ frame_needed = 0, uses_anonymous_args = 0
 3243              		.loc 1 1156 1 is_stmt 0 view .LVU980
 3244 0000 08B5     		push	{r3, lr}
 3245              		.save {r3, lr}
 3246              	.LCFI34:
 3247              		.cfi_def_cfa_offset 8
 3248              		.cfi_offset 3, -8
 3249              		.cfi_offset 14, -4
1157:Core/Src/ADBMS.cpp ****   adBmsWakeupIc(tIC);
 3250              		.loc 1 1157 3 is_stmt 1 view .LVU981
 3251              		.loc 1 1157 16 is_stmt 0 view .LVU982
 3252 0002 FFF7FEFF 		bl	_Z13adBmsWakeupIch
 3253              	.LVL350:
1158:Core/Src/ADBMS.cpp ****   spiSendCmd(CLRSPIN);
 3254              		.loc 1 1158 3 is_stmt 1 view .LVU983
 3255              		.loc 1 1158 13 is_stmt 0 view .LVU984
 3256 0006 0348     		ldr	r0, .L205
 3257 0008 FFF7FEFF 		bl	_Z10spiSendCmdPh
 3258              	.LVL351:
1159:Core/Src/ADBMS.cpp **** 
1160:Core/Src/ADBMS.cpp ****   printf("Spin Registers Cleared\n\n");
 3259              		.loc 1 1160 3 is_stmt 1 view .LVU985
 3260              		.loc 1 1160 9 is_stmt 0 view .LVU986
 3261 000c 0248     		ldr	r0, .L205+4
 3262 000e FFF7FEFF 		bl	puts
 3263              	.LVL352:
1161:Core/Src/ADBMS.cpp **** }
 3264              		.loc 1 1161 1 view .LVU987
 3265 0012 08BD     		pop	{r3, pc}
 3266              	.L206:
 3267              		.align	2
 3268              	.L205:
 3269 0014 00000000 		.word	CLRSPIN
 3270 0018 00000000 		.word	.LC7
 3271              		.cfi_endproc
 3272              	.LFE276:
 3273              		.fnend
 3275              		.section	.rodata._Z33adBms6830_clear_fcell_measurementh.str1.4,"aMS",%progbits,1
 3276              		.align	2
 3277              	.LC8:
 3278 0000 4663656C 		.ascii	"Fcell Registers Cleared\012\000"
 3278      6C205265 
 3278      67697374 
 3278      65727320 
 3278      436C6561 
 3279              		.section	.text._Z33adBms6830_clear_fcell_measurementh,"ax",%progbits
 3280              		.align	1
 3281              		.global	_Z33adBms6830_clear_fcell_measurementh
 3282              		.syntax unified
 3283              		.thumb
 3284              		.thumb_func
 3286              	_Z33adBms6830_clear_fcell_measurementh:
 3287              		.fnstart
 3288              	.LVL353:
 3289              	.LFB277:
1162:Core/Src/ADBMS.cpp **** 
ARM GAS  C:\Users\huawei\AppData\Local\Temp\ccpVCJY0.s 			page 93


1163:Core/Src/ADBMS.cpp **** /**
1164:Core/Src/ADBMS.cpp **** *******************************************************************************
1165:Core/Src/ADBMS.cpp **** * @brief Clear fcell measurement reg.
1166:Core/Src/ADBMS.cpp **** *******************************************************************************
1167:Core/Src/ADBMS.cpp **** */
1168:Core/Src/ADBMS.cpp **** void adBms6830_clear_fcell_measurement(uint8_t tIC)
1169:Core/Src/ADBMS.cpp **** {
 3290              		.loc 1 1169 1 is_stmt 1 view -0
 3291              		.cfi_startproc
 3292              		@ args = 0, pretend = 0, frame = 0
 3293              		@ frame_needed = 0, uses_anonymous_args = 0
 3294              		.loc 1 1169 1 is_stmt 0 view .LVU989
 3295 0000 08B5     		push	{r3, lr}
 3296              		.save {r3, lr}
 3297              	.LCFI35:
 3298              		.cfi_def_cfa_offset 8
 3299              		.cfi_offset 3, -8
 3300              		.cfi_offset 14, -4
1170:Core/Src/ADBMS.cpp ****   adBmsWakeupIc(tIC);
 3301              		.loc 1 1170 3 is_stmt 1 view .LVU990
 3302              		.loc 1 1170 16 is_stmt 0 view .LVU991
 3303 0002 FFF7FEFF 		bl	_Z13adBmsWakeupIch
 3304              	.LVL354:
1171:Core/Src/ADBMS.cpp ****   spiSendCmd(CLRFC);
 3305              		.loc 1 1171 3 is_stmt 1 view .LVU992
 3306              		.loc 1 1171 13 is_stmt 0 view .LVU993
 3307 0006 0348     		ldr	r0, .L209
 3308 0008 FFF7FEFF 		bl	_Z10spiSendCmdPh
 3309              	.LVL355:
1172:Core/Src/ADBMS.cpp **** 
1173:Core/Src/ADBMS.cpp ****   printf("Fcell Registers Cleared\n\n");
 3310              		.loc 1 1173 3 is_stmt 1 view .LVU994
 3311              		.loc 1 1173 9 is_stmt 0 view .LVU995
 3312 000c 0248     		ldr	r0, .L209+4
 3313 000e FFF7FEFF 		bl	puts
 3314              	.LVL356:
1174:Core/Src/ADBMS.cpp **** }
 3315              		.loc 1 1174 1 view .LVU996
 3316 0012 08BD     		pop	{r3, pc}
 3317              	.L210:
 3318              		.align	2
 3319              	.L209:
 3320 0014 00000000 		.word	CLRFC
 3321 0018 00000000 		.word	.LC8
 3322              		.cfi_endproc
 3323              	.LFE277:
 3324              		.fnend
 3326              		.section	.rodata._Z16printWriteConfighP9cell_asic4TYPE3GRP.str1.4,"aMS",%progbits,1
 3327              		.align	2
 3328              	.LC9:
 3329 0000 49432564 		.ascii	"IC%d:\012\000"
 3329      3A0A00
 3330 0007 00       		.align	2
 3331              	.LC10:
 3332 0008 57726974 		.ascii	"Write Config A:\000"
 3332      6520436F 
 3332      6E666967 
ARM GAS  C:\Users\huawei\AppData\Local\Temp\ccpVCJY0.s 			page 94


 3332      20413A00 
 3333              		.align	2
 3334              	.LC11:
 3335 0018 30782558 		.ascii	"0x%X, \000"
 3335      2C2000
 3336 001f 00       		.align	2
 3337              	.LC12:
 3338 0020 30782558 		.ascii	"0x%X\012\012\000"
 3338      0A0A00
 3339 0027 00       		.align	2
 3340              	.LC13:
 3341 0028 57726974 		.ascii	"Write Config B:\000"
 3341      6520436F 
 3341      6E666967 
 3341      20423A00 
 3342              		.align	2
 3343              	.LC14:
 3344 0038 57726F6E 		.ascii	"Wrong Register Group Select\000"
 3344      67205265 
 3344      67697374 
 3344      65722047 
 3344      726F7570 
 3345              		.section	.text._Z16printWriteConfighP9cell_asic4TYPE3GRP,"ax",%progbits
 3346              		.align	1
 3347              		.global	_Z16printWriteConfighP9cell_asic4TYPE3GRP
 3348              		.syntax unified
 3349              		.thumb
 3350              		.thumb_func
 3352              	_Z16printWriteConfighP9cell_asic4TYPE3GRP:
 3353              		.fnstart
 3354              	.LVL357:
 3355              	.LFB278:
1175:Core/Src/ADBMS.cpp **** 
1176:Core/Src/ADBMS.cpp **** /**
1177:Core/Src/ADBMS.cpp ****  *******************************************************************************
1178:Core/Src/ADBMS.cpp ****  * Function: printWriteConfig
1179:Core/Src/ADBMS.cpp ****  * @brief Print write config A/B result.
1180:Core/Src/ADBMS.cpp ****  *
1181:Core/Src/ADBMS.cpp ****  * @details This function Print write config result into terminal.
1182:Core/Src/ADBMS.cpp ****  *
1183:Core/Src/ADBMS.cpp ****  * Parameters:
1184:Core/Src/ADBMS.cpp ****  * @param [in]	tIC      Total IC
1185:Core/Src/ADBMS.cpp ****  *
1186:Core/Src/ADBMS.cpp ****  * @param [in]  *IC      cell_asic stucture pointer
1187:Core/Src/ADBMS.cpp ****  *
1188:Core/Src/ADBMS.cpp ****  * @param [in]  type     Enum type of resistor
1189:Core/Src/ADBMS.cpp ****  *
1190:Core/Src/ADBMS.cpp ****  * @param [in]  grp      Enum type of resistor group
1191:Core/Src/ADBMS.cpp ****  *
1192:Core/Src/ADBMS.cpp ****  * @return None
1193:Core/Src/ADBMS.cpp ****  *
1194:Core/Src/ADBMS.cpp ****  *******************************************************************************
1195:Core/Src/ADBMS.cpp **** */
1196:Core/Src/ADBMS.cpp **** 
1197:Core/Src/ADBMS.cpp **** 
1198:Core/Src/ADBMS.cpp **** void printWriteConfig(uint8_t tIC, cell_asic *IC, TYPE type, GRP grp)
1199:Core/Src/ADBMS.cpp **** {
ARM GAS  C:\Users\huawei\AppData\Local\Temp\ccpVCJY0.s 			page 95


 3356              		.loc 1 1199 1 is_stmt 1 view -0
 3357              		.cfi_startproc
 3358              		@ args = 0, pretend = 0, frame = 0
 3359              		@ frame_needed = 0, uses_anonymous_args = 0
 3360              		.loc 1 1199 1 is_stmt 0 view .LVU998
 3361 0000 2DE9F84F 		push	{r3, r4, r5, r6, r7, r8, r9, r10, fp, lr}
 3362              		.save {r3, r4, r5, r6, r7, r8, r9, r10, fp, lr}
 3363              	.LCFI36:
 3364              		.cfi_def_cfa_offset 40
 3365              		.cfi_offset 3, -40
 3366              		.cfi_offset 4, -36
 3367              		.cfi_offset 5, -32
 3368              		.cfi_offset 6, -28
 3369              		.cfi_offset 7, -24
 3370              		.cfi_offset 8, -20
 3371              		.cfi_offset 9, -16
 3372              		.cfi_offset 10, -12
 3373              		.cfi_offset 11, -8
 3374              		.cfi_offset 14, -4
 3375 0004 0646     		mov	r6, r0
 3376 0006 8946     		mov	r9, r1
 3377 0008 1746     		mov	r7, r2
 3378 000a 9846     		mov	r8, r3
1200:Core/Src/ADBMS.cpp ****   for(uint8_t ic = 0; ic < tIC; ic++)
 3379              		.loc 1 1200 3 is_stmt 1 view .LVU999
 3380              	.LVL358:
 3381              	.LBB99:
 3382              		.loc 1 1200 15 is_stmt 0 view .LVU1000
 3383 000c 0024     		movs	r4, #0
 3384              		.loc 1 1200 3 view .LVU1001
 3385 000e 54E0     		b	.L212
 3386              	.LVL359:
 3387              	.L220:
1201:Core/Src/ADBMS.cpp ****   {
1202:Core/Src/ADBMS.cpp ****     printf("IC%d:\n",(ic+1));
1203:Core/Src/ADBMS.cpp ****     if(type == Config)
1204:Core/Src/ADBMS.cpp ****     {
1205:Core/Src/ADBMS.cpp ****       if(grp == A)
1206:Core/Src/ADBMS.cpp ****       {
1207:Core/Src/ADBMS.cpp ****         printf("Write Config A:\n");
 3388              		.loc 1 1207 9 is_stmt 1 view .LVU1002
 3389              		.loc 1 1207 15 is_stmt 0 view .LVU1003
 3390 0010 5948     		ldr	r0, .L222
 3391 0012 FFF7FEFF 		bl	puts
 3392              	.LVL360:
1208:Core/Src/ADBMS.cpp ****         printf("0x%X, ", IC[ic].configa.tx_data[0]);
 3393              		.loc 1 1208 9 is_stmt 1 view .LVU1004
 3394              		.loc 1 1208 31 is_stmt 0 view .LVU1005
 3395 0016 4FF42875 		mov	r5, #672
 3396 001a 05FB0495 		mla	r5, r5, r4, r9
 3397              		.loc 1 1208 15 view .LVU1006
 3398 001e DFF86CA1 		ldr	r10, .L222+20
 3399 0022 95F81F11 		ldrb	r1, [r5, #287]	@ zero_extendqisi2
 3400 0026 5046     		mov	r0, r10
 3401 0028 FFF7FEFF 		bl	printf
 3402              	.LVL361:
1209:Core/Src/ADBMS.cpp ****         printf("0x%X, ", IC[ic].configa.tx_data[1]);
ARM GAS  C:\Users\huawei\AppData\Local\Temp\ccpVCJY0.s 			page 96


 3403              		.loc 1 1209 9 is_stmt 1 view .LVU1007
 3404              		.loc 1 1209 15 is_stmt 0 view .LVU1008
 3405 002c 95F82011 		ldrb	r1, [r5, #288]	@ zero_extendqisi2
 3406 0030 5046     		mov	r0, r10
 3407 0032 FFF7FEFF 		bl	printf
 3408              	.LVL362:
1210:Core/Src/ADBMS.cpp ****         printf("0x%X, ", IC[ic].configa.tx_data[2]);
 3409              		.loc 1 1210 9 is_stmt 1 view .LVU1009
 3410              		.loc 1 1210 15 is_stmt 0 view .LVU1010
 3411 0036 95F82111 		ldrb	r1, [r5, #289]	@ zero_extendqisi2
 3412 003a 5046     		mov	r0, r10
 3413 003c FFF7FEFF 		bl	printf
 3414              	.LVL363:
1211:Core/Src/ADBMS.cpp ****         printf("0x%X, ", IC[ic].configa.tx_data[3]);
 3415              		.loc 1 1211 9 is_stmt 1 view .LVU1011
 3416              		.loc 1 1211 15 is_stmt 0 view .LVU1012
 3417 0040 95F82211 		ldrb	r1, [r5, #290]	@ zero_extendqisi2
 3418 0044 5046     		mov	r0, r10
 3419 0046 FFF7FEFF 		bl	printf
 3420              	.LVL364:
1212:Core/Src/ADBMS.cpp ****         printf("0x%X, ", IC[ic].configa.tx_data[4]);
 3421              		.loc 1 1212 9 is_stmt 1 view .LVU1013
 3422              		.loc 1 1212 15 is_stmt 0 view .LVU1014
 3423 004a 95F82311 		ldrb	r1, [r5, #291]	@ zero_extendqisi2
 3424 004e 5046     		mov	r0, r10
 3425 0050 FFF7FEFF 		bl	printf
 3426              	.LVL365:
1213:Core/Src/ADBMS.cpp ****         printf("0x%X\n\n", IC[ic].configa.tx_data[5]);
 3427              		.loc 1 1213 9 is_stmt 1 view .LVU1015
 3428              		.loc 1 1213 15 is_stmt 0 view .LVU1016
 3429 0054 95F82411 		ldrb	r1, [r5, #292]	@ zero_extendqisi2
 3430 0058 4848     		ldr	r0, .L222+4
 3431 005a FFF7FEFF 		bl	printf
 3432              	.LVL366:
 3433 005e 2AE0     		b	.L213
 3434              	.L221:
1214:Core/Src/ADBMS.cpp ****       }
1215:Core/Src/ADBMS.cpp ****       else if(grp == B)
1216:Core/Src/ADBMS.cpp ****       {
1217:Core/Src/ADBMS.cpp ****         printf("Write Config B:\n");
 3435              		.loc 1 1217 9 is_stmt 1 view .LVU1017
 3436              		.loc 1 1217 15 is_stmt 0 view .LVU1018
 3437 0060 4748     		ldr	r0, .L222+8
 3438 0062 FFF7FEFF 		bl	puts
 3439              	.LVL367:
1218:Core/Src/ADBMS.cpp ****         printf("0x%X, ", IC[ic].configb.tx_data[0]);
 3440              		.loc 1 1218 9 is_stmt 1 view .LVU1019
 3441              		.loc 1 1218 31 is_stmt 0 view .LVU1020
 3442 0066 4FF42875 		mov	r5, #672
 3443 006a 05FB0495 		mla	r5, r5, r4, r9
 3444              		.loc 1 1218 15 view .LVU1021
 3445 006e DFF81CA1 		ldr	r10, .L222+20
 3446 0072 95F82D11 		ldrb	r1, [r5, #301]	@ zero_extendqisi2
 3447 0076 5046     		mov	r0, r10
 3448 0078 FFF7FEFF 		bl	printf
 3449              	.LVL368:
1219:Core/Src/ADBMS.cpp ****         printf("0x%X, ", IC[ic].configb.tx_data[1]);
ARM GAS  C:\Users\huawei\AppData\Local\Temp\ccpVCJY0.s 			page 97


 3450              		.loc 1 1219 9 is_stmt 1 view .LVU1022
 3451              		.loc 1 1219 15 is_stmt 0 view .LVU1023
 3452 007c 95F82E11 		ldrb	r1, [r5, #302]	@ zero_extendqisi2
 3453 0080 5046     		mov	r0, r10
 3454 0082 FFF7FEFF 		bl	printf
 3455              	.LVL369:
1220:Core/Src/ADBMS.cpp ****         printf("0x%X, ", IC[ic].configb.tx_data[2]);
 3456              		.loc 1 1220 9 is_stmt 1 view .LVU1024
 3457              		.loc 1 1220 15 is_stmt 0 view .LVU1025
 3458 0086 95F82F11 		ldrb	r1, [r5, #303]	@ zero_extendqisi2
 3459 008a 5046     		mov	r0, r10
 3460 008c FFF7FEFF 		bl	printf
 3461              	.LVL370:
1221:Core/Src/ADBMS.cpp ****         printf("0x%X, ", IC[ic].configb.tx_data[3]);
 3462              		.loc 1 1221 9 is_stmt 1 view .LVU1026
 3463              		.loc 1 1221 15 is_stmt 0 view .LVU1027
 3464 0090 95F83011 		ldrb	r1, [r5, #304]	@ zero_extendqisi2
 3465 0094 5046     		mov	r0, r10
 3466 0096 FFF7FEFF 		bl	printf
 3467              	.LVL371:
1222:Core/Src/ADBMS.cpp ****         printf("0x%X, ", IC[ic].configb.tx_data[4]);
 3468              		.loc 1 1222 9 is_stmt 1 view .LVU1028
 3469              		.loc 1 1222 15 is_stmt 0 view .LVU1029
 3470 009a 95F83111 		ldrb	r1, [r5, #305]	@ zero_extendqisi2
 3471 009e 5046     		mov	r0, r10
 3472 00a0 FFF7FEFF 		bl	printf
 3473              	.LVL372:
1223:Core/Src/ADBMS.cpp ****         printf("0x%X\n\n", IC[ic].configb.tx_data[5]);
 3474              		.loc 1 1223 9 is_stmt 1 view .LVU1030
 3475              		.loc 1 1223 15 is_stmt 0 view .LVU1031
 3476 00a4 95F83211 		ldrb	r1, [r5, #306]	@ zero_extendqisi2
 3477 00a8 3448     		ldr	r0, .L222+4
 3478 00aa FFF7FEFF 		bl	printf
 3479              	.LVL373:
 3480 00ae 02E0     		b	.L213
 3481              	.L216:
1224:Core/Src/ADBMS.cpp ****       }
1225:Core/Src/ADBMS.cpp ****       else if(grp == ALL_GRP)
1226:Core/Src/ADBMS.cpp ****       {
1227:Core/Src/ADBMS.cpp ****         printf("Write Config A:\n");
1228:Core/Src/ADBMS.cpp ****         printf("0x%X, ", IC[ic].configa.tx_data[0]);
1229:Core/Src/ADBMS.cpp ****         printf("0x%X, ", IC[ic].configa.tx_data[1]);
1230:Core/Src/ADBMS.cpp ****         printf("0x%X, ", IC[ic].configa.tx_data[2]);
1231:Core/Src/ADBMS.cpp ****         printf("0x%X, ", IC[ic].configa.tx_data[3]);
1232:Core/Src/ADBMS.cpp ****         printf("0x%X, ", IC[ic].configa.tx_data[4]);
1233:Core/Src/ADBMS.cpp ****         printf("0x%X\n\n", IC[ic].configa.tx_data[5]);
1234:Core/Src/ADBMS.cpp **** 
1235:Core/Src/ADBMS.cpp ****         printf("Write Config B:\n");
1236:Core/Src/ADBMS.cpp ****         printf("0x%X, ", IC[ic].configb.tx_data[0]);
1237:Core/Src/ADBMS.cpp ****         printf("0x%X, ", IC[ic].configb.tx_data[1]);
1238:Core/Src/ADBMS.cpp ****         printf("0x%X, ", IC[ic].configb.tx_data[2]);
1239:Core/Src/ADBMS.cpp ****         printf("0x%X, ", IC[ic].configb.tx_data[3]);
1240:Core/Src/ADBMS.cpp ****         printf("0x%X, ", IC[ic].configb.tx_data[4]);
1241:Core/Src/ADBMS.cpp ****         printf("0x%X\n\n", IC[ic].configb.tx_data[5]);
1242:Core/Src/ADBMS.cpp ****       }
1243:Core/Src/ADBMS.cpp ****       else{ printf("Wrong Register Group Select\n"); }
 3482              		.loc 1 1243 13 is_stmt 1 view .LVU1032
ARM GAS  C:\Users\huawei\AppData\Local\Temp\ccpVCJY0.s 			page 98


 3483              		.loc 1 1243 19 is_stmt 0 view .LVU1033
 3484 00b0 3448     		ldr	r0, .L222+12
 3485 00b2 FFF7FEFF 		bl	puts
 3486              	.LVL374:
 3487              	.L213:
1200:Core/Src/ADBMS.cpp ****   {
 3488              		.loc 1 1200 3 is_stmt 1 discriminator 2 view .LVU1034
 3489 00b6 0134     		adds	r4, r4, #1
 3490              	.LVL375:
1200:Core/Src/ADBMS.cpp ****   {
 3491              		.loc 1 1200 3 is_stmt 0 discriminator 2 view .LVU1035
 3492 00b8 E4B2     		uxtb	r4, r4
 3493              	.LVL376:
 3494              	.L212:
1200:Core/Src/ADBMS.cpp ****   {
 3495              		.loc 1 1200 26 is_stmt 1 discriminator 1 view .LVU1036
 3496 00ba B442     		cmp	r4, r6
 3497 00bc 59D2     		bcs	.L219
1202:Core/Src/ADBMS.cpp ****     if(type == Config)
 3498              		.loc 1 1202 5 view .LVU1037
1202:Core/Src/ADBMS.cpp ****     if(type == Config)
 3499              		.loc 1 1202 11 is_stmt 0 view .LVU1038
 3500 00be 611C     		adds	r1, r4, #1
 3501 00c0 3148     		ldr	r0, .L222+16
 3502 00c2 FFF7FEFF 		bl	printf
 3503              	.LVL377:
1203:Core/Src/ADBMS.cpp ****     {
 3504              		.loc 1 1203 5 is_stmt 1 view .LVU1039
 3505 00c6 082F     		cmp	r7, #8
 3506 00c8 F5D1     		bne	.L213
1205:Core/Src/ADBMS.cpp ****       {
 3507              		.loc 1 1205 7 view .LVU1040
 3508 00ca B8F1010F 		cmp	r8, #1
 3509 00ce 9FD0     		beq	.L220
1215:Core/Src/ADBMS.cpp ****       {
 3510              		.loc 1 1215 12 view .LVU1041
 3511 00d0 B8F1020F 		cmp	r8, #2
 3512 00d4 C4D0     		beq	.L221
1225:Core/Src/ADBMS.cpp ****       {
 3513              		.loc 1 1225 12 view .LVU1042
 3514 00d6 B8F1000F 		cmp	r8, #0
 3515 00da E9D1     		bne	.L216
1227:Core/Src/ADBMS.cpp ****         printf("0x%X, ", IC[ic].configa.tx_data[0]);
 3516              		.loc 1 1227 9 view .LVU1043
1227:Core/Src/ADBMS.cpp ****         printf("0x%X, ", IC[ic].configa.tx_data[0]);
 3517              		.loc 1 1227 15 is_stmt 0 view .LVU1044
 3518 00dc 2648     		ldr	r0, .L222
 3519 00de FFF7FEFF 		bl	puts
 3520              	.LVL378:
1228:Core/Src/ADBMS.cpp ****         printf("0x%X, ", IC[ic].configa.tx_data[1]);
 3521              		.loc 1 1228 9 is_stmt 1 view .LVU1045
1228:Core/Src/ADBMS.cpp ****         printf("0x%X, ", IC[ic].configa.tx_data[1]);
 3522              		.loc 1 1228 31 is_stmt 0 view .LVU1046
 3523 00e2 4FF42875 		mov	r5, #672
 3524 00e6 05FB0495 		mla	r5, r5, r4, r9
1228:Core/Src/ADBMS.cpp ****         printf("0x%X, ", IC[ic].configa.tx_data[1]);
 3525              		.loc 1 1228 15 view .LVU1047
ARM GAS  C:\Users\huawei\AppData\Local\Temp\ccpVCJY0.s 			page 99


 3526 00ea DFF8A0A0 		ldr	r10, .L222+20
 3527 00ee 95F81F11 		ldrb	r1, [r5, #287]	@ zero_extendqisi2
 3528 00f2 5046     		mov	r0, r10
 3529 00f4 FFF7FEFF 		bl	printf
 3530              	.LVL379:
1229:Core/Src/ADBMS.cpp ****         printf("0x%X, ", IC[ic].configa.tx_data[2]);
 3531              		.loc 1 1229 9 is_stmt 1 view .LVU1048
1229:Core/Src/ADBMS.cpp ****         printf("0x%X, ", IC[ic].configa.tx_data[2]);
 3532              		.loc 1 1229 15 is_stmt 0 view .LVU1049
 3533 00f8 95F82011 		ldrb	r1, [r5, #288]	@ zero_extendqisi2
 3534 00fc 5046     		mov	r0, r10
 3535 00fe FFF7FEFF 		bl	printf
 3536              	.LVL380:
1230:Core/Src/ADBMS.cpp ****         printf("0x%X, ", IC[ic].configa.tx_data[3]);
 3537              		.loc 1 1230 9 is_stmt 1 view .LVU1050
1230:Core/Src/ADBMS.cpp ****         printf("0x%X, ", IC[ic].configa.tx_data[3]);
 3538              		.loc 1 1230 15 is_stmt 0 view .LVU1051
 3539 0102 95F82111 		ldrb	r1, [r5, #289]	@ zero_extendqisi2
 3540 0106 5046     		mov	r0, r10
 3541 0108 FFF7FEFF 		bl	printf
 3542              	.LVL381:
1231:Core/Src/ADBMS.cpp ****         printf("0x%X, ", IC[ic].configa.tx_data[4]);
 3543              		.loc 1 1231 9 is_stmt 1 view .LVU1052
1231:Core/Src/ADBMS.cpp ****         printf("0x%X, ", IC[ic].configa.tx_data[4]);
 3544              		.loc 1 1231 15 is_stmt 0 view .LVU1053
 3545 010c 95F82211 		ldrb	r1, [r5, #290]	@ zero_extendqisi2
 3546 0110 5046     		mov	r0, r10
 3547 0112 FFF7FEFF 		bl	printf
 3548              	.LVL382:
1232:Core/Src/ADBMS.cpp ****         printf("0x%X\n\n", IC[ic].configa.tx_data[5]);
 3549              		.loc 1 1232 9 is_stmt 1 view .LVU1054
1232:Core/Src/ADBMS.cpp ****         printf("0x%X\n\n", IC[ic].configa.tx_data[5]);
 3550              		.loc 1 1232 15 is_stmt 0 view .LVU1055
 3551 0116 95F82311 		ldrb	r1, [r5, #291]	@ zero_extendqisi2
 3552 011a 5046     		mov	r0, r10
 3553 011c FFF7FEFF 		bl	printf
 3554              	.LVL383:
1233:Core/Src/ADBMS.cpp **** 
 3555              		.loc 1 1233 9 is_stmt 1 view .LVU1056
1233:Core/Src/ADBMS.cpp **** 
 3556              		.loc 1 1233 15 is_stmt 0 view .LVU1057
 3557 0120 DFF858B0 		ldr	fp, .L222+4
 3558 0124 95F82411 		ldrb	r1, [r5, #292]	@ zero_extendqisi2
 3559 0128 5846     		mov	r0, fp
 3560 012a FFF7FEFF 		bl	printf
 3561              	.LVL384:
1235:Core/Src/ADBMS.cpp ****         printf("0x%X, ", IC[ic].configb.tx_data[0]);
 3562              		.loc 1 1235 9 is_stmt 1 view .LVU1058
1235:Core/Src/ADBMS.cpp ****         printf("0x%X, ", IC[ic].configb.tx_data[0]);
 3563              		.loc 1 1235 15 is_stmt 0 view .LVU1059
 3564 012e 1448     		ldr	r0, .L222+8
 3565 0130 FFF7FEFF 		bl	puts
 3566              	.LVL385:
1236:Core/Src/ADBMS.cpp ****         printf("0x%X, ", IC[ic].configb.tx_data[1]);
 3567              		.loc 1 1236 9 is_stmt 1 view .LVU1060
1236:Core/Src/ADBMS.cpp ****         printf("0x%X, ", IC[ic].configb.tx_data[1]);
 3568              		.loc 1 1236 15 is_stmt 0 view .LVU1061
ARM GAS  C:\Users\huawei\AppData\Local\Temp\ccpVCJY0.s 			page 100


 3569 0134 95F82D11 		ldrb	r1, [r5, #301]	@ zero_extendqisi2
 3570 0138 5046     		mov	r0, r10
 3571 013a FFF7FEFF 		bl	printf
 3572              	.LVL386:
1237:Core/Src/ADBMS.cpp ****         printf("0x%X, ", IC[ic].configb.tx_data[2]);
 3573              		.loc 1 1237 9 is_stmt 1 view .LVU1062
1237:Core/Src/ADBMS.cpp ****         printf("0x%X, ", IC[ic].configb.tx_data[2]);
 3574              		.loc 1 1237 15 is_stmt 0 view .LVU1063
 3575 013e 95F82E11 		ldrb	r1, [r5, #302]	@ zero_extendqisi2
 3576 0142 5046     		mov	r0, r10
 3577 0144 FFF7FEFF 		bl	printf
 3578              	.LVL387:
1238:Core/Src/ADBMS.cpp ****         printf("0x%X, ", IC[ic].configb.tx_data[3]);
 3579              		.loc 1 1238 9 is_stmt 1 view .LVU1064
1238:Core/Src/ADBMS.cpp ****         printf("0x%X, ", IC[ic].configb.tx_data[3]);
 3580              		.loc 1 1238 15 is_stmt 0 view .LVU1065
 3581 0148 95F82F11 		ldrb	r1, [r5, #303]	@ zero_extendqisi2
 3582 014c 5046     		mov	r0, r10
 3583 014e FFF7FEFF 		bl	printf
 3584              	.LVL388:
1239:Core/Src/ADBMS.cpp ****         printf("0x%X, ", IC[ic].configb.tx_data[4]);
 3585              		.loc 1 1239 9 is_stmt 1 view .LVU1066
1239:Core/Src/ADBMS.cpp ****         printf("0x%X, ", IC[ic].configb.tx_data[4]);
 3586              		.loc 1 1239 15 is_stmt 0 view .LVU1067
 3587 0152 95F83011 		ldrb	r1, [r5, #304]	@ zero_extendqisi2
 3588 0156 5046     		mov	r0, r10
 3589 0158 FFF7FEFF 		bl	printf
 3590              	.LVL389:
1240:Core/Src/ADBMS.cpp ****         printf("0x%X\n\n", IC[ic].configb.tx_data[5]);
 3591              		.loc 1 1240 9 is_stmt 1 view .LVU1068
1240:Core/Src/ADBMS.cpp ****         printf("0x%X\n\n", IC[ic].configb.tx_data[5]);
 3592              		.loc 1 1240 15 is_stmt 0 view .LVU1069
 3593 015c 95F83111 		ldrb	r1, [r5, #305]	@ zero_extendqisi2
 3594 0160 5046     		mov	r0, r10
 3595 0162 FFF7FEFF 		bl	printf
 3596              	.LVL390:
1241:Core/Src/ADBMS.cpp ****       }
 3597              		.loc 1 1241 9 is_stmt 1 view .LVU1070
1241:Core/Src/ADBMS.cpp ****       }
 3598              		.loc 1 1241 15 is_stmt 0 view .LVU1071
 3599 0166 95F83211 		ldrb	r1, [r5, #306]	@ zero_extendqisi2
 3600 016a 5846     		mov	r0, fp
 3601 016c FFF7FEFF 		bl	printf
 3602              	.LVL391:
 3603 0170 A1E7     		b	.L213
 3604              	.L219:
1241:Core/Src/ADBMS.cpp ****       }
 3605              		.loc 1 1241 15 view .LVU1072
 3606              	.LBE99:
1244:Core/Src/ADBMS.cpp ****     }
1245:Core/Src/ADBMS.cpp ****   }
1246:Core/Src/ADBMS.cpp **** }
 3607              		.loc 1 1246 1 view .LVU1073
 3608 0172 BDE8F88F 		pop	{r3, r4, r5, r6, r7, r8, r9, r10, fp, pc}
 3609              	.LVL392:
 3610              	.L223:
 3611              		.loc 1 1246 1 view .LVU1074
ARM GAS  C:\Users\huawei\AppData\Local\Temp\ccpVCJY0.s 			page 101


 3612 0176 00BF     		.align	2
 3613              	.L222:
 3614 0178 08000000 		.word	.LC10
 3615 017c 20000000 		.word	.LC12
 3616 0180 28000000 		.word	.LC13
 3617 0184 38000000 		.word	.LC14
 3618 0188 00000000 		.word	.LC9
 3619 018c 18000000 		.word	.LC11
 3620              		.cfi_endproc
 3621              	.LFE278:
 3622              		.fnend
 3624              		.section	.rodata._Z15printReadConfighP9cell_asic4TYPE3GRP.str1.4,"aMS",%progbits,1
 3625              		.align	2
 3626              	.LC15:
 3627 0000 52656164 		.ascii	"Read Config A:\000"
 3627      20436F6E 
 3627      66696720 
 3627      413A00
 3628 000f 00       		.align	2
 3629              	.LC16:
 3630 0010 5245464F 		.ascii	"REFON:0x%X, \000"
 3630      4E3A3078 
 3630      25582C20 
 3630      00
 3631 001d 000000   		.align	2
 3632              	.LC17:
 3633 0020 4354483A 		.ascii	"CTH:0x%X\012\000"
 3633      30782558 
 3633      0A00
 3634 002a 0000     		.align	2
 3635              	.LC18:
 3636 002c 464C4147 		.ascii	"FLAG_D[0]:0x%X, \000"
 3636      5F445B30 
 3636      5D3A3078 
 3636      25582C20 
 3636      00
 3637 003d 000000   		.align	2
 3638              	.LC19:
 3639 0040 464C4147 		.ascii	"FLAG_D[1]:0x%X, \000"
 3639      5F445B31 
 3639      5D3A3078 
 3639      25582C20 
 3639      00
 3640 0051 000000   		.align	2
 3641              	.LC20:
 3642 0054 464C4147 		.ascii	"FLAG_D[2]:0x%X, \000"
 3642      5F445B32 
 3642      5D3A3078 
 3642      25582C20 
 3642      00
 3643 0065 000000   		.align	2
 3644              	.LC21:
 3645 0068 464C4147 		.ascii	"FLAG_D[3]:0x%X, \000"
 3645      5F445B33 
 3645      5D3A3078 
 3645      25582C20 
 3645      00
ARM GAS  C:\Users\huawei\AppData\Local\Temp\ccpVCJY0.s 			page 102


 3646 0079 000000   		.align	2
 3647              	.LC22:
 3648 007c 464C4147 		.ascii	"FLAG_D[4]:0x%X, \000"
 3648      5F445B34 
 3648      5D3A3078 
 3648      25582C20 
 3648      00
 3649 008d 000000   		.align	2
 3650              	.LC23:
 3651 0090 464C4147 		.ascii	"FLAG_D[5]:0x%X, \000"
 3651      5F445B35 
 3651      5D3A3078 
 3651      25582C20 
 3651      00
 3652 00a1 000000   		.align	2
 3653              	.LC24:
 3654 00a4 464C4147 		.ascii	"FLAG_D[6]:0x%X, \000"
 3654      5F445B36 
 3654      5D3A3078 
 3654      25582C20 
 3654      00
 3655 00b5 000000   		.align	2
 3656              	.LC25:
 3657 00b8 464C4147 		.ascii	"FLAG_D[7]:0x%X\012\000"
 3657      5F445B37 
 3657      5D3A3078 
 3657      25580A00 
 3658              		.align	2
 3659              	.LC26:
 3660 00c8 4F57415B 		.ascii	"OWA[2:0]:0x%X, \000"
 3660      323A305D 
 3660      3A307825 
 3660      582C2000 
 3661              		.align	2
 3662              	.LC27:
 3663 00d8 4F57524E 		.ascii	"OWRNG:0x%X, \000"
 3663      473A3078 
 3663      25582C20 
 3663      00
 3664 00e5 000000   		.align	2
 3665              	.LC28:
 3666 00e8 534F414B 		.ascii	"SOAKON:0x%X, \000"
 3666      4F4E3A30 
 3666      7825582C 
 3666      2000
 3667 00f6 0000     		.align	2
 3668              	.LC29:
 3669 00f8 47504F3A 		.ascii	"GPO:0x%X, \000"
 3669      30782558 
 3669      2C2000
 3670 0103 00       		.align	2
 3671              	.LC30:
 3672 0104 46433A30 		.ascii	"FC:0x%X, \000"
 3672      7825582C 
 3672      2000
 3673 010e 0000     		.align	2
 3674              	.LC31:
ARM GAS  C:\Users\huawei\AppData\Local\Temp\ccpVCJY0.s 			page 103


 3675 0110 434F4D4D 		.ascii	"COMM_BK:0x%X, \000"
 3675      5F424B3A 
 3675      30782558 
 3675      2C2000
 3676 011f 00       		.align	2
 3677              	.LC32:
 3678 0120 4D555445 		.ascii	"MUTE_ST:0x%X, \000"
 3678      5F53543A 
 3678      30782558 
 3678      2C2000
 3679 012f 00       		.align	2
 3680              	.LC33:
 3681 0130 534E4150 		.ascii	"SNAP:0x%X\012\012\000"
 3681      3A307825 
 3681      580A0A00 
 3682              		.align	2
 3683              	.LC34:
 3684 013c 43436F75 		.ascii	"CCount:%d,\000"
 3684      6E743A25 
 3684      642C00
 3685 0147 00       		.align	2
 3686              	.LC35:
 3687 0148 50454345 		.ascii	"PECError:%d\012\012\000"
 3687      72726F72 
 3687      3A25640A 
 3687      0A00
 3688 0156 0000     		.align	2
 3689              	.LC36:
 3690 0158 52656164 		.ascii	"Read Config B:\000"
 3690      20436F6E 
 3690      66696720 
 3690      423A00
 3691 0167 00       		.align	2
 3692              	.LC37:
 3693 0168 5655563A 		.ascii	"VUV:0x%X, \000"
 3693      30782558 
 3693      2C2000
 3694 0173 00       		.align	2
 3695              	.LC38:
 3696 0174 564F563A 		.ascii	"VOV:0x%X, \000"
 3696      30782558 
 3696      2C2000
 3697 017f 00       		.align	2
 3698              	.LC39:
 3699 0180 4443544F 		.ascii	"DCTO:0x%X, \000"
 3699      3A307825 
 3699      582C2000 
 3700              		.align	2
 3701              	.LC40:
 3702 018c 4454524E 		.ascii	"DTRNG:0x%X, \000"
 3702      473A3078 
 3702      25582C20 
 3702      00
 3703 0199 000000   		.align	2
 3704              	.LC41:
 3705 019c 44544D45 		.ascii	"DTMEN:0x%X, \000"
 3705      4E3A3078 
ARM GAS  C:\Users\huawei\AppData\Local\Temp\ccpVCJY0.s 			page 104


 3705      25582C20 
 3705      00
 3706 01a9 000000   		.align	2
 3707              	.LC42:
 3708 01ac 4443433A 		.ascii	"DCC:0x%X\012\012\000"
 3708      30782558 
 3708      0A0A00
 3709              		.section	.text._Z15printReadConfighP9cell_asic4TYPE3GRP,"ax",%progbits
 3710              		.align	1
 3711              		.global	_Z15printReadConfighP9cell_asic4TYPE3GRP
 3712              		.syntax unified
 3713              		.thumb
 3714              		.thumb_func
 3716              	_Z15printReadConfighP9cell_asic4TYPE3GRP:
 3717              		.fnstart
 3718              	.LVL393:
 3719              	.LFB279:
1247:Core/Src/ADBMS.cpp **** 
1248:Core/Src/ADBMS.cpp **** /**
1249:Core/Src/ADBMS.cpp ****  *******************************************************************************
1250:Core/Src/ADBMS.cpp ****  * Function: printReadConfig
1251:Core/Src/ADBMS.cpp ****  * @brief Print read config result.
1252:Core/Src/ADBMS.cpp ****  *
1253:Core/Src/ADBMS.cpp ****  * @details This function Print read config result into terminal.
1254:Core/Src/ADBMS.cpp ****  *
1255:Core/Src/ADBMS.cpp ****  * Parameters:
1256:Core/Src/ADBMS.cpp ****  * @param [in]	tIC      Total IC
1257:Core/Src/ADBMS.cpp ****  *
1258:Core/Src/ADBMS.cpp ****  * @param [in]  *IC      cell_asic stucture pointer
1259:Core/Src/ADBMS.cpp ****  *
1260:Core/Src/ADBMS.cpp ****  * @param [in]  type     Enum type of resistor
1261:Core/Src/ADBMS.cpp ****  *
1262:Core/Src/ADBMS.cpp ****  * @param [in]  grp      Enum type of resistor group
1263:Core/Src/ADBMS.cpp ****  *
1264:Core/Src/ADBMS.cpp ****  * @return None
1265:Core/Src/ADBMS.cpp ****  *
1266:Core/Src/ADBMS.cpp ****  *******************************************************************************
1267:Core/Src/ADBMS.cpp **** */
1268:Core/Src/ADBMS.cpp **** void printReadConfig(uint8_t tIC, cell_asic *IC, TYPE type, GRP grp)
1269:Core/Src/ADBMS.cpp **** {
 3720              		.loc 1 1269 1 is_stmt 1 view -0
 3721              		.cfi_startproc
 3722              		@ args = 0, pretend = 0, frame = 0
 3723              		@ frame_needed = 0, uses_anonymous_args = 0
 3724              		.loc 1 1269 1 is_stmt 0 view .LVU1076
 3725 0000 2DE9F843 		push	{r3, r4, r5, r6, r7, r8, r9, lr}
 3726              		.save {r3, r4, r5, r6, r7, r8, r9, lr}
 3727              	.LCFI37:
 3728              		.cfi_def_cfa_offset 32
 3729              		.cfi_offset 3, -32
 3730              		.cfi_offset 4, -28
 3731              		.cfi_offset 5, -24
 3732              		.cfi_offset 6, -20
 3733              		.cfi_offset 7, -16
 3734              		.cfi_offset 8, -12
 3735              		.cfi_offset 9, -8
 3736              		.cfi_offset 14, -4
ARM GAS  C:\Users\huawei\AppData\Local\Temp\ccpVCJY0.s 			page 105


 3737 0004 0646     		mov	r6, r0
 3738 0006 8946     		mov	r9, r1
 3739 0008 1746     		mov	r7, r2
 3740 000a 9846     		mov	r8, r3
1270:Core/Src/ADBMS.cpp ****   for(uint8_t ic = 0; ic < tIC; ic++)
 3741              		.loc 1 1270 3 is_stmt 1 view .LVU1077
 3742              	.LVL394:
 3743              	.LBB100:
 3744              		.loc 1 1270 15 is_stmt 0 view .LVU1078
 3745 000c 0024     		movs	r4, #0
 3746              		.loc 1 1270 3 view .LVU1079
 3747 000e AFE0     		b	.L225
 3748              	.LVL395:
 3749              	.L233:
1271:Core/Src/ADBMS.cpp ****   {
1272:Core/Src/ADBMS.cpp ****     printf("IC%d:\n",(ic+1));
1273:Core/Src/ADBMS.cpp ****     if(type == Config)
1274:Core/Src/ADBMS.cpp ****     {
1275:Core/Src/ADBMS.cpp ****       if(grp == A)
1276:Core/Src/ADBMS.cpp ****       {
1277:Core/Src/ADBMS.cpp ****         printf("Read Config A:\n");
 3750              		.loc 1 1277 9 is_stmt 1 view .LVU1080
 3751              		.loc 1 1277 15 is_stmt 0 view .LVU1081
 3752 0010 B048     		ldr	r0, .L235
 3753 0012 FFF7FEFF 		bl	puts
 3754              	.LVL396:
1278:Core/Src/ADBMS.cpp ****         printf("REFON:0x%X, ", IC[ic].rx_cfga.refon);
 3755              		.loc 1 1278 9 is_stmt 1 view .LVU1082
 3756              		.loc 1 1278 37 is_stmt 0 view .LVU1083
 3757 0016 4FF42875 		mov	r5, #672
 3758 001a 05FB0495 		mla	r5, r5, r4, r9
 3759              		.loc 1 1278 47 view .LVU1084
 3760 001e A979     		ldrb	r1, [r5, #6]	@ zero_extendqisi2
 3761              		.loc 1 1278 15 view .LVU1085
 3762 0020 01F00101 		and	r1, r1, #1
 3763 0024 AC48     		ldr	r0, .L235+4
 3764 0026 FFF7FEFF 		bl	printf
 3765              	.LVL397:
1279:Core/Src/ADBMS.cpp ****         printf("CTH:0x%X\n", IC[ic].rx_cfga.cth & 0x07);
 3766              		.loc 1 1279 9 is_stmt 1 view .LVU1086
 3767              		.loc 1 1279 45 is_stmt 0 view .LVU1087
 3768 002a A979     		ldrb	r1, [r5, #6]	@ zero_extendqisi2
 3769              		.loc 1 1279 15 view .LVU1088
 3770 002c C1F34201 		ubfx	r1, r1, #1, #3
 3771 0030 AA48     		ldr	r0, .L235+8
 3772 0032 FFF7FEFF 		bl	printf
 3773              	.LVL398:
1280:Core/Src/ADBMS.cpp ****         printf("FLAG_D[0]:0x%X, ", (IC[ic].rx_cfga.flag_d & 0x01));
 3774              		.loc 1 1280 9 is_stmt 1 view .LVU1089
 3775              		.loc 1 1280 52 is_stmt 0 view .LVU1090
 3776 0036 E979     		ldrb	r1, [r5, #7]	@ zero_extendqisi2
 3777              		.loc 1 1280 15 view .LVU1091
 3778 0038 01F00101 		and	r1, r1, #1
 3779 003c A848     		ldr	r0, .L235+12
 3780 003e FFF7FEFF 		bl	printf
 3781              	.LVL399:
1281:Core/Src/ADBMS.cpp ****         printf("FLAG_D[1]:0x%X, ", (IC[ic].rx_cfga.flag_d & 0x02)>>1);
ARM GAS  C:\Users\huawei\AppData\Local\Temp\ccpVCJY0.s 			page 106


 3782              		.loc 1 1281 9 is_stmt 1 view .LVU1092
 3783              		.loc 1 1281 52 is_stmt 0 view .LVU1093
 3784 0042 E979     		ldrb	r1, [r5, #7]	@ zero_extendqisi2
 3785              		.loc 1 1281 15 view .LVU1094
 3786 0044 C1F34001 		ubfx	r1, r1, #1, #1
 3787 0048 A648     		ldr	r0, .L235+16
 3788 004a FFF7FEFF 		bl	printf
 3789              	.LVL400:
1282:Core/Src/ADBMS.cpp ****         printf("FLAG_D[2]:0x%X, ", (IC[ic].rx_cfga.flag_d & 0x04)>>2);
 3790              		.loc 1 1282 9 is_stmt 1 view .LVU1095
 3791              		.loc 1 1282 52 is_stmt 0 view .LVU1096
 3792 004e E979     		ldrb	r1, [r5, #7]	@ zero_extendqisi2
 3793              		.loc 1 1282 15 view .LVU1097
 3794 0050 C1F38001 		ubfx	r1, r1, #2, #1
 3795 0054 A448     		ldr	r0, .L235+20
 3796 0056 FFF7FEFF 		bl	printf
 3797              	.LVL401:
1283:Core/Src/ADBMS.cpp ****         printf("FLAG_D[3]:0x%X, ", (IC[ic].rx_cfga.flag_d & 0x08)>>3);
 3798              		.loc 1 1283 9 is_stmt 1 view .LVU1098
 3799              		.loc 1 1283 52 is_stmt 0 view .LVU1099
 3800 005a E979     		ldrb	r1, [r5, #7]	@ zero_extendqisi2
 3801              		.loc 1 1283 15 view .LVU1100
 3802 005c C1F3C001 		ubfx	r1, r1, #3, #1
 3803 0060 A248     		ldr	r0, .L235+24
 3804 0062 FFF7FEFF 		bl	printf
 3805              	.LVL402:
1284:Core/Src/ADBMS.cpp ****         printf("FLAG_D[4]:0x%X, ", (IC[ic].rx_cfga.flag_d & 0x10)>>4);
 3806              		.loc 1 1284 9 is_stmt 1 view .LVU1101
 3807              		.loc 1 1284 52 is_stmt 0 view .LVU1102
 3808 0066 E979     		ldrb	r1, [r5, #7]	@ zero_extendqisi2
 3809              		.loc 1 1284 15 view .LVU1103
 3810 0068 C1F30011 		ubfx	r1, r1, #4, #1
 3811 006c A048     		ldr	r0, .L235+28
 3812 006e FFF7FEFF 		bl	printf
 3813              	.LVL403:
1285:Core/Src/ADBMS.cpp ****         printf("FLAG_D[5]:0x%X, ", (IC[ic].rx_cfga.flag_d & 0x20)>>5);
 3814              		.loc 1 1285 9 is_stmt 1 view .LVU1104
 3815              		.loc 1 1285 52 is_stmt 0 view .LVU1105
 3816 0072 E979     		ldrb	r1, [r5, #7]	@ zero_extendqisi2
 3817              		.loc 1 1285 15 view .LVU1106
 3818 0074 C1F34011 		ubfx	r1, r1, #5, #1
 3819 0078 9E48     		ldr	r0, .L235+32
 3820 007a FFF7FEFF 		bl	printf
 3821              	.LVL404:
1286:Core/Src/ADBMS.cpp ****         printf("FLAG_D[6]:0x%X, ", (IC[ic].rx_cfga.flag_d & 0x40)>>6);
 3822              		.loc 1 1286 9 is_stmt 1 view .LVU1107
 3823              		.loc 1 1286 52 is_stmt 0 view .LVU1108
 3824 007e E979     		ldrb	r1, [r5, #7]	@ zero_extendqisi2
 3825              		.loc 1 1286 15 view .LVU1109
 3826 0080 C1F38011 		ubfx	r1, r1, #6, #1
 3827 0084 9C48     		ldr	r0, .L235+36
 3828 0086 FFF7FEFF 		bl	printf
 3829              	.LVL405:
1287:Core/Src/ADBMS.cpp ****         printf("FLAG_D[7]:0x%X\n", (IC[ic].rx_cfga.flag_d & 0x80)>>7);
 3830              		.loc 1 1287 9 is_stmt 1 view .LVU1110
 3831              		.loc 1 1287 52 is_stmt 0 view .LVU1111
 3832 008a E979     		ldrb	r1, [r5, #7]	@ zero_extendqisi2
ARM GAS  C:\Users\huawei\AppData\Local\Temp\ccpVCJY0.s 			page 107


 3833              		.loc 1 1287 15 view .LVU1112
 3834 008c C909     		lsrs	r1, r1, #7
 3835 008e 9B48     		ldr	r0, .L235+40
 3836 0090 FFF7FEFF 		bl	printf
 3837              	.LVL406:
1288:Core/Src/ADBMS.cpp ****         printf("OWA[2:0]:0x%X, ", (IC[ic].rx_cfga.owa));
 3838              		.loc 1 1288 9 is_stmt 1 view .LVU1113
 3839              		.loc 1 1288 51 is_stmt 0 view .LVU1114
 3840 0094 297A     		ldrb	r1, [r5, #8]	@ zero_extendqisi2
 3841              		.loc 1 1288 15 view .LVU1115
 3842 0096 C1F38201 		ubfx	r1, r1, #2, #3
 3843 009a 9948     		ldr	r0, .L235+44
 3844 009c FFF7FEFF 		bl	printf
 3845              	.LVL407:
1289:Core/Src/ADBMS.cpp ****         printf("OWRNG:0x%X, ", (IC[ic].rx_cfga.owrng));
 3846              		.loc 1 1289 9 is_stmt 1 view .LVU1116
 3847              		.loc 1 1289 48 is_stmt 0 view .LVU1117
 3848 00a0 297A     		ldrb	r1, [r5, #8]	@ zero_extendqisi2
 3849              		.loc 1 1289 15 view .LVU1118
 3850 00a2 C1F34001 		ubfx	r1, r1, #1, #1
 3851 00a6 9748     		ldr	r0, .L235+48
 3852 00a8 FFF7FEFF 		bl	printf
 3853              	.LVL408:
1290:Core/Src/ADBMS.cpp ****         printf("SOAKON:0x%X, ", (IC[ic].rx_cfga.soakon));
 3854              		.loc 1 1290 9 is_stmt 1 view .LVU1119
 3855              		.loc 1 1290 49 is_stmt 0 view .LVU1120
 3856 00ac 297A     		ldrb	r1, [r5, #8]	@ zero_extendqisi2
 3857              		.loc 1 1290 15 view .LVU1121
 3858 00ae 01F00101 		and	r1, r1, #1
 3859 00b2 9548     		ldr	r0, .L235+52
 3860 00b4 FFF7FEFF 		bl	printf
 3861              	.LVL409:
1291:Core/Src/ADBMS.cpp ****         printf("GPO:0x%X, ", (IC[ic].rx_cfga.gpo));
 3862              		.loc 1 1291 9 is_stmt 1 view .LVU1122
 3863              		.loc 1 1291 46 is_stmt 0 view .LVU1123
 3864 00b8 2989     		ldrh	r1, [r5, #8]
 3865              		.loc 1 1291 15 view .LVU1124
 3866 00ba C1F34911 		ubfx	r1, r1, #5, #10
 3867 00be 9348     		ldr	r0, .L235+56
 3868 00c0 FFF7FEFF 		bl	printf
 3869              	.LVL410:
1292:Core/Src/ADBMS.cpp ****         printf("FC:0x%X, ", (IC[ic].rx_cfga.fc));
 3870              		.loc 1 1292 9 is_stmt 1 view .LVU1125
 3871              		.loc 1 1292 45 is_stmt 0 view .LVU1126
 3872 00c4 A97A     		ldrb	r1, [r5, #10]	@ zero_extendqisi2
 3873              		.loc 1 1292 15 view .LVU1127
 3874 00c6 C1F38201 		ubfx	r1, r1, #2, #3
 3875 00ca 9148     		ldr	r0, .L235+60
 3876 00cc FFF7FEFF 		bl	printf
 3877              	.LVL411:
1293:Core/Src/ADBMS.cpp ****         printf("COMM_BK:0x%X, ", (IC[ic].rx_cfga.comm_bk));
 3878              		.loc 1 1293 9 is_stmt 1 view .LVU1128
 3879              		.loc 1 1293 50 is_stmt 0 view .LVU1129
 3880 00d0 A97A     		ldrb	r1, [r5, #10]	@ zero_extendqisi2
 3881              		.loc 1 1293 15 view .LVU1130
 3882 00d2 C1F34001 		ubfx	r1, r1, #1, #1
 3883 00d6 8F48     		ldr	r0, .L235+64
ARM GAS  C:\Users\huawei\AppData\Local\Temp\ccpVCJY0.s 			page 108


 3884 00d8 FFF7FEFF 		bl	printf
 3885              	.LVL412:
1294:Core/Src/ADBMS.cpp ****         printf("MUTE_ST:0x%X, ", (IC[ic].rx_cfga.mute_st));
 3886              		.loc 1 1294 9 is_stmt 1 view .LVU1131
 3887              		.loc 1 1294 50 is_stmt 0 view .LVU1132
 3888 00dc A97A     		ldrb	r1, [r5, #10]	@ zero_extendqisi2
 3889              		.loc 1 1294 15 view .LVU1133
 3890 00de 01F00101 		and	r1, r1, #1
 3891 00e2 8D48     		ldr	r0, .L235+68
 3892 00e4 FFF7FEFF 		bl	printf
 3893              	.LVL413:
1295:Core/Src/ADBMS.cpp ****         printf("SNAP:0x%X\n\n", (IC[ic].rx_cfga.snap));
 3894              		.loc 1 1295 9 is_stmt 1 view .LVU1134
 3895              		.loc 1 1295 49 is_stmt 0 view .LVU1135
 3896 00e8 697A     		ldrb	r1, [r5, #9]	@ zero_extendqisi2
 3897              		.loc 1 1295 15 view .LVU1136
 3898 00ea C909     		lsrs	r1, r1, #7
 3899 00ec 8B48     		ldr	r0, .L235+72
 3900 00ee FFF7FEFF 		bl	printf
 3901              	.LVL414:
1296:Core/Src/ADBMS.cpp ****         printf("CCount:%d,",IC[ic].cccrc.cmd_cntr);
 3902              		.loc 1 1296 9 is_stmt 1 view .LVU1137
 3903              		.loc 1 1296 15 is_stmt 0 view .LVU1138
 3904 00f2 95F88F11 		ldrb	r1, [r5, #399]	@ zero_extendqisi2
 3905 00f6 8A48     		ldr	r0, .L235+76
 3906 00f8 FFF7FEFF 		bl	printf
 3907              	.LVL415:
1297:Core/Src/ADBMS.cpp ****         printf("PECError:%d\n\n",IC[ic].cccrc.cfgr_pec);
 3908              		.loc 1 1297 9 is_stmt 1 view .LVU1139
 3909              		.loc 1 1297 15 is_stmt 0 view .LVU1140
 3910 00fc 95F89011 		ldrb	r1, [r5, #400]	@ zero_extendqisi2
 3911 0100 8848     		ldr	r0, .L235+80
 3912 0102 FFF7FEFF 		bl	printf
 3913              	.LVL416:
 3914 0106 31E0     		b	.L226
 3915              	.L234:
1298:Core/Src/ADBMS.cpp ****       }
1299:Core/Src/ADBMS.cpp ****       else if(grp == B)
1300:Core/Src/ADBMS.cpp ****       {
1301:Core/Src/ADBMS.cpp ****         printf("Read Config B:\n");
 3916              		.loc 1 1301 9 is_stmt 1 view .LVU1141
 3917              		.loc 1 1301 15 is_stmt 0 view .LVU1142
 3918 0108 8748     		ldr	r0, .L235+84
 3919 010a FFF7FEFF 		bl	puts
 3920              	.LVL417:
1302:Core/Src/ADBMS.cpp ****         printf("VUV:0x%X, ", IC[ic].rx_cfgb.vuv);
 3921              		.loc 1 1302 9 is_stmt 1 view .LVU1143
 3922              		.loc 1 1302 35 is_stmt 0 view .LVU1144
 3923 010e 4FF42875 		mov	r5, #672
 3924 0112 05FB0495 		mla	r5, r5, r4, r9
 3925              		.loc 1 1302 15 view .LVU1145
 3926 0116 A98A     		ldrh	r1, [r5, #20]
 3927 0118 8448     		ldr	r0, .L235+88
 3928 011a FFF7FEFF 		bl	printf
 3929              	.LVL418:
1303:Core/Src/ADBMS.cpp ****         printf("VOV:0x%X, ", IC[ic].rx_cfgb.vov);
 3930              		.loc 1 1303 9 is_stmt 1 view .LVU1146
ARM GAS  C:\Users\huawei\AppData\Local\Temp\ccpVCJY0.s 			page 109


 3931              		.loc 1 1303 15 is_stmt 0 view .LVU1147
 3932 011e E98A     		ldrh	r1, [r5, #22]
 3933 0120 8348     		ldr	r0, .L235+92
 3934 0122 FFF7FEFF 		bl	printf
 3935              	.LVL419:
1304:Core/Src/ADBMS.cpp ****         printf("DCTO:0x%X, ", IC[ic].rx_cfgb.dcto);
 3936              		.loc 1 1304 9 is_stmt 1 view .LVU1148
 3937              		.loc 1 1304 46 is_stmt 0 view .LVU1149
 3938 0126 297E     		ldrb	r1, [r5, #24]	@ zero_extendqisi2
 3939              		.loc 1 1304 15 view .LVU1150
 3940 0128 8908     		lsrs	r1, r1, #2
 3941 012a 8248     		ldr	r0, .L235+96
 3942 012c FFF7FEFF 		bl	printf
 3943              	.LVL420:
1305:Core/Src/ADBMS.cpp ****         printf("DTRNG:0x%X, ", IC[ic].rx_cfgb.dtrng);
 3944              		.loc 1 1305 9 is_stmt 1 view .LVU1151
 3945              		.loc 1 1305 47 is_stmt 0 view .LVU1152
 3946 0130 297E     		ldrb	r1, [r5, #24]	@ zero_extendqisi2
 3947              		.loc 1 1305 15 view .LVU1153
 3948 0132 C1F34001 		ubfx	r1, r1, #1, #1
 3949 0136 8048     		ldr	r0, .L235+100
 3950 0138 FFF7FEFF 		bl	printf
 3951              	.LVL421:
1306:Core/Src/ADBMS.cpp ****         printf("DTMEN:0x%X, ", IC[ic].rx_cfgb.dtmen);
 3952              		.loc 1 1306 9 is_stmt 1 view .LVU1154
 3953              		.loc 1 1306 47 is_stmt 0 view .LVU1155
 3954 013c 297E     		ldrb	r1, [r5, #24]	@ zero_extendqisi2
 3955              		.loc 1 1306 15 view .LVU1156
 3956 013e 01F00101 		and	r1, r1, #1
 3957 0142 7E48     		ldr	r0, .L235+104
 3958 0144 FFF7FEFF 		bl	printf
 3959              	.LVL422:
1307:Core/Src/ADBMS.cpp ****         printf("DCC:0x%X\n\n", IC[ic].rx_cfgb.dcc);
 3960              		.loc 1 1307 9 is_stmt 1 view .LVU1157
 3961              		.loc 1 1307 15 is_stmt 0 view .LVU1158
 3962 0148 698B     		ldrh	r1, [r5, #26]
 3963 014a 7D48     		ldr	r0, .L235+108
 3964 014c FFF7FEFF 		bl	printf
 3965              	.LVL423:
1308:Core/Src/ADBMS.cpp ****         printf("CCount:%d,",IC[ic].cccrc.cmd_cntr);
 3966              		.loc 1 1308 9 is_stmt 1 view .LVU1159
 3967              		.loc 1 1308 15 is_stmt 0 view .LVU1160
 3968 0150 95F88F11 		ldrb	r1, [r5, #399]	@ zero_extendqisi2
 3969 0154 7248     		ldr	r0, .L235+76
 3970 0156 FFF7FEFF 		bl	printf
 3971              	.LVL424:
1309:Core/Src/ADBMS.cpp ****         printf("PECError:%d\n\n",IC[ic].cccrc.cfgr_pec);
 3972              		.loc 1 1309 9 is_stmt 1 view .LVU1161
 3973              		.loc 1 1309 15 is_stmt 0 view .LVU1162
 3974 015a 95F89011 		ldrb	r1, [r5, #400]	@ zero_extendqisi2
 3975 015e 7148     		ldr	r0, .L235+80
 3976 0160 FFF7FEFF 		bl	printf
 3977              	.LVL425:
 3978 0164 02E0     		b	.L226
 3979              	.L229:
1310:Core/Src/ADBMS.cpp ****       }
1311:Core/Src/ADBMS.cpp ****       else if(grp == ALL_GRP)
ARM GAS  C:\Users\huawei\AppData\Local\Temp\ccpVCJY0.s 			page 110


1312:Core/Src/ADBMS.cpp ****       {
1313:Core/Src/ADBMS.cpp ****         printf("Read Config A:\n");
1314:Core/Src/ADBMS.cpp ****         printf("REFON:0x%X, ", IC[ic].rx_cfga.refon);
1315:Core/Src/ADBMS.cpp ****         printf("CTH:0x%X\n", IC[ic].rx_cfga.cth & 0x07);
1316:Core/Src/ADBMS.cpp ****         printf("FLAG_D[0]:0x%X, ", (IC[ic].rx_cfga.flag_d & 0x01));
1317:Core/Src/ADBMS.cpp ****         printf("FLAG_D[1]:0x%X, ", (IC[ic].rx_cfga.flag_d & 0x02)>>1);
1318:Core/Src/ADBMS.cpp ****         printf("FLAG_D[2]:0x%X, ", (IC[ic].rx_cfga.flag_d & 0x04)>>2);
1319:Core/Src/ADBMS.cpp ****         printf("FLAG_D[3]:0x%X, ", (IC[ic].rx_cfga.flag_d & 0x08)>>3);
1320:Core/Src/ADBMS.cpp ****         printf("FLAG_D[4]:0x%X, ", (IC[ic].rx_cfga.flag_d & 0x10)>>4);
1321:Core/Src/ADBMS.cpp ****         printf("FLAG_D[5]:0x%X, ", (IC[ic].rx_cfga.flag_d & 0x20)>>5);
1322:Core/Src/ADBMS.cpp ****         printf("FLAG_D[6]:0x%X, ", (IC[ic].rx_cfga.flag_d & 0x40)>>6);
1323:Core/Src/ADBMS.cpp ****         printf("FLAG_D[7]:0x%X\n", (IC[ic].rx_cfga.flag_d & 0x80)>>7);
1324:Core/Src/ADBMS.cpp ****         printf("OWA[2:0]:0x%X, ", (IC[ic].rx_cfga.owa));
1325:Core/Src/ADBMS.cpp ****         printf("OWRNG:0x%X, ", (IC[ic].rx_cfga.owrng));
1326:Core/Src/ADBMS.cpp ****         printf("SOAKON:0x%X, ", (IC[ic].rx_cfga.soakon));
1327:Core/Src/ADBMS.cpp ****         printf("GPO:0x%X, ", (IC[ic].rx_cfga.gpo));
1328:Core/Src/ADBMS.cpp ****         printf("FC:0x%X, ", (IC[ic].rx_cfga.fc));
1329:Core/Src/ADBMS.cpp ****         printf("COMM_BK:0x%X, ", (IC[ic].rx_cfga.comm_bk));
1330:Core/Src/ADBMS.cpp ****         printf("MUTE_ST:0x%X, ", (IC[ic].rx_cfga.mute_st));
1331:Core/Src/ADBMS.cpp ****         printf("SNAP:0x%X\n\n", (IC[ic].rx_cfga.snap));
1332:Core/Src/ADBMS.cpp **** 
1333:Core/Src/ADBMS.cpp ****         printf("Read Config B:\n");
1334:Core/Src/ADBMS.cpp ****         printf("VUV:0x%X, ", IC[ic].rx_cfgb.vuv);
1335:Core/Src/ADBMS.cpp ****         printf("VOV:0x%X, ", IC[ic].rx_cfgb.vov);
1336:Core/Src/ADBMS.cpp ****         printf("DCTO:0x%X, ", IC[ic].rx_cfgb.dcto);
1337:Core/Src/ADBMS.cpp ****         printf("DTRNG:0x%X, ", IC[ic].rx_cfgb.dtrng);
1338:Core/Src/ADBMS.cpp ****         printf("DTMEN:0x%X, ", IC[ic].rx_cfgb.dtmen);
1339:Core/Src/ADBMS.cpp ****         printf("DCC:0x%X\n\n", IC[ic].rx_cfgb.dcc);
1340:Core/Src/ADBMS.cpp ****         printf("CCount:%d,", IC[ic].cccrc.cmd_cntr);
1341:Core/Src/ADBMS.cpp ****         printf("PECError:%d\n\n", IC[ic].cccrc.cfgr_pec);
1342:Core/Src/ADBMS.cpp ****       }
1343:Core/Src/ADBMS.cpp ****       else{ printf("Wrong Register Group Select\n"); }
 3980              		.loc 1 1343 13 is_stmt 1 view .LVU1163
 3981              		.loc 1 1343 19 is_stmt 0 view .LVU1164
 3982 0166 7748     		ldr	r0, .L235+112
 3983 0168 FFF7FEFF 		bl	puts
 3984              	.LVL426:
 3985              	.L226:
1270:Core/Src/ADBMS.cpp ****   {
 3986              		.loc 1 1270 3 is_stmt 1 discriminator 2 view .LVU1165
 3987 016c 0134     		adds	r4, r4, #1
 3988              	.LVL427:
1270:Core/Src/ADBMS.cpp ****   {
 3989              		.loc 1 1270 3 is_stmt 0 discriminator 2 view .LVU1166
 3990 016e E4B2     		uxtb	r4, r4
 3991              	.LVL428:
 3992              	.L225:
1270:Core/Src/ADBMS.cpp ****   {
 3993              		.loc 1 1270 26 is_stmt 1 discriminator 1 view .LVU1167
 3994 0170 B442     		cmp	r4, r6
 3995 0172 80F0AC80 		bcs	.L232
1272:Core/Src/ADBMS.cpp ****     if(type == Config)
 3996              		.loc 1 1272 5 view .LVU1168
1272:Core/Src/ADBMS.cpp ****     if(type == Config)
 3997              		.loc 1 1272 11 is_stmt 0 view .LVU1169
 3998 0176 611C     		adds	r1, r4, #1
 3999 0178 7348     		ldr	r0, .L235+116
ARM GAS  C:\Users\huawei\AppData\Local\Temp\ccpVCJY0.s 			page 111


 4000 017a FFF7FEFF 		bl	printf
 4001              	.LVL429:
1273:Core/Src/ADBMS.cpp ****     {
 4002              		.loc 1 1273 5 is_stmt 1 view .LVU1170
 4003 017e 082F     		cmp	r7, #8
 4004 0180 F4D1     		bne	.L226
1275:Core/Src/ADBMS.cpp ****       {
 4005              		.loc 1 1275 7 view .LVU1171
 4006 0182 B8F1010F 		cmp	r8, #1
 4007 0186 3FF443AF 		beq	.L233
1299:Core/Src/ADBMS.cpp ****       {
 4008              		.loc 1 1299 12 view .LVU1172
 4009 018a B8F1020F 		cmp	r8, #2
 4010 018e BBD0     		beq	.L234
1311:Core/Src/ADBMS.cpp ****       {
 4011              		.loc 1 1311 12 view .LVU1173
 4012 0190 B8F1000F 		cmp	r8, #0
 4013 0194 E7D1     		bne	.L229
1313:Core/Src/ADBMS.cpp ****         printf("REFON:0x%X, ", IC[ic].rx_cfga.refon);
 4014              		.loc 1 1313 9 view .LVU1174
1313:Core/Src/ADBMS.cpp ****         printf("REFON:0x%X, ", IC[ic].rx_cfga.refon);
 4015              		.loc 1 1313 15 is_stmt 0 view .LVU1175
 4016 0196 4F48     		ldr	r0, .L235
 4017 0198 FFF7FEFF 		bl	puts
 4018              	.LVL430:
1314:Core/Src/ADBMS.cpp ****         printf("CTH:0x%X\n", IC[ic].rx_cfga.cth & 0x07);
 4019              		.loc 1 1314 9 is_stmt 1 view .LVU1176
1314:Core/Src/ADBMS.cpp ****         printf("CTH:0x%X\n", IC[ic].rx_cfga.cth & 0x07);
 4020              		.loc 1 1314 37 is_stmt 0 view .LVU1177
 4021 019c 4FF42875 		mov	r5, #672
 4022 01a0 05FB0495 		mla	r5, r5, r4, r9
1314:Core/Src/ADBMS.cpp ****         printf("CTH:0x%X\n", IC[ic].rx_cfga.cth & 0x07);
 4023              		.loc 1 1314 47 view .LVU1178
 4024 01a4 A979     		ldrb	r1, [r5, #6]	@ zero_extendqisi2
1314:Core/Src/ADBMS.cpp ****         printf("CTH:0x%X\n", IC[ic].rx_cfga.cth & 0x07);
 4025              		.loc 1 1314 15 view .LVU1179
 4026 01a6 01F00101 		and	r1, r1, #1
 4027 01aa 4B48     		ldr	r0, .L235+4
 4028 01ac FFF7FEFF 		bl	printf
 4029              	.LVL431:
1315:Core/Src/ADBMS.cpp ****         printf("FLAG_D[0]:0x%X, ", (IC[ic].rx_cfga.flag_d & 0x01));
 4030              		.loc 1 1315 9 is_stmt 1 view .LVU1180
1315:Core/Src/ADBMS.cpp ****         printf("FLAG_D[0]:0x%X, ", (IC[ic].rx_cfga.flag_d & 0x01));
 4031              		.loc 1 1315 45 is_stmt 0 view .LVU1181
 4032 01b0 A979     		ldrb	r1, [r5, #6]	@ zero_extendqisi2
1315:Core/Src/ADBMS.cpp ****         printf("FLAG_D[0]:0x%X, ", (IC[ic].rx_cfga.flag_d & 0x01));
 4033              		.loc 1 1315 15 view .LVU1182
 4034 01b2 C1F34201 		ubfx	r1, r1, #1, #3
 4035 01b6 4948     		ldr	r0, .L235+8
 4036 01b8 FFF7FEFF 		bl	printf
 4037              	.LVL432:
1316:Core/Src/ADBMS.cpp ****         printf("FLAG_D[1]:0x%X, ", (IC[ic].rx_cfga.flag_d & 0x02)>>1);
 4038              		.loc 1 1316 9 is_stmt 1 view .LVU1183
1316:Core/Src/ADBMS.cpp ****         printf("FLAG_D[1]:0x%X, ", (IC[ic].rx_cfga.flag_d & 0x02)>>1);
 4039              		.loc 1 1316 52 is_stmt 0 view .LVU1184
 4040 01bc E979     		ldrb	r1, [r5, #7]	@ zero_extendqisi2
1316:Core/Src/ADBMS.cpp ****         printf("FLAG_D[1]:0x%X, ", (IC[ic].rx_cfga.flag_d & 0x02)>>1);
ARM GAS  C:\Users\huawei\AppData\Local\Temp\ccpVCJY0.s 			page 112


 4041              		.loc 1 1316 15 view .LVU1185
 4042 01be 01F00101 		and	r1, r1, #1
 4043 01c2 4748     		ldr	r0, .L235+12
 4044 01c4 FFF7FEFF 		bl	printf
 4045              	.LVL433:
1317:Core/Src/ADBMS.cpp ****         printf("FLAG_D[2]:0x%X, ", (IC[ic].rx_cfga.flag_d & 0x04)>>2);
 4046              		.loc 1 1317 9 is_stmt 1 view .LVU1186
1317:Core/Src/ADBMS.cpp ****         printf("FLAG_D[2]:0x%X, ", (IC[ic].rx_cfga.flag_d & 0x04)>>2);
 4047              		.loc 1 1317 52 is_stmt 0 view .LVU1187
 4048 01c8 E979     		ldrb	r1, [r5, #7]	@ zero_extendqisi2
1317:Core/Src/ADBMS.cpp ****         printf("FLAG_D[2]:0x%X, ", (IC[ic].rx_cfga.flag_d & 0x04)>>2);
 4049              		.loc 1 1317 15 view .LVU1188
 4050 01ca C1F34001 		ubfx	r1, r1, #1, #1
 4051 01ce 4548     		ldr	r0, .L235+16
 4052 01d0 FFF7FEFF 		bl	printf
 4053              	.LVL434:
1318:Core/Src/ADBMS.cpp ****         printf("FLAG_D[3]:0x%X, ", (IC[ic].rx_cfga.flag_d & 0x08)>>3);
 4054              		.loc 1 1318 9 is_stmt 1 view .LVU1189
1318:Core/Src/ADBMS.cpp ****         printf("FLAG_D[3]:0x%X, ", (IC[ic].rx_cfga.flag_d & 0x08)>>3);
 4055              		.loc 1 1318 52 is_stmt 0 view .LVU1190
 4056 01d4 E979     		ldrb	r1, [r5, #7]	@ zero_extendqisi2
1318:Core/Src/ADBMS.cpp ****         printf("FLAG_D[3]:0x%X, ", (IC[ic].rx_cfga.flag_d & 0x08)>>3);
 4057              		.loc 1 1318 15 view .LVU1191
 4058 01d6 C1F38001 		ubfx	r1, r1, #2, #1
 4059 01da 4348     		ldr	r0, .L235+20
 4060 01dc FFF7FEFF 		bl	printf
 4061              	.LVL435:
1319:Core/Src/ADBMS.cpp ****         printf("FLAG_D[4]:0x%X, ", (IC[ic].rx_cfga.flag_d & 0x10)>>4);
 4062              		.loc 1 1319 9 is_stmt 1 view .LVU1192
1319:Core/Src/ADBMS.cpp ****         printf("FLAG_D[4]:0x%X, ", (IC[ic].rx_cfga.flag_d & 0x10)>>4);
 4063              		.loc 1 1319 52 is_stmt 0 view .LVU1193
 4064 01e0 E979     		ldrb	r1, [r5, #7]	@ zero_extendqisi2
1319:Core/Src/ADBMS.cpp ****         printf("FLAG_D[4]:0x%X, ", (IC[ic].rx_cfga.flag_d & 0x10)>>4);
 4065              		.loc 1 1319 15 view .LVU1194
 4066 01e2 C1F3C001 		ubfx	r1, r1, #3, #1
 4067 01e6 4148     		ldr	r0, .L235+24
 4068 01e8 FFF7FEFF 		bl	printf
 4069              	.LVL436:
1320:Core/Src/ADBMS.cpp ****         printf("FLAG_D[5]:0x%X, ", (IC[ic].rx_cfga.flag_d & 0x20)>>5);
 4070              		.loc 1 1320 9 is_stmt 1 view .LVU1195
1320:Core/Src/ADBMS.cpp ****         printf("FLAG_D[5]:0x%X, ", (IC[ic].rx_cfga.flag_d & 0x20)>>5);
 4071              		.loc 1 1320 52 is_stmt 0 view .LVU1196
 4072 01ec E979     		ldrb	r1, [r5, #7]	@ zero_extendqisi2
1320:Core/Src/ADBMS.cpp ****         printf("FLAG_D[5]:0x%X, ", (IC[ic].rx_cfga.flag_d & 0x20)>>5);
 4073              		.loc 1 1320 15 view .LVU1197
 4074 01ee C1F30011 		ubfx	r1, r1, #4, #1
 4075 01f2 3F48     		ldr	r0, .L235+28
 4076 01f4 FFF7FEFF 		bl	printf
 4077              	.LVL437:
1321:Core/Src/ADBMS.cpp ****         printf("FLAG_D[6]:0x%X, ", (IC[ic].rx_cfga.flag_d & 0x40)>>6);
 4078              		.loc 1 1321 9 is_stmt 1 view .LVU1198
1321:Core/Src/ADBMS.cpp ****         printf("FLAG_D[6]:0x%X, ", (IC[ic].rx_cfga.flag_d & 0x40)>>6);
 4079              		.loc 1 1321 52 is_stmt 0 view .LVU1199
 4080 01f8 E979     		ldrb	r1, [r5, #7]	@ zero_extendqisi2
1321:Core/Src/ADBMS.cpp ****         printf("FLAG_D[6]:0x%X, ", (IC[ic].rx_cfga.flag_d & 0x40)>>6);
 4081              		.loc 1 1321 15 view .LVU1200
 4082 01fa C1F34011 		ubfx	r1, r1, #5, #1
ARM GAS  C:\Users\huawei\AppData\Local\Temp\ccpVCJY0.s 			page 113


 4083 01fe 3D48     		ldr	r0, .L235+32
 4084 0200 FFF7FEFF 		bl	printf
 4085              	.LVL438:
1322:Core/Src/ADBMS.cpp ****         printf("FLAG_D[7]:0x%X\n", (IC[ic].rx_cfga.flag_d & 0x80)>>7);
 4086              		.loc 1 1322 9 is_stmt 1 view .LVU1201
1322:Core/Src/ADBMS.cpp ****         printf("FLAG_D[7]:0x%X\n", (IC[ic].rx_cfga.flag_d & 0x80)>>7);
 4087              		.loc 1 1322 52 is_stmt 0 view .LVU1202
 4088 0204 E979     		ldrb	r1, [r5, #7]	@ zero_extendqisi2
1322:Core/Src/ADBMS.cpp ****         printf("FLAG_D[7]:0x%X\n", (IC[ic].rx_cfga.flag_d & 0x80)>>7);
 4089              		.loc 1 1322 15 view .LVU1203
 4090 0206 C1F38011 		ubfx	r1, r1, #6, #1
 4091 020a 3B48     		ldr	r0, .L235+36
 4092 020c FFF7FEFF 		bl	printf
 4093              	.LVL439:
1323:Core/Src/ADBMS.cpp ****         printf("OWA[2:0]:0x%X, ", (IC[ic].rx_cfga.owa));
 4094              		.loc 1 1323 9 is_stmt 1 view .LVU1204
1323:Core/Src/ADBMS.cpp ****         printf("OWA[2:0]:0x%X, ", (IC[ic].rx_cfga.owa));
 4095              		.loc 1 1323 52 is_stmt 0 view .LVU1205
 4096 0210 E979     		ldrb	r1, [r5, #7]	@ zero_extendqisi2
1323:Core/Src/ADBMS.cpp ****         printf("OWA[2:0]:0x%X, ", (IC[ic].rx_cfga.owa));
 4097              		.loc 1 1323 15 view .LVU1206
 4098 0212 C909     		lsrs	r1, r1, #7
 4099 0214 3948     		ldr	r0, .L235+40
 4100 0216 FFF7FEFF 		bl	printf
 4101              	.LVL440:
1324:Core/Src/ADBMS.cpp ****         printf("OWRNG:0x%X, ", (IC[ic].rx_cfga.owrng));
 4102              		.loc 1 1324 9 is_stmt 1 view .LVU1207
1324:Core/Src/ADBMS.cpp ****         printf("OWRNG:0x%X, ", (IC[ic].rx_cfga.owrng));
 4103              		.loc 1 1324 51 is_stmt 0 view .LVU1208
 4104 021a 297A     		ldrb	r1, [r5, #8]	@ zero_extendqisi2
1324:Core/Src/ADBMS.cpp ****         printf("OWRNG:0x%X, ", (IC[ic].rx_cfga.owrng));
 4105              		.loc 1 1324 15 view .LVU1209
 4106 021c C1F38201 		ubfx	r1, r1, #2, #3
 4107 0220 3748     		ldr	r0, .L235+44
 4108 0222 FFF7FEFF 		bl	printf
 4109              	.LVL441:
1325:Core/Src/ADBMS.cpp ****         printf("SOAKON:0x%X, ", (IC[ic].rx_cfga.soakon));
 4110              		.loc 1 1325 9 is_stmt 1 view .LVU1210
1325:Core/Src/ADBMS.cpp ****         printf("SOAKON:0x%X, ", (IC[ic].rx_cfga.soakon));
 4111              		.loc 1 1325 48 is_stmt 0 view .LVU1211
 4112 0226 297A     		ldrb	r1, [r5, #8]	@ zero_extendqisi2
1325:Core/Src/ADBMS.cpp ****         printf("SOAKON:0x%X, ", (IC[ic].rx_cfga.soakon));
 4113              		.loc 1 1325 15 view .LVU1212
 4114 0228 C1F34001 		ubfx	r1, r1, #1, #1
 4115 022c 3548     		ldr	r0, .L235+48
 4116 022e FFF7FEFF 		bl	printf
 4117              	.LVL442:
1326:Core/Src/ADBMS.cpp ****         printf("GPO:0x%X, ", (IC[ic].rx_cfga.gpo));
 4118              		.loc 1 1326 9 is_stmt 1 view .LVU1213
1326:Core/Src/ADBMS.cpp ****         printf("GPO:0x%X, ", (IC[ic].rx_cfga.gpo));
 4119              		.loc 1 1326 49 is_stmt 0 view .LVU1214
 4120 0232 297A     		ldrb	r1, [r5, #8]	@ zero_extendqisi2
1326:Core/Src/ADBMS.cpp ****         printf("GPO:0x%X, ", (IC[ic].rx_cfga.gpo));
 4121              		.loc 1 1326 15 view .LVU1215
 4122 0234 01F00101 		and	r1, r1, #1
 4123 0238 3348     		ldr	r0, .L235+52
 4124 023a FFF7FEFF 		bl	printf
ARM GAS  C:\Users\huawei\AppData\Local\Temp\ccpVCJY0.s 			page 114


 4125              	.LVL443:
1327:Core/Src/ADBMS.cpp ****         printf("FC:0x%X, ", (IC[ic].rx_cfga.fc));
 4126              		.loc 1 1327 9 is_stmt 1 view .LVU1216
1327:Core/Src/ADBMS.cpp ****         printf("FC:0x%X, ", (IC[ic].rx_cfga.fc));
 4127              		.loc 1 1327 46 is_stmt 0 view .LVU1217
 4128 023e 2989     		ldrh	r1, [r5, #8]
1327:Core/Src/ADBMS.cpp ****         printf("FC:0x%X, ", (IC[ic].rx_cfga.fc));
 4129              		.loc 1 1327 15 view .LVU1218
 4130 0240 C1F34911 		ubfx	r1, r1, #5, #10
 4131 0244 3148     		ldr	r0, .L235+56
 4132 0246 FFF7FEFF 		bl	printf
 4133              	.LVL444:
1328:Core/Src/ADBMS.cpp ****         printf("COMM_BK:0x%X, ", (IC[ic].rx_cfga.comm_bk));
 4134              		.loc 1 1328 9 is_stmt 1 view .LVU1219
1328:Core/Src/ADBMS.cpp ****         printf("COMM_BK:0x%X, ", (IC[ic].rx_cfga.comm_bk));
 4135              		.loc 1 1328 45 is_stmt 0 view .LVU1220
 4136 024a A97A     		ldrb	r1, [r5, #10]	@ zero_extendqisi2
1328:Core/Src/ADBMS.cpp ****         printf("COMM_BK:0x%X, ", (IC[ic].rx_cfga.comm_bk));
 4137              		.loc 1 1328 15 view .LVU1221
 4138 024c C1F38201 		ubfx	r1, r1, #2, #3
 4139 0250 2F48     		ldr	r0, .L235+60
 4140 0252 FFF7FEFF 		bl	printf
 4141              	.LVL445:
1329:Core/Src/ADBMS.cpp ****         printf("MUTE_ST:0x%X, ", (IC[ic].rx_cfga.mute_st));
 4142              		.loc 1 1329 9 is_stmt 1 view .LVU1222
1329:Core/Src/ADBMS.cpp ****         printf("MUTE_ST:0x%X, ", (IC[ic].rx_cfga.mute_st));
 4143              		.loc 1 1329 50 is_stmt 0 view .LVU1223
 4144 0256 A97A     		ldrb	r1, [r5, #10]	@ zero_extendqisi2
1329:Core/Src/ADBMS.cpp ****         printf("MUTE_ST:0x%X, ", (IC[ic].rx_cfga.mute_st));
 4145              		.loc 1 1329 15 view .LVU1224
 4146 0258 C1F34001 		ubfx	r1, r1, #1, #1
 4147 025c 2D48     		ldr	r0, .L235+64
 4148 025e FFF7FEFF 		bl	printf
 4149              	.LVL446:
1330:Core/Src/ADBMS.cpp ****         printf("SNAP:0x%X\n\n", (IC[ic].rx_cfga.snap));
 4150              		.loc 1 1330 9 is_stmt 1 view .LVU1225
1330:Core/Src/ADBMS.cpp ****         printf("SNAP:0x%X\n\n", (IC[ic].rx_cfga.snap));
 4151              		.loc 1 1330 50 is_stmt 0 view .LVU1226
 4152 0262 A97A     		ldrb	r1, [r5, #10]	@ zero_extendqisi2
1330:Core/Src/ADBMS.cpp ****         printf("SNAP:0x%X\n\n", (IC[ic].rx_cfga.snap));
 4153              		.loc 1 1330 15 view .LVU1227
 4154 0264 01F00101 		and	r1, r1, #1
 4155 0268 2B48     		ldr	r0, .L235+68
 4156 026a FFF7FEFF 		bl	printf
 4157              	.LVL447:
1331:Core/Src/ADBMS.cpp **** 
 4158              		.loc 1 1331 9 is_stmt 1 view .LVU1228
1331:Core/Src/ADBMS.cpp **** 
 4159              		.loc 1 1331 49 is_stmt 0 view .LVU1229
 4160 026e 697A     		ldrb	r1, [r5, #9]	@ zero_extendqisi2
1331:Core/Src/ADBMS.cpp **** 
 4161              		.loc 1 1331 15 view .LVU1230
 4162 0270 C909     		lsrs	r1, r1, #7
 4163 0272 2A48     		ldr	r0, .L235+72
 4164 0274 FFF7FEFF 		bl	printf
 4165              	.LVL448:
1333:Core/Src/ADBMS.cpp ****         printf("VUV:0x%X, ", IC[ic].rx_cfgb.vuv);
ARM GAS  C:\Users\huawei\AppData\Local\Temp\ccpVCJY0.s 			page 115


 4166              		.loc 1 1333 9 is_stmt 1 view .LVU1231
1333:Core/Src/ADBMS.cpp ****         printf("VUV:0x%X, ", IC[ic].rx_cfgb.vuv);
 4167              		.loc 1 1333 15 is_stmt 0 view .LVU1232
 4168 0278 2B48     		ldr	r0, .L235+84
 4169 027a FFF7FEFF 		bl	puts
 4170              	.LVL449:
1334:Core/Src/ADBMS.cpp ****         printf("VOV:0x%X, ", IC[ic].rx_cfgb.vov);
 4171              		.loc 1 1334 9 is_stmt 1 view .LVU1233
1334:Core/Src/ADBMS.cpp ****         printf("VOV:0x%X, ", IC[ic].rx_cfgb.vov);
 4172              		.loc 1 1334 15 is_stmt 0 view .LVU1234
 4173 027e A98A     		ldrh	r1, [r5, #20]
 4174 0280 2A48     		ldr	r0, .L235+88
 4175 0282 FFF7FEFF 		bl	printf
 4176              	.LVL450:
1335:Core/Src/ADBMS.cpp ****         printf("DCTO:0x%X, ", IC[ic].rx_cfgb.dcto);
 4177              		.loc 1 1335 9 is_stmt 1 view .LVU1235
1335:Core/Src/ADBMS.cpp ****         printf("DCTO:0x%X, ", IC[ic].rx_cfgb.dcto);
 4178              		.loc 1 1335 15 is_stmt 0 view .LVU1236
 4179 0286 E98A     		ldrh	r1, [r5, #22]
 4180 0288 2948     		ldr	r0, .L235+92
 4181 028a FFF7FEFF 		bl	printf
 4182              	.LVL451:
1336:Core/Src/ADBMS.cpp ****         printf("DTRNG:0x%X, ", IC[ic].rx_cfgb.dtrng);
 4183              		.loc 1 1336 9 is_stmt 1 view .LVU1237
1336:Core/Src/ADBMS.cpp ****         printf("DTRNG:0x%X, ", IC[ic].rx_cfgb.dtrng);
 4184              		.loc 1 1336 46 is_stmt 0 view .LVU1238
 4185 028e 297E     		ldrb	r1, [r5, #24]	@ zero_extendqisi2
1336:Core/Src/ADBMS.cpp ****         printf("DTRNG:0x%X, ", IC[ic].rx_cfgb.dtrng);
 4186              		.loc 1 1336 15 view .LVU1239
 4187 0290 8908     		lsrs	r1, r1, #2
 4188 0292 2848     		ldr	r0, .L235+96
 4189 0294 FFF7FEFF 		bl	printf
 4190              	.LVL452:
1337:Core/Src/ADBMS.cpp ****         printf("DTMEN:0x%X, ", IC[ic].rx_cfgb.dtmen);
 4191              		.loc 1 1337 9 is_stmt 1 view .LVU1240
1337:Core/Src/ADBMS.cpp ****         printf("DTMEN:0x%X, ", IC[ic].rx_cfgb.dtmen);
 4192              		.loc 1 1337 47 is_stmt 0 view .LVU1241
 4193 0298 297E     		ldrb	r1, [r5, #24]	@ zero_extendqisi2
1337:Core/Src/ADBMS.cpp ****         printf("DTMEN:0x%X, ", IC[ic].rx_cfgb.dtmen);
 4194              		.loc 1 1337 15 view .LVU1242
 4195 029a C1F34001 		ubfx	r1, r1, #1, #1
 4196 029e 2648     		ldr	r0, .L235+100
 4197 02a0 FFF7FEFF 		bl	printf
 4198              	.LVL453:
1338:Core/Src/ADBMS.cpp ****         printf("DCC:0x%X\n\n", IC[ic].rx_cfgb.dcc);
 4199              		.loc 1 1338 9 is_stmt 1 view .LVU1243
1338:Core/Src/ADBMS.cpp ****         printf("DCC:0x%X\n\n", IC[ic].rx_cfgb.dcc);
 4200              		.loc 1 1338 47 is_stmt 0 view .LVU1244
 4201 02a4 297E     		ldrb	r1, [r5, #24]	@ zero_extendqisi2
1338:Core/Src/ADBMS.cpp ****         printf("DCC:0x%X\n\n", IC[ic].rx_cfgb.dcc);
 4202              		.loc 1 1338 15 view .LVU1245
 4203 02a6 01F00101 		and	r1, r1, #1
 4204 02aa 2448     		ldr	r0, .L235+104
 4205 02ac FFF7FEFF 		bl	printf
 4206              	.LVL454:
1339:Core/Src/ADBMS.cpp ****         printf("CCount:%d,", IC[ic].cccrc.cmd_cntr);
 4207              		.loc 1 1339 9 is_stmt 1 view .LVU1246
ARM GAS  C:\Users\huawei\AppData\Local\Temp\ccpVCJY0.s 			page 116


1339:Core/Src/ADBMS.cpp ****         printf("CCount:%d,", IC[ic].cccrc.cmd_cntr);
 4208              		.loc 1 1339 15 is_stmt 0 view .LVU1247
 4209 02b0 698B     		ldrh	r1, [r5, #26]
 4210 02b2 2348     		ldr	r0, .L235+108
 4211 02b4 FFF7FEFF 		bl	printf
 4212              	.LVL455:
1340:Core/Src/ADBMS.cpp ****         printf("PECError:%d\n\n", IC[ic].cccrc.cfgr_pec);
 4213              		.loc 1 1340 9 is_stmt 1 view .LVU1248
1340:Core/Src/ADBMS.cpp ****         printf("PECError:%d\n\n", IC[ic].cccrc.cfgr_pec);
 4214              		.loc 1 1340 15 is_stmt 0 view .LVU1249
 4215 02b8 95F88F11 		ldrb	r1, [r5, #399]	@ zero_extendqisi2
 4216 02bc 1848     		ldr	r0, .L235+76
 4217 02be FFF7FEFF 		bl	printf
 4218              	.LVL456:
1341:Core/Src/ADBMS.cpp ****       }
 4219              		.loc 1 1341 9 is_stmt 1 view .LVU1250
1341:Core/Src/ADBMS.cpp ****       }
 4220              		.loc 1 1341 15 is_stmt 0 view .LVU1251
 4221 02c2 95F89011 		ldrb	r1, [r5, #400]	@ zero_extendqisi2
 4222 02c6 1748     		ldr	r0, .L235+80
 4223 02c8 FFF7FEFF 		bl	printf
 4224              	.LVL457:
 4225 02cc 4EE7     		b	.L226
 4226              	.L232:
1341:Core/Src/ADBMS.cpp ****       }
 4227              		.loc 1 1341 15 view .LVU1252
 4228              	.LBE100:
1344:Core/Src/ADBMS.cpp ****     }
1345:Core/Src/ADBMS.cpp ****   }
1346:Core/Src/ADBMS.cpp **** }
 4229              		.loc 1 1346 1 view .LVU1253
 4230 02ce BDE8F883 		pop	{r3, r4, r5, r6, r7, r8, r9, pc}
 4231              	.LVL458:
 4232              	.L236:
 4233              		.loc 1 1346 1 view .LVU1254
 4234 02d2 00BF     		.align	2
 4235              	.L235:
 4236 02d4 00000000 		.word	.LC15
 4237 02d8 10000000 		.word	.LC16
 4238 02dc 20000000 		.word	.LC17
 4239 02e0 2C000000 		.word	.LC18
 4240 02e4 40000000 		.word	.LC19
 4241 02e8 54000000 		.word	.LC20
 4242 02ec 68000000 		.word	.LC21
 4243 02f0 7C000000 		.word	.LC22
 4244 02f4 90000000 		.word	.LC23
 4245 02f8 A4000000 		.word	.LC24
 4246 02fc B8000000 		.word	.LC25
 4247 0300 C8000000 		.word	.LC26
 4248 0304 D8000000 		.word	.LC27
 4249 0308 E8000000 		.word	.LC28
 4250 030c F8000000 		.word	.LC29
 4251 0310 04010000 		.word	.LC30
 4252 0314 10010000 		.word	.LC31
 4253 0318 20010000 		.word	.LC32
 4254 031c 30010000 		.word	.LC33
 4255 0320 3C010000 		.word	.LC34
ARM GAS  C:\Users\huawei\AppData\Local\Temp\ccpVCJY0.s 			page 117


 4256 0324 48010000 		.word	.LC35
 4257 0328 58010000 		.word	.LC36
 4258 032c 68010000 		.word	.LC37
 4259 0330 74010000 		.word	.LC38
 4260 0334 80010000 		.word	.LC39
 4261 0338 8C010000 		.word	.LC40
 4262 033c 9C010000 		.word	.LC41
 4263 0340 AC010000 		.word	.LC42
 4264 0344 38000000 		.word	.LC14
 4265 0348 00000000 		.word	.LC9
 4266              		.cfi_endproc
 4267              	.LFE279:
 4268              		.fnend
 4270              		.section	.text._Z27adBms6830_write_read_confighP9cell_asic,"ax",%progbits
 4271              		.align	1
 4272              		.global	_Z27adBms6830_write_read_confighP9cell_asic
 4273              		.syntax unified
 4274              		.thumb
 4275              		.thumb_func
 4277              	_Z27adBms6830_write_read_confighP9cell_asic:
 4278              		.fnstart
 4279              	.LVL459:
 4280              	.LFB259:
 875:Core/Src/ADBMS.cpp ****   adBmsWakeupIc(tIC);
 4281              		.loc 1 875 1 is_stmt 1 view -0
 4282              		.cfi_startproc
 4283              		@ args = 0, pretend = 0, frame = 0
 4284              		@ frame_needed = 0, uses_anonymous_args = 0
 875:Core/Src/ADBMS.cpp ****   adBmsWakeupIc(tIC);
 4285              		.loc 1 875 1 is_stmt 0 view .LVU1256
 4286 0000 F0B5     		push	{r4, r5, r6, r7, lr}
 4287              		.save {r4, r5, r6, r7, lr}
 4288              	.LCFI38:
 4289              		.cfi_def_cfa_offset 20
 4290              		.cfi_offset 4, -20
 4291              		.cfi_offset 5, -16
 4292              		.cfi_offset 6, -12
 4293              		.cfi_offset 7, -8
 4294              		.cfi_offset 14, -4
 4295              		.pad #12
 4296 0002 83B0     		sub	sp, sp, #12
 4297              	.LCFI39:
 4298              		.cfi_def_cfa_offset 32
 4299 0004 0446     		mov	r4, r0
 4300 0006 0D46     		mov	r5, r1
 876:Core/Src/ADBMS.cpp ****   adBmsWriteData(tIC, &ic[0], WRCFGA, Config, A);
 4301              		.loc 1 876 3 is_stmt 1 view .LVU1257
 876:Core/Src/ADBMS.cpp ****   adBmsWriteData(tIC, &ic[0], WRCFGA, Config, A);
 4302              		.loc 1 876 16 is_stmt 0 view .LVU1258
 4303 0008 FFF7FEFF 		bl	_Z13adBmsWakeupIch
 4304              	.LVL460:
 877:Core/Src/ADBMS.cpp ****   adBmsWriteData(tIC, &ic[0], WRCFGB, Config, B);
 4305              		.loc 1 877 3 is_stmt 1 view .LVU1259
 877:Core/Src/ADBMS.cpp ****   adBmsWriteData(tIC, &ic[0], WRCFGB, Config, B);
 4306              		.loc 1 877 17 is_stmt 0 view .LVU1260
 4307 000c 0127     		movs	r7, #1
 4308 000e 0097     		str	r7, [sp]
ARM GAS  C:\Users\huawei\AppData\Local\Temp\ccpVCJY0.s 			page 118


 4309 0010 0823     		movs	r3, #8
 4310 0012 144A     		ldr	r2, .L239
 4311 0014 2946     		mov	r1, r5
 4312 0016 2046     		mov	r0, r4
 4313 0018 FFF7FEFF 		bl	_Z14adBmsWriteDatahP9cell_asicPh4TYPE3GRP
 4314              	.LVL461:
 878:Core/Src/ADBMS.cpp ****   adBmsReadData(tIC, &ic[0], RDCFGA, Config, A);
 4315              		.loc 1 878 3 is_stmt 1 view .LVU1261
 878:Core/Src/ADBMS.cpp ****   adBmsReadData(tIC, &ic[0], RDCFGA, Config, A);
 4316              		.loc 1 878 17 is_stmt 0 view .LVU1262
 4317 001c 0226     		movs	r6, #2
 4318 001e 0096     		str	r6, [sp]
 4319 0020 0823     		movs	r3, #8
 4320 0022 114A     		ldr	r2, .L239+4
 4321 0024 2946     		mov	r1, r5
 4322 0026 2046     		mov	r0, r4
 4323 0028 FFF7FEFF 		bl	_Z14adBmsWriteDatahP9cell_asicPh4TYPE3GRP
 4324              	.LVL462:
 879:Core/Src/ADBMS.cpp ****   adBmsReadData(tIC, &ic[0], RDCFGB, Config, B);
 4325              		.loc 1 879 3 is_stmt 1 view .LVU1263
 879:Core/Src/ADBMS.cpp ****   adBmsReadData(tIC, &ic[0], RDCFGB, Config, B);
 4326              		.loc 1 879 16 is_stmt 0 view .LVU1264
 4327 002c 0097     		str	r7, [sp]
 4328 002e 0823     		movs	r3, #8
 4329 0030 0E4A     		ldr	r2, .L239+8
 4330 0032 2946     		mov	r1, r5
 4331 0034 2046     		mov	r0, r4
 4332 0036 FFF7FEFF 		bl	_Z13adBmsReadDatahP9cell_asicPh4TYPE3GRP
 4333              	.LVL463:
 880:Core/Src/ADBMS.cpp ****   printWriteConfig(tIC, &ic[0], Config, ALL_GRP);
 4334              		.loc 1 880 3 is_stmt 1 view .LVU1265
 880:Core/Src/ADBMS.cpp ****   printWriteConfig(tIC, &ic[0], Config, ALL_GRP);
 4335              		.loc 1 880 16 is_stmt 0 view .LVU1266
 4336 003a 0096     		str	r6, [sp]
 4337 003c 0823     		movs	r3, #8
 4338 003e 0C4A     		ldr	r2, .L239+12
 4339 0040 2946     		mov	r1, r5
 4340 0042 2046     		mov	r0, r4
 4341 0044 FFF7FEFF 		bl	_Z13adBmsReadDatahP9cell_asicPh4TYPE3GRP
 4342              	.LVL464:
 881:Core/Src/ADBMS.cpp ****   printReadConfig(tIC, &ic[0], Config, ALL_GRP);
 4343              		.loc 1 881 3 is_stmt 1 view .LVU1267
 881:Core/Src/ADBMS.cpp ****   printReadConfig(tIC, &ic[0], Config, ALL_GRP);
 4344              		.loc 1 881 19 is_stmt 0 view .LVU1268
 4345 0048 0023     		movs	r3, #0
 4346 004a 0822     		movs	r2, #8
 4347 004c 2946     		mov	r1, r5
 4348 004e 2046     		mov	r0, r4
 4349 0050 FFF7FEFF 		bl	_Z16printWriteConfighP9cell_asic4TYPE3GRP
 4350              	.LVL465:
 882:Core/Src/ADBMS.cpp **** }
 4351              		.loc 1 882 3 is_stmt 1 view .LVU1269
 882:Core/Src/ADBMS.cpp **** }
 4352              		.loc 1 882 18 is_stmt 0 view .LVU1270
 4353 0054 0023     		movs	r3, #0
 4354 0056 0822     		movs	r2, #8
 4355 0058 2946     		mov	r1, r5
ARM GAS  C:\Users\huawei\AppData\Local\Temp\ccpVCJY0.s 			page 119


 4356 005a 2046     		mov	r0, r4
 4357 005c FFF7FEFF 		bl	_Z15printReadConfighP9cell_asic4TYPE3GRP
 4358              	.LVL466:
 883:Core/Src/ADBMS.cpp **** 
 4359              		.loc 1 883 1 view .LVU1271
 4360 0060 03B0     		add	sp, sp, #12
 4361              	.LCFI40:
 4362              		.cfi_def_cfa_offset 20
 4363              		@ sp needed
 4364 0062 F0BD     		pop	{r4, r5, r6, r7, pc}
 4365              	.LVL467:
 4366              	.L240:
 883:Core/Src/ADBMS.cpp **** 
 4367              		.loc 1 883 1 view .LVU1272
 4368              		.align	2
 4369              	.L239:
 4370 0064 00000000 		.word	WRCFGA
 4371 0068 00000000 		.word	WRCFGB
 4372 006c 00000000 		.word	RDCFGA
 4373 0070 00000000 		.word	RDCFGB
 4374              		.cfi_endproc
 4375              	.LFE259:
 4376              		.fnend
 4378              		.section	.text._Z21adBms6830_read_confighP9cell_asic,"ax",%progbits
 4379              		.align	1
 4380              		.global	_Z21adBms6830_read_confighP9cell_asic
 4381              		.syntax unified
 4382              		.thumb
 4383              		.thumb_func
 4385              	_Z21adBms6830_read_confighP9cell_asic:
 4386              		.fnstart
 4387              	.LVL468:
 4388              	.LFB260:
 891:Core/Src/ADBMS.cpp ****   adBmsWakeupIc(tIC);
 4389              		.loc 1 891 1 is_stmt 1 view -0
 4390              		.cfi_startproc
 4391              		@ args = 0, pretend = 0, frame = 0
 4392              		@ frame_needed = 0, uses_anonymous_args = 0
 891:Core/Src/ADBMS.cpp ****   adBmsWakeupIc(tIC);
 4393              		.loc 1 891 1 is_stmt 0 view .LVU1274
 4394 0000 30B5     		push	{r4, r5, lr}
 4395              		.save {r4, r5, lr}
 4396              	.LCFI41:
 4397              		.cfi_def_cfa_offset 12
 4398              		.cfi_offset 4, -12
 4399              		.cfi_offset 5, -8
 4400              		.cfi_offset 14, -4
 4401              		.pad #12
 4402 0002 83B0     		sub	sp, sp, #12
 4403              	.LCFI42:
 4404              		.cfi_def_cfa_offset 24
 4405 0004 0446     		mov	r4, r0
 4406 0006 0D46     		mov	r5, r1
 892:Core/Src/ADBMS.cpp ****   adBmsReadData(tIC, &ic[0], RDCFGA, Config, A);
 4407              		.loc 1 892 3 is_stmt 1 view .LVU1275
 892:Core/Src/ADBMS.cpp ****   adBmsReadData(tIC, &ic[0], RDCFGA, Config, A);
 4408              		.loc 1 892 16 is_stmt 0 view .LVU1276
ARM GAS  C:\Users\huawei\AppData\Local\Temp\ccpVCJY0.s 			page 120


 4409 0008 FFF7FEFF 		bl	_Z13adBmsWakeupIch
 4410              	.LVL469:
 893:Core/Src/ADBMS.cpp ****   adBmsReadData(tIC, &ic[0], RDCFGB, Config, B);
 4411              		.loc 1 893 3 is_stmt 1 view .LVU1277
 893:Core/Src/ADBMS.cpp ****   adBmsReadData(tIC, &ic[0], RDCFGB, Config, B);
 4412              		.loc 1 893 16 is_stmt 0 view .LVU1278
 4413 000c 0123     		movs	r3, #1
 4414 000e 0093     		str	r3, [sp]
 4415 0010 0823     		movs	r3, #8
 4416 0012 0A4A     		ldr	r2, .L243
 4417 0014 2946     		mov	r1, r5
 4418 0016 2046     		mov	r0, r4
 4419 0018 FFF7FEFF 		bl	_Z13adBmsReadDatahP9cell_asicPh4TYPE3GRP
 4420              	.LVL470:
 894:Core/Src/ADBMS.cpp ****   printReadConfig(tIC, &ic[0], Config, ALL_GRP);
 4421              		.loc 1 894 3 is_stmt 1 view .LVU1279
 894:Core/Src/ADBMS.cpp ****   printReadConfig(tIC, &ic[0], Config, ALL_GRP);
 4422              		.loc 1 894 16 is_stmt 0 view .LVU1280
 4423 001c 0223     		movs	r3, #2
 4424 001e 0093     		str	r3, [sp]
 4425 0020 0823     		movs	r3, #8
 4426 0022 074A     		ldr	r2, .L243+4
 4427 0024 2946     		mov	r1, r5
 4428 0026 2046     		mov	r0, r4
 4429 0028 FFF7FEFF 		bl	_Z13adBmsReadDatahP9cell_asicPh4TYPE3GRP
 4430              	.LVL471:
 895:Core/Src/ADBMS.cpp **** }
 4431              		.loc 1 895 3 is_stmt 1 view .LVU1281
 895:Core/Src/ADBMS.cpp **** }
 4432              		.loc 1 895 18 is_stmt 0 view .LVU1282
 4433 002c 0023     		movs	r3, #0
 4434 002e 0822     		movs	r2, #8
 4435 0030 2946     		mov	r1, r5
 4436 0032 2046     		mov	r0, r4
 4437 0034 FFF7FEFF 		bl	_Z15printReadConfighP9cell_asic4TYPE3GRP
 4438              	.LVL472:
 896:Core/Src/ADBMS.cpp **** 
 4439              		.loc 1 896 1 view .LVU1283
 4440 0038 03B0     		add	sp, sp, #12
 4441              	.LCFI43:
 4442              		.cfi_def_cfa_offset 12
 4443              		@ sp needed
 4444 003a 30BD     		pop	{r4, r5, pc}
 4445              	.LVL473:
 4446              	.L244:
 896:Core/Src/ADBMS.cpp **** 
 4447              		.loc 1 896 1 view .LVU1284
 4448              		.align	2
 4449              	.L243:
 4450 003c 00000000 		.word	RDCFGA
 4451 0040 00000000 		.word	RDCFGB
 4452              		.cfi_endproc
 4453              	.LFE260:
 4454              		.fnend
 4456              		.section	.rodata._Z14printDeviceSIDhP9cell_asic4TYPE.str1.4,"aMS",%progbits,1
 4457              		.align	2
 4458              	.LC43:
ARM GAS  C:\Users\huawei\AppData\Local\Temp\ccpVCJY0.s 			page 121


 4459 0000 52656164 		.ascii	"Read Device SID:\000"
 4459      20446576 
 4459      69636520 
 4459      5349443A 
 4459      00
 4460 0011 000000   		.align	2
 4461              	.LC44:
 4462 0014 57726F6E 		.ascii	"Wrong Register Type Select\000"
 4462      67205265 
 4462      67697374 
 4462      65722054 
 4462      79706520 
 4463              		.section	.text._Z14printDeviceSIDhP9cell_asic4TYPE,"ax",%progbits
 4464              		.align	1
 4465              		.global	_Z14printDeviceSIDhP9cell_asic4TYPE
 4466              		.syntax unified
 4467              		.thumb
 4468              		.thumb_func
 4470              	_Z14printDeviceSIDhP9cell_asic4TYPE:
 4471              		.fnstart
 4472              	.LVL474:
 4473              	.LFB282:
1347:Core/Src/ADBMS.cpp **** 
1348:Core/Src/ADBMS.cpp **** /**
1349:Core/Src/ADBMS.cpp ****  *******************************************************************************
1350:Core/Src/ADBMS.cpp ****  * Function: printVoltages
1351:Core/Src/ADBMS.cpp ****  * @brief Print Voltages.
1352:Core/Src/ADBMS.cpp ****  *
1353:Core/Src/ADBMS.cpp ****  * @details This function Print Voltages into IAR I/O terminal.
1354:Core/Src/ADBMS.cpp ****  *
1355:Core/Src/ADBMS.cpp ****  * Parameters:
1356:Core/Src/ADBMS.cpp ****  * @param [in]	tIC    Total IC
1357:Core/Src/ADBMS.cpp ****  *
1358:Core/Src/ADBMS.cpp ****  * @param [in]  *IC    cell_asic stucture pointer
1359:Core/Src/ADBMS.cpp ****  *
1360:Core/Src/ADBMS.cpp ****  * @param [in]  type    Enum type of resistor group
1361:Core/Src/ADBMS.cpp ****  *
1362:Core/Src/ADBMS.cpp ****  * @return None
1363:Core/Src/ADBMS.cpp ****  *
1364:Core/Src/ADBMS.cpp ****  *******************************************************************************
1365:Core/Src/ADBMS.cpp **** */
1366:Core/Src/ADBMS.cpp **** void printVoltages(uint8_t tIC, cell_asic *IC, TYPE type)
1367:Core/Src/ADBMS.cpp **** {
1368:Core/Src/ADBMS.cpp ****   float voltage;
1369:Core/Src/ADBMS.cpp ****   int16_t temp;
1370:Core/Src/ADBMS.cpp ****   uint8_t channel;
1371:Core/Src/ADBMS.cpp ****   if((type == Cell) || (type == AvgCell) || (type == F_volt) || (type == S_volt))
1372:Core/Src/ADBMS.cpp ****   {
1373:Core/Src/ADBMS.cpp ****     channel = CELL;
1374:Core/Src/ADBMS.cpp ****   }
1375:Core/Src/ADBMS.cpp ****   else if (type == Aux){ channel = AUX;}
1376:Core/Src/ADBMS.cpp ****   else if (type == RAux){channel = RAUX;}
1377:Core/Src/ADBMS.cpp ****   for(uint8_t ic = 0; ic < tIC; ic++)
1378:Core/Src/ADBMS.cpp ****   {
1379:Core/Src/ADBMS.cpp ****     printf("IC%d:",(ic+1));
1380:Core/Src/ADBMS.cpp ****     for(uint8_t index = 0; index < channel; index++)
1381:Core/Src/ADBMS.cpp ****     {
ARM GAS  C:\Users\huawei\AppData\Local\Temp\ccpVCJY0.s 			page 122


1382:Core/Src/ADBMS.cpp ****       if(type == Cell){ temp = IC[ic].cell.c_codes[index]; }
1383:Core/Src/ADBMS.cpp ****       else if(type == AvgCell){ temp = IC[ic].acell.ac_codes[index]; }
1384:Core/Src/ADBMS.cpp ****       else if(type == F_volt){ temp = IC[ic].fcell.fc_codes[index]; }
1385:Core/Src/ADBMS.cpp ****       else if(type == S_volt){ temp = IC[ic].scell.sc_codes[index]; }
1386:Core/Src/ADBMS.cpp ****       else if(type == Aux){ temp = IC[ic].aux.a_codes[index]; }
1387:Core/Src/ADBMS.cpp ****       else if(type == RAux){ temp = IC[ic].raux.ra_codes[index]; }
1388:Core/Src/ADBMS.cpp ****       voltage = getVoltage(temp);
1389:Core/Src/ADBMS.cpp ****       if(type == Cell)
1390:Core/Src/ADBMS.cpp ****       {
1391:Core/Src/ADBMS.cpp ****         printf("C%d=%fV,",(index+1), voltage);
1392:Core/Src/ADBMS.cpp ****         if(index == (channel-1))
1393:Core/Src/ADBMS.cpp ****         {
1394:Core/Src/ADBMS.cpp ****           printf("CCount:%d,",IC[ic].cccrc.cmd_cntr);
1395:Core/Src/ADBMS.cpp ****           printf("PECError:%d",IC[ic].cccrc.cell_pec);
1396:Core/Src/ADBMS.cpp ****         }
1397:Core/Src/ADBMS.cpp ****       }
1398:Core/Src/ADBMS.cpp ****       else if(type == AvgCell)
1399:Core/Src/ADBMS.cpp ****       {
1400:Core/Src/ADBMS.cpp ****         printf("AC%d=%fV,",(index+1), voltage);
1401:Core/Src/ADBMS.cpp ****         if(index == (channel-1))
1402:Core/Src/ADBMS.cpp ****         {
1403:Core/Src/ADBMS.cpp ****           printf("CCount:%d,",IC[ic].cccrc.cmd_cntr);
1404:Core/Src/ADBMS.cpp ****           printf("PECError:%d",IC[ic].cccrc.acell_pec);
1405:Core/Src/ADBMS.cpp ****         }
1406:Core/Src/ADBMS.cpp ****       }
1407:Core/Src/ADBMS.cpp ****       else if(type == F_volt)
1408:Core/Src/ADBMS.cpp ****       {
1409:Core/Src/ADBMS.cpp ****         printf("FC%d=%fV,",(index+1), voltage);
1410:Core/Src/ADBMS.cpp ****         if(index == (channel-1))
1411:Core/Src/ADBMS.cpp ****         {
1412:Core/Src/ADBMS.cpp ****           printf("CCount:%d,",IC[ic].cccrc.cmd_cntr);
1413:Core/Src/ADBMS.cpp ****           printf("PECError:%d",IC[ic].cccrc.fcell_pec);
1414:Core/Src/ADBMS.cpp ****         }
1415:Core/Src/ADBMS.cpp ****       }
1416:Core/Src/ADBMS.cpp ****       else if(type == S_volt)
1417:Core/Src/ADBMS.cpp ****       {
1418:Core/Src/ADBMS.cpp ****         printf("S%d=%fV,",(index+1), voltage);
1419:Core/Src/ADBMS.cpp ****         if(index == (channel-1))
1420:Core/Src/ADBMS.cpp ****         {
1421:Core/Src/ADBMS.cpp ****           printf("CCount:%d,",IC[ic].cccrc.cmd_cntr);
1422:Core/Src/ADBMS.cpp ****           printf("PECError:%d",IC[ic].cccrc.scell_pec);
1423:Core/Src/ADBMS.cpp ****         }
1424:Core/Src/ADBMS.cpp ****       }
1425:Core/Src/ADBMS.cpp ****       else if(type == Aux)
1426:Core/Src/ADBMS.cpp ****       {
1427:Core/Src/ADBMS.cpp ****         if(index <= 9)
1428:Core/Src/ADBMS.cpp ****         {
1429:Core/Src/ADBMS.cpp ****           printf("AUX%d=%fV,",(index+1), voltage);
1430:Core/Src/ADBMS.cpp ****         }
1431:Core/Src/ADBMS.cpp ****         else if(index == 10)
1432:Core/Src/ADBMS.cpp ****         {
1433:Core/Src/ADBMS.cpp ****           printf("VMV:%fV,",(20 * voltage));
1434:Core/Src/ADBMS.cpp ****         }
1435:Core/Src/ADBMS.cpp ****         else if(index == 11)
1436:Core/Src/ADBMS.cpp ****         {
1437:Core/Src/ADBMS.cpp ****           printf("V+:%fV,",(20 * voltage));
1438:Core/Src/ADBMS.cpp ****           printf("CCount:%d,",IC[ic].cccrc.cmd_cntr);
ARM GAS  C:\Users\huawei\AppData\Local\Temp\ccpVCJY0.s 			page 123


1439:Core/Src/ADBMS.cpp ****           printf("PECError:%d",IC[ic].cccrc.aux_pec);
1440:Core/Src/ADBMS.cpp ****         }
1441:Core/Src/ADBMS.cpp ****       }
1442:Core/Src/ADBMS.cpp ****       else if(type == RAux)
1443:Core/Src/ADBMS.cpp ****       {
1444:Core/Src/ADBMS.cpp ****         printf("RAUX%d=%fV,",(index+1), voltage);
1445:Core/Src/ADBMS.cpp ****         if(index == (channel-1))
1446:Core/Src/ADBMS.cpp ****         {
1447:Core/Src/ADBMS.cpp ****           printf("CCount:%d,",IC[ic].cccrc.cmd_cntr);
1448:Core/Src/ADBMS.cpp ****           printf("PECError:%d",IC[ic].cccrc.raux_pec);
1449:Core/Src/ADBMS.cpp ****         }
1450:Core/Src/ADBMS.cpp ****       }
1451:Core/Src/ADBMS.cpp ****       else{ printf("Wrong Register Group Select\n"); }
1452:Core/Src/ADBMS.cpp ****     }
1453:Core/Src/ADBMS.cpp ****     printf("\n\n");
1454:Core/Src/ADBMS.cpp ****   }
1455:Core/Src/ADBMS.cpp **** }
1456:Core/Src/ADBMS.cpp **** 
1457:Core/Src/ADBMS.cpp **** /**
1458:Core/Src/ADBMS.cpp ****  *******************************************************************************
1459:Core/Src/ADBMS.cpp ****  * Function: PrintStatus
1460:Core/Src/ADBMS.cpp ****  * @brief Print status reg. result.
1461:Core/Src/ADBMS.cpp ****  *
1462:Core/Src/ADBMS.cpp ****  * @details This function Print status result into IAR I/O terminal.
1463:Core/Src/ADBMS.cpp ****  *
1464:Core/Src/ADBMS.cpp ****  * Parameters:
1465:Core/Src/ADBMS.cpp ****  * @param [in]	tIC      Total IC
1466:Core/Src/ADBMS.cpp ****  *
1467:Core/Src/ADBMS.cpp ****  * @param [in]  *IC      cell_asic stucture pointer
1468:Core/Src/ADBMS.cpp ****  *
1469:Core/Src/ADBMS.cpp ****  * @param [in]  type     Enum type of resistor
1470:Core/Src/ADBMS.cpp ****  *
1471:Core/Src/ADBMS.cpp ****  * @param [in]  grp      Enum type of resistor group
1472:Core/Src/ADBMS.cpp ****  *
1473:Core/Src/ADBMS.cpp ****  * @return None
1474:Core/Src/ADBMS.cpp ****  *
1475:Core/Src/ADBMS.cpp ****  *******************************************************************************
1476:Core/Src/ADBMS.cpp **** */
1477:Core/Src/ADBMS.cpp **** void printStatus(uint8_t tIC, cell_asic *IC, TYPE type, GRP grp)
1478:Core/Src/ADBMS.cpp **** {
1479:Core/Src/ADBMS.cpp ****   float voltage;
1480:Core/Src/ADBMS.cpp ****   for(uint8_t ic = 0; ic < tIC; ic++)
1481:Core/Src/ADBMS.cpp ****   {
1482:Core/Src/ADBMS.cpp ****     printf("IC%d:\n",(ic+1));
1483:Core/Src/ADBMS.cpp ****     if(type == Status)
1484:Core/Src/ADBMS.cpp ****     {
1485:Core/Src/ADBMS.cpp ****       if(grp == A)
1486:Core/Src/ADBMS.cpp ****       {
1487:Core/Src/ADBMS.cpp ****         printf("Status A:\n");
1488:Core/Src/ADBMS.cpp ****         voltage = getVoltage(IC[ic].stata.vref2);
1489:Core/Src/ADBMS.cpp ****         printf("VREF2:%fV, ", voltage);
1490:Core/Src/ADBMS.cpp ****         voltage = getVoltage(IC[ic].stata.vref3);
1491:Core/Src/ADBMS.cpp ****         printf("VREF3:%fV, ", voltage);
1492:Core/Src/ADBMS.cpp ****         voltage = getVoltage(IC[ic].stata.itmp);
1493:Core/Src/ADBMS.cpp ****         printf("ITMP:%fC\n", (voltage/0.0075)-273);
1494:Core/Src/ADBMS.cpp **** 
1495:Core/Src/ADBMS.cpp ****         printf("CCount:%d, ",IC[ic].cccrc.cmd_cntr);
ARM GAS  C:\Users\huawei\AppData\Local\Temp\ccpVCJY0.s 			page 124


1496:Core/Src/ADBMS.cpp ****         printf("PECError:%d\n\n",IC[ic].cccrc.stat_pec);
1497:Core/Src/ADBMS.cpp ****       }
1498:Core/Src/ADBMS.cpp ****       else if(grp == B)
1499:Core/Src/ADBMS.cpp ****       {
1500:Core/Src/ADBMS.cpp ****         printf("Status B:\n");
1501:Core/Src/ADBMS.cpp ****         voltage = getVoltage(IC[ic].statb.va);
1502:Core/Src/ADBMS.cpp ****         printf("VA:%fV, ", voltage);
1503:Core/Src/ADBMS.cpp ****         voltage = getVoltage(IC[ic].statb.vd);
1504:Core/Src/ADBMS.cpp ****         printf("VD:%fV, ", voltage);
1505:Core/Src/ADBMS.cpp ****         voltage = getVoltage(IC[ic].statb.vr4k);
1506:Core/Src/ADBMS.cpp ****         printf("VR4K:%fV\n", voltage);
1507:Core/Src/ADBMS.cpp **** 
1508:Core/Src/ADBMS.cpp ****         printf("CCount:%d, ",IC[ic].cccrc.cmd_cntr);
1509:Core/Src/ADBMS.cpp ****         printf("PECError:%d\n\n",IC[ic].cccrc.stat_pec);
1510:Core/Src/ADBMS.cpp ****       }
1511:Core/Src/ADBMS.cpp ****       else if(grp == C)
1512:Core/Src/ADBMS.cpp ****       {
1513:Core/Src/ADBMS.cpp ****         printf("Status C:\n");
1514:Core/Src/ADBMS.cpp ****         printf("CSFLT:0x%X, ", IC[ic].statc.cs_flt);
1515:Core/Src/ADBMS.cpp **** 
1516:Core/Src/ADBMS.cpp ****         printf("OTP2_MED:0x%X, ", IC[ic].statc.otp2_med);
1517:Core/Src/ADBMS.cpp ****         printf("OTP2_ED:0x%X, ", IC[ic].statc.otp2_ed);
1518:Core/Src/ADBMS.cpp ****         printf("OTP1_MED:0x%X ", IC[ic].statc.otp1_med);
1519:Core/Src/ADBMS.cpp ****         printf("OTP1_ED:0x%X, ", IC[ic].statc.otp1_ed);
1520:Core/Src/ADBMS.cpp ****         printf("VD_UV:0x%X, ", IC[ic].statc.vd_uv);
1521:Core/Src/ADBMS.cpp ****         printf("VD_OV:0x%X, ", IC[ic].statc.vd_ov);
1522:Core/Src/ADBMS.cpp ****         printf("VA_UV:0x%X, ", IC[ic].statc.va_uv);
1523:Core/Src/ADBMS.cpp ****         printf("VA_OV:0x%X\n", IC[ic].statc.va_ov);
1524:Core/Src/ADBMS.cpp **** 
1525:Core/Src/ADBMS.cpp ****         printf("OSCCHK:0x%X, ", IC[ic].statc.oscchk);
1526:Core/Src/ADBMS.cpp ****         printf("TMODCHK:0x%X, ", IC[ic].statc.tmodchk);
1527:Core/Src/ADBMS.cpp ****         printf("THSD:0x%X, ", IC[ic].statc.thsd);
1528:Core/Src/ADBMS.cpp ****         printf("SLEEP:0x%X, ", IC[ic].statc.sleep);
1529:Core/Src/ADBMS.cpp ****         printf("SPIFLT:0x%X, ", IC[ic].statc.spiflt);
1530:Core/Src/ADBMS.cpp ****         printf("COMP:0x%X, ", IC[ic].statc.comp);
1531:Core/Src/ADBMS.cpp ****         printf("VDEL:0x%X, ", IC[ic].statc.vdel);
1532:Core/Src/ADBMS.cpp ****         printf("VDE:0x%X\n", IC[ic].statc.vde);
1533:Core/Src/ADBMS.cpp **** 
1534:Core/Src/ADBMS.cpp ****         printf("CCount:%d, ", IC[ic].cccrc.cmd_cntr);
1535:Core/Src/ADBMS.cpp ****         printf("PECError:%d\n\n", IC[ic].cccrc.stat_pec);
1536:Core/Src/ADBMS.cpp ****       }
1537:Core/Src/ADBMS.cpp ****       else if(grp == D)
1538:Core/Src/ADBMS.cpp ****       {
1539:Core/Src/ADBMS.cpp ****         printf("Status D:\n");
1540:Core/Src/ADBMS.cpp ****         printf("C1UV:0x%X, ", IC[ic].statd.c_uv[0]);
1541:Core/Src/ADBMS.cpp ****         printf("C2UV:0x%X, ", IC[ic].statd.c_uv[1]);
1542:Core/Src/ADBMS.cpp ****         printf("C3UV:0x%X, ", IC[ic].statd.c_uv[2]);
1543:Core/Src/ADBMS.cpp ****         printf("C4UV:0x%X, ", IC[ic].statd.c_uv[3]);
1544:Core/Src/ADBMS.cpp ****         printf("C5UV:0x%X, ", IC[ic].statd.c_uv[4]);
1545:Core/Src/ADBMS.cpp ****         printf("C6UV:0x%X, ", IC[ic].statd.c_uv[5]);
1546:Core/Src/ADBMS.cpp ****         printf("C7UV:0x%X, ", IC[ic].statd.c_uv[6]);
1547:Core/Src/ADBMS.cpp ****         printf("C8UV:0x%X, ", IC[ic].statd.c_uv[7]);
1548:Core/Src/ADBMS.cpp ****         printf("C9UV:0x%X, ", IC[ic].statd.c_uv[8]);
1549:Core/Src/ADBMS.cpp ****         printf("C10UV:0x%X, ", IC[ic].statd.c_uv[9]);
1550:Core/Src/ADBMS.cpp ****         printf("C11UV:0x%X, ", IC[ic].statd.c_uv[10]);
1551:Core/Src/ADBMS.cpp ****         printf("C12UV:0x%X, ", IC[ic].statd.c_uv[11]);
1552:Core/Src/ADBMS.cpp ****         printf("C13UV:0x%X, ", IC[ic].statd.c_uv[12]);
ARM GAS  C:\Users\huawei\AppData\Local\Temp\ccpVCJY0.s 			page 125


1553:Core/Src/ADBMS.cpp ****         printf("C14UV:0x%X, ", IC[ic].statd.c_uv[13]);
1554:Core/Src/ADBMS.cpp ****         printf("C15UV:0x%X, ", IC[ic].statd.c_uv[14]);
1555:Core/Src/ADBMS.cpp ****         printf("C16UV:0x%X\n", IC[ic].statd.c_uv[15]);
1556:Core/Src/ADBMS.cpp **** 
1557:Core/Src/ADBMS.cpp ****         printf("C1OV:0x%X, ", IC[ic].statd.c_ov[0]);
1558:Core/Src/ADBMS.cpp ****         printf("C2OV:0x%X, ", IC[ic].statd.c_ov[1]);
1559:Core/Src/ADBMS.cpp ****         printf("C3OV:0x%X, ", IC[ic].statd.c_ov[2]);
1560:Core/Src/ADBMS.cpp ****         printf("C4OV:0x%X, ", IC[ic].statd.c_ov[3]);
1561:Core/Src/ADBMS.cpp ****         printf("C5OV:0x%X, ", IC[ic].statd.c_ov[4]);
1562:Core/Src/ADBMS.cpp ****         printf("C6OV:0x%X, ", IC[ic].statd.c_ov[5]);
1563:Core/Src/ADBMS.cpp ****         printf("C7OV:0x%X, ", IC[ic].statd.c_ov[6]);
1564:Core/Src/ADBMS.cpp ****         printf("C8OV:0x%X, ", IC[ic].statd.c_ov[7]);
1565:Core/Src/ADBMS.cpp ****         printf("C9OV:0x%X, ", IC[ic].statd.c_ov[8]);
1566:Core/Src/ADBMS.cpp ****         printf("C10OV:0x%X, ", IC[ic].statd.c_ov[9]);
1567:Core/Src/ADBMS.cpp ****         printf("C11OV:0x%X, ", IC[ic].statd.c_ov[10]);
1568:Core/Src/ADBMS.cpp ****         printf("C12OV:0x%X, ", IC[ic].statd.c_ov[11]);
1569:Core/Src/ADBMS.cpp ****         printf("C13OV:0x%X, ", IC[ic].statd.c_ov[12]);
1570:Core/Src/ADBMS.cpp ****         printf("C14OV:0x%X, ", IC[ic].statd.c_ov[13]);
1571:Core/Src/ADBMS.cpp ****         printf("C15OV:0x%X, ", IC[ic].statd.c_ov[14]);
1572:Core/Src/ADBMS.cpp ****         printf("C16OV:0x%X\n", IC[ic].statd.c_ov[15]);
1573:Core/Src/ADBMS.cpp **** 
1574:Core/Src/ADBMS.cpp ****         printf("CTS:0x%X, ", IC[ic].statd.cts);
1575:Core/Src/ADBMS.cpp ****         printf("CT:0x%X, ", IC[ic].statd.ct);
1576:Core/Src/ADBMS.cpp ****         printf("OC_CNTR:0x%X\n", IC[ic].statd.oc_cntr);
1577:Core/Src/ADBMS.cpp **** 
1578:Core/Src/ADBMS.cpp ****         printf("CCount:%d, ", IC[ic].cccrc.cmd_cntr);
1579:Core/Src/ADBMS.cpp ****         printf("PECError:%d\n\n", IC[ic].cccrc.stat_pec);
1580:Core/Src/ADBMS.cpp ****       }
1581:Core/Src/ADBMS.cpp ****       else if(grp == E)
1582:Core/Src/ADBMS.cpp ****       {
1583:Core/Src/ADBMS.cpp ****         printf("Status E:\n");
1584:Core/Src/ADBMS.cpp ****         printf("GPI:0x%X, ", IC[ic].state.gpi);
1585:Core/Src/ADBMS.cpp ****         printf("REV_ID:0x%X\n", IC[ic].state.rev);
1586:Core/Src/ADBMS.cpp **** 
1587:Core/Src/ADBMS.cpp ****         printf("CCount:%d, ", IC[ic].cccrc.cmd_cntr);
1588:Core/Src/ADBMS.cpp ****         printf("PECError:%d\n\n", IC[ic].cccrc.stat_pec);
1589:Core/Src/ADBMS.cpp ****       }
1590:Core/Src/ADBMS.cpp ****       else if(grp == ALL_GRP)
1591:Core/Src/ADBMS.cpp ****       {
1592:Core/Src/ADBMS.cpp ****         printf("Status A:\n");
1593:Core/Src/ADBMS.cpp ****         voltage = getVoltage(IC[ic].stata.vref2);
1594:Core/Src/ADBMS.cpp ****         printf("VREF2:%fV, ", voltage);
1595:Core/Src/ADBMS.cpp ****         voltage = getVoltage(IC[ic].stata.vref3);
1596:Core/Src/ADBMS.cpp ****         printf("VREF3:%fV, ", voltage);
1597:Core/Src/ADBMS.cpp ****         voltage = getVoltage(IC[ic].stata.itmp);
1598:Core/Src/ADBMS.cpp ****         printf("ITMP:%fC\n\n", (voltage/0.0075)-273);
1599:Core/Src/ADBMS.cpp **** 
1600:Core/Src/ADBMS.cpp ****         printf("Status B:\n");
1601:Core/Src/ADBMS.cpp ****         voltage = getVoltage(IC[ic].statb.va);
1602:Core/Src/ADBMS.cpp ****         printf("VA:%fV, ", voltage);
1603:Core/Src/ADBMS.cpp ****         voltage = getVoltage(IC[ic].statb.vd);
1604:Core/Src/ADBMS.cpp ****         printf("VD:%fV, ", voltage);
1605:Core/Src/ADBMS.cpp ****         voltage = getVoltage(IC[ic].statb.vr4k);
1606:Core/Src/ADBMS.cpp ****         printf("VR4K:%fV\n\n", voltage);
1607:Core/Src/ADBMS.cpp **** 
1608:Core/Src/ADBMS.cpp ****         printf("Status C:\n");
1609:Core/Src/ADBMS.cpp ****         printf("CSFLT:0x%X, ", IC[ic].statc.cs_flt);
ARM GAS  C:\Users\huawei\AppData\Local\Temp\ccpVCJY0.s 			page 126


1610:Core/Src/ADBMS.cpp **** 
1611:Core/Src/ADBMS.cpp ****         printf("OTP2_MED:0x%X, ", IC[ic].statc.otp2_med);
1612:Core/Src/ADBMS.cpp ****         printf("OTP2_ED:0x%X, ", IC[ic].statc.otp2_ed);
1613:Core/Src/ADBMS.cpp ****         printf("OTP1_MED:0x%X, ", IC[ic].statc.otp1_med);
1614:Core/Src/ADBMS.cpp ****         printf("OTP1_ED:0x%X, ", IC[ic].statc.otp1_ed);
1615:Core/Src/ADBMS.cpp ****         printf("VD_UV:0x%X, ", IC[ic].statc.vd_uv);
1616:Core/Src/ADBMS.cpp ****         printf("VD_OV:0x%X, ", IC[ic].statc.vd_ov);
1617:Core/Src/ADBMS.cpp ****         printf("VA_UV:0x%X, ", IC[ic].statc.va_uv);
1618:Core/Src/ADBMS.cpp ****         printf("VA_OV:0x%X\n", IC[ic].statc.va_ov);
1619:Core/Src/ADBMS.cpp **** 
1620:Core/Src/ADBMS.cpp ****         printf("OSCCHK:0x%X, ", IC[ic].statc.oscchk);
1621:Core/Src/ADBMS.cpp ****         printf("TMODCHK:0x%X, ", IC[ic].statc.tmodchk);
1622:Core/Src/ADBMS.cpp ****         printf("THSD:0x%X, ", IC[ic].statc.thsd);
1623:Core/Src/ADBMS.cpp ****         printf("SLEEP:0x%X, ", IC[ic].statc.sleep);
1624:Core/Src/ADBMS.cpp ****         printf("SPIFLT:0x%X, ", IC[ic].statc.spiflt);
1625:Core/Src/ADBMS.cpp ****         printf("COMP:0x%X, ", IC[ic].statc.comp);
1626:Core/Src/ADBMS.cpp ****         printf("VDEL:0x%X, ", IC[ic].statc.vdel);
1627:Core/Src/ADBMS.cpp ****         printf("VDE:0x%X\n\n", IC[ic].statc.vde);
1628:Core/Src/ADBMS.cpp **** 
1629:Core/Src/ADBMS.cpp ****         printf("Status D:\n");
1630:Core/Src/ADBMS.cpp ****         printf("C1UV:0x%X, ", IC[ic].statd.c_uv[0]);
1631:Core/Src/ADBMS.cpp ****         printf("C2UV:0x%X, ", IC[ic].statd.c_uv[1]);
1632:Core/Src/ADBMS.cpp ****         printf("C3UV:0x%X, ", IC[ic].statd.c_uv[2]);
1633:Core/Src/ADBMS.cpp ****         printf("C4UV:0x%X, ", IC[ic].statd.c_uv[3]);
1634:Core/Src/ADBMS.cpp ****         printf("C5UV:0x%X, ", IC[ic].statd.c_uv[4]);
1635:Core/Src/ADBMS.cpp ****         printf("C6UV:0x%X, ", IC[ic].statd.c_uv[5]);
1636:Core/Src/ADBMS.cpp ****         printf("C7UV:0x%X, ", IC[ic].statd.c_uv[6]);
1637:Core/Src/ADBMS.cpp ****         printf("C8UV:0x%X, ", IC[ic].statd.c_uv[7]);
1638:Core/Src/ADBMS.cpp ****         printf("C9UV:0x%X, ", IC[ic].statd.c_uv[8]);
1639:Core/Src/ADBMS.cpp ****         printf("C10UV:0x%X, ", IC[ic].statd.c_uv[9]);
1640:Core/Src/ADBMS.cpp ****         printf("C11UV:0x%X, ", IC[ic].statd.c_uv[10]);
1641:Core/Src/ADBMS.cpp ****         printf("C12UV:0x%X, ", IC[ic].statd.c_uv[11]);
1642:Core/Src/ADBMS.cpp ****         printf("C13UV:0x%X, ", IC[ic].statd.c_uv[12]);
1643:Core/Src/ADBMS.cpp ****         printf("C14UV:0x%X, ", IC[ic].statd.c_uv[13]);
1644:Core/Src/ADBMS.cpp ****         printf("C15UV:0x%X, ", IC[ic].statd.c_uv[14]);
1645:Core/Src/ADBMS.cpp ****         printf("C16UV:0x%X\n", IC[ic].statd.c_uv[15]);
1646:Core/Src/ADBMS.cpp **** 
1647:Core/Src/ADBMS.cpp ****         printf("C1OV:0x%X, ", IC[ic].statd.c_ov[0]);
1648:Core/Src/ADBMS.cpp ****         printf("C2OV:0x%X, ", IC[ic].statd.c_ov[1]);
1649:Core/Src/ADBMS.cpp ****         printf("C3OV:0x%X, ", IC[ic].statd.c_ov[2]);
1650:Core/Src/ADBMS.cpp ****         printf("C4OV:0x%X, ", IC[ic].statd.c_ov[3]);
1651:Core/Src/ADBMS.cpp ****         printf("C5OV:0x%X, ", IC[ic].statd.c_ov[4]);
1652:Core/Src/ADBMS.cpp ****         printf("C6OV:0x%X, ", IC[ic].statd.c_ov[5]);
1653:Core/Src/ADBMS.cpp ****         printf("C7OV:0x%X, ", IC[ic].statd.c_ov[6]);
1654:Core/Src/ADBMS.cpp ****         printf("C8OV:0x%X, ", IC[ic].statd.c_ov[7]);
1655:Core/Src/ADBMS.cpp ****         printf("C9OV:0x%X, ", IC[ic].statd.c_ov[8]);
1656:Core/Src/ADBMS.cpp ****         printf("C10OV:0x%X, ", IC[ic].statd.c_ov[9]);
1657:Core/Src/ADBMS.cpp ****         printf("C11OV:0x%X, ", IC[ic].statd.c_ov[10]);
1658:Core/Src/ADBMS.cpp ****         printf("C12OV:0x%X, ", IC[ic].statd.c_ov[11]);
1659:Core/Src/ADBMS.cpp ****         printf("C13OV:0x%X, ", IC[ic].statd.c_ov[12]);
1660:Core/Src/ADBMS.cpp ****         printf("C14OV:0x%X, ", IC[ic].statd.c_ov[13]);
1661:Core/Src/ADBMS.cpp ****         printf("C15OV:0x%X, ", IC[ic].statd.c_ov[14]);
1662:Core/Src/ADBMS.cpp ****         printf("C16OV:0x%X\n", IC[ic].statd.c_ov[15]);
1663:Core/Src/ADBMS.cpp **** 
1664:Core/Src/ADBMS.cpp ****         printf("CTS:0x%X, ", IC[ic].statd.cts);
1665:Core/Src/ADBMS.cpp ****         printf("CT:0x%X\n\n", IC[ic].statd.ct);
1666:Core/Src/ADBMS.cpp **** 
ARM GAS  C:\Users\huawei\AppData\Local\Temp\ccpVCJY0.s 			page 127


1667:Core/Src/ADBMS.cpp ****         printf("Status E:\n");
1668:Core/Src/ADBMS.cpp ****         printf("GPI:0x%X, ", IC[ic].state.gpi);
1669:Core/Src/ADBMS.cpp ****         printf("REV_ID:0x%X\n\n", IC[ic].state.rev);
1670:Core/Src/ADBMS.cpp **** 
1671:Core/Src/ADBMS.cpp ****         printf("CCount:%d, ", IC[ic].cccrc.cmd_cntr);
1672:Core/Src/ADBMS.cpp ****         printf("PECError:%d\n\n", IC[ic].cccrc.stat_pec);
1673:Core/Src/ADBMS.cpp ****       }
1674:Core/Src/ADBMS.cpp ****       else{ printf("Wrong Register Group Select\n"); }
1675:Core/Src/ADBMS.cpp ****     }
1676:Core/Src/ADBMS.cpp ****   }
1677:Core/Src/ADBMS.cpp **** }
1678:Core/Src/ADBMS.cpp **** 
1679:Core/Src/ADBMS.cpp **** /**
1680:Core/Src/ADBMS.cpp ****  *******************************************************************************
1681:Core/Src/ADBMS.cpp ****  * Function: PrintDeviceSID
1682:Core/Src/ADBMS.cpp ****  * @brief Print Device SID.
1683:Core/Src/ADBMS.cpp ****  *
1684:Core/Src/ADBMS.cpp ****  * @details This function Print Device SID into IAR I/O terminal.
1685:Core/Src/ADBMS.cpp ****  *
1686:Core/Src/ADBMS.cpp ****  * Parameters:
1687:Core/Src/ADBMS.cpp ****  * @param [in]	tIC      Total IC
1688:Core/Src/ADBMS.cpp ****  *
1689:Core/Src/ADBMS.cpp ****  * @param [in]  *IC      cell_asic stucture pointer
1690:Core/Src/ADBMS.cpp ****  *
1691:Core/Src/ADBMS.cpp ****  * @param [in]  type     Enum type of resistor
1692:Core/Src/ADBMS.cpp ****  *
1693:Core/Src/ADBMS.cpp ****  * @return None
1694:Core/Src/ADBMS.cpp ****  *
1695:Core/Src/ADBMS.cpp ****  *******************************************************************************
1696:Core/Src/ADBMS.cpp **** */
1697:Core/Src/ADBMS.cpp **** void printDeviceSID(uint8_t tIC, cell_asic *IC, TYPE type)
1698:Core/Src/ADBMS.cpp **** {
 4474              		.loc 1 1698 1 is_stmt 1 view -0
 4475              		.cfi_startproc
 4476              		@ args = 0, pretend = 0, frame = 0
 4477              		@ frame_needed = 0, uses_anonymous_args = 0
 4478              		.loc 1 1698 1 is_stmt 0 view .LVU1286
 4479 0000 2DE9F843 		push	{r3, r4, r5, r6, r7, r8, r9, lr}
 4480              		.save {r3, r4, r5, r6, r7, r8, r9, lr}
 4481              	.LCFI44:
 4482              		.cfi_def_cfa_offset 32
 4483              		.cfi_offset 3, -32
 4484              		.cfi_offset 4, -28
 4485              		.cfi_offset 5, -24
 4486              		.cfi_offset 6, -20
 4487              		.cfi_offset 7, -16
 4488              		.cfi_offset 8, -12
 4489              		.cfi_offset 9, -8
 4490              		.cfi_offset 14, -4
 4491 0004 0746     		mov	r7, r0
 4492 0006 8946     		mov	r9, r1
 4493 0008 9046     		mov	r8, r2
1699:Core/Src/ADBMS.cpp ****   for(uint8_t ic = 0; ic < tIC; ic++)
 4494              		.loc 1 1699 3 is_stmt 1 view .LVU1287
 4495              	.LVL475:
 4496              	.LBB101:
 4497              		.loc 1 1699 15 is_stmt 0 view .LVU1288
ARM GAS  C:\Users\huawei\AppData\Local\Temp\ccpVCJY0.s 			page 128


 4498 000a 0024     		movs	r4, #0
 4499              		.loc 1 1699 3 view .LVU1289
 4500 000c 31E0     		b	.L246
 4501              	.LVL476:
 4502              	.L252:
1700:Core/Src/ADBMS.cpp ****   {
1701:Core/Src/ADBMS.cpp ****     printf("IC%d:\n",(ic+1));
1702:Core/Src/ADBMS.cpp ****     if(type == Sid)
1703:Core/Src/ADBMS.cpp ****     {
1704:Core/Src/ADBMS.cpp ****         printf("Read Device SID:\n");
 4503              		.loc 1 1704 9 is_stmt 1 view .LVU1290
 4504              		.loc 1 1704 15 is_stmt 0 view .LVU1291
 4505 000e 2048     		ldr	r0, .L253
 4506 0010 FFF7FEFF 		bl	puts
 4507              	.LVL477:
1705:Core/Src/ADBMS.cpp ****         printf("0x%X, ", IC[ic].sid.sid[0]);
 4508              		.loc 1 1705 9 is_stmt 1 view .LVU1292
 4509              		.loc 1 1705 31 is_stmt 0 view .LVU1293
 4510 0014 4FF42875 		mov	r5, #672
 4511 0018 05FB0495 		mla	r5, r5, r4, r9
 4512              		.loc 1 1705 15 view .LVU1294
 4513 001c 1D4E     		ldr	r6, .L253+4
 4514 001e 95F81911 		ldrb	r1, [r5, #281]	@ zero_extendqisi2
 4515 0022 3046     		mov	r0, r6
 4516 0024 FFF7FEFF 		bl	printf
 4517              	.LVL478:
1706:Core/Src/ADBMS.cpp ****         printf("0x%X, ", IC[ic].sid.sid[1]);
 4518              		.loc 1 1706 9 is_stmt 1 view .LVU1295
 4519              		.loc 1 1706 15 is_stmt 0 view .LVU1296
 4520 0028 95F81A11 		ldrb	r1, [r5, #282]	@ zero_extendqisi2
 4521 002c 3046     		mov	r0, r6
 4522 002e FFF7FEFF 		bl	printf
 4523              	.LVL479:
1707:Core/Src/ADBMS.cpp ****         printf("0x%X, ", IC[ic].sid.sid[2]);
 4524              		.loc 1 1707 9 is_stmt 1 view .LVU1297
 4525              		.loc 1 1707 15 is_stmt 0 view .LVU1298
 4526 0032 95F81B11 		ldrb	r1, [r5, #283]	@ zero_extendqisi2
 4527 0036 3046     		mov	r0, r6
 4528 0038 FFF7FEFF 		bl	printf
 4529              	.LVL480:
1708:Core/Src/ADBMS.cpp ****         printf("0x%X, ", IC[ic].sid.sid[3]);
 4530              		.loc 1 1708 9 is_stmt 1 view .LVU1299
 4531              		.loc 1 1708 15 is_stmt 0 view .LVU1300
 4532 003c 95F81C11 		ldrb	r1, [r5, #284]	@ zero_extendqisi2
 4533 0040 3046     		mov	r0, r6
 4534 0042 FFF7FEFF 		bl	printf
 4535              	.LVL481:
1709:Core/Src/ADBMS.cpp ****         printf("0x%X, ", IC[ic].sid.sid[4]);
 4536              		.loc 1 1709 9 is_stmt 1 view .LVU1301
 4537              		.loc 1 1709 15 is_stmt 0 view .LVU1302
 4538 0046 95F81D11 		ldrb	r1, [r5, #285]	@ zero_extendqisi2
 4539 004a 3046     		mov	r0, r6
 4540 004c FFF7FEFF 		bl	printf
 4541              	.LVL482:
1710:Core/Src/ADBMS.cpp ****         printf("0x%X, ", IC[ic].sid.sid[5]);
 4542              		.loc 1 1710 9 is_stmt 1 view .LVU1303
 4543              		.loc 1 1710 15 is_stmt 0 view .LVU1304
ARM GAS  C:\Users\huawei\AppData\Local\Temp\ccpVCJY0.s 			page 129


 4544 0050 95F81E11 		ldrb	r1, [r5, #286]	@ zero_extendqisi2
 4545 0054 3046     		mov	r0, r6
 4546 0056 FFF7FEFF 		bl	printf
 4547              	.LVL483:
1711:Core/Src/ADBMS.cpp ****         printf("CCount:%d,",IC[ic].cccrc.cmd_cntr);
 4548              		.loc 1 1711 9 is_stmt 1 view .LVU1305
 4549              		.loc 1 1711 15 is_stmt 0 view .LVU1306
 4550 005a 95F88F11 		ldrb	r1, [r5, #399]	@ zero_extendqisi2
 4551 005e 0E48     		ldr	r0, .L253+8
 4552 0060 FFF7FEFF 		bl	printf
 4553              	.LVL484:
1712:Core/Src/ADBMS.cpp ****         printf("PECError:%d\n\n",IC[ic].cccrc.sid_pec);
 4554              		.loc 1 1712 9 is_stmt 1 view .LVU1307
 4555              		.loc 1 1712 15 is_stmt 0 view .LVU1308
 4556 0064 95F89A11 		ldrb	r1, [r5, #410]	@ zero_extendqisi2
 4557 0068 0C48     		ldr	r0, .L253+12
 4558 006a FFF7FEFF 		bl	printf
 4559              	.LVL485:
 4560              	.L248:
1699:Core/Src/ADBMS.cpp ****   {
 4561              		.loc 1 1699 3 is_stmt 1 discriminator 2 view .LVU1309
 4562 006e 0134     		adds	r4, r4, #1
 4563              	.LVL486:
1699:Core/Src/ADBMS.cpp ****   {
 4564              		.loc 1 1699 3 is_stmt 0 discriminator 2 view .LVU1310
 4565 0070 E4B2     		uxtb	r4, r4
 4566              	.LVL487:
 4567              	.L246:
1699:Core/Src/ADBMS.cpp ****   {
 4568              		.loc 1 1699 26 is_stmt 1 discriminator 1 view .LVU1311
 4569 0072 BC42     		cmp	r4, r7
 4570 0074 0AD2     		bcs	.L251
1701:Core/Src/ADBMS.cpp ****     if(type == Sid)
 4571              		.loc 1 1701 5 view .LVU1312
1701:Core/Src/ADBMS.cpp ****     if(type == Sid)
 4572              		.loc 1 1701 11 is_stmt 0 view .LVU1313
 4573 0076 611C     		adds	r1, r4, #1
 4574 0078 0948     		ldr	r0, .L253+16
 4575 007a FFF7FEFF 		bl	printf
 4576              	.LVL488:
1702:Core/Src/ADBMS.cpp ****     {
 4577              		.loc 1 1702 5 is_stmt 1 view .LVU1314
 4578 007e B8F10A0F 		cmp	r8, #10
 4579 0082 C4D0     		beq	.L252
1713:Core/Src/ADBMS.cpp ****      }
1714:Core/Src/ADBMS.cpp ****      else{ printf("Wrong Register Type Select\n"); }
 4580              		.loc 1 1714 12 view .LVU1315
 4581              		.loc 1 1714 18 is_stmt 0 view .LVU1316
 4582 0084 0748     		ldr	r0, .L253+20
 4583 0086 FFF7FEFF 		bl	puts
 4584              	.LVL489:
 4585 008a F0E7     		b	.L248
 4586              	.L251:
 4587              	.LBE101:
1715:Core/Src/ADBMS.cpp ****   }
1716:Core/Src/ADBMS.cpp **** }
 4588              		.loc 1 1716 1 view .LVU1317
ARM GAS  C:\Users\huawei\AppData\Local\Temp\ccpVCJY0.s 			page 130


 4589 008c BDE8F883 		pop	{r3, r4, r5, r6, r7, r8, r9, pc}
 4590              	.LVL490:
 4591              	.L254:
 4592              		.loc 1 1716 1 view .LVU1318
 4593              		.align	2
 4594              	.L253:
 4595 0090 00000000 		.word	.LC43
 4596 0094 18000000 		.word	.LC11
 4597 0098 3C010000 		.word	.LC34
 4598 009c 48010000 		.word	.LC35
 4599 00a0 00000000 		.word	.LC9
 4600 00a4 14000000 		.word	.LC44
 4601              		.cfi_endproc
 4602              	.LFE282:
 4603              		.fnend
 4605              		.section	.rodata._Z22printWritePwmDutyCyclehP9cell_asic4TYPE3GRP.str1.4,"aMS",%progbits,1
 4606              		.align	2
 4607              	.LC45:
 4608 0000 57726974 		.ascii	"Write Pwma Duty Cycle:\000"
 4608      65205077 
 4608      6D612044 
 4608      75747920 
 4608      4379636C 
 4609 0017 00       		.align	2
 4610              	.LC46:
 4611 0018 57726974 		.ascii	"Write Pwmb Duty Cycle:\000"
 4611      65205077 
 4611      6D622044 
 4611      75747920 
 4611      4379636C 
 4612 002f 00       		.align	2
 4613              	.LC47:
 4614 0030 30782558 		.ascii	"0x%X\012\000"
 4614      0A00
 4615              		.section	.text._Z22printWritePwmDutyCyclehP9cell_asic4TYPE3GRP,"ax",%progbits
 4616              		.align	1
 4617              		.global	_Z22printWritePwmDutyCyclehP9cell_asic4TYPE3GRP
 4618              		.syntax unified
 4619              		.thumb
 4620              		.thumb_func
 4622              	_Z22printWritePwmDutyCyclehP9cell_asic4TYPE3GRP:
 4623              		.fnstart
 4624              	.LVL491:
 4625              	.LFB283:
1717:Core/Src/ADBMS.cpp **** 
1718:Core/Src/ADBMS.cpp **** /**
1719:Core/Src/ADBMS.cpp **** *******************************************************************************
1720:Core/Src/ADBMS.cpp **** * Function: printWritePwmDutyCycle
1721:Core/Src/ADBMS.cpp **** * @brief Print Write Pwm Duty Cycle.
1722:Core/Src/ADBMS.cpp **** *
1723:Core/Src/ADBMS.cpp **** * @details This function Print write pwm duty cycle value.
1724:Core/Src/ADBMS.cpp **** *
1725:Core/Src/ADBMS.cpp **** * Parameters:
1726:Core/Src/ADBMS.cpp **** * @param [in]	tIC      Total IC
1727:Core/Src/ADBMS.cpp **** *
1728:Core/Src/ADBMS.cpp **** * @param [in]  *IC      cell_asic stucture pointer
1729:Core/Src/ADBMS.cpp **** *
ARM GAS  C:\Users\huawei\AppData\Local\Temp\ccpVCJY0.s 			page 131


1730:Core/Src/ADBMS.cpp **** * @param [in]  type     Enum type of resistor
1731:Core/Src/ADBMS.cpp **** *
1732:Core/Src/ADBMS.cpp **** * @param [in]  grp      Enum group of resistor
1733:Core/Src/ADBMS.cpp **** *
1734:Core/Src/ADBMS.cpp **** * @return None
1735:Core/Src/ADBMS.cpp **** *
1736:Core/Src/ADBMS.cpp **** *******************************************************************************
1737:Core/Src/ADBMS.cpp **** */
1738:Core/Src/ADBMS.cpp **** void printWritePwmDutyCycle(uint8_t tIC, cell_asic *IC, TYPE type, GRP grp)
1739:Core/Src/ADBMS.cpp **** {
 4626              		.loc 1 1739 1 is_stmt 1 view -0
 4627              		.cfi_startproc
 4628              		@ args = 0, pretend = 0, frame = 0
 4629              		@ frame_needed = 0, uses_anonymous_args = 0
 4630              		.loc 1 1739 1 is_stmt 0 view .LVU1320
 4631 0000 2DE9F843 		push	{r3, r4, r5, r6, r7, r8, r9, lr}
 4632              		.save {r3, r4, r5, r6, r7, r8, r9, lr}
 4633              	.LCFI45:
 4634              		.cfi_def_cfa_offset 32
 4635              		.cfi_offset 3, -32
 4636              		.cfi_offset 4, -28
 4637              		.cfi_offset 5, -24
 4638              		.cfi_offset 6, -20
 4639              		.cfi_offset 7, -16
 4640              		.cfi_offset 8, -12
 4641              		.cfi_offset 9, -8
 4642              		.cfi_offset 14, -4
 4643 0004 8046     		mov	r8, r0
 4644 0006 8946     		mov	r9, r1
 4645 0008 1F46     		mov	r7, r3
1740:Core/Src/ADBMS.cpp ****   for(uint8_t ic = 0; ic < tIC; ic++)
 4646              		.loc 1 1740 3 is_stmt 1 view .LVU1321
 4647              	.LVL492:
 4648              	.LBB102:
 4649              		.loc 1 1740 15 is_stmt 0 view .LVU1322
 4650 000a 0024     		movs	r4, #0
 4651              		.loc 1 1740 3 view .LVU1323
 4652 000c 3DE0     		b	.L256
 4653              	.LVL493:
 4654              	.L264:
1741:Core/Src/ADBMS.cpp ****   {
1742:Core/Src/ADBMS.cpp ****     printf("IC%d:\n",(ic+1));
1743:Core/Src/ADBMS.cpp ****     if(grp == A)
1744:Core/Src/ADBMS.cpp ****     {
1745:Core/Src/ADBMS.cpp ****       printf("Write Pwma Duty Cycle:\n");
 4655              		.loc 1 1745 7 is_stmt 1 view .LVU1324
 4656              		.loc 1 1745 13 is_stmt 0 view .LVU1325
 4657 000e 4048     		ldr	r0, .L266
 4658 0010 FFF7FEFF 		bl	puts
 4659              	.LVL494:
1746:Core/Src/ADBMS.cpp ****       printf("0x%X, ", IC[ic].pwma.tx_data[0]);
 4660              		.loc 1 1746 7 is_stmt 1 view .LVU1326
 4661              		.loc 1 1746 29 is_stmt 0 view .LVU1327
 4662 0014 4FF42875 		mov	r5, #672
 4663 0018 05FB0495 		mla	r5, r5, r4, r9
 4664              		.loc 1 1746 13 view .LVU1328
 4665 001c 3D4E     		ldr	r6, .L266+4
ARM GAS  C:\Users\huawei\AppData\Local\Temp\ccpVCJY0.s 			page 132


 4666 001e 95F86511 		ldrb	r1, [r5, #357]	@ zero_extendqisi2
 4667 0022 3046     		mov	r0, r6
 4668 0024 FFF7FEFF 		bl	printf
 4669              	.LVL495:
1747:Core/Src/ADBMS.cpp ****       printf("0x%X, ", IC[ic].pwma.tx_data[1]);
 4670              		.loc 1 1747 7 is_stmt 1 view .LVU1329
 4671              		.loc 1 1747 13 is_stmt 0 view .LVU1330
 4672 0028 95F86611 		ldrb	r1, [r5, #358]	@ zero_extendqisi2
 4673 002c 3046     		mov	r0, r6
 4674 002e FFF7FEFF 		bl	printf
 4675              	.LVL496:
1748:Core/Src/ADBMS.cpp ****       printf("0x%X, ", IC[ic].pwma.tx_data[2]);
 4676              		.loc 1 1748 7 is_stmt 1 view .LVU1331
 4677              		.loc 1 1748 13 is_stmt 0 view .LVU1332
 4678 0032 95F86711 		ldrb	r1, [r5, #359]	@ zero_extendqisi2
 4679 0036 3046     		mov	r0, r6
 4680 0038 FFF7FEFF 		bl	printf
 4681              	.LVL497:
1749:Core/Src/ADBMS.cpp ****       printf("0x%X, ", IC[ic].pwma.tx_data[3]);
 4682              		.loc 1 1749 7 is_stmt 1 view .LVU1333
 4683              		.loc 1 1749 13 is_stmt 0 view .LVU1334
 4684 003c 95F86811 		ldrb	r1, [r5, #360]	@ zero_extendqisi2
 4685 0040 3046     		mov	r0, r6
 4686 0042 FFF7FEFF 		bl	printf
 4687              	.LVL498:
1750:Core/Src/ADBMS.cpp ****       printf("0x%X, ", IC[ic].pwma.tx_data[4]);
 4688              		.loc 1 1750 7 is_stmt 1 view .LVU1335
 4689              		.loc 1 1750 13 is_stmt 0 view .LVU1336
 4690 0046 95F86911 		ldrb	r1, [r5, #361]	@ zero_extendqisi2
 4691 004a 3046     		mov	r0, r6
 4692 004c FFF7FEFF 		bl	printf
 4693              	.LVL499:
1751:Core/Src/ADBMS.cpp ****       printf("0x%X\n\n", IC[ic].pwma.tx_data[5]);
 4694              		.loc 1 1751 7 is_stmt 1 view .LVU1337
 4695              		.loc 1 1751 13 is_stmt 0 view .LVU1338
 4696 0050 95F86A11 		ldrb	r1, [r5, #362]	@ zero_extendqisi2
 4697 0054 3048     		ldr	r0, .L266+8
 4698 0056 FFF7FEFF 		bl	printf
 4699              	.LVL500:
 4700 005a 14E0     		b	.L258
 4701              	.L265:
1752:Core/Src/ADBMS.cpp ****     }
1753:Core/Src/ADBMS.cpp ****     else if(grp == B)
1754:Core/Src/ADBMS.cpp ****     {
1755:Core/Src/ADBMS.cpp ****       printf("Write Pwmb Duty Cycle:\n");
 4702              		.loc 1 1755 7 is_stmt 1 view .LVU1339
 4703              		.loc 1 1755 13 is_stmt 0 view .LVU1340
 4704 005c 2F48     		ldr	r0, .L266+12
 4705 005e FFF7FEFF 		bl	puts
 4706              	.LVL501:
1756:Core/Src/ADBMS.cpp ****       printf("0x%X, ", IC[ic].pwmb.tx_data[0]);
 4707              		.loc 1 1756 7 is_stmt 1 view .LVU1341
 4708              		.loc 1 1756 29 is_stmt 0 view .LVU1342
 4709 0062 4FF42875 		mov	r5, #672
 4710 0066 05FB0495 		mla	r5, r5, r4, r9
 4711              		.loc 1 1756 13 view .LVU1343
 4712 006a 95F87311 		ldrb	r1, [r5, #371]	@ zero_extendqisi2
ARM GAS  C:\Users\huawei\AppData\Local\Temp\ccpVCJY0.s 			page 133


 4713 006e 2948     		ldr	r0, .L266+4
 4714 0070 FFF7FEFF 		bl	printf
 4715              	.LVL502:
1757:Core/Src/ADBMS.cpp ****       printf("0x%X\n\n", IC[ic].pwmb.tx_data[1]);
 4716              		.loc 1 1757 7 is_stmt 1 view .LVU1344
 4717              		.loc 1 1757 13 is_stmt 0 view .LVU1345
 4718 0074 95F87411 		ldrb	r1, [r5, #372]	@ zero_extendqisi2
 4719 0078 2748     		ldr	r0, .L266+8
 4720 007a FFF7FEFF 		bl	printf
 4721              	.LVL503:
 4722 007e 02E0     		b	.L258
 4723              	.L260:
1758:Core/Src/ADBMS.cpp ****     }
1759:Core/Src/ADBMS.cpp ****     else if(grp == ALL_GRP)
1760:Core/Src/ADBMS.cpp ****     {
1761:Core/Src/ADBMS.cpp ****       printf("Write Pwma Duty Cycle:\n");
1762:Core/Src/ADBMS.cpp ****       printf("0x%X, ", IC[ic].pwma.tx_data[0]);
1763:Core/Src/ADBMS.cpp ****       printf("0x%X, ", IC[ic].pwma.tx_data[1]);
1764:Core/Src/ADBMS.cpp ****       printf("0x%X, ", IC[ic].pwma.tx_data[2]);
1765:Core/Src/ADBMS.cpp ****       printf("0x%X, ", IC[ic].pwma.tx_data[3]);
1766:Core/Src/ADBMS.cpp ****       printf("0x%X, ", IC[ic].pwma.tx_data[4]);
1767:Core/Src/ADBMS.cpp ****       printf("0x%X\n", IC[ic].pwma.tx_data[5]);
1768:Core/Src/ADBMS.cpp **** 
1769:Core/Src/ADBMS.cpp ****       printf("Write Pwmb Duty Cycle:\n");
1770:Core/Src/ADBMS.cpp ****       printf("0x%X, ", IC[ic].pwmb.tx_data[0]);
1771:Core/Src/ADBMS.cpp ****       printf("0x%X\n\n", IC[ic].pwmb.tx_data[1]);
1772:Core/Src/ADBMS.cpp ****     }
1773:Core/Src/ADBMS.cpp ****     else{ printf("Wrong Register Group Select\n"); }
 4724              		.loc 1 1773 11 is_stmt 1 view .LVU1346
 4725              		.loc 1 1773 17 is_stmt 0 view .LVU1347
 4726 0080 2748     		ldr	r0, .L266+16
 4727 0082 FFF7FEFF 		bl	puts
 4728              	.LVL504:
 4729              	.L258:
1740:Core/Src/ADBMS.cpp ****   {
 4730              		.loc 1 1740 3 is_stmt 1 discriminator 2 view .LVU1348
 4731 0086 0134     		adds	r4, r4, #1
 4732              	.LVL505:
1740:Core/Src/ADBMS.cpp ****   {
 4733              		.loc 1 1740 3 is_stmt 0 discriminator 2 view .LVU1349
 4734 0088 E4B2     		uxtb	r4, r4
 4735              	.LVL506:
 4736              	.L256:
1740:Core/Src/ADBMS.cpp ****   {
 4737              		.loc 1 1740 26 is_stmt 1 discriminator 1 view .LVU1350
 4738 008a 4445     		cmp	r4, r8
 4739 008c 3DD2     		bcs	.L263
1742:Core/Src/ADBMS.cpp ****     if(grp == A)
 4740              		.loc 1 1742 5 view .LVU1351
1742:Core/Src/ADBMS.cpp ****     if(grp == A)
 4741              		.loc 1 1742 11 is_stmt 0 view .LVU1352
 4742 008e 611C     		adds	r1, r4, #1
 4743 0090 2448     		ldr	r0, .L266+20
 4744 0092 FFF7FEFF 		bl	printf
 4745              	.LVL507:
1743:Core/Src/ADBMS.cpp ****     {
 4746              		.loc 1 1743 5 is_stmt 1 view .LVU1353
ARM GAS  C:\Users\huawei\AppData\Local\Temp\ccpVCJY0.s 			page 134


 4747 0096 012F     		cmp	r7, #1
 4748 0098 B9D0     		beq	.L264
1753:Core/Src/ADBMS.cpp ****     {
 4749              		.loc 1 1753 10 view .LVU1354
 4750 009a 022F     		cmp	r7, #2
 4751 009c DED0     		beq	.L265
1759:Core/Src/ADBMS.cpp ****     {
 4752              		.loc 1 1759 10 view .LVU1355
 4753 009e 002F     		cmp	r7, #0
 4754 00a0 EED1     		bne	.L260
1761:Core/Src/ADBMS.cpp ****       printf("0x%X, ", IC[ic].pwma.tx_data[0]);
 4755              		.loc 1 1761 7 view .LVU1356
1761:Core/Src/ADBMS.cpp ****       printf("0x%X, ", IC[ic].pwma.tx_data[0]);
 4756              		.loc 1 1761 13 is_stmt 0 view .LVU1357
 4757 00a2 1B48     		ldr	r0, .L266
 4758 00a4 FFF7FEFF 		bl	puts
 4759              	.LVL508:
1762:Core/Src/ADBMS.cpp ****       printf("0x%X, ", IC[ic].pwma.tx_data[1]);
 4760              		.loc 1 1762 7 is_stmt 1 view .LVU1358
1762:Core/Src/ADBMS.cpp ****       printf("0x%X, ", IC[ic].pwma.tx_data[1]);
 4761              		.loc 1 1762 29 is_stmt 0 view .LVU1359
 4762 00a8 4FF42875 		mov	r5, #672
 4763 00ac 05FB0495 		mla	r5, r5, r4, r9
1762:Core/Src/ADBMS.cpp ****       printf("0x%X, ", IC[ic].pwma.tx_data[1]);
 4764              		.loc 1 1762 13 view .LVU1360
 4765 00b0 184E     		ldr	r6, .L266+4
 4766 00b2 95F86511 		ldrb	r1, [r5, #357]	@ zero_extendqisi2
 4767 00b6 3046     		mov	r0, r6
 4768 00b8 FFF7FEFF 		bl	printf
 4769              	.LVL509:
1763:Core/Src/ADBMS.cpp ****       printf("0x%X, ", IC[ic].pwma.tx_data[2]);
 4770              		.loc 1 1763 7 is_stmt 1 view .LVU1361
1763:Core/Src/ADBMS.cpp ****       printf("0x%X, ", IC[ic].pwma.tx_data[2]);
 4771              		.loc 1 1763 13 is_stmt 0 view .LVU1362
 4772 00bc 95F86611 		ldrb	r1, [r5, #358]	@ zero_extendqisi2
 4773 00c0 3046     		mov	r0, r6
 4774 00c2 FFF7FEFF 		bl	printf
 4775              	.LVL510:
1764:Core/Src/ADBMS.cpp ****       printf("0x%X, ", IC[ic].pwma.tx_data[3]);
 4776              		.loc 1 1764 7 is_stmt 1 view .LVU1363
1764:Core/Src/ADBMS.cpp ****       printf("0x%X, ", IC[ic].pwma.tx_data[3]);
 4777              		.loc 1 1764 13 is_stmt 0 view .LVU1364
 4778 00c6 95F86711 		ldrb	r1, [r5, #359]	@ zero_extendqisi2
 4779 00ca 3046     		mov	r0, r6
 4780 00cc FFF7FEFF 		bl	printf
 4781              	.LVL511:
1765:Core/Src/ADBMS.cpp ****       printf("0x%X, ", IC[ic].pwma.tx_data[4]);
 4782              		.loc 1 1765 7 is_stmt 1 view .LVU1365
1765:Core/Src/ADBMS.cpp ****       printf("0x%X, ", IC[ic].pwma.tx_data[4]);
 4783              		.loc 1 1765 13 is_stmt 0 view .LVU1366
 4784 00d0 95F86811 		ldrb	r1, [r5, #360]	@ zero_extendqisi2
 4785 00d4 3046     		mov	r0, r6
 4786 00d6 FFF7FEFF 		bl	printf
 4787              	.LVL512:
1766:Core/Src/ADBMS.cpp ****       printf("0x%X\n", IC[ic].pwma.tx_data[5]);
 4788              		.loc 1 1766 7 is_stmt 1 view .LVU1367
1766:Core/Src/ADBMS.cpp ****       printf("0x%X\n", IC[ic].pwma.tx_data[5]);
ARM GAS  C:\Users\huawei\AppData\Local\Temp\ccpVCJY0.s 			page 135


 4789              		.loc 1 1766 13 is_stmt 0 view .LVU1368
 4790 00da 95F86911 		ldrb	r1, [r5, #361]	@ zero_extendqisi2
 4791 00de 3046     		mov	r0, r6
 4792 00e0 FFF7FEFF 		bl	printf
 4793              	.LVL513:
1767:Core/Src/ADBMS.cpp **** 
 4794              		.loc 1 1767 7 is_stmt 1 view .LVU1369
1767:Core/Src/ADBMS.cpp **** 
 4795              		.loc 1 1767 13 is_stmt 0 view .LVU1370
 4796 00e4 95F86A11 		ldrb	r1, [r5, #362]	@ zero_extendqisi2
 4797 00e8 0F48     		ldr	r0, .L266+24
 4798 00ea FFF7FEFF 		bl	printf
 4799              	.LVL514:
1769:Core/Src/ADBMS.cpp ****       printf("0x%X, ", IC[ic].pwmb.tx_data[0]);
 4800              		.loc 1 1769 7 is_stmt 1 view .LVU1371
1769:Core/Src/ADBMS.cpp ****       printf("0x%X, ", IC[ic].pwmb.tx_data[0]);
 4801              		.loc 1 1769 13 is_stmt 0 view .LVU1372
 4802 00ee 0B48     		ldr	r0, .L266+12
 4803 00f0 FFF7FEFF 		bl	puts
 4804              	.LVL515:
1770:Core/Src/ADBMS.cpp ****       printf("0x%X\n\n", IC[ic].pwmb.tx_data[1]);
 4805              		.loc 1 1770 7 is_stmt 1 view .LVU1373
1770:Core/Src/ADBMS.cpp ****       printf("0x%X\n\n", IC[ic].pwmb.tx_data[1]);
 4806              		.loc 1 1770 13 is_stmt 0 view .LVU1374
 4807 00f4 95F87311 		ldrb	r1, [r5, #371]	@ zero_extendqisi2
 4808 00f8 3046     		mov	r0, r6
 4809 00fa FFF7FEFF 		bl	printf
 4810              	.LVL516:
1771:Core/Src/ADBMS.cpp ****     }
 4811              		.loc 1 1771 7 is_stmt 1 view .LVU1375
1771:Core/Src/ADBMS.cpp ****     }
 4812              		.loc 1 1771 13 is_stmt 0 view .LVU1376
 4813 00fe 95F87411 		ldrb	r1, [r5, #372]	@ zero_extendqisi2
 4814 0102 0548     		ldr	r0, .L266+8
 4815 0104 FFF7FEFF 		bl	printf
 4816              	.LVL517:
 4817 0108 BDE7     		b	.L258
 4818              	.L263:
1771:Core/Src/ADBMS.cpp ****     }
 4819              		.loc 1 1771 13 view .LVU1377
 4820              	.LBE102:
1774:Core/Src/ADBMS.cpp ****   }
1775:Core/Src/ADBMS.cpp **** }
 4821              		.loc 1 1775 1 view .LVU1378
 4822 010a BDE8F883 		pop	{r3, r4, r5, r6, r7, r8, r9, pc}
 4823              	.LVL518:
 4824              	.L267:
 4825              		.loc 1 1775 1 view .LVU1379
 4826 010e 00BF     		.align	2
 4827              	.L266:
 4828 0110 00000000 		.word	.LC45
 4829 0114 18000000 		.word	.LC11
 4830 0118 20000000 		.word	.LC12
 4831 011c 18000000 		.word	.LC46
 4832 0120 38000000 		.word	.LC14
 4833 0124 00000000 		.word	.LC9
 4834 0128 30000000 		.word	.LC47
ARM GAS  C:\Users\huawei\AppData\Local\Temp\ccpVCJY0.s 			page 136


 4835              		.cfi_endproc
 4836              	.LFE283:
 4837              		.fnend
 4839              		.section	.rodata._Z21printReadPwmDutyCyclehP9cell_asic4TYPE3GRP.str1.4,"aMS",%progbits,1
 4840              		.align	2
 4841              	.LC48:
 4842 0000 52656164 		.ascii	"Read PWMA Duty Cycle:\000"
 4842      2050574D 
 4842      41204475 
 4842      74792043 
 4842      79636C65 
 4843 0016 0000     		.align	2
 4844              	.LC49:
 4845 0018 50574D31 		.ascii	"PWM1:0x%X, \000"
 4845      3A307825 
 4845      582C2000 
 4846              		.align	2
 4847              	.LC50:
 4848 0024 50574D32 		.ascii	"PWM2:0x%X, \000"
 4848      3A307825 
 4848      582C2000 
 4849              		.align	2
 4850              	.LC51:
 4851 0030 50574D33 		.ascii	"PWM3:0x%X, \000"
 4851      3A307825 
 4851      582C2000 
 4852              		.align	2
 4853              	.LC52:
 4854 003c 50574D34 		.ascii	"PWM4:0x%X, \000"
 4854      3A307825 
 4854      582C2000 
 4855              		.align	2
 4856              	.LC53:
 4857 0048 50574D35 		.ascii	"PWM5:0x%X, \000"
 4857      3A307825 
 4857      582C2000 
 4858              		.align	2
 4859              	.LC54:
 4860 0054 50574D36 		.ascii	"PWM6:0x%X, \000"
 4860      3A307825 
 4860      582C2000 
 4861              		.align	2
 4862              	.LC55:
 4863 0060 50574D37 		.ascii	"PWM7:0x%X, \000"
 4863      3A307825 
 4863      582C2000 
 4864              		.align	2
 4865              	.LC56:
 4866 006c 50574D38 		.ascii	"PWM8:0x%X, \000"
 4866      3A307825 
 4866      582C2000 
 4867              		.align	2
 4868              	.LC57:
 4869 0078 50574D39 		.ascii	"PWM9:0x%X, \000"
 4869      3A307825 
 4869      582C2000 
 4870              		.align	2
ARM GAS  C:\Users\huawei\AppData\Local\Temp\ccpVCJY0.s 			page 137


 4871              	.LC58:
 4872 0084 50574D31 		.ascii	"PWM10:0x%X, \000"
 4872      303A3078 
 4872      25582C20 
 4872      00
 4873 0091 000000   		.align	2
 4874              	.LC59:
 4875 0094 50574D31 		.ascii	"PWM11:0x%X, \000"
 4875      313A3078 
 4875      25582C20 
 4875      00
 4876 00a1 000000   		.align	2
 4877              	.LC60:
 4878 00a4 50574D31 		.ascii	"PWM12:0x%X, \000"
 4878      323A3078 
 4878      25582C20 
 4878      00
 4879 00b1 000000   		.align	2
 4880              	.LC61:
 4881 00b4 52656164 		.ascii	"Read PWMB Duty Cycle:\000"
 4881      2050574D 
 4881      42204475 
 4881      74792043 
 4881      79636C65 
 4882 00ca 0000     		.align	2
 4883              	.LC62:
 4884 00cc 50574D31 		.ascii	"PWM13:0x%X, \000"
 4884      333A3078 
 4884      25582C20 
 4884      00
 4885 00d9 000000   		.align	2
 4886              	.LC63:
 4887 00dc 50574D31 		.ascii	"PWM14:0x%X, \000"
 4887      343A3078 
 4887      25582C20 
 4887      00
 4888 00e9 000000   		.align	2
 4889              	.LC64:
 4890 00ec 50574D31 		.ascii	"PWM15:0x%X, \000"
 4890      353A3078 
 4890      25582C20 
 4890      00
 4891 00f9 000000   		.align	2
 4892              	.LC65:
 4893 00fc 50574D31 		.ascii	"PWM16:0x%X, \000"
 4893      363A3078 
 4893      25582C20 
 4893      00
 4894 0109 000000   		.align	2
 4895              	.LC66:
 4896 010c 50574D31 		.ascii	"PWM12:0x%X\012\000"
 4896      323A3078 
 4896      25580A00 
 4897              		.section	.text._Z21printReadPwmDutyCyclehP9cell_asic4TYPE3GRP,"ax",%progbits
 4898              		.align	1
 4899              		.global	_Z21printReadPwmDutyCyclehP9cell_asic4TYPE3GRP
 4900              		.syntax unified
ARM GAS  C:\Users\huawei\AppData\Local\Temp\ccpVCJY0.s 			page 138


 4901              		.thumb
 4902              		.thumb_func
 4904              	_Z21printReadPwmDutyCyclehP9cell_asic4TYPE3GRP:
 4905              		.fnstart
 4906              	.LVL519:
 4907              	.LFB284:
1776:Core/Src/ADBMS.cpp **** 
1777:Core/Src/ADBMS.cpp **** /**
1778:Core/Src/ADBMS.cpp **** *******************************************************************************
1779:Core/Src/ADBMS.cpp **** * Function: printReadPwmDutyCycle
1780:Core/Src/ADBMS.cpp **** * @brief Print Read Pwm Duty Cycle.
1781:Core/Src/ADBMS.cpp **** *
1782:Core/Src/ADBMS.cpp **** * @details This function print read pwm duty cycle value.
1783:Core/Src/ADBMS.cpp **** *
1784:Core/Src/ADBMS.cpp **** * Parameters:
1785:Core/Src/ADBMS.cpp **** * @param [in]	tIC      Total IC
1786:Core/Src/ADBMS.cpp **** *
1787:Core/Src/ADBMS.cpp **** * @param [in]  *IC      cell_asic stucture pointer
1788:Core/Src/ADBMS.cpp **** *
1789:Core/Src/ADBMS.cpp **** * @param [in]  type     Enum type of resistor
1790:Core/Src/ADBMS.cpp **** *
1791:Core/Src/ADBMS.cpp **** * @param [in]  grp      Enum group of resistor
1792:Core/Src/ADBMS.cpp **** *
1793:Core/Src/ADBMS.cpp **** * @return None
1794:Core/Src/ADBMS.cpp **** *
1795:Core/Src/ADBMS.cpp **** *******************************************************************************
1796:Core/Src/ADBMS.cpp **** */
1797:Core/Src/ADBMS.cpp **** void printReadPwmDutyCycle(uint8_t tIC, cell_asic *IC, TYPE type, GRP grp)
1798:Core/Src/ADBMS.cpp **** {
 4908              		.loc 1 1798 1 is_stmt 1 view -0
 4909              		.cfi_startproc
 4910              		@ args = 0, pretend = 0, frame = 0
 4911              		@ frame_needed = 0, uses_anonymous_args = 0
 4912              		.loc 1 1798 1 is_stmt 0 view .LVU1381
 4913 0000 2DE9F041 		push	{r4, r5, r6, r7, r8, lr}
 4914              		.save {r4, r5, r6, r7, r8, lr}
 4915              	.LCFI46:
 4916              		.cfi_def_cfa_offset 24
 4917              		.cfi_offset 4, -24
 4918              		.cfi_offset 5, -20
 4919              		.cfi_offset 6, -16
 4920              		.cfi_offset 7, -12
 4921              		.cfi_offset 8, -8
 4922              		.cfi_offset 14, -4
 4923 0004 0746     		mov	r7, r0
 4924 0006 8846     		mov	r8, r1
 4925 0008 1E46     		mov	r6, r3
1799:Core/Src/ADBMS.cpp ****   for(uint8_t ic = 0; ic < tIC; ic++)
 4926              		.loc 1 1799 3 is_stmt 1 view .LVU1382
 4927              	.LVL520:
 4928              	.LBB103:
 4929              		.loc 1 1799 15 is_stmt 0 view .LVU1383
 4930 000a 0024     		movs	r4, #0
 4931              		.loc 1 1799 3 view .LVU1384
 4932 000c 78E0     		b	.L269
 4933              	.LVL521:
 4934              	.L277:
ARM GAS  C:\Users\huawei\AppData\Local\Temp\ccpVCJY0.s 			page 139


1800:Core/Src/ADBMS.cpp ****   {
1801:Core/Src/ADBMS.cpp ****     printf("IC%d:\n",(ic+1));
1802:Core/Src/ADBMS.cpp ****     if(grp == A)
1803:Core/Src/ADBMS.cpp ****     {
1804:Core/Src/ADBMS.cpp ****       printf("Read PWMA Duty Cycle:\n");
 4935              		.loc 1 1804 7 is_stmt 1 view .LVU1385
 4936              		.loc 1 1804 13 is_stmt 0 view .LVU1386
 4937 000e 7648     		ldr	r0, .L279
 4938 0010 FFF7FEFF 		bl	puts
 4939              	.LVL522:
1805:Core/Src/ADBMS.cpp ****       printf("PWM1:0x%X, ", IC[ic].PwmA.pwma[0]);
 4940              		.loc 1 1805 7 is_stmt 1 view .LVU1387
 4941              		.loc 1 1805 34 is_stmt 0 view .LVU1388
 4942 0014 4FF42875 		mov	r5, #672
 4943 0018 05FB0485 		mla	r5, r5, r4, r8
 4944              		.loc 1 1805 13 view .LVU1389
 4945 001c 95F80911 		ldrb	r1, [r5, #265]	@ zero_extendqisi2
 4946 0020 7248     		ldr	r0, .L279+4
 4947 0022 FFF7FEFF 		bl	printf
 4948              	.LVL523:
1806:Core/Src/ADBMS.cpp ****       printf("PWM2:0x%X, ", IC[ic].PwmA.pwma[1]);
 4949              		.loc 1 1806 7 is_stmt 1 view .LVU1390
 4950              		.loc 1 1806 13 is_stmt 0 view .LVU1391
 4951 0026 95F80A11 		ldrb	r1, [r5, #266]	@ zero_extendqisi2
 4952 002a 7148     		ldr	r0, .L279+8
 4953 002c FFF7FEFF 		bl	printf
 4954              	.LVL524:
1807:Core/Src/ADBMS.cpp ****       printf("PWM3:0x%X, ", IC[ic].PwmA.pwma[2]);
 4955              		.loc 1 1807 7 is_stmt 1 view .LVU1392
 4956              		.loc 1 1807 13 is_stmt 0 view .LVU1393
 4957 0030 95F80B11 		ldrb	r1, [r5, #267]	@ zero_extendqisi2
 4958 0034 6F48     		ldr	r0, .L279+12
 4959 0036 FFF7FEFF 		bl	printf
 4960              	.LVL525:
1808:Core/Src/ADBMS.cpp ****       printf("PWM4:0x%X, ", IC[ic].PwmA.pwma[3]);
 4961              		.loc 1 1808 7 is_stmt 1 view .LVU1394
 4962              		.loc 1 1808 13 is_stmt 0 view .LVU1395
 4963 003a 95F80C11 		ldrb	r1, [r5, #268]	@ zero_extendqisi2
 4964 003e 6E48     		ldr	r0, .L279+16
 4965 0040 FFF7FEFF 		bl	printf
 4966              	.LVL526:
1809:Core/Src/ADBMS.cpp ****       printf("PWM5:0x%X, ", IC[ic].PwmA.pwma[4]);
 4967              		.loc 1 1809 7 is_stmt 1 view .LVU1396
 4968              		.loc 1 1809 13 is_stmt 0 view .LVU1397
 4969 0044 95F80D11 		ldrb	r1, [r5, #269]	@ zero_extendqisi2
 4970 0048 6C48     		ldr	r0, .L279+20
 4971 004a FFF7FEFF 		bl	printf
 4972              	.LVL527:
1810:Core/Src/ADBMS.cpp ****       printf("PWM6:0x%X, ", IC[ic].PwmA.pwma[5]);
 4973              		.loc 1 1810 7 is_stmt 1 view .LVU1398
 4974              		.loc 1 1810 13 is_stmt 0 view .LVU1399
 4975 004e 95F80E11 		ldrb	r1, [r5, #270]	@ zero_extendqisi2
 4976 0052 6B48     		ldr	r0, .L279+24
 4977 0054 FFF7FEFF 		bl	printf
 4978              	.LVL528:
1811:Core/Src/ADBMS.cpp ****       printf("PWM7:0x%X, ", IC[ic].PwmA.pwma[6]);
 4979              		.loc 1 1811 7 is_stmt 1 view .LVU1400
ARM GAS  C:\Users\huawei\AppData\Local\Temp\ccpVCJY0.s 			page 140


 4980              		.loc 1 1811 13 is_stmt 0 view .LVU1401
 4981 0058 95F80F11 		ldrb	r1, [r5, #271]	@ zero_extendqisi2
 4982 005c 6948     		ldr	r0, .L279+28
 4983 005e FFF7FEFF 		bl	printf
 4984              	.LVL529:
1812:Core/Src/ADBMS.cpp ****       printf("PWM8:0x%X, ", IC[ic].PwmA.pwma[7]);
 4985              		.loc 1 1812 7 is_stmt 1 view .LVU1402
 4986              		.loc 1 1812 13 is_stmt 0 view .LVU1403
 4987 0062 95F81011 		ldrb	r1, [r5, #272]	@ zero_extendqisi2
 4988 0066 6848     		ldr	r0, .L279+32
 4989 0068 FFF7FEFF 		bl	printf
 4990              	.LVL530:
1813:Core/Src/ADBMS.cpp ****       printf("PWM9:0x%X, ", IC[ic].PwmA.pwma[8]);
 4991              		.loc 1 1813 7 is_stmt 1 view .LVU1404
 4992              		.loc 1 1813 13 is_stmt 0 view .LVU1405
 4993 006c 95F81111 		ldrb	r1, [r5, #273]	@ zero_extendqisi2
 4994 0070 6648     		ldr	r0, .L279+36
 4995 0072 FFF7FEFF 		bl	printf
 4996              	.LVL531:
1814:Core/Src/ADBMS.cpp ****       printf("PWM10:0x%X, ", IC[ic].PwmA.pwma[9]);
 4997              		.loc 1 1814 7 is_stmt 1 view .LVU1406
 4998              		.loc 1 1814 13 is_stmt 0 view .LVU1407
 4999 0076 95F81211 		ldrb	r1, [r5, #274]	@ zero_extendqisi2
 5000 007a 6548     		ldr	r0, .L279+40
 5001 007c FFF7FEFF 		bl	printf
 5002              	.LVL532:
1815:Core/Src/ADBMS.cpp ****       printf("PWM11:0x%X, ", IC[ic].PwmA.pwma[10]);
 5003              		.loc 1 1815 7 is_stmt 1 view .LVU1408
 5004              		.loc 1 1815 13 is_stmt 0 view .LVU1409
 5005 0080 95F81311 		ldrb	r1, [r5, #275]	@ zero_extendqisi2
 5006 0084 6348     		ldr	r0, .L279+44
 5007 0086 FFF7FEFF 		bl	printf
 5008              	.LVL533:
1816:Core/Src/ADBMS.cpp ****       printf("PWM12:0x%X, ", IC[ic].PwmA.pwma[11]);
 5009              		.loc 1 1816 7 is_stmt 1 view .LVU1410
 5010              		.loc 1 1816 13 is_stmt 0 view .LVU1411
 5011 008a 95F81411 		ldrb	r1, [r5, #276]	@ zero_extendqisi2
 5012 008e 6248     		ldr	r0, .L279+48
 5013 0090 FFF7FEFF 		bl	printf
 5014              	.LVL534:
1817:Core/Src/ADBMS.cpp ****       printf("CCount:%d,",IC[ic].cccrc.cmd_cntr);
 5015              		.loc 1 1817 7 is_stmt 1 view .LVU1412
 5016              		.loc 1 1817 13 is_stmt 0 view .LVU1413
 5017 0094 95F88F11 		ldrb	r1, [r5, #399]	@ zero_extendqisi2
 5018 0098 6048     		ldr	r0, .L279+52
 5019 009a FFF7FEFF 		bl	printf
 5020              	.LVL535:
1818:Core/Src/ADBMS.cpp ****       printf("PECError:%d\n\n",IC[ic].cccrc.pwm_pec);
 5021              		.loc 1 1818 7 is_stmt 1 view .LVU1414
 5022              		.loc 1 1818 13 is_stmt 0 view .LVU1415
 5023 009e 95F89911 		ldrb	r1, [r5, #409]	@ zero_extendqisi2
 5024 00a2 5F48     		ldr	r0, .L279+56
 5025 00a4 FFF7FEFF 		bl	printf
 5026              	.LVL536:
 5027 00a8 28E0     		b	.L271
 5028              	.L278:
1819:Core/Src/ADBMS.cpp ****     }
ARM GAS  C:\Users\huawei\AppData\Local\Temp\ccpVCJY0.s 			page 141


1820:Core/Src/ADBMS.cpp ****     else if(grp == B)
1821:Core/Src/ADBMS.cpp ****     {
1822:Core/Src/ADBMS.cpp ****       printf("Read PWMB Duty Cycle:\n");
 5029              		.loc 1 1822 7 is_stmt 1 view .LVU1416
 5030              		.loc 1 1822 13 is_stmt 0 view .LVU1417
 5031 00aa 5E48     		ldr	r0, .L279+60
 5032 00ac FFF7FEFF 		bl	puts
 5033              	.LVL537:
1823:Core/Src/ADBMS.cpp ****       printf("PWM13:0x%X, ", IC[ic].PwmB.pwmb[0]);
 5034              		.loc 1 1823 7 is_stmt 1 view .LVU1418
 5035              		.loc 1 1823 35 is_stmt 0 view .LVU1419
 5036 00b0 4FF42875 		mov	r5, #672
 5037 00b4 05FB0485 		mla	r5, r5, r4, r8
 5038              		.loc 1 1823 13 view .LVU1420
 5039 00b8 95F81511 		ldrb	r1, [r5, #277]	@ zero_extendqisi2
 5040 00bc 5A48     		ldr	r0, .L279+64
 5041 00be FFF7FEFF 		bl	printf
 5042              	.LVL538:
1824:Core/Src/ADBMS.cpp ****       printf("PWM14:0x%X, ", IC[ic].PwmB.pwmb[1]);
 5043              		.loc 1 1824 7 is_stmt 1 view .LVU1421
 5044              		.loc 1 1824 13 is_stmt 0 view .LVU1422
 5045 00c2 95F81611 		ldrb	r1, [r5, #278]	@ zero_extendqisi2
 5046 00c6 5948     		ldr	r0, .L279+68
 5047 00c8 FFF7FEFF 		bl	printf
 5048              	.LVL539:
1825:Core/Src/ADBMS.cpp ****       printf("PWM15:0x%X, ", IC[ic].PwmB.pwmb[2]);
 5049              		.loc 1 1825 7 is_stmt 1 view .LVU1423
 5050              		.loc 1 1825 13 is_stmt 0 view .LVU1424
 5051 00cc 95F81711 		ldrb	r1, [r5, #279]	@ zero_extendqisi2
 5052 00d0 5748     		ldr	r0, .L279+72
 5053 00d2 FFF7FEFF 		bl	printf
 5054              	.LVL540:
1826:Core/Src/ADBMS.cpp ****       printf("PWM16:0x%X, ", IC[ic].PwmB.pwmb[3]);
 5055              		.loc 1 1826 7 is_stmt 1 view .LVU1425
 5056              		.loc 1 1826 13 is_stmt 0 view .LVU1426
 5057 00d6 95F81811 		ldrb	r1, [r5, #280]	@ zero_extendqisi2
 5058 00da 5648     		ldr	r0, .L279+76
 5059 00dc FFF7FEFF 		bl	printf
 5060              	.LVL541:
1827:Core/Src/ADBMS.cpp ****       printf("CCount:%d,",IC[ic].cccrc.cmd_cntr);
 5061              		.loc 1 1827 7 is_stmt 1 view .LVU1427
 5062              		.loc 1 1827 13 is_stmt 0 view .LVU1428
 5063 00e0 95F88F11 		ldrb	r1, [r5, #399]	@ zero_extendqisi2
 5064 00e4 4D48     		ldr	r0, .L279+52
 5065 00e6 FFF7FEFF 		bl	printf
 5066              	.LVL542:
1828:Core/Src/ADBMS.cpp ****       printf("PECError:%d\n\n",IC[ic].cccrc.pwm_pec);
 5067              		.loc 1 1828 7 is_stmt 1 view .LVU1429
 5068              		.loc 1 1828 13 is_stmt 0 view .LVU1430
 5069 00ea 95F89911 		ldrb	r1, [r5, #409]	@ zero_extendqisi2
 5070 00ee 4C48     		ldr	r0, .L279+56
 5071 00f0 FFF7FEFF 		bl	printf
 5072              	.LVL543:
 5073 00f4 02E0     		b	.L271
 5074              	.L273:
1829:Core/Src/ADBMS.cpp ****     }
1830:Core/Src/ADBMS.cpp ****     else if(grp == ALL_GRP)
ARM GAS  C:\Users\huawei\AppData\Local\Temp\ccpVCJY0.s 			page 142


1831:Core/Src/ADBMS.cpp ****     {
1832:Core/Src/ADBMS.cpp ****       printf("Read PWMA Duty Cycle:\n");
1833:Core/Src/ADBMS.cpp ****       printf("PWM1:0x%X, ", IC[ic].PwmA.pwma[0]);
1834:Core/Src/ADBMS.cpp ****       printf("PWM2:0x%X, ", IC[ic].PwmA.pwma[1]);
1835:Core/Src/ADBMS.cpp ****       printf("PWM3:0x%X, ", IC[ic].PwmA.pwma[2]);
1836:Core/Src/ADBMS.cpp ****       printf("PWM4:0x%X, ", IC[ic].PwmA.pwma[3]);
1837:Core/Src/ADBMS.cpp ****       printf("PWM5:0x%X, ", IC[ic].PwmA.pwma[4]);
1838:Core/Src/ADBMS.cpp ****       printf("PWM6:0x%X, ", IC[ic].PwmA.pwma[5]);
1839:Core/Src/ADBMS.cpp ****       printf("PWM7:0x%X, ", IC[ic].PwmA.pwma[6]);
1840:Core/Src/ADBMS.cpp ****       printf("PWM8:0x%X, ", IC[ic].PwmA.pwma[7]);
1841:Core/Src/ADBMS.cpp ****       printf("PWM9:0x%X, ", IC[ic].PwmA.pwma[8]);
1842:Core/Src/ADBMS.cpp ****       printf("PWM10:0x%X, ", IC[ic].PwmA.pwma[9]);
1843:Core/Src/ADBMS.cpp ****       printf("PWM11:0x%X, ", IC[ic].PwmA.pwma[10]);
1844:Core/Src/ADBMS.cpp ****       printf("PWM12:0x%X\n", IC[ic].PwmA.pwma[11]);
1845:Core/Src/ADBMS.cpp **** 
1846:Core/Src/ADBMS.cpp ****       printf("Read PWMB Duty Cycle:\n");
1847:Core/Src/ADBMS.cpp ****       printf("PWM13:0x%X, ", IC[ic].PwmB.pwmb[0]);
1848:Core/Src/ADBMS.cpp ****       printf("PWM14:0x%X, ", IC[ic].PwmB.pwmb[1]);
1849:Core/Src/ADBMS.cpp ****       printf("PWM15:0x%X, ", IC[ic].PwmB.pwmb[2]);
1850:Core/Src/ADBMS.cpp ****       printf("PWM16:0x%X, ", IC[ic].PwmB.pwmb[3]);
1851:Core/Src/ADBMS.cpp ****       printf("CCount:%d,",IC[ic].cccrc.cmd_cntr);
1852:Core/Src/ADBMS.cpp ****       printf("PECError:%d\n\n",IC[ic].cccrc.pwm_pec);
1853:Core/Src/ADBMS.cpp ****     }
1854:Core/Src/ADBMS.cpp ****     else{ printf("Wrong Register Type Select\n"); }
 5075              		.loc 1 1854 11 is_stmt 1 view .LVU1431
 5076              		.loc 1 1854 17 is_stmt 0 view .LVU1432
 5077 00f6 5048     		ldr	r0, .L279+80
 5078 00f8 FFF7FEFF 		bl	puts
 5079              	.LVL544:
 5080              	.L271:
1799:Core/Src/ADBMS.cpp ****   {
 5081              		.loc 1 1799 3 is_stmt 1 discriminator 2 view .LVU1433
 5082 00fc 0134     		adds	r4, r4, #1
 5083              	.LVL545:
1799:Core/Src/ADBMS.cpp ****   {
 5084              		.loc 1 1799 3 is_stmt 0 discriminator 2 view .LVU1434
 5085 00fe E4B2     		uxtb	r4, r4
 5086              	.LVL546:
 5087              	.L269:
1799:Core/Src/ADBMS.cpp ****   {
 5088              		.loc 1 1799 26 is_stmt 1 discriminator 1 view .LVU1435
 5089 0100 BC42     		cmp	r4, r7
 5090 0102 6FD2     		bcs	.L276
1801:Core/Src/ADBMS.cpp ****     if(grp == A)
 5091              		.loc 1 1801 5 view .LVU1436
1801:Core/Src/ADBMS.cpp ****     if(grp == A)
 5092              		.loc 1 1801 11 is_stmt 0 view .LVU1437
 5093 0104 611C     		adds	r1, r4, #1
 5094 0106 4D48     		ldr	r0, .L279+84
 5095 0108 FFF7FEFF 		bl	printf
 5096              	.LVL547:
1802:Core/Src/ADBMS.cpp ****     {
 5097              		.loc 1 1802 5 is_stmt 1 view .LVU1438
 5098 010c 012E     		cmp	r6, #1
 5099 010e 3FF47EAF 		beq	.L277
1820:Core/Src/ADBMS.cpp ****     {
 5100              		.loc 1 1820 10 view .LVU1439
ARM GAS  C:\Users\huawei\AppData\Local\Temp\ccpVCJY0.s 			page 143


 5101 0112 022E     		cmp	r6, #2
 5102 0114 C9D0     		beq	.L278
1830:Core/Src/ADBMS.cpp ****     {
 5103              		.loc 1 1830 10 view .LVU1440
 5104 0116 002E     		cmp	r6, #0
 5105 0118 EDD1     		bne	.L273
1832:Core/Src/ADBMS.cpp ****       printf("PWM1:0x%X, ", IC[ic].PwmA.pwma[0]);
 5106              		.loc 1 1832 7 view .LVU1441
1832:Core/Src/ADBMS.cpp ****       printf("PWM1:0x%X, ", IC[ic].PwmA.pwma[0]);
 5107              		.loc 1 1832 13 is_stmt 0 view .LVU1442
 5108 011a 3348     		ldr	r0, .L279
 5109 011c FFF7FEFF 		bl	puts
 5110              	.LVL548:
1833:Core/Src/ADBMS.cpp ****       printf("PWM2:0x%X, ", IC[ic].PwmA.pwma[1]);
 5111              		.loc 1 1833 7 is_stmt 1 view .LVU1443
1833:Core/Src/ADBMS.cpp ****       printf("PWM2:0x%X, ", IC[ic].PwmA.pwma[1]);
 5112              		.loc 1 1833 34 is_stmt 0 view .LVU1444
 5113 0120 4FF42875 		mov	r5, #672
 5114 0124 05FB0485 		mla	r5, r5, r4, r8
1833:Core/Src/ADBMS.cpp ****       printf("PWM2:0x%X, ", IC[ic].PwmA.pwma[1]);
 5115              		.loc 1 1833 13 view .LVU1445
 5116 0128 95F80911 		ldrb	r1, [r5, #265]	@ zero_extendqisi2
 5117 012c 2F48     		ldr	r0, .L279+4
 5118 012e FFF7FEFF 		bl	printf
 5119              	.LVL549:
1834:Core/Src/ADBMS.cpp ****       printf("PWM3:0x%X, ", IC[ic].PwmA.pwma[2]);
 5120              		.loc 1 1834 7 is_stmt 1 view .LVU1446
1834:Core/Src/ADBMS.cpp ****       printf("PWM3:0x%X, ", IC[ic].PwmA.pwma[2]);
 5121              		.loc 1 1834 13 is_stmt 0 view .LVU1447
 5122 0132 95F80A11 		ldrb	r1, [r5, #266]	@ zero_extendqisi2
 5123 0136 2E48     		ldr	r0, .L279+8
 5124 0138 FFF7FEFF 		bl	printf
 5125              	.LVL550:
1835:Core/Src/ADBMS.cpp ****       printf("PWM4:0x%X, ", IC[ic].PwmA.pwma[3]);
 5126              		.loc 1 1835 7 is_stmt 1 view .LVU1448
1835:Core/Src/ADBMS.cpp ****       printf("PWM4:0x%X, ", IC[ic].PwmA.pwma[3]);
 5127              		.loc 1 1835 13 is_stmt 0 view .LVU1449
 5128 013c 95F80B11 		ldrb	r1, [r5, #267]	@ zero_extendqisi2
 5129 0140 2C48     		ldr	r0, .L279+12
 5130 0142 FFF7FEFF 		bl	printf
 5131              	.LVL551:
1836:Core/Src/ADBMS.cpp ****       printf("PWM5:0x%X, ", IC[ic].PwmA.pwma[4]);
 5132              		.loc 1 1836 7 is_stmt 1 view .LVU1450
1836:Core/Src/ADBMS.cpp ****       printf("PWM5:0x%X, ", IC[ic].PwmA.pwma[4]);
 5133              		.loc 1 1836 13 is_stmt 0 view .LVU1451
 5134 0146 95F80C11 		ldrb	r1, [r5, #268]	@ zero_extendqisi2
 5135 014a 2B48     		ldr	r0, .L279+16
 5136 014c FFF7FEFF 		bl	printf
 5137              	.LVL552:
1837:Core/Src/ADBMS.cpp ****       printf("PWM6:0x%X, ", IC[ic].PwmA.pwma[5]);
 5138              		.loc 1 1837 7 is_stmt 1 view .LVU1452
1837:Core/Src/ADBMS.cpp ****       printf("PWM6:0x%X, ", IC[ic].PwmA.pwma[5]);
 5139              		.loc 1 1837 13 is_stmt 0 view .LVU1453
 5140 0150 95F80D11 		ldrb	r1, [r5, #269]	@ zero_extendqisi2
 5141 0154 2948     		ldr	r0, .L279+20
 5142 0156 FFF7FEFF 		bl	printf
 5143              	.LVL553:
ARM GAS  C:\Users\huawei\AppData\Local\Temp\ccpVCJY0.s 			page 144


1838:Core/Src/ADBMS.cpp ****       printf("PWM7:0x%X, ", IC[ic].PwmA.pwma[6]);
 5144              		.loc 1 1838 7 is_stmt 1 view .LVU1454
1838:Core/Src/ADBMS.cpp ****       printf("PWM7:0x%X, ", IC[ic].PwmA.pwma[6]);
 5145              		.loc 1 1838 13 is_stmt 0 view .LVU1455
 5146 015a 95F80E11 		ldrb	r1, [r5, #270]	@ zero_extendqisi2
 5147 015e 2848     		ldr	r0, .L279+24
 5148 0160 FFF7FEFF 		bl	printf
 5149              	.LVL554:
1839:Core/Src/ADBMS.cpp ****       printf("PWM8:0x%X, ", IC[ic].PwmA.pwma[7]);
 5150              		.loc 1 1839 7 is_stmt 1 view .LVU1456
1839:Core/Src/ADBMS.cpp ****       printf("PWM8:0x%X, ", IC[ic].PwmA.pwma[7]);
 5151              		.loc 1 1839 13 is_stmt 0 view .LVU1457
 5152 0164 95F80F11 		ldrb	r1, [r5, #271]	@ zero_extendqisi2
 5153 0168 2648     		ldr	r0, .L279+28
 5154 016a FFF7FEFF 		bl	printf
 5155              	.LVL555:
1840:Core/Src/ADBMS.cpp ****       printf("PWM9:0x%X, ", IC[ic].PwmA.pwma[8]);
 5156              		.loc 1 1840 7 is_stmt 1 view .LVU1458
1840:Core/Src/ADBMS.cpp ****       printf("PWM9:0x%X, ", IC[ic].PwmA.pwma[8]);
 5157              		.loc 1 1840 13 is_stmt 0 view .LVU1459
 5158 016e 95F81011 		ldrb	r1, [r5, #272]	@ zero_extendqisi2
 5159 0172 2548     		ldr	r0, .L279+32
 5160 0174 FFF7FEFF 		bl	printf
 5161              	.LVL556:
1841:Core/Src/ADBMS.cpp ****       printf("PWM10:0x%X, ", IC[ic].PwmA.pwma[9]);
 5162              		.loc 1 1841 7 is_stmt 1 view .LVU1460
1841:Core/Src/ADBMS.cpp ****       printf("PWM10:0x%X, ", IC[ic].PwmA.pwma[9]);
 5163              		.loc 1 1841 13 is_stmt 0 view .LVU1461
 5164 0178 95F81111 		ldrb	r1, [r5, #273]	@ zero_extendqisi2
 5165 017c 2348     		ldr	r0, .L279+36
 5166 017e FFF7FEFF 		bl	printf
 5167              	.LVL557:
1842:Core/Src/ADBMS.cpp ****       printf("PWM11:0x%X, ", IC[ic].PwmA.pwma[10]);
 5168              		.loc 1 1842 7 is_stmt 1 view .LVU1462
1842:Core/Src/ADBMS.cpp ****       printf("PWM11:0x%X, ", IC[ic].PwmA.pwma[10]);
 5169              		.loc 1 1842 13 is_stmt 0 view .LVU1463
 5170 0182 95F81211 		ldrb	r1, [r5, #274]	@ zero_extendqisi2
 5171 0186 2248     		ldr	r0, .L279+40
 5172 0188 FFF7FEFF 		bl	printf
 5173              	.LVL558:
1843:Core/Src/ADBMS.cpp ****       printf("PWM12:0x%X\n", IC[ic].PwmA.pwma[11]);
 5174              		.loc 1 1843 7 is_stmt 1 view .LVU1464
1843:Core/Src/ADBMS.cpp ****       printf("PWM12:0x%X\n", IC[ic].PwmA.pwma[11]);
 5175              		.loc 1 1843 13 is_stmt 0 view .LVU1465
 5176 018c 95F81311 		ldrb	r1, [r5, #275]	@ zero_extendqisi2
 5177 0190 2048     		ldr	r0, .L279+44
 5178 0192 FFF7FEFF 		bl	printf
 5179              	.LVL559:
1844:Core/Src/ADBMS.cpp **** 
 5180              		.loc 1 1844 7 is_stmt 1 view .LVU1466
1844:Core/Src/ADBMS.cpp **** 
 5181              		.loc 1 1844 13 is_stmt 0 view .LVU1467
 5182 0196 95F81411 		ldrb	r1, [r5, #276]	@ zero_extendqisi2
 5183 019a 2948     		ldr	r0, .L279+88
 5184 019c FFF7FEFF 		bl	printf
 5185              	.LVL560:
1846:Core/Src/ADBMS.cpp ****       printf("PWM13:0x%X, ", IC[ic].PwmB.pwmb[0]);
ARM GAS  C:\Users\huawei\AppData\Local\Temp\ccpVCJY0.s 			page 145


 5186              		.loc 1 1846 7 is_stmt 1 view .LVU1468
1846:Core/Src/ADBMS.cpp ****       printf("PWM13:0x%X, ", IC[ic].PwmB.pwmb[0]);
 5187              		.loc 1 1846 13 is_stmt 0 view .LVU1469
 5188 01a0 2048     		ldr	r0, .L279+60
 5189 01a2 FFF7FEFF 		bl	puts
 5190              	.LVL561:
1847:Core/Src/ADBMS.cpp ****       printf("PWM14:0x%X, ", IC[ic].PwmB.pwmb[1]);
 5191              		.loc 1 1847 7 is_stmt 1 view .LVU1470
1847:Core/Src/ADBMS.cpp ****       printf("PWM14:0x%X, ", IC[ic].PwmB.pwmb[1]);
 5192              		.loc 1 1847 13 is_stmt 0 view .LVU1471
 5193 01a6 95F81511 		ldrb	r1, [r5, #277]	@ zero_extendqisi2
 5194 01aa 1F48     		ldr	r0, .L279+64
 5195 01ac FFF7FEFF 		bl	printf
 5196              	.LVL562:
1848:Core/Src/ADBMS.cpp ****       printf("PWM15:0x%X, ", IC[ic].PwmB.pwmb[2]);
 5197              		.loc 1 1848 7 is_stmt 1 view .LVU1472
1848:Core/Src/ADBMS.cpp ****       printf("PWM15:0x%X, ", IC[ic].PwmB.pwmb[2]);
 5198              		.loc 1 1848 13 is_stmt 0 view .LVU1473
 5199 01b0 95F81611 		ldrb	r1, [r5, #278]	@ zero_extendqisi2
 5200 01b4 1D48     		ldr	r0, .L279+68
 5201 01b6 FFF7FEFF 		bl	printf
 5202              	.LVL563:
1849:Core/Src/ADBMS.cpp ****       printf("PWM16:0x%X, ", IC[ic].PwmB.pwmb[3]);
 5203              		.loc 1 1849 7 is_stmt 1 view .LVU1474
1849:Core/Src/ADBMS.cpp ****       printf("PWM16:0x%X, ", IC[ic].PwmB.pwmb[3]);
 5204              		.loc 1 1849 13 is_stmt 0 view .LVU1475
 5205 01ba 95F81711 		ldrb	r1, [r5, #279]	@ zero_extendqisi2
 5206 01be 1C48     		ldr	r0, .L279+72
 5207 01c0 FFF7FEFF 		bl	printf
 5208              	.LVL564:
1850:Core/Src/ADBMS.cpp ****       printf("CCount:%d,",IC[ic].cccrc.cmd_cntr);
 5209              		.loc 1 1850 7 is_stmt 1 view .LVU1476
1850:Core/Src/ADBMS.cpp ****       printf("CCount:%d,",IC[ic].cccrc.cmd_cntr);
 5210              		.loc 1 1850 13 is_stmt 0 view .LVU1477
 5211 01c4 95F81811 		ldrb	r1, [r5, #280]	@ zero_extendqisi2
 5212 01c8 1A48     		ldr	r0, .L279+76
 5213 01ca FFF7FEFF 		bl	printf
 5214              	.LVL565:
1851:Core/Src/ADBMS.cpp ****       printf("PECError:%d\n\n",IC[ic].cccrc.pwm_pec);
 5215              		.loc 1 1851 7 is_stmt 1 view .LVU1478
1851:Core/Src/ADBMS.cpp ****       printf("PECError:%d\n\n",IC[ic].cccrc.pwm_pec);
 5216              		.loc 1 1851 13 is_stmt 0 view .LVU1479
 5217 01ce 95F88F11 		ldrb	r1, [r5, #399]	@ zero_extendqisi2
 5218 01d2 1248     		ldr	r0, .L279+52
 5219 01d4 FFF7FEFF 		bl	printf
 5220              	.LVL566:
1852:Core/Src/ADBMS.cpp ****     }
 5221              		.loc 1 1852 7 is_stmt 1 view .LVU1480
1852:Core/Src/ADBMS.cpp ****     }
 5222              		.loc 1 1852 13 is_stmt 0 view .LVU1481
 5223 01d8 95F89911 		ldrb	r1, [r5, #409]	@ zero_extendqisi2
 5224 01dc 1048     		ldr	r0, .L279+56
 5225 01de FFF7FEFF 		bl	printf
 5226              	.LVL567:
 5227 01e2 8BE7     		b	.L271
 5228              	.L276:
1852:Core/Src/ADBMS.cpp ****     }
ARM GAS  C:\Users\huawei\AppData\Local\Temp\ccpVCJY0.s 			page 146


 5229              		.loc 1 1852 13 view .LVU1482
 5230              	.LBE103:
1855:Core/Src/ADBMS.cpp ****   }
1856:Core/Src/ADBMS.cpp **** }
 5231              		.loc 1 1856 1 view .LVU1483
 5232 01e4 BDE8F081 		pop	{r4, r5, r6, r7, r8, pc}
 5233              	.LVL568:
 5234              	.L280:
 5235              		.loc 1 1856 1 view .LVU1484
 5236              		.align	2
 5237              	.L279:
 5238 01e8 00000000 		.word	.LC48
 5239 01ec 18000000 		.word	.LC49
 5240 01f0 24000000 		.word	.LC50
 5241 01f4 30000000 		.word	.LC51
 5242 01f8 3C000000 		.word	.LC52
 5243 01fc 48000000 		.word	.LC53
 5244 0200 54000000 		.word	.LC54
 5245 0204 60000000 		.word	.LC55
 5246 0208 6C000000 		.word	.LC56
 5247 020c 78000000 		.word	.LC57
 5248 0210 84000000 		.word	.LC58
 5249 0214 94000000 		.word	.LC59
 5250 0218 A4000000 		.word	.LC60
 5251 021c 3C010000 		.word	.LC34
 5252 0220 48010000 		.word	.LC35
 5253 0224 B4000000 		.word	.LC61
 5254 0228 CC000000 		.word	.LC62
 5255 022c DC000000 		.word	.LC63
 5256 0230 EC000000 		.word	.LC64
 5257 0234 FC000000 		.word	.LC65
 5258 0238 14000000 		.word	.LC44
 5259 023c 00000000 		.word	.LC9
 5260 0240 0C010000 		.word	.LC66
 5261              		.cfi_endproc
 5262              	.LFE284:
 5263              		.fnend
 5265              		.section	.rodata._Z18printWriteCommDatahP9cell_asic4TYPE.str1.4,"aMS",%progbits,1
 5266              		.align	2
 5267              	.LC67:
 5268 0000 57726974 		.ascii	"Write Comm Data:\000"
 5268      6520436F 
 5268      6D6D2044 
 5268      6174613A 
 5268      00
 5269              		.section	.text._Z18printWriteCommDatahP9cell_asic4TYPE,"ax",%progbits
 5270              		.align	1
 5271              		.global	_Z18printWriteCommDatahP9cell_asic4TYPE
 5272              		.syntax unified
 5273              		.thumb
 5274              		.thumb_func
 5276              	_Z18printWriteCommDatahP9cell_asic4TYPE:
 5277              		.fnstart
 5278              	.LVL569:
 5279              	.LFB285:
1857:Core/Src/ADBMS.cpp **** 
1858:Core/Src/ADBMS.cpp **** /**
ARM GAS  C:\Users\huawei\AppData\Local\Temp\ccpVCJY0.s 			page 147


1859:Core/Src/ADBMS.cpp **** *******************************************************************************
1860:Core/Src/ADBMS.cpp **** * Function: printWriteCommData
1861:Core/Src/ADBMS.cpp **** * @brief Print Write Comm data.
1862:Core/Src/ADBMS.cpp **** *
1863:Core/Src/ADBMS.cpp **** * @details This function Print write comm data.
1864:Core/Src/ADBMS.cpp **** *
1865:Core/Src/ADBMS.cpp **** * Parameters:
1866:Core/Src/ADBMS.cpp **** * @param [in]	tIC      Total IC
1867:Core/Src/ADBMS.cpp **** *
1868:Core/Src/ADBMS.cpp **** * @param [in]  *IC      cell_asic stucture pointer
1869:Core/Src/ADBMS.cpp **** *
1870:Core/Src/ADBMS.cpp **** * @param [in]  type     Enum type of resistor
1871:Core/Src/ADBMS.cpp **** *
1872:Core/Src/ADBMS.cpp **** * @return None
1873:Core/Src/ADBMS.cpp **** *
1874:Core/Src/ADBMS.cpp **** *******************************************************************************
1875:Core/Src/ADBMS.cpp **** */
1876:Core/Src/ADBMS.cpp **** void printWriteCommData(uint8_t tIC, cell_asic *IC, TYPE type)
1877:Core/Src/ADBMS.cpp **** {
 5280              		.loc 1 1877 1 is_stmt 1 view -0
 5281              		.cfi_startproc
 5282              		@ args = 0, pretend = 0, frame = 0
 5283              		@ frame_needed = 0, uses_anonymous_args = 0
 5284              		.loc 1 1877 1 is_stmt 0 view .LVU1486
 5285 0000 2DE9F843 		push	{r3, r4, r5, r6, r7, r8, r9, lr}
 5286              		.save {r3, r4, r5, r6, r7, r8, r9, lr}
 5287              	.LCFI47:
 5288              		.cfi_def_cfa_offset 32
 5289              		.cfi_offset 3, -32
 5290              		.cfi_offset 4, -28
 5291              		.cfi_offset 5, -24
 5292              		.cfi_offset 6, -20
 5293              		.cfi_offset 7, -16
 5294              		.cfi_offset 8, -12
 5295              		.cfi_offset 9, -8
 5296              		.cfi_offset 14, -4
 5297 0004 0746     		mov	r7, r0
 5298 0006 8946     		mov	r9, r1
 5299 0008 9046     		mov	r8, r2
1878:Core/Src/ADBMS.cpp ****   for(uint8_t ic = 0; ic < tIC; ic++)
 5300              		.loc 1 1878 3 is_stmt 1 view .LVU1487
 5301              	.LVL570:
 5302              	.LBB104:
 5303              		.loc 1 1878 15 is_stmt 0 view .LVU1488
 5304 000a 0024     		movs	r4, #0
 5305              		.loc 1 1878 3 view .LVU1489
 5306 000c 27E0     		b	.L282
 5307              	.LVL571:
 5308              	.L288:
1879:Core/Src/ADBMS.cpp ****   {
1880:Core/Src/ADBMS.cpp ****     printf("IC%d:\n",(ic+1));
1881:Core/Src/ADBMS.cpp ****     if(type == Comm)
1882:Core/Src/ADBMS.cpp ****     {
1883:Core/Src/ADBMS.cpp ****       printf("Write Comm Data:\n");
 5309              		.loc 1 1883 7 is_stmt 1 view .LVU1490
 5310              		.loc 1 1883 13 is_stmt 0 view .LVU1491
 5311 000e 1B48     		ldr	r0, .L289
ARM GAS  C:\Users\huawei\AppData\Local\Temp\ccpVCJY0.s 			page 148


 5312 0010 FFF7FEFF 		bl	puts
 5313              	.LVL572:
1884:Core/Src/ADBMS.cpp ****       printf("0x%X, ", IC[ic].com.tx_data[0]);
 5314              		.loc 1 1884 7 is_stmt 1 view .LVU1492
 5315              		.loc 1 1884 29 is_stmt 0 view .LVU1493
 5316 0014 4FF42875 		mov	r5, #672
 5317 0018 05FB0495 		mla	r5, r5, r4, r9
 5318              		.loc 1 1884 13 view .LVU1494
 5319 001c 184E     		ldr	r6, .L289+4
 5320 001e 95F85711 		ldrb	r1, [r5, #343]	@ zero_extendqisi2
 5321 0022 3046     		mov	r0, r6
 5322 0024 FFF7FEFF 		bl	printf
 5323              	.LVL573:
1885:Core/Src/ADBMS.cpp ****       printf("0x%X, ", IC[ic].com.tx_data[1]);
 5324              		.loc 1 1885 7 is_stmt 1 view .LVU1495
 5325              		.loc 1 1885 13 is_stmt 0 view .LVU1496
 5326 0028 95F85811 		ldrb	r1, [r5, #344]	@ zero_extendqisi2
 5327 002c 3046     		mov	r0, r6
 5328 002e FFF7FEFF 		bl	printf
 5329              	.LVL574:
1886:Core/Src/ADBMS.cpp ****       printf("0x%X, ", IC[ic].com.tx_data[2]);
 5330              		.loc 1 1886 7 is_stmt 1 view .LVU1497
 5331              		.loc 1 1886 13 is_stmt 0 view .LVU1498
 5332 0032 95F85911 		ldrb	r1, [r5, #345]	@ zero_extendqisi2
 5333 0036 3046     		mov	r0, r6
 5334 0038 FFF7FEFF 		bl	printf
 5335              	.LVL575:
1887:Core/Src/ADBMS.cpp ****       printf("0x%X, ", IC[ic].com.tx_data[3]);
 5336              		.loc 1 1887 7 is_stmt 1 view .LVU1499
 5337              		.loc 1 1887 13 is_stmt 0 view .LVU1500
 5338 003c 95F85A11 		ldrb	r1, [r5, #346]	@ zero_extendqisi2
 5339 0040 3046     		mov	r0, r6
 5340 0042 FFF7FEFF 		bl	printf
 5341              	.LVL576:
1888:Core/Src/ADBMS.cpp ****       printf("0x%X, ", IC[ic].com.tx_data[4]);
 5342              		.loc 1 1888 7 is_stmt 1 view .LVU1501
 5343              		.loc 1 1888 13 is_stmt 0 view .LVU1502
 5344 0046 95F85B11 		ldrb	r1, [r5, #347]	@ zero_extendqisi2
 5345 004a 3046     		mov	r0, r6
 5346 004c FFF7FEFF 		bl	printf
 5347              	.LVL577:
1889:Core/Src/ADBMS.cpp ****       printf("0x%X\n\n", IC[ic].com.tx_data[5]);
 5348              		.loc 1 1889 7 is_stmt 1 view .LVU1503
 5349              		.loc 1 1889 13 is_stmt 0 view .LVU1504
 5350 0050 95F85C11 		ldrb	r1, [r5, #348]	@ zero_extendqisi2
 5351 0054 0B48     		ldr	r0, .L289+8
 5352 0056 FFF7FEFF 		bl	printf
 5353              	.LVL578:
 5354              	.L284:
1878:Core/Src/ADBMS.cpp ****   {
 5355              		.loc 1 1878 3 is_stmt 1 discriminator 2 view .LVU1505
 5356 005a 0134     		adds	r4, r4, #1
 5357              	.LVL579:
1878:Core/Src/ADBMS.cpp ****   {
 5358              		.loc 1 1878 3 is_stmt 0 discriminator 2 view .LVU1506
 5359 005c E4B2     		uxtb	r4, r4
 5360              	.LVL580:
ARM GAS  C:\Users\huawei\AppData\Local\Temp\ccpVCJY0.s 			page 149


 5361              	.L282:
1878:Core/Src/ADBMS.cpp ****   {
 5362              		.loc 1 1878 26 is_stmt 1 discriminator 1 view .LVU1507
 5363 005e BC42     		cmp	r4, r7
 5364 0060 0AD2     		bcs	.L287
1880:Core/Src/ADBMS.cpp ****     if(type == Comm)
 5365              		.loc 1 1880 5 view .LVU1508
1880:Core/Src/ADBMS.cpp ****     if(type == Comm)
 5366              		.loc 1 1880 11 is_stmt 0 view .LVU1509
 5367 0062 611C     		adds	r1, r4, #1
 5368 0064 0848     		ldr	r0, .L289+12
 5369 0066 FFF7FEFF 		bl	printf
 5370              	.LVL581:
1881:Core/Src/ADBMS.cpp ****     {
 5371              		.loc 1 1881 5 is_stmt 1 view .LVU1510
 5372 006a B8F1090F 		cmp	r8, #9
 5373 006e CED0     		beq	.L288
1890:Core/Src/ADBMS.cpp ****     }
1891:Core/Src/ADBMS.cpp ****     else{ printf("Wrong Register Group Select\n"); }
 5374              		.loc 1 1891 11 view .LVU1511
 5375              		.loc 1 1891 17 is_stmt 0 view .LVU1512
 5376 0070 0648     		ldr	r0, .L289+16
 5377 0072 FFF7FEFF 		bl	puts
 5378              	.LVL582:
 5379 0076 F0E7     		b	.L284
 5380              	.L287:
 5381              	.LBE104:
1892:Core/Src/ADBMS.cpp ****   }
1893:Core/Src/ADBMS.cpp **** }
 5382              		.loc 1 1893 1 view .LVU1513
 5383 0078 BDE8F883 		pop	{r3, r4, r5, r6, r7, r8, r9, pc}
 5384              	.LVL583:
 5385              	.L290:
 5386              		.loc 1 1893 1 view .LVU1514
 5387              		.align	2
 5388              	.L289:
 5389 007c 00000000 		.word	.LC67
 5390 0080 18000000 		.word	.LC11
 5391 0084 20000000 		.word	.LC12
 5392 0088 00000000 		.word	.LC9
 5393 008c 38000000 		.word	.LC14
 5394              		.cfi_endproc
 5395              	.LFE285:
 5396              		.fnend
 5398              		.section	.rodata._Z17printReadCommDatahP9cell_asic4TYPE.str1.4,"aMS",%progbits,1
 5399              		.align	2
 5400              	.LC68:
 5401 0000 52656164 		.ascii	"Read Comm Data:\000"
 5401      20436F6D 
 5401      6D204461 
 5401      74613A00 
 5402              		.align	2
 5403              	.LC69:
 5404 0010 49434F4D 		.ascii	"ICOM0:0x%X, \000"
 5404      303A3078 
 5404      25582C20 
 5404      00
ARM GAS  C:\Users\huawei\AppData\Local\Temp\ccpVCJY0.s 			page 150


 5405 001d 000000   		.align	2
 5406              	.LC70:
 5407 0020 49434F4D 		.ascii	"ICOM1:0x%X, \000"
 5407      313A3078 
 5407      25582C20 
 5407      00
 5408 002d 000000   		.align	2
 5409              	.LC71:
 5410 0030 49434F4D 		.ascii	"ICOM2:0x%X\012\000"
 5410      323A3078 
 5410      25580A00 
 5411              		.align	2
 5412              	.LC72:
 5413 003c 46434F4D 		.ascii	"FCOM0:0x%X, \000"
 5413      303A3078 
 5413      25582C20 
 5413      00
 5414 0049 000000   		.align	2
 5415              	.LC73:
 5416 004c 46434F4D 		.ascii	"FCOM1:0x%X, \000"
 5416      313A3078 
 5416      25582C20 
 5416      00
 5417 0059 000000   		.align	2
 5418              	.LC74:
 5419 005c 46434F4D 		.ascii	"FCOM2:0x%X\012\000"
 5419      323A3078 
 5419      25580A00 
 5420              		.align	2
 5421              	.LC75:
 5422 0068 44415441 		.ascii	"DATA0:0x%X, \000"
 5422      303A3078 
 5422      25582C20 
 5422      00
 5423 0075 000000   		.align	2
 5424              	.LC76:
 5425 0078 44415441 		.ascii	"DATA1:0x%X, \000"
 5425      313A3078 
 5425      25582C20 
 5425      00
 5426 0085 000000   		.align	2
 5427              	.LC77:
 5428 0088 44415441 		.ascii	"DATA2:0x%X\012\000"
 5428      323A3078 
 5428      25580A00 
 5429              		.section	.text._Z17printReadCommDatahP9cell_asic4TYPE,"ax",%progbits
 5430              		.align	1
 5431              		.global	_Z17printReadCommDatahP9cell_asic4TYPE
 5432              		.syntax unified
 5433              		.thumb
 5434              		.thumb_func
 5436              	_Z17printReadCommDatahP9cell_asic4TYPE:
 5437              		.fnstart
 5438              	.LVL584:
 5439              	.LFB286:
1894:Core/Src/ADBMS.cpp **** 
1895:Core/Src/ADBMS.cpp **** /**
ARM GAS  C:\Users\huawei\AppData\Local\Temp\ccpVCJY0.s 			page 151


1896:Core/Src/ADBMS.cpp **** *******************************************************************************
1897:Core/Src/ADBMS.cpp **** * Function: printReadCommData
1898:Core/Src/ADBMS.cpp **** * @brief Print Read Comm Data.
1899:Core/Src/ADBMS.cpp **** *
1900:Core/Src/ADBMS.cpp **** * @details This function print read comm data.
1901:Core/Src/ADBMS.cpp **** *
1902:Core/Src/ADBMS.cpp **** * Parameters:
1903:Core/Src/ADBMS.cpp **** * @param [in]	tIC      Total IC
1904:Core/Src/ADBMS.cpp **** *
1905:Core/Src/ADBMS.cpp **** * @param [in]  *IC      cell_asic stucture pointer
1906:Core/Src/ADBMS.cpp **** *
1907:Core/Src/ADBMS.cpp **** * @param [in]  type     Enum type of resistor
1908:Core/Src/ADBMS.cpp **** *
1909:Core/Src/ADBMS.cpp **** * @return None
1910:Core/Src/ADBMS.cpp **** *
1911:Core/Src/ADBMS.cpp **** *******************************************************************************
1912:Core/Src/ADBMS.cpp **** */
1913:Core/Src/ADBMS.cpp **** void printReadCommData(uint8_t tIC, cell_asic *IC, TYPE type)
1914:Core/Src/ADBMS.cpp **** {
 5440              		.loc 1 1914 1 is_stmt 1 view -0
 5441              		.cfi_startproc
 5442              		@ args = 0, pretend = 0, frame = 0
 5443              		@ frame_needed = 0, uses_anonymous_args = 0
 5444              		.loc 1 1914 1 is_stmt 0 view .LVU1516
 5445 0000 2DE9F041 		push	{r4, r5, r6, r7, r8, lr}
 5446              		.save {r4, r5, r6, r7, r8, lr}
 5447              	.LCFI48:
 5448              		.cfi_def_cfa_offset 24
 5449              		.cfi_offset 4, -24
 5450              		.cfi_offset 5, -20
 5451              		.cfi_offset 6, -16
 5452              		.cfi_offset 7, -12
 5453              		.cfi_offset 8, -8
 5454              		.cfi_offset 14, -4
 5455 0004 0646     		mov	r6, r0
 5456 0006 8846     		mov	r8, r1
 5457 0008 1746     		mov	r7, r2
1915:Core/Src/ADBMS.cpp ****   for(uint8_t ic = 0; ic < tIC; ic++)
 5458              		.loc 1 1915 3 is_stmt 1 view .LVU1517
 5459              	.LVL585:
 5460              	.LBB105:
 5461              		.loc 1 1915 15 is_stmt 0 view .LVU1518
 5462 000a 0024     		movs	r4, #0
 5463              		.loc 1 1915 3 view .LVU1519
 5464 000c 3FE0     		b	.L292
 5465              	.LVL586:
 5466              	.L298:
1916:Core/Src/ADBMS.cpp ****   {
1917:Core/Src/ADBMS.cpp ****     printf("IC%d:\n",(ic+1));
1918:Core/Src/ADBMS.cpp ****     if(type == Comm)
1919:Core/Src/ADBMS.cpp ****     {
1920:Core/Src/ADBMS.cpp ****       printf("Read Comm Data:\n");
 5467              		.loc 1 1920 7 is_stmt 1 view .LVU1520
 5468              		.loc 1 1920 13 is_stmt 0 view .LVU1521
 5469 000e 2748     		ldr	r0, .L299
 5470 0010 FFF7FEFF 		bl	puts
 5471              	.LVL587:
ARM GAS  C:\Users\huawei\AppData\Local\Temp\ccpVCJY0.s 			page 152


1921:Core/Src/ADBMS.cpp ****       printf("ICOM0:0x%X, ", IC[ic].comm.icomm[0]);
 5472              		.loc 1 1921 7 is_stmt 1 view .LVU1522
 5473              		.loc 1 1921 35 is_stmt 0 view .LVU1523
 5474 0014 4FF42875 		mov	r5, #672
 5475 0018 05FB0485 		mla	r5, r5, r4, r8
 5476              		.loc 1 1921 13 view .LVU1524
 5477 001c 95F80311 		ldrb	r1, [r5, #259]	@ zero_extendqisi2
 5478 0020 2348     		ldr	r0, .L299+4
 5479 0022 FFF7FEFF 		bl	printf
 5480              	.LVL588:
1922:Core/Src/ADBMS.cpp ****       printf("ICOM1:0x%X, ", IC[ic].comm.icomm[1]);
 5481              		.loc 1 1922 7 is_stmt 1 view .LVU1525
 5482              		.loc 1 1922 13 is_stmt 0 view .LVU1526
 5483 0026 95F80411 		ldrb	r1, [r5, #260]	@ zero_extendqisi2
 5484 002a 2248     		ldr	r0, .L299+8
 5485 002c FFF7FEFF 		bl	printf
 5486              	.LVL589:
1923:Core/Src/ADBMS.cpp ****       printf("ICOM2:0x%X\n", IC[ic].comm.icomm[2]);
 5487              		.loc 1 1923 7 is_stmt 1 view .LVU1527
 5488              		.loc 1 1923 13 is_stmt 0 view .LVU1528
 5489 0030 95F80511 		ldrb	r1, [r5, #261]	@ zero_extendqisi2
 5490 0034 2048     		ldr	r0, .L299+12
 5491 0036 FFF7FEFF 		bl	printf
 5492              	.LVL590:
1924:Core/Src/ADBMS.cpp ****       printf("FCOM0:0x%X, ", IC[ic].comm.fcomm[0]);
 5493              		.loc 1 1924 7 is_stmt 1 view .LVU1529
 5494              		.loc 1 1924 13 is_stmt 0 view .LVU1530
 5495 003a 95F80011 		ldrb	r1, [r5, #256]	@ zero_extendqisi2
 5496 003e 1F48     		ldr	r0, .L299+16
 5497 0040 FFF7FEFF 		bl	printf
 5498              	.LVL591:
1925:Core/Src/ADBMS.cpp ****       printf("FCOM1:0x%X, ", IC[ic].comm.fcomm[1]);
 5499              		.loc 1 1925 7 is_stmt 1 view .LVU1531
 5500              		.loc 1 1925 13 is_stmt 0 view .LVU1532
 5501 0044 95F80111 		ldrb	r1, [r5, #257]	@ zero_extendqisi2
 5502 0048 1D48     		ldr	r0, .L299+20
 5503 004a FFF7FEFF 		bl	printf
 5504              	.LVL592:
1926:Core/Src/ADBMS.cpp ****       printf("FCOM2:0x%X\n", IC[ic].comm.fcomm[2]);
 5505              		.loc 1 1926 7 is_stmt 1 view .LVU1533
 5506              		.loc 1 1926 13 is_stmt 0 view .LVU1534
 5507 004e 95F80211 		ldrb	r1, [r5, #258]	@ zero_extendqisi2
 5508 0052 1C48     		ldr	r0, .L299+24
 5509 0054 FFF7FEFF 		bl	printf
 5510              	.LVL593:
1927:Core/Src/ADBMS.cpp ****       printf("DATA0:0x%X, ", IC[ic].comm.data[0]);
 5511              		.loc 1 1927 7 is_stmt 1 view .LVU1535
 5512              		.loc 1 1927 13 is_stmt 0 view .LVU1536
 5513 0058 95F80611 		ldrb	r1, [r5, #262]	@ zero_extendqisi2
 5514 005c 1A48     		ldr	r0, .L299+28
 5515 005e FFF7FEFF 		bl	printf
 5516              	.LVL594:
1928:Core/Src/ADBMS.cpp ****       printf("DATA1:0x%X, ", IC[ic].comm.data[1]);
 5517              		.loc 1 1928 7 is_stmt 1 view .LVU1537
 5518              		.loc 1 1928 13 is_stmt 0 view .LVU1538
 5519 0062 95F80711 		ldrb	r1, [r5, #263]	@ zero_extendqisi2
 5520 0066 1948     		ldr	r0, .L299+32
ARM GAS  C:\Users\huawei\AppData\Local\Temp\ccpVCJY0.s 			page 153


 5521 0068 FFF7FEFF 		bl	printf
 5522              	.LVL595:
1929:Core/Src/ADBMS.cpp ****       printf("DATA2:0x%X\n", IC[ic].comm.data[2]);
 5523              		.loc 1 1929 7 is_stmt 1 view .LVU1539
 5524              		.loc 1 1929 13 is_stmt 0 view .LVU1540
 5525 006c 95F80811 		ldrb	r1, [r5, #264]	@ zero_extendqisi2
 5526 0070 1748     		ldr	r0, .L299+36
 5527 0072 FFF7FEFF 		bl	printf
 5528              	.LVL596:
1930:Core/Src/ADBMS.cpp ****       printf("CCount:%d,",IC[ic].cccrc.cmd_cntr);
 5529              		.loc 1 1930 7 is_stmt 1 view .LVU1541
 5530              		.loc 1 1930 13 is_stmt 0 view .LVU1542
 5531 0076 95F88F11 		ldrb	r1, [r5, #399]	@ zero_extendqisi2
 5532 007a 1648     		ldr	r0, .L299+40
 5533 007c FFF7FEFF 		bl	printf
 5534              	.LVL597:
1931:Core/Src/ADBMS.cpp ****       printf("PECError:%d\n\n",IC[ic].cccrc.comm_pec);
 5535              		.loc 1 1931 7 is_stmt 1 view .LVU1543
 5536              		.loc 1 1931 13 is_stmt 0 view .LVU1544
 5537 0080 95F89811 		ldrb	r1, [r5, #408]	@ zero_extendqisi2
 5538 0084 1448     		ldr	r0, .L299+44
 5539 0086 FFF7FEFF 		bl	printf
 5540              	.LVL598:
 5541              	.L294:
1915:Core/Src/ADBMS.cpp ****   {
 5542              		.loc 1 1915 3 is_stmt 1 discriminator 2 view .LVU1545
 5543 008a 0134     		adds	r4, r4, #1
 5544              	.LVL599:
1915:Core/Src/ADBMS.cpp ****   {
 5545              		.loc 1 1915 3 is_stmt 0 discriminator 2 view .LVU1546
 5546 008c E4B2     		uxtb	r4, r4
 5547              	.LVL600:
 5548              	.L292:
1915:Core/Src/ADBMS.cpp ****   {
 5549              		.loc 1 1915 26 is_stmt 1 discriminator 1 view .LVU1547
 5550 008e B442     		cmp	r4, r6
 5551 0090 09D2     		bcs	.L297
1917:Core/Src/ADBMS.cpp ****     if(type == Comm)
 5552              		.loc 1 1917 5 view .LVU1548
1917:Core/Src/ADBMS.cpp ****     if(type == Comm)
 5553              		.loc 1 1917 11 is_stmt 0 view .LVU1549
 5554 0092 611C     		adds	r1, r4, #1
 5555 0094 1148     		ldr	r0, .L299+48
 5556 0096 FFF7FEFF 		bl	printf
 5557              	.LVL601:
1918:Core/Src/ADBMS.cpp ****     {
 5558              		.loc 1 1918 5 is_stmt 1 view .LVU1550
 5559 009a 092F     		cmp	r7, #9
 5560 009c B7D0     		beq	.L298
1932:Core/Src/ADBMS.cpp ****     }
1933:Core/Src/ADBMS.cpp ****     else{ printf("Wrong Register Type Select\n"); }
 5561              		.loc 1 1933 11 view .LVU1551
 5562              		.loc 1 1933 17 is_stmt 0 view .LVU1552
 5563 009e 1048     		ldr	r0, .L299+52
 5564 00a0 FFF7FEFF 		bl	puts
 5565              	.LVL602:
 5566 00a4 F1E7     		b	.L294
ARM GAS  C:\Users\huawei\AppData\Local\Temp\ccpVCJY0.s 			page 154


 5567              	.L297:
 5568              	.LBE105:
1934:Core/Src/ADBMS.cpp ****   }
1935:Core/Src/ADBMS.cpp **** }
 5569              		.loc 1 1935 1 view .LVU1553
 5570 00a6 BDE8F081 		pop	{r4, r5, r6, r7, r8, pc}
 5571              	.LVL603:
 5572              	.L300:
 5573              		.loc 1 1935 1 view .LVU1554
 5574 00aa 00BF     		.align	2
 5575              	.L299:
 5576 00ac 00000000 		.word	.LC68
 5577 00b0 10000000 		.word	.LC69
 5578 00b4 20000000 		.word	.LC70
 5579 00b8 30000000 		.word	.LC71
 5580 00bc 3C000000 		.word	.LC72
 5581 00c0 4C000000 		.word	.LC73
 5582 00c4 5C000000 		.word	.LC74
 5583 00c8 68000000 		.word	.LC75
 5584 00cc 78000000 		.word	.LC76
 5585 00d0 88000000 		.word	.LC77
 5586 00d4 3C010000 		.word	.LC34
 5587 00d8 48010000 		.word	.LC35
 5588 00dc 00000000 		.word	.LC9
 5589 00e0 14000000 		.word	.LC44
 5590              		.cfi_endproc
 5591              	.LFE286:
 5592              		.fnend
 5594              		.section	.rodata._Z25diagnosticTestResultPrinth.str1.4,"aMS",%progbits,1
 5595              		.align	2
 5596              	.LC78:
 5597 0000 50415353 		.ascii	"PASS\000"
 5597      00
 5598 0005 000000   		.align	2
 5599              	.LC79:
 5600 0008 4641494C 		.ascii	"FAIL\000"
 5600      00
 5601              		.section	.text._Z25diagnosticTestResultPrinth,"ax",%progbits
 5602              		.align	1
 5603              		.global	_Z25diagnosticTestResultPrinth
 5604              		.syntax unified
 5605              		.thumb
 5606              		.thumb_func
 5608              	_Z25diagnosticTestResultPrinth:
 5609              		.fnstart
 5610              	.LVL604:
 5611              	.LFB288:
1936:Core/Src/ADBMS.cpp **** 
1937:Core/Src/ADBMS.cpp **** /**
1938:Core/Src/ADBMS.cpp **** *******************************************************************************
1939:Core/Src/ADBMS.cpp **** * Function: printDiagnosticTestResult
1940:Core/Src/ADBMS.cpp **** * @brief Print diagnostic test result.
1941:Core/Src/ADBMS.cpp **** *
1942:Core/Src/ADBMS.cpp **** * @details This function Print diagnostic test result (PASS,FAIL) into console terminal.
1943:Core/Src/ADBMS.cpp **** *
1944:Core/Src/ADBMS.cpp **** * Parameters:
1945:Core/Src/ADBMS.cpp **** * @param [in]	tIC      Total IC
ARM GAS  C:\Users\huawei\AppData\Local\Temp\ccpVCJY0.s 			page 155


1946:Core/Src/ADBMS.cpp **** *
1947:Core/Src/ADBMS.cpp **** * @param [in]  *IC      cell_asic stucture pointer
1948:Core/Src/ADBMS.cpp **** *
1949:Core/Src/ADBMS.cpp **** * @param [in]  TEST     Enum type diagnostic test
1950:Core/Src/ADBMS.cpp **** *
1951:Core/Src/ADBMS.cpp **** * @return None
1952:Core/Src/ADBMS.cpp **** *
1953:Core/Src/ADBMS.cpp **** *******************************************************************************
1954:Core/Src/ADBMS.cpp **** */
1955:Core/Src/ADBMS.cpp **** void printDiagnosticTestResult(uint8_t tIC, cell_asic *IC, DIAGNOSTIC_TYPE type)
1956:Core/Src/ADBMS.cpp **** {
1957:Core/Src/ADBMS.cpp ****   if(type == OSC_MISMATCH)
1958:Core/Src/ADBMS.cpp ****   {
1959:Core/Src/ADBMS.cpp ****     printf("OSC Diagnostic Test:\n");
1960:Core/Src/ADBMS.cpp ****     for(uint8_t ic = 0; ic < tIC; ic++)
1961:Core/Src/ADBMS.cpp ****     {
1962:Core/Src/ADBMS.cpp ****       printf("IC%d:",(ic+1));
1963:Core/Src/ADBMS.cpp ****       diagnosticTestResultPrint(IC[ic].diag_result.osc_mismatch);
1964:Core/Src/ADBMS.cpp ****     }
1965:Core/Src/ADBMS.cpp ****     printf("\n\n");
1966:Core/Src/ADBMS.cpp ****   }
1967:Core/Src/ADBMS.cpp **** 
1968:Core/Src/ADBMS.cpp ****   else if(type == SUPPLY_ERROR)
1969:Core/Src/ADBMS.cpp ****   {
1970:Core/Src/ADBMS.cpp ****     printf("Force Supply Error Detection Test:\n");
1971:Core/Src/ADBMS.cpp ****     for(uint8_t ic = 0; ic < tIC; ic++)
1972:Core/Src/ADBMS.cpp ****     {
1973:Core/Src/ADBMS.cpp ****       printf("IC%d:",(ic+1));
1974:Core/Src/ADBMS.cpp ****       diagnosticTestResultPrint(IC[ic].diag_result.supply_error);
1975:Core/Src/ADBMS.cpp ****     }
1976:Core/Src/ADBMS.cpp ****     printf("\n\n");
1977:Core/Src/ADBMS.cpp ****   }
1978:Core/Src/ADBMS.cpp **** 
1979:Core/Src/ADBMS.cpp ****   else if(type == THSD)
1980:Core/Src/ADBMS.cpp ****   {
1981:Core/Src/ADBMS.cpp ****     printf("Thsd Diagnostic Test:\n");
1982:Core/Src/ADBMS.cpp ****     for(uint8_t ic = 0; ic < tIC; ic++)
1983:Core/Src/ADBMS.cpp ****     {
1984:Core/Src/ADBMS.cpp ****       printf("IC%d:",(ic+1));
1985:Core/Src/ADBMS.cpp ****       diagnosticTestResultPrint(IC[ic].diag_result.thsd);
1986:Core/Src/ADBMS.cpp ****     }
1987:Core/Src/ADBMS.cpp ****     printf("\n\n");
1988:Core/Src/ADBMS.cpp ****   }
1989:Core/Src/ADBMS.cpp **** 
1990:Core/Src/ADBMS.cpp ****   else if(type == FUSE_ED)
1991:Core/Src/ADBMS.cpp ****   {
1992:Core/Src/ADBMS.cpp ****     printf("Fuse_ed Diagnostic Test:\n");
1993:Core/Src/ADBMS.cpp ****     for(uint8_t ic = 0; ic < tIC; ic++)
1994:Core/Src/ADBMS.cpp ****     {
1995:Core/Src/ADBMS.cpp ****       printf("IC%d:",(ic+1));
1996:Core/Src/ADBMS.cpp ****       diagnosticTestResultPrint(IC[ic].diag_result.fuse_ed);
1997:Core/Src/ADBMS.cpp ****     }
1998:Core/Src/ADBMS.cpp ****     printf("\n\n");
1999:Core/Src/ADBMS.cpp ****   }
2000:Core/Src/ADBMS.cpp **** 
2001:Core/Src/ADBMS.cpp ****   else if(type == FUSE_MED)
2002:Core/Src/ADBMS.cpp ****   {
ARM GAS  C:\Users\huawei\AppData\Local\Temp\ccpVCJY0.s 			page 156


2003:Core/Src/ADBMS.cpp ****     printf("Fuse_med Diagnostic Test:\n");
2004:Core/Src/ADBMS.cpp ****     for(uint8_t ic = 0; ic < tIC; ic++)
2005:Core/Src/ADBMS.cpp ****     {
2006:Core/Src/ADBMS.cpp ****       printf("IC%d:",(ic+1));
2007:Core/Src/ADBMS.cpp ****       diagnosticTestResultPrint(IC[ic].diag_result.fuse_med);
2008:Core/Src/ADBMS.cpp ****     }
2009:Core/Src/ADBMS.cpp ****     printf("\n\n");
2010:Core/Src/ADBMS.cpp ****   }
2011:Core/Src/ADBMS.cpp **** 
2012:Core/Src/ADBMS.cpp ****   else if(type == TMODCHK)
2013:Core/Src/ADBMS.cpp ****   {
2014:Core/Src/ADBMS.cpp ****     printf("TMODCHK Diagnostic Test:\n");
2015:Core/Src/ADBMS.cpp ****     for(uint8_t ic = 0; ic < tIC; ic++)
2016:Core/Src/ADBMS.cpp ****     {
2017:Core/Src/ADBMS.cpp ****       printf("IC%d:",(ic+1));
2018:Core/Src/ADBMS.cpp ****       diagnosticTestResultPrint(IC[ic].diag_result.tmodchk);
2019:Core/Src/ADBMS.cpp ****     }
2020:Core/Src/ADBMS.cpp ****     printf("\n\n");
2021:Core/Src/ADBMS.cpp ****   }
2022:Core/Src/ADBMS.cpp ****   else{printf("Wrong Diagnostic Selected\n");}
2023:Core/Src/ADBMS.cpp **** }
2024:Core/Src/ADBMS.cpp **** 
2025:Core/Src/ADBMS.cpp **** /**
2026:Core/Src/ADBMS.cpp **** *******************************************************************************
2027:Core/Src/ADBMS.cpp **** * Function: diagnosticResultPrint
2028:Core/Src/ADBMS.cpp **** * @brief Print diagnostic (PASS/FAIL) result.
2029:Core/Src/ADBMS.cpp **** *
2030:Core/Src/ADBMS.cpp **** * @details This function print diagnostic (PASS/FAIL) result into console.
2031:Core/Src/ADBMS.cpp **** *
2032:Core/Src/ADBMS.cpp **** * Parameters:
2033:Core/Src/ADBMS.cpp **** * @param [in]	result   Result byte
2034:Core/Src/ADBMS.cpp **** *
2035:Core/Src/ADBMS.cpp **** * @return None
2036:Core/Src/ADBMS.cpp **** *
2037:Core/Src/ADBMS.cpp **** *******************************************************************************
2038:Core/Src/ADBMS.cpp **** */
2039:Core/Src/ADBMS.cpp **** void diagnosticTestResultPrint(uint8_t result)
2040:Core/Src/ADBMS.cpp **** {
 5612              		.loc 1 2040 1 is_stmt 1 view -0
 5613              		.cfi_startproc
 5614              		@ args = 0, pretend = 0, frame = 0
 5615              		@ frame_needed = 0, uses_anonymous_args = 0
 5616              		.loc 1 2040 1 is_stmt 0 view .LVU1556
 5617 0000 08B5     		push	{r3, lr}
 5618              		.save {r3, lr}
 5619              	.LCFI49:
 5620              		.cfi_def_cfa_offset 8
 5621              		.cfi_offset 3, -8
 5622              		.cfi_offset 14, -4
2041:Core/Src/ADBMS.cpp ****   if(result == 1)
 5623              		.loc 1 2041 3 is_stmt 1 view .LVU1557
 5624 0002 0128     		cmp	r0, #1
 5625 0004 03D0     		beq	.L305
2042:Core/Src/ADBMS.cpp ****   {
2043:Core/Src/ADBMS.cpp ****     printf("PASS\n");
2044:Core/Src/ADBMS.cpp ****   }
2045:Core/Src/ADBMS.cpp ****   else
ARM GAS  C:\Users\huawei\AppData\Local\Temp\ccpVCJY0.s 			page 157


2046:Core/Src/ADBMS.cpp ****   {
2047:Core/Src/ADBMS.cpp ****     printf("FAIL\n");
 5626              		.loc 1 2047 5 view .LVU1558
 5627              		.loc 1 2047 11 is_stmt 0 view .LVU1559
 5628 0006 0448     		ldr	r0, .L306
 5629              	.LVL605:
 5630              		.loc 1 2047 11 view .LVU1560
 5631 0008 FFF7FEFF 		bl	puts
 5632              	.LVL606:
 5633              	.L301:
2048:Core/Src/ADBMS.cpp ****   }
2049:Core/Src/ADBMS.cpp **** }
 5634              		.loc 1 2049 1 view .LVU1561
 5635 000c 08BD     		pop	{r3, pc}
 5636              	.LVL607:
 5637              	.L305:
2043:Core/Src/ADBMS.cpp ****   }
 5638              		.loc 1 2043 5 is_stmt 1 view .LVU1562
2043:Core/Src/ADBMS.cpp ****   }
 5639              		.loc 1 2043 11 is_stmt 0 view .LVU1563
 5640 000e 0348     		ldr	r0, .L306+4
 5641              	.LVL608:
2043:Core/Src/ADBMS.cpp ****   }
 5642              		.loc 1 2043 11 view .LVU1564
 5643 0010 FFF7FEFF 		bl	puts
 5644              	.LVL609:
 5645 0014 FAE7     		b	.L301
 5646              	.L307:
 5647 0016 00BF     		.align	2
 5648              	.L306:
 5649 0018 08000000 		.word	.LC79
 5650 001c 00000000 		.word	.LC78
 5651              		.cfi_endproc
 5652              	.LFE288:
 5653              		.fnend
 5655              		.section	.rodata._Z25printDiagnosticTestResulthP9cell_asic15DIAGNOSTIC_TYPE.str1.4,"aMS",%progbits
 5656              		.align	2
 5657              	.LC80:
 5658 0000 4F534320 		.ascii	"OSC Diagnostic Test:\000"
 5658      44696167 
 5658      6E6F7374 
 5658      69632054 
 5658      6573743A 
 5659 0015 000000   		.align	2
 5660              	.LC81:
 5661 0018 49432564 		.ascii	"IC%d:\000"
 5661      3A00
 5662 001e 0000     		.align	2
 5663              	.LC82:
 5664 0020 0A00     		.ascii	"\012\000"
 5665 0022 0000     		.align	2
 5666              	.LC83:
 5667 0024 466F7263 		.ascii	"Force Supply Error Detection Test:\000"
 5667      65205375 
 5667      70706C79 
 5667      20457272 
 5667      6F722044 
ARM GAS  C:\Users\huawei\AppData\Local\Temp\ccpVCJY0.s 			page 158


 5668 0047 00       		.align	2
 5669              	.LC84:
 5670 0048 54687364 		.ascii	"Thsd Diagnostic Test:\000"
 5670      20446961 
 5670      676E6F73 
 5670      74696320 
 5670      54657374 
 5671 005e 0000     		.align	2
 5672              	.LC85:
 5673 0060 46757365 		.ascii	"Fuse_ed Diagnostic Test:\000"
 5673      5F656420 
 5673      44696167 
 5673      6E6F7374 
 5673      69632054 
 5674 0079 000000   		.align	2
 5675              	.LC86:
 5676 007c 46757365 		.ascii	"Fuse_med Diagnostic Test:\000"
 5676      5F6D6564 
 5676      20446961 
 5676      676E6F73 
 5676      74696320 
 5677 0096 0000     		.align	2
 5678              	.LC87:
 5679 0098 544D4F44 		.ascii	"TMODCHK Diagnostic Test:\000"
 5679      43484B20 
 5679      44696167 
 5679      6E6F7374 
 5679      69632054 
 5680 00b1 000000   		.align	2
 5681              	.LC88:
 5682 00b4 57726F6E 		.ascii	"Wrong Diagnostic Selected\000"
 5682      67204469 
 5682      61676E6F 
 5682      73746963 
 5682      2053656C 
 5683              		.section	.text._Z25printDiagnosticTestResulthP9cell_asic15DIAGNOSTIC_TYPE,"ax",%progbits
 5684              		.align	1
 5685              		.global	_Z25printDiagnosticTestResulthP9cell_asic15DIAGNOSTIC_TYPE
 5686              		.syntax unified
 5687              		.thumb
 5688              		.thumb_func
 5690              	_Z25printDiagnosticTestResulthP9cell_asic15DIAGNOSTIC_TYPE:
 5691              		.fnstart
 5692              	.LVL610:
 5693              	.LFB287:
1956:Core/Src/ADBMS.cpp ****   if(type == OSC_MISMATCH)
 5694              		.loc 1 1956 1 is_stmt 1 view -0
 5695              		.cfi_startproc
 5696              		@ args = 0, pretend = 0, frame = 0
 5697              		@ frame_needed = 0, uses_anonymous_args = 0
1956:Core/Src/ADBMS.cpp ****   if(type == OSC_MISMATCH)
 5698              		.loc 1 1956 1 is_stmt 0 view .LVU1566
 5699 0000 F8B5     		push	{r3, r4, r5, r6, r7, lr}
 5700              		.save {r3, r4, r5, r6, r7, lr}
 5701              	.LCFI50:
 5702              		.cfi_def_cfa_offset 24
 5703              		.cfi_offset 3, -24
ARM GAS  C:\Users\huawei\AppData\Local\Temp\ccpVCJY0.s 			page 159


 5704              		.cfi_offset 4, -20
 5705              		.cfi_offset 5, -16
 5706              		.cfi_offset 6, -12
 5707              		.cfi_offset 7, -8
 5708              		.cfi_offset 14, -4
 5709 0002 0546     		mov	r5, r0
 5710 0004 0E46     		mov	r6, r1
1957:Core/Src/ADBMS.cpp ****   {
 5711              		.loc 1 1957 3 is_stmt 1 view .LVU1567
 5712 0006 052A     		cmp	r2, #5
 5713 0008 00F29B80 		bhi	.L309
 5714 000c DFE802F0 		tbb	[pc, r2]
 5715              	.L311:
 5716 0010 03       		.byte	(.L316-.L311)/2
 5717 0011 1C       		.byte	(.L315-.L311)/2
 5718 0012 35       		.byte	(.L314-.L311)/2
 5719 0013 4E       		.byte	(.L313-.L311)/2
 5720 0014 67       		.byte	(.L312-.L311)/2
 5721 0015 80       		.byte	(.L310-.L311)/2
 5722              		.p2align 1
 5723              	.L316:
 5724 0016 1446     		mov	r4, r2
 5725              	.LBB106:
 5726              	.LBB107:
1959:Core/Src/ADBMS.cpp ****     for(uint8_t ic = 0; ic < tIC; ic++)
 5727              		.loc 1 1959 5 view .LVU1568
1959:Core/Src/ADBMS.cpp ****     for(uint8_t ic = 0; ic < tIC; ic++)
 5728              		.loc 1 1959 11 is_stmt 0 view .LVU1569
 5729 0018 4C48     		ldr	r0, .L331
 5730              	.LVL611:
1959:Core/Src/ADBMS.cpp ****     for(uint8_t ic = 0; ic < tIC; ic++)
 5731              		.loc 1 1959 11 view .LVU1570
 5732 001a FFF7FEFF 		bl	puts
 5733              	.LVL612:
1960:Core/Src/ADBMS.cpp ****     {
 5734              		.loc 1 1960 5 is_stmt 1 view .LVU1571
 5735              	.LBB108:
1960:Core/Src/ADBMS.cpp ****     {
 5736              		.loc 1 1960 5 is_stmt 0 view .LVU1572
 5737 001e 0DE0     		b	.L317
 5738              	.LVL613:
 5739              	.L318:
1962:Core/Src/ADBMS.cpp ****       diagnosticTestResultPrint(IC[ic].diag_result.osc_mismatch);
 5740              		.loc 1 1962 7 is_stmt 1 discriminator 3 view .LVU1573
1962:Core/Src/ADBMS.cpp ****       diagnosticTestResultPrint(IC[ic].diag_result.osc_mismatch);
 5741              		.loc 1 1962 13 is_stmt 0 discriminator 3 view .LVU1574
 5742 0020 671C     		adds	r7, r4, #1
 5743 0022 3946     		mov	r1, r7
 5744 0024 4A48     		ldr	r0, .L331+4
 5745 0026 FFF7FEFF 		bl	printf
 5746              	.LVL614:
1963:Core/Src/ADBMS.cpp ****     }
 5747              		.loc 1 1963 7 is_stmt 1 discriminator 3 view .LVU1575
1963:Core/Src/ADBMS.cpp ****     }
 5748              		.loc 1 1963 38 is_stmt 0 discriminator 3 view .LVU1576
 5749 002a 4FF42873 		mov	r3, #672
 5750 002e 03FB0464 		mla	r4, r3, r4, r6
ARM GAS  C:\Users\huawei\AppData\Local\Temp\ccpVCJY0.s 			page 160


 5751              	.LVL615:
1963:Core/Src/ADBMS.cpp ****     }
 5752              		.loc 1 1963 32 discriminator 3 view .LVU1577
 5753 0032 94F86C02 		ldrb	r0, [r4, #620]	@ zero_extendqisi2
 5754 0036 FFF7FEFF 		bl	_Z25diagnosticTestResultPrinth
 5755              	.LVL616:
1960:Core/Src/ADBMS.cpp ****     {
 5756              		.loc 1 1960 5 is_stmt 1 discriminator 3 view .LVU1578
 5757 003a FCB2     		uxtb	r4, r7
 5758              	.LVL617:
 5759              	.L317:
1960:Core/Src/ADBMS.cpp ****     {
 5760              		.loc 1 1960 28 discriminator 1 view .LVU1579
 5761 003c AC42     		cmp	r4, r5
 5762 003e EFD3     		bcc	.L318
 5763              	.LBE108:
1965:Core/Src/ADBMS.cpp ****   }
 5764              		.loc 1 1965 5 view .LVU1580
1965:Core/Src/ADBMS.cpp ****   }
 5765              		.loc 1 1965 11 is_stmt 0 view .LVU1581
 5766 0040 4448     		ldr	r0, .L331+8
 5767 0042 FFF7FEFF 		bl	puts
 5768              	.LVL618:
 5769              	.L308:
1965:Core/Src/ADBMS.cpp ****   }
 5770              		.loc 1 1965 11 view .LVU1582
 5771              	.LBE107:
 5772              	.LBE106:
2023:Core/Src/ADBMS.cpp **** 
 5773              		.loc 1 2023 1 view .LVU1583
 5774 0046 F8BD     		pop	{r3, r4, r5, r6, r7, pc}
 5775              	.LVL619:
 5776              	.L315:
 5777              	.LBB124:
 5778              	.LBB109:
 5779              	.LBB110:
1970:Core/Src/ADBMS.cpp ****     for(uint8_t ic = 0; ic < tIC; ic++)
 5780              		.loc 1 1970 5 is_stmt 1 view .LVU1584
1970:Core/Src/ADBMS.cpp ****     for(uint8_t ic = 0; ic < tIC; ic++)
 5781              		.loc 1 1970 11 is_stmt 0 view .LVU1585
 5782 0048 4348     		ldr	r0, .L331+12
 5783              	.LVL620:
1970:Core/Src/ADBMS.cpp ****     for(uint8_t ic = 0; ic < tIC; ic++)
 5784              		.loc 1 1970 11 view .LVU1586
 5785 004a FFF7FEFF 		bl	puts
 5786              	.LVL621:
1971:Core/Src/ADBMS.cpp ****     {
 5787              		.loc 1 1971 5 is_stmt 1 view .LVU1587
 5788              	.LBB111:
1971:Core/Src/ADBMS.cpp ****     {
 5789              		.loc 1 1971 17 is_stmt 0 view .LVU1588
 5790 004e 0024     		movs	r4, #0
1971:Core/Src/ADBMS.cpp ****     {
 5791              		.loc 1 1971 5 view .LVU1589
 5792 0050 0DE0     		b	.L320
 5793              	.LVL622:
 5794              	.L321:
ARM GAS  C:\Users\huawei\AppData\Local\Temp\ccpVCJY0.s 			page 161


1973:Core/Src/ADBMS.cpp ****       diagnosticTestResultPrint(IC[ic].diag_result.supply_error);
 5795              		.loc 1 1973 7 is_stmt 1 discriminator 3 view .LVU1590
1973:Core/Src/ADBMS.cpp ****       diagnosticTestResultPrint(IC[ic].diag_result.supply_error);
 5796              		.loc 1 1973 13 is_stmt 0 discriminator 3 view .LVU1591
 5797 0052 671C     		adds	r7, r4, #1
 5798 0054 3946     		mov	r1, r7
 5799 0056 3E48     		ldr	r0, .L331+4
 5800 0058 FFF7FEFF 		bl	printf
 5801              	.LVL623:
1974:Core/Src/ADBMS.cpp ****     }
 5802              		.loc 1 1974 7 is_stmt 1 discriminator 3 view .LVU1592
1974:Core/Src/ADBMS.cpp ****     }
 5803              		.loc 1 1974 38 is_stmt 0 discriminator 3 view .LVU1593
 5804 005c 4FF42873 		mov	r3, #672
 5805 0060 03FB0464 		mla	r4, r3, r4, r6
 5806              	.LVL624:
1974:Core/Src/ADBMS.cpp ****     }
 5807              		.loc 1 1974 32 discriminator 3 view .LVU1594
 5808 0064 94F86D02 		ldrb	r0, [r4, #621]	@ zero_extendqisi2
 5809 0068 FFF7FEFF 		bl	_Z25diagnosticTestResultPrinth
 5810              	.LVL625:
1971:Core/Src/ADBMS.cpp ****     {
 5811              		.loc 1 1971 5 is_stmt 1 discriminator 3 view .LVU1595
 5812 006c FCB2     		uxtb	r4, r7
 5813              	.LVL626:
 5814              	.L320:
1971:Core/Src/ADBMS.cpp ****     {
 5815              		.loc 1 1971 28 discriminator 1 view .LVU1596
 5816 006e AC42     		cmp	r4, r5
 5817 0070 EFD3     		bcc	.L321
 5818              	.LBE111:
1976:Core/Src/ADBMS.cpp ****   }
 5819              		.loc 1 1976 5 view .LVU1597
1976:Core/Src/ADBMS.cpp ****   }
 5820              		.loc 1 1976 11 is_stmt 0 view .LVU1598
 5821 0072 3848     		ldr	r0, .L331+8
 5822 0074 FFF7FEFF 		bl	puts
 5823              	.LVL627:
 5824              	.LBE110:
 5825 0078 E5E7     		b	.L308
 5826              	.LVL628:
 5827              	.L314:
 5828              	.LBB112:
 5829              	.LBB113:
1981:Core/Src/ADBMS.cpp ****     for(uint8_t ic = 0; ic < tIC; ic++)
 5830              		.loc 1 1981 5 is_stmt 1 view .LVU1599
1981:Core/Src/ADBMS.cpp ****     for(uint8_t ic = 0; ic < tIC; ic++)
 5831              		.loc 1 1981 11 is_stmt 0 view .LVU1600
 5832 007a 3848     		ldr	r0, .L331+16
 5833              	.LVL629:
1981:Core/Src/ADBMS.cpp ****     for(uint8_t ic = 0; ic < tIC; ic++)
 5834              		.loc 1 1981 11 view .LVU1601
 5835 007c FFF7FEFF 		bl	puts
 5836              	.LVL630:
1982:Core/Src/ADBMS.cpp ****     {
 5837              		.loc 1 1982 5 is_stmt 1 view .LVU1602
 5838              	.LBB114:
ARM GAS  C:\Users\huawei\AppData\Local\Temp\ccpVCJY0.s 			page 162


1982:Core/Src/ADBMS.cpp ****     {
 5839              		.loc 1 1982 17 is_stmt 0 view .LVU1603
 5840 0080 0024     		movs	r4, #0
1982:Core/Src/ADBMS.cpp ****     {
 5841              		.loc 1 1982 5 view .LVU1604
 5842 0082 0DE0     		b	.L322
 5843              	.LVL631:
 5844              	.L323:
1984:Core/Src/ADBMS.cpp ****       diagnosticTestResultPrint(IC[ic].diag_result.thsd);
 5845              		.loc 1 1984 7 is_stmt 1 discriminator 3 view .LVU1605
1984:Core/Src/ADBMS.cpp ****       diagnosticTestResultPrint(IC[ic].diag_result.thsd);
 5846              		.loc 1 1984 13 is_stmt 0 discriminator 3 view .LVU1606
 5847 0084 671C     		adds	r7, r4, #1
 5848 0086 3946     		mov	r1, r7
 5849 0088 3148     		ldr	r0, .L331+4
 5850 008a FFF7FEFF 		bl	printf
 5851              	.LVL632:
1985:Core/Src/ADBMS.cpp ****     }
 5852              		.loc 1 1985 7 is_stmt 1 discriminator 3 view .LVU1607
1985:Core/Src/ADBMS.cpp ****     }
 5853              		.loc 1 1985 38 is_stmt 0 discriminator 3 view .LVU1608
 5854 008e 4FF42873 		mov	r3, #672
 5855 0092 03FB0464 		mla	r4, r3, r4, r6
 5856              	.LVL633:
1985:Core/Src/ADBMS.cpp ****     }
 5857              		.loc 1 1985 32 discriminator 3 view .LVU1609
 5858 0096 94F86F02 		ldrb	r0, [r4, #623]	@ zero_extendqisi2
 5859 009a FFF7FEFF 		bl	_Z25diagnosticTestResultPrinth
 5860              	.LVL634:
1982:Core/Src/ADBMS.cpp ****     {
 5861              		.loc 1 1982 5 is_stmt 1 discriminator 3 view .LVU1610
 5862 009e FCB2     		uxtb	r4, r7
 5863              	.LVL635:
 5864              	.L322:
1982:Core/Src/ADBMS.cpp ****     {
 5865              		.loc 1 1982 28 discriminator 1 view .LVU1611
 5866 00a0 AC42     		cmp	r4, r5
 5867 00a2 EFD3     		bcc	.L323
 5868              	.LBE114:
1987:Core/Src/ADBMS.cpp ****   }
 5869              		.loc 1 1987 5 view .LVU1612
1987:Core/Src/ADBMS.cpp ****   }
 5870              		.loc 1 1987 11 is_stmt 0 view .LVU1613
 5871 00a4 2B48     		ldr	r0, .L331+8
 5872 00a6 FFF7FEFF 		bl	puts
 5873              	.LVL636:
 5874              	.LBE113:
 5875 00aa CCE7     		b	.L308
 5876              	.LVL637:
 5877              	.L313:
 5878              	.LBB115:
 5879              	.LBB116:
1992:Core/Src/ADBMS.cpp ****     for(uint8_t ic = 0; ic < tIC; ic++)
 5880              		.loc 1 1992 5 is_stmt 1 view .LVU1614
1992:Core/Src/ADBMS.cpp ****     for(uint8_t ic = 0; ic < tIC; ic++)
 5881              		.loc 1 1992 11 is_stmt 0 view .LVU1615
 5882 00ac 2C48     		ldr	r0, .L331+20
ARM GAS  C:\Users\huawei\AppData\Local\Temp\ccpVCJY0.s 			page 163


 5883              	.LVL638:
1992:Core/Src/ADBMS.cpp ****     for(uint8_t ic = 0; ic < tIC; ic++)
 5884              		.loc 1 1992 11 view .LVU1616
 5885 00ae FFF7FEFF 		bl	puts
 5886              	.LVL639:
1993:Core/Src/ADBMS.cpp ****     {
 5887              		.loc 1 1993 5 is_stmt 1 view .LVU1617
 5888              	.LBB117:
1993:Core/Src/ADBMS.cpp ****     {
 5889              		.loc 1 1993 17 is_stmt 0 view .LVU1618
 5890 00b2 0024     		movs	r4, #0
1993:Core/Src/ADBMS.cpp ****     {
 5891              		.loc 1 1993 5 view .LVU1619
 5892 00b4 0DE0     		b	.L324
 5893              	.LVL640:
 5894              	.L325:
1995:Core/Src/ADBMS.cpp ****       diagnosticTestResultPrint(IC[ic].diag_result.fuse_ed);
 5895              		.loc 1 1995 7 is_stmt 1 discriminator 3 view .LVU1620
1995:Core/Src/ADBMS.cpp ****       diagnosticTestResultPrint(IC[ic].diag_result.fuse_ed);
 5896              		.loc 1 1995 13 is_stmt 0 discriminator 3 view .LVU1621
 5897 00b6 671C     		adds	r7, r4, #1
 5898 00b8 3946     		mov	r1, r7
 5899 00ba 2548     		ldr	r0, .L331+4
 5900 00bc FFF7FEFF 		bl	printf
 5901              	.LVL641:
1996:Core/Src/ADBMS.cpp ****     }
 5902              		.loc 1 1996 7 is_stmt 1 discriminator 3 view .LVU1622
1996:Core/Src/ADBMS.cpp ****     }
 5903              		.loc 1 1996 38 is_stmt 0 discriminator 3 view .LVU1623
 5904 00c0 4FF42873 		mov	r3, #672
 5905 00c4 03FB0464 		mla	r4, r3, r4, r6
 5906              	.LVL642:
1996:Core/Src/ADBMS.cpp ****     }
 5907              		.loc 1 1996 32 discriminator 3 view .LVU1624
 5908 00c8 94F87002 		ldrb	r0, [r4, #624]	@ zero_extendqisi2
 5909 00cc FFF7FEFF 		bl	_Z25diagnosticTestResultPrinth
 5910              	.LVL643:
1993:Core/Src/ADBMS.cpp ****     {
 5911              		.loc 1 1993 5 is_stmt 1 discriminator 3 view .LVU1625
 5912 00d0 FCB2     		uxtb	r4, r7
 5913              	.LVL644:
 5914              	.L324:
1993:Core/Src/ADBMS.cpp ****     {
 5915              		.loc 1 1993 28 discriminator 1 view .LVU1626
 5916 00d2 AC42     		cmp	r4, r5
 5917 00d4 EFD3     		bcc	.L325
 5918              	.LBE117:
1998:Core/Src/ADBMS.cpp ****   }
 5919              		.loc 1 1998 5 view .LVU1627
1998:Core/Src/ADBMS.cpp ****   }
 5920              		.loc 1 1998 11 is_stmt 0 view .LVU1628
 5921 00d6 1F48     		ldr	r0, .L331+8
 5922 00d8 FFF7FEFF 		bl	puts
 5923              	.LVL645:
 5924              	.LBE116:
 5925 00dc B3E7     		b	.L308
 5926              	.LVL646:
ARM GAS  C:\Users\huawei\AppData\Local\Temp\ccpVCJY0.s 			page 164


 5927              	.L312:
 5928              	.LBB118:
 5929              	.LBB119:
2003:Core/Src/ADBMS.cpp ****     for(uint8_t ic = 0; ic < tIC; ic++)
 5930              		.loc 1 2003 5 is_stmt 1 view .LVU1629
2003:Core/Src/ADBMS.cpp ****     for(uint8_t ic = 0; ic < tIC; ic++)
 5931              		.loc 1 2003 11 is_stmt 0 view .LVU1630
 5932 00de 2148     		ldr	r0, .L331+24
 5933              	.LVL647:
2003:Core/Src/ADBMS.cpp ****     for(uint8_t ic = 0; ic < tIC; ic++)
 5934              		.loc 1 2003 11 view .LVU1631
 5935 00e0 FFF7FEFF 		bl	puts
 5936              	.LVL648:
2004:Core/Src/ADBMS.cpp ****     {
 5937              		.loc 1 2004 5 is_stmt 1 view .LVU1632
 5938              	.LBB120:
2004:Core/Src/ADBMS.cpp ****     {
 5939              		.loc 1 2004 17 is_stmt 0 view .LVU1633
 5940 00e4 0024     		movs	r4, #0
2004:Core/Src/ADBMS.cpp ****     {
 5941              		.loc 1 2004 5 view .LVU1634
 5942 00e6 0DE0     		b	.L326
 5943              	.LVL649:
 5944              	.L327:
2006:Core/Src/ADBMS.cpp ****       diagnosticTestResultPrint(IC[ic].diag_result.fuse_med);
 5945              		.loc 1 2006 7 is_stmt 1 discriminator 3 view .LVU1635
2006:Core/Src/ADBMS.cpp ****       diagnosticTestResultPrint(IC[ic].diag_result.fuse_med);
 5946              		.loc 1 2006 13 is_stmt 0 discriminator 3 view .LVU1636
 5947 00e8 671C     		adds	r7, r4, #1
 5948 00ea 3946     		mov	r1, r7
 5949 00ec 1848     		ldr	r0, .L331+4
 5950 00ee FFF7FEFF 		bl	printf
 5951              	.LVL650:
2007:Core/Src/ADBMS.cpp ****     }
 5952              		.loc 1 2007 7 is_stmt 1 discriminator 3 view .LVU1637
2007:Core/Src/ADBMS.cpp ****     }
 5953              		.loc 1 2007 38 is_stmt 0 discriminator 3 view .LVU1638
 5954 00f2 4FF42873 		mov	r3, #672
 5955 00f6 03FB0464 		mla	r4, r3, r4, r6
 5956              	.LVL651:
2007:Core/Src/ADBMS.cpp ****     }
 5957              		.loc 1 2007 32 discriminator 3 view .LVU1639
 5958 00fa 94F87102 		ldrb	r0, [r4, #625]	@ zero_extendqisi2
 5959 00fe FFF7FEFF 		bl	_Z25diagnosticTestResultPrinth
 5960              	.LVL652:
2004:Core/Src/ADBMS.cpp ****     {
 5961              		.loc 1 2004 5 is_stmt 1 discriminator 3 view .LVU1640
 5962 0102 FCB2     		uxtb	r4, r7
 5963              	.LVL653:
 5964              	.L326:
2004:Core/Src/ADBMS.cpp ****     {
 5965              		.loc 1 2004 28 discriminator 1 view .LVU1641
 5966 0104 AC42     		cmp	r4, r5
 5967 0106 EFD3     		bcc	.L327
 5968              	.LBE120:
2009:Core/Src/ADBMS.cpp ****   }
 5969              		.loc 1 2009 5 view .LVU1642
ARM GAS  C:\Users\huawei\AppData\Local\Temp\ccpVCJY0.s 			page 165


2009:Core/Src/ADBMS.cpp ****   }
 5970              		.loc 1 2009 11 is_stmt 0 view .LVU1643
 5971 0108 1248     		ldr	r0, .L331+8
 5972 010a FFF7FEFF 		bl	puts
 5973              	.LVL654:
 5974              	.LBE119:
 5975 010e 9AE7     		b	.L308
 5976              	.LVL655:
 5977              	.L310:
 5978              	.LBB121:
 5979              	.LBB122:
2014:Core/Src/ADBMS.cpp ****     for(uint8_t ic = 0; ic < tIC; ic++)
 5980              		.loc 1 2014 5 is_stmt 1 view .LVU1644
2014:Core/Src/ADBMS.cpp ****     for(uint8_t ic = 0; ic < tIC; ic++)
 5981              		.loc 1 2014 11 is_stmt 0 view .LVU1645
 5982 0110 1548     		ldr	r0, .L331+28
 5983              	.LVL656:
2014:Core/Src/ADBMS.cpp ****     for(uint8_t ic = 0; ic < tIC; ic++)
 5984              		.loc 1 2014 11 view .LVU1646
 5985 0112 FFF7FEFF 		bl	puts
 5986              	.LVL657:
2015:Core/Src/ADBMS.cpp ****     {
 5987              		.loc 1 2015 5 is_stmt 1 view .LVU1647
 5988              	.LBB123:
2015:Core/Src/ADBMS.cpp ****     {
 5989              		.loc 1 2015 17 is_stmt 0 view .LVU1648
 5990 0116 0024     		movs	r4, #0
2015:Core/Src/ADBMS.cpp ****     {
 5991              		.loc 1 2015 5 view .LVU1649
 5992 0118 0DE0     		b	.L328
 5993              	.LVL658:
 5994              	.L329:
2017:Core/Src/ADBMS.cpp ****       diagnosticTestResultPrint(IC[ic].diag_result.tmodchk);
 5995              		.loc 1 2017 7 is_stmt 1 discriminator 3 view .LVU1650
2017:Core/Src/ADBMS.cpp ****       diagnosticTestResultPrint(IC[ic].diag_result.tmodchk);
 5996              		.loc 1 2017 13 is_stmt 0 discriminator 3 view .LVU1651
 5997 011a 671C     		adds	r7, r4, #1
 5998 011c 3946     		mov	r1, r7
 5999 011e 0C48     		ldr	r0, .L331+4
 6000 0120 FFF7FEFF 		bl	printf
 6001              	.LVL659:
2018:Core/Src/ADBMS.cpp ****     }
 6002              		.loc 1 2018 7 is_stmt 1 discriminator 3 view .LVU1652
2018:Core/Src/ADBMS.cpp ****     }
 6003              		.loc 1 2018 38 is_stmt 0 discriminator 3 view .LVU1653
 6004 0124 4FF42873 		mov	r3, #672
 6005 0128 03FB0464 		mla	r4, r3, r4, r6
 6006              	.LVL660:
2018:Core/Src/ADBMS.cpp ****     }
 6007              		.loc 1 2018 32 discriminator 3 view .LVU1654
 6008 012c 94F87202 		ldrb	r0, [r4, #626]	@ zero_extendqisi2
 6009 0130 FFF7FEFF 		bl	_Z25diagnosticTestResultPrinth
 6010              	.LVL661:
2015:Core/Src/ADBMS.cpp ****     {
 6011              		.loc 1 2015 5 is_stmt 1 discriminator 3 view .LVU1655
 6012 0134 FCB2     		uxtb	r4, r7
 6013              	.LVL662:
ARM GAS  C:\Users\huawei\AppData\Local\Temp\ccpVCJY0.s 			page 166


 6014              	.L328:
2015:Core/Src/ADBMS.cpp ****     {
 6015              		.loc 1 2015 28 discriminator 1 view .LVU1656
 6016 0136 AC42     		cmp	r4, r5
 6017 0138 EFD3     		bcc	.L329
 6018              	.LBE123:
2020:Core/Src/ADBMS.cpp ****   }
 6019              		.loc 1 2020 5 view .LVU1657
2020:Core/Src/ADBMS.cpp ****   }
 6020              		.loc 1 2020 11 is_stmt 0 view .LVU1658
 6021 013a 0648     		ldr	r0, .L331+8
 6022 013c FFF7FEFF 		bl	puts
 6023              	.LVL663:
 6024              	.LBE122:
 6025 0140 81E7     		b	.L308
 6026              	.LVL664:
 6027              	.L309:
2022:Core/Src/ADBMS.cpp **** }
 6028              		.loc 1 2022 8 is_stmt 1 view .LVU1659
2022:Core/Src/ADBMS.cpp **** }
 6029              		.loc 1 2022 14 is_stmt 0 view .LVU1660
 6030 0142 0A48     		ldr	r0, .L331+32
 6031              	.LVL665:
2022:Core/Src/ADBMS.cpp **** }
 6032              		.loc 1 2022 14 view .LVU1661
 6033 0144 FFF7FEFF 		bl	puts
 6034              	.LVL666:
2022:Core/Src/ADBMS.cpp **** }
 6035              		.loc 1 2022 14 view .LVU1662
 6036              	.LBE121:
 6037              	.LBE118:
 6038              	.LBE115:
 6039              	.LBE112:
 6040              	.LBE109:
 6041              	.LBE124:
2023:Core/Src/ADBMS.cpp **** 
 6042              		.loc 1 2023 1 view .LVU1663
 6043 0148 7DE7     		b	.L308
 6044              	.L332:
 6045 014a 00BF     		.align	2
 6046              	.L331:
 6047 014c 00000000 		.word	.LC80
 6048 0150 18000000 		.word	.LC81
 6049 0154 20000000 		.word	.LC82
 6050 0158 24000000 		.word	.LC83
 6051 015c 48000000 		.word	.LC84
 6052 0160 60000000 		.word	.LC85
 6053 0164 7C000000 		.word	.LC86
 6054 0168 98000000 		.word	.LC87
 6055 016c B4000000 		.word	.LC88
 6056              		.cfi_endproc
 6057              	.LFE287:
 6058              		.fnend
 6060              		.section	.rodata._Z19openWireResultPrinth.str1.4,"aMS",%progbits,1
 6061              		.align	2
 6062              	.LC89:
 6063 0000 204F5045 		.ascii	" OPEN\000"
ARM GAS  C:\Users\huawei\AppData\Local\Temp\ccpVCJY0.s 			page 167


 6063      4E00
 6064 0006 0000     		.align	2
 6065              	.LC90:
 6066 0008 20434C4F 		.ascii	" CLOSE\000"
 6066      534500
 6067              		.section	.text._Z19openWireResultPrinth,"ax",%progbits
 6068              		.align	1
 6069              		.global	_Z19openWireResultPrinth
 6070              		.syntax unified
 6071              		.thumb
 6072              		.thumb_func
 6074              	_Z19openWireResultPrinth:
 6075              		.fnstart
 6076              	.LVL667:
 6077              	.LFB290:
2050:Core/Src/ADBMS.cpp **** 
2051:Core/Src/ADBMS.cpp **** /**
2052:Core/Src/ADBMS.cpp **** *******************************************************************************
2053:Core/Src/ADBMS.cpp **** * Function: printOpenWireTestResult
2054:Core/Src/ADBMS.cpp **** * @brief Print open wire test result.
2055:Core/Src/ADBMS.cpp **** *
2056:Core/Src/ADBMS.cpp **** * @details This function print open wire test result.
2057:Core/Src/ADBMS.cpp **** *
2058:Core/Src/ADBMS.cpp **** * Parameters:
2059:Core/Src/ADBMS.cpp **** * @param [in]	tIC      Total IC
2060:Core/Src/ADBMS.cpp **** *
2061:Core/Src/ADBMS.cpp **** * @param [in]  *IC      cell_asic stucture pointer
2062:Core/Src/ADBMS.cpp **** *
2063:Core/Src/ADBMS.cpp **** * @param [in]  type     Enum type of resistor
2064:Core/Src/ADBMS.cpp **** *
2065:Core/Src/ADBMS.cpp **** * @return None
2066:Core/Src/ADBMS.cpp **** *
2067:Core/Src/ADBMS.cpp **** *******************************************************************************
2068:Core/Src/ADBMS.cpp **** */
2069:Core/Src/ADBMS.cpp **** void printOpenWireTestResult(uint8_t tIC, cell_asic *IC, TYPE type)
2070:Core/Src/ADBMS.cpp **** {
2071:Core/Src/ADBMS.cpp ****   if(type == Cell)
2072:Core/Src/ADBMS.cpp ****   {
2073:Core/Src/ADBMS.cpp ****     printf("Cell Open Wire Test\n");
2074:Core/Src/ADBMS.cpp ****     for(uint8_t ic = 0; ic < tIC; ic++)
2075:Core/Src/ADBMS.cpp ****     {
2076:Core/Src/ADBMS.cpp ****       printf("IC%d:\n",(ic+1));
2077:Core/Src/ADBMS.cpp ****       for(uint8_t cell = 0; cell < CELL; cell++)
2078:Core/Src/ADBMS.cpp ****       {
2079:Core/Src/ADBMS.cpp ****         printf("CELL%d:",(cell+1));
2080:Core/Src/ADBMS.cpp ****         openWireResultPrint(IC[ic].diag_result.cell_ow[cell]);
2081:Core/Src/ADBMS.cpp ****       }
2082:Core/Src/ADBMS.cpp ****       printf("\n\n");
2083:Core/Src/ADBMS.cpp ****     }
2084:Core/Src/ADBMS.cpp ****   }
2085:Core/Src/ADBMS.cpp ****   else if(type == S_volt)
2086:Core/Src/ADBMS.cpp ****   {
2087:Core/Src/ADBMS.cpp ****     printf("Cell redundant Open Wire Test\n");
2088:Core/Src/ADBMS.cpp ****     for(uint8_t ic = 0; ic < tIC; ic++)
2089:Core/Src/ADBMS.cpp ****     {
2090:Core/Src/ADBMS.cpp ****       printf("IC%d:\n",(ic+1));
2091:Core/Src/ADBMS.cpp ****       for(uint8_t cell = 0; cell < CELL; cell++)
ARM GAS  C:\Users\huawei\AppData\Local\Temp\ccpVCJY0.s 			page 168


2092:Core/Src/ADBMS.cpp ****       {
2093:Core/Src/ADBMS.cpp ****         printf("CELL%d:",(cell+1));
2094:Core/Src/ADBMS.cpp ****         openWireResultPrint(IC[ic].diag_result.cellred_ow[cell]);
2095:Core/Src/ADBMS.cpp ****       }
2096:Core/Src/ADBMS.cpp ****       printf("\n\n");
2097:Core/Src/ADBMS.cpp ****     }
2098:Core/Src/ADBMS.cpp ****   }
2099:Core/Src/ADBMS.cpp ****   else if(type == Aux)
2100:Core/Src/ADBMS.cpp ****   {
2101:Core/Src/ADBMS.cpp ****     printf("Aux Open Wire Test\n");
2102:Core/Src/ADBMS.cpp ****     for(uint8_t ic = 0; ic < tIC; ic++)
2103:Core/Src/ADBMS.cpp ****     {
2104:Core/Src/ADBMS.cpp ****       printf("IC%d:\n",(ic+1));
2105:Core/Src/ADBMS.cpp ****       for(uint8_t gpio = 0; gpio < (AUX-2); gpio++)
2106:Core/Src/ADBMS.cpp ****       {
2107:Core/Src/ADBMS.cpp ****         printf("GPIO%d:",(gpio+1));
2108:Core/Src/ADBMS.cpp ****         openWireResultPrint(IC[ic].diag_result.aux_ow[gpio]);
2109:Core/Src/ADBMS.cpp ****       }
2110:Core/Src/ADBMS.cpp ****       printf("\n\n");
2111:Core/Src/ADBMS.cpp ****     }
2112:Core/Src/ADBMS.cpp ****   }
2113:Core/Src/ADBMS.cpp ****   else{printf("Wrong Resistor Type Selected\n");}
2114:Core/Src/ADBMS.cpp **** }
2115:Core/Src/ADBMS.cpp **** 
2116:Core/Src/ADBMS.cpp **** /**
2117:Core/Src/ADBMS.cpp **** *******************************************************************************
2118:Core/Src/ADBMS.cpp **** * Function: openWireResultPrint
2119:Core/Src/ADBMS.cpp **** * @brief Print open wire (OPEN/CLOSE) result.
2120:Core/Src/ADBMS.cpp **** *
2121:Core/Src/ADBMS.cpp **** * @details This function print open wire result into console.
2122:Core/Src/ADBMS.cpp **** *
2123:Core/Src/ADBMS.cpp **** * Parameters:
2124:Core/Src/ADBMS.cpp **** * @param [in]	result   Result byte
2125:Core/Src/ADBMS.cpp **** *
2126:Core/Src/ADBMS.cpp **** * @return None
2127:Core/Src/ADBMS.cpp **** *
2128:Core/Src/ADBMS.cpp **** *******************************************************************************
2129:Core/Src/ADBMS.cpp **** */
2130:Core/Src/ADBMS.cpp **** void openWireResultPrint(uint8_t result)
2131:Core/Src/ADBMS.cpp **** {
 6078              		.loc 1 2131 1 is_stmt 1 view -0
 6079              		.cfi_startproc
 6080              		@ args = 0, pretend = 0, frame = 0
 6081              		@ frame_needed = 0, uses_anonymous_args = 0
 6082              		.loc 1 2131 1 is_stmt 0 view .LVU1665
 6083 0000 08B5     		push	{r3, lr}
 6084              		.save {r3, lr}
 6085              	.LCFI51:
 6086              		.cfi_def_cfa_offset 8
 6087              		.cfi_offset 3, -8
 6088              		.cfi_offset 14, -4
2132:Core/Src/ADBMS.cpp ****   if(result == 1)
 6089              		.loc 1 2132 3 is_stmt 1 view .LVU1666
 6090 0002 0128     		cmp	r0, #1
 6091 0004 03D0     		beq	.L337
2133:Core/Src/ADBMS.cpp ****   {
2134:Core/Src/ADBMS.cpp ****     printf(" OPEN\n");
ARM GAS  C:\Users\huawei\AppData\Local\Temp\ccpVCJY0.s 			page 169


2135:Core/Src/ADBMS.cpp ****   }
2136:Core/Src/ADBMS.cpp ****   else
2137:Core/Src/ADBMS.cpp ****   {
2138:Core/Src/ADBMS.cpp ****     printf(" CLOSE\n");
 6092              		.loc 1 2138 5 view .LVU1667
 6093              		.loc 1 2138 11 is_stmt 0 view .LVU1668
 6094 0006 0448     		ldr	r0, .L338
 6095              	.LVL668:
 6096              		.loc 1 2138 11 view .LVU1669
 6097 0008 FFF7FEFF 		bl	puts
 6098              	.LVL669:
 6099              	.L333:
2139:Core/Src/ADBMS.cpp ****   }
2140:Core/Src/ADBMS.cpp **** }
 6100              		.loc 1 2140 1 view .LVU1670
 6101 000c 08BD     		pop	{r3, pc}
 6102              	.LVL670:
 6103              	.L337:
2134:Core/Src/ADBMS.cpp ****   }
 6104              		.loc 1 2134 5 is_stmt 1 view .LVU1671
2134:Core/Src/ADBMS.cpp ****   }
 6105              		.loc 1 2134 11 is_stmt 0 view .LVU1672
 6106 000e 0348     		ldr	r0, .L338+4
 6107              	.LVL671:
2134:Core/Src/ADBMS.cpp ****   }
 6108              		.loc 1 2134 11 view .LVU1673
 6109 0010 FFF7FEFF 		bl	puts
 6110              	.LVL672:
 6111 0014 FAE7     		b	.L333
 6112              	.L339:
 6113 0016 00BF     		.align	2
 6114              	.L338:
 6115 0018 08000000 		.word	.LC90
 6116 001c 00000000 		.word	.LC89
 6117              		.cfi_endproc
 6118              	.LFE290:
 6119              		.fnend
 6121              		.section	.rodata._Z23printOpenWireTestResulthP9cell_asic4TYPE.str1.4,"aMS",%progbits,1
 6122              		.align	2
 6123              	.LC91:
 6124 0000 43656C6C 		.ascii	"Cell Open Wire Test\000"
 6124      204F7065 
 6124      6E205769 
 6124      72652054 
 6124      65737400 
 6125              		.align	2
 6126              	.LC92:
 6127 0014 43454C4C 		.ascii	"CELL%d:\000"
 6127      25643A00 
 6128              		.align	2
 6129              	.LC93:
 6130 001c 43656C6C 		.ascii	"Cell redundant Open Wire Test\000"
 6130      20726564 
 6130      756E6461 
 6130      6E74204F 
 6130      70656E20 
 6131 003a 0000     		.align	2
ARM GAS  C:\Users\huawei\AppData\Local\Temp\ccpVCJY0.s 			page 170


 6132              	.LC94:
 6133 003c 41757820 		.ascii	"Aux Open Wire Test\000"
 6133      4F70656E 
 6133      20576972 
 6133      65205465 
 6133      737400
 6134 004f 00       		.align	2
 6135              	.LC95:
 6136 0050 4750494F 		.ascii	"GPIO%d:\000"
 6136      25643A00 
 6137              		.align	2
 6138              	.LC96:
 6139 0058 57726F6E 		.ascii	"Wrong Resistor Type Selected\000"
 6139      67205265 
 6139      73697374 
 6139      6F722054 
 6139      79706520 
 6140              		.section	.text._Z23printOpenWireTestResulthP9cell_asic4TYPE,"ax",%progbits
 6141              		.align	1
 6142              		.global	_Z23printOpenWireTestResulthP9cell_asic4TYPE
 6143              		.syntax unified
 6144              		.thumb
 6145              		.thumb_func
 6147              	_Z23printOpenWireTestResulthP9cell_asic4TYPE:
 6148              		.fnstart
 6149              	.LVL673:
 6150              	.LFB289:
2070:Core/Src/ADBMS.cpp ****   if(type == Cell)
 6151              		.loc 1 2070 1 is_stmt 1 view -0
 6152              		.cfi_startproc
 6153              		@ args = 0, pretend = 0, frame = 0
 6154              		@ frame_needed = 0, uses_anonymous_args = 0
2070:Core/Src/ADBMS.cpp ****   if(type == Cell)
 6155              		.loc 1 2070 1 is_stmt 0 view .LVU1675
 6156 0000 2DE9F843 		push	{r3, r4, r5, r6, r7, r8, r9, lr}
 6157              		.save {r3, r4, r5, r6, r7, r8, r9, lr}
 6158              	.LCFI52:
 6159              		.cfi_def_cfa_offset 32
 6160              		.cfi_offset 3, -32
 6161              		.cfi_offset 4, -28
 6162              		.cfi_offset 5, -24
 6163              		.cfi_offset 6, -20
 6164              		.cfi_offset 7, -16
 6165              		.cfi_offset 8, -12
 6166              		.cfi_offset 9, -8
 6167              		.cfi_offset 14, -4
 6168 0004 0746     		mov	r7, r0
 6169 0006 0D46     		mov	r5, r1
2071:Core/Src/ADBMS.cpp ****   {
 6170              		.loc 1 2071 3 is_stmt 1 view .LVU1676
 6171              	.LBB125:
 6172 0008 9046     		mov	r8, r2
 6173 000a 42B1     		cbz	r2, .L358
 6174              	.LBE125:
2085:Core/Src/ADBMS.cpp ****   {
 6175              		.loc 1 2085 8 view .LVU1677
 6176              	.LBB149:
ARM GAS  C:\Users\huawei\AppData\Local\Temp\ccpVCJY0.s 			page 171


 6177              	.LBB126:
 6178 000c 062A     		cmp	r2, #6
 6179 000e 2CD0     		beq	.L359
 6180              	.LBE126:
 6181              	.LBE149:
2099:Core/Src/ADBMS.cpp ****   {
 6182              		.loc 1 2099 8 view .LVU1678
 6183              	.LBB150:
 6184              	.LBB141:
 6185              	.LBB127:
 6186 0010 012A     		cmp	r2, #1
 6187 0012 51D0     		beq	.L360
2113:Core/Src/ADBMS.cpp **** }
 6188              		.loc 1 2113 8 view .LVU1679
2113:Core/Src/ADBMS.cpp **** }
 6189              		.loc 1 2113 14 is_stmt 0 view .LVU1680
 6190 0014 3C48     		ldr	r0, .L361
 6191              	.LVL674:
2113:Core/Src/ADBMS.cpp **** }
 6192              		.loc 1 2113 14 view .LVU1681
 6193 0016 FFF7FEFF 		bl	puts
 6194              	.LVL675:
 6195              	.L340:
2113:Core/Src/ADBMS.cpp **** }
 6196              		.loc 1 2113 14 view .LVU1682
 6197              	.LBE127:
 6198              	.LBE141:
 6199              	.LBE150:
2114:Core/Src/ADBMS.cpp **** 
 6200              		.loc 1 2114 1 view .LVU1683
 6201 001a BDE8F883 		pop	{r3, r4, r5, r6, r7, r8, r9, pc}
 6202              	.LVL676:
 6203              	.L358:
 6204              	.LBB151:
 6205              	.LBB142:
2073:Core/Src/ADBMS.cpp ****     for(uint8_t ic = 0; ic < tIC; ic++)
 6206              		.loc 1 2073 5 is_stmt 1 view .LVU1684
2073:Core/Src/ADBMS.cpp ****     for(uint8_t ic = 0; ic < tIC; ic++)
 6207              		.loc 1 2073 11 is_stmt 0 view .LVU1685
 6208 001e 3B48     		ldr	r0, .L361+4
 6209              	.LVL677:
2073:Core/Src/ADBMS.cpp ****     for(uint8_t ic = 0; ic < tIC; ic++)
 6210              		.loc 1 2073 11 view .LVU1686
 6211 0020 FFF7FEFF 		bl	puts
 6212              	.LVL678:
2074:Core/Src/ADBMS.cpp ****     {
 6213              		.loc 1 2074 5 is_stmt 1 view .LVU1687
 6214              	.LBB143:
2074:Core/Src/ADBMS.cpp ****     {
 6215              		.loc 1 2074 17 is_stmt 0 view .LVU1688
 6216 0024 4646     		mov	r6, r8
2074:Core/Src/ADBMS.cpp ****     {
 6217              		.loc 1 2074 5 view .LVU1689
 6218 0026 18E0     		b	.L342
 6219              	.LVL679:
 6220              	.L344:
 6221              	.LBB144:
ARM GAS  C:\Users\huawei\AppData\Local\Temp\ccpVCJY0.s 			page 172


 6222              	.LBB145:
2079:Core/Src/ADBMS.cpp ****         openWireResultPrint(IC[ic].diag_result.cell_ow[cell]);
 6223              		.loc 1 2079 9 is_stmt 1 discriminator 3 view .LVU1690
2079:Core/Src/ADBMS.cpp ****         openWireResultPrint(IC[ic].diag_result.cell_ow[cell]);
 6224              		.loc 1 2079 15 is_stmt 0 discriminator 3 view .LVU1691
 6225 0028 09F10104 		add	r4, r9, #1
 6226 002c 2146     		mov	r1, r4
 6227 002e 3848     		ldr	r0, .L361+8
 6228 0030 FFF7FEFF 		bl	printf
 6229              	.LVL680:
2080:Core/Src/ADBMS.cpp ****       }
 6230              		.loc 1 2080 9 is_stmt 1 discriminator 3 view .LVU1692
2080:Core/Src/ADBMS.cpp ****       }
 6231              		.loc 1 2080 34 is_stmt 0 discriminator 3 view .LVU1693
 6232 0034 4FF42873 		mov	r3, #672
 6233 0038 03FB0653 		mla	r3, r3, r6, r5
2080:Core/Src/ADBMS.cpp ****       }
 6234              		.loc 1 2080 28 discriminator 3 view .LVU1694
 6235 003c 4B44     		add	r3, r3, r9
 6236 003e 93F87302 		ldrb	r0, [r3, #627]	@ zero_extendqisi2
 6237 0042 FFF7FEFF 		bl	_Z19openWireResultPrinth
 6238              	.LVL681:
2077:Core/Src/ADBMS.cpp ****       {
 6239              		.loc 1 2077 7 is_stmt 1 discriminator 3 view .LVU1695
 6240 0046 5FFA84F9 		uxtb	r9, r4
 6241              	.LVL682:
 6242              	.L343:
2077:Core/Src/ADBMS.cpp ****       {
 6243              		.loc 1 2077 34 discriminator 1 view .LVU1696
 6244 004a B9F10F0F 		cmp	r9, #15
 6245 004e EBD9     		bls	.L344
 6246              	.LBE145:
2082:Core/Src/ADBMS.cpp ****     }
 6247              		.loc 1 2082 7 discriminator 2 view .LVU1697
2082:Core/Src/ADBMS.cpp ****     }
 6248              		.loc 1 2082 13 is_stmt 0 discriminator 2 view .LVU1698
 6249 0050 3048     		ldr	r0, .L361+12
 6250 0052 FFF7FEFF 		bl	puts
 6251              	.LVL683:
 6252              	.LBE144:
2074:Core/Src/ADBMS.cpp ****     {
 6253              		.loc 1 2074 5 is_stmt 1 discriminator 2 view .LVU1699
 6254 0056 0136     		adds	r6, r6, #1
 6255              	.LVL684:
2074:Core/Src/ADBMS.cpp ****     {
 6256              		.loc 1 2074 5 is_stmt 0 discriminator 2 view .LVU1700
 6257 0058 F6B2     		uxtb	r6, r6
 6258              	.LVL685:
 6259              	.L342:
2074:Core/Src/ADBMS.cpp ****     {
 6260              		.loc 1 2074 28 is_stmt 1 discriminator 1 view .LVU1701
 6261 005a BE42     		cmp	r6, r7
 6262 005c DDD2     		bcs	.L340
 6263              	.LBB147:
2076:Core/Src/ADBMS.cpp ****       for(uint8_t cell = 0; cell < CELL; cell++)
 6264              		.loc 1 2076 7 view .LVU1702
2076:Core/Src/ADBMS.cpp ****       for(uint8_t cell = 0; cell < CELL; cell++)
ARM GAS  C:\Users\huawei\AppData\Local\Temp\ccpVCJY0.s 			page 173


 6265              		.loc 1 2076 13 is_stmt 0 view .LVU1703
 6266 005e 711C     		adds	r1, r6, #1
 6267 0060 2D48     		ldr	r0, .L361+16
 6268 0062 FFF7FEFF 		bl	printf
 6269              	.LVL686:
2077:Core/Src/ADBMS.cpp ****       {
 6270              		.loc 1 2077 7 is_stmt 1 view .LVU1704
 6271              	.LBB146:
2077:Core/Src/ADBMS.cpp ****       {
 6272              		.loc 1 2077 19 is_stmt 0 view .LVU1705
 6273 0066 C146     		mov	r9, r8
2077:Core/Src/ADBMS.cpp ****       {
 6274              		.loc 1 2077 7 view .LVU1706
 6275 0068 EFE7     		b	.L343
 6276              	.LVL687:
 6277              	.L359:
2077:Core/Src/ADBMS.cpp ****       {
 6278              		.loc 1 2077 7 view .LVU1707
 6279              	.LBE146:
 6280              	.LBE147:
 6281              	.LBE143:
 6282              	.LBE142:
 6283              	.LBB148:
 6284              	.LBB134:
2087:Core/Src/ADBMS.cpp ****     for(uint8_t ic = 0; ic < tIC; ic++)
 6285              		.loc 1 2087 5 is_stmt 1 view .LVU1708
2087:Core/Src/ADBMS.cpp ****     for(uint8_t ic = 0; ic < tIC; ic++)
 6286              		.loc 1 2087 11 is_stmt 0 view .LVU1709
 6287 006a 2C48     		ldr	r0, .L361+20
 6288              	.LVL688:
2087:Core/Src/ADBMS.cpp ****     for(uint8_t ic = 0; ic < tIC; ic++)
 6289              		.loc 1 2087 11 view .LVU1710
 6290 006c FFF7FEFF 		bl	puts
 6291              	.LVL689:
2088:Core/Src/ADBMS.cpp ****     {
 6292              		.loc 1 2088 5 is_stmt 1 view .LVU1711
 6293              	.LBB135:
2088:Core/Src/ADBMS.cpp ****     {
 6294              		.loc 1 2088 17 is_stmt 0 view .LVU1712
 6295 0070 4FF00008 		mov	r8, #0
2088:Core/Src/ADBMS.cpp ****     {
 6296              		.loc 1 2088 5 view .LVU1713
 6297 0074 17E0     		b	.L348
 6298              	.LVL690:
 6299              	.L350:
 6300              	.LBB136:
 6301              	.LBB137:
2093:Core/Src/ADBMS.cpp ****         openWireResultPrint(IC[ic].diag_result.cellred_ow[cell]);
 6302              		.loc 1 2093 9 is_stmt 1 discriminator 3 view .LVU1714
2093:Core/Src/ADBMS.cpp ****         openWireResultPrint(IC[ic].diag_result.cellred_ow[cell]);
 6303              		.loc 1 2093 15 is_stmt 0 discriminator 3 view .LVU1715
 6304 0076 661C     		adds	r6, r4, #1
 6305 0078 3146     		mov	r1, r6
 6306 007a 2548     		ldr	r0, .L361+8
 6307 007c FFF7FEFF 		bl	printf
 6308              	.LVL691:
2094:Core/Src/ADBMS.cpp ****       }
ARM GAS  C:\Users\huawei\AppData\Local\Temp\ccpVCJY0.s 			page 174


 6309              		.loc 1 2094 9 is_stmt 1 discriminator 3 view .LVU1716
2094:Core/Src/ADBMS.cpp ****       }
 6310              		.loc 1 2094 34 is_stmt 0 discriminator 3 view .LVU1717
 6311 0080 4FF42873 		mov	r3, #672
 6312 0084 03FB0853 		mla	r3, r3, r8, r5
2094:Core/Src/ADBMS.cpp ****       }
 6313              		.loc 1 2094 28 discriminator 3 view .LVU1718
 6314 0088 2344     		add	r3, r3, r4
 6315 008a 93F88302 		ldrb	r0, [r3, #643]	@ zero_extendqisi2
 6316 008e FFF7FEFF 		bl	_Z19openWireResultPrinth
 6317              	.LVL692:
2091:Core/Src/ADBMS.cpp ****       {
 6318              		.loc 1 2091 7 is_stmt 1 discriminator 3 view .LVU1719
 6319 0092 F4B2     		uxtb	r4, r6
 6320              	.LVL693:
 6321              	.L349:
2091:Core/Src/ADBMS.cpp ****       {
 6322              		.loc 1 2091 34 discriminator 1 view .LVU1720
 6323 0094 0F2C     		cmp	r4, #15
 6324 0096 EED9     		bls	.L350
 6325              	.LBE137:
2096:Core/Src/ADBMS.cpp ****     }
 6326              		.loc 1 2096 7 discriminator 2 view .LVU1721
2096:Core/Src/ADBMS.cpp ****     }
 6327              		.loc 1 2096 13 is_stmt 0 discriminator 2 view .LVU1722
 6328 0098 1E48     		ldr	r0, .L361+12
 6329 009a FFF7FEFF 		bl	puts
 6330              	.LVL694:
 6331              	.LBE136:
2088:Core/Src/ADBMS.cpp ****     {
 6332              		.loc 1 2088 5 is_stmt 1 discriminator 2 view .LVU1723
 6333 009e 08F10108 		add	r8, r8, #1
 6334              	.LVL695:
2088:Core/Src/ADBMS.cpp ****     {
 6335              		.loc 1 2088 5 is_stmt 0 discriminator 2 view .LVU1724
 6336 00a2 5FFA88F8 		uxtb	r8, r8
 6337              	.LVL696:
 6338              	.L348:
2088:Core/Src/ADBMS.cpp ****     {
 6339              		.loc 1 2088 28 is_stmt 1 discriminator 1 view .LVU1725
 6340 00a6 B845     		cmp	r8, r7
 6341 00a8 B7D2     		bcs	.L340
 6342              	.LBB139:
2090:Core/Src/ADBMS.cpp ****       for(uint8_t cell = 0; cell < CELL; cell++)
 6343              		.loc 1 2090 7 view .LVU1726
2090:Core/Src/ADBMS.cpp ****       for(uint8_t cell = 0; cell < CELL; cell++)
 6344              		.loc 1 2090 13 is_stmt 0 view .LVU1727
 6345 00aa 08F10101 		add	r1, r8, #1
 6346 00ae 1A48     		ldr	r0, .L361+16
 6347 00b0 FFF7FEFF 		bl	printf
 6348              	.LVL697:
2091:Core/Src/ADBMS.cpp ****       {
 6349              		.loc 1 2091 7 is_stmt 1 view .LVU1728
 6350              	.LBB138:
2091:Core/Src/ADBMS.cpp ****       {
 6351              		.loc 1 2091 19 is_stmt 0 view .LVU1729
 6352 00b4 0024     		movs	r4, #0
ARM GAS  C:\Users\huawei\AppData\Local\Temp\ccpVCJY0.s 			page 175


2091:Core/Src/ADBMS.cpp ****       {
 6353              		.loc 1 2091 7 view .LVU1730
 6354 00b6 EDE7     		b	.L349
 6355              	.LVL698:
 6356              	.L360:
2091:Core/Src/ADBMS.cpp ****       {
 6357              		.loc 1 2091 7 view .LVU1731
 6358              	.LBE138:
 6359              	.LBE139:
 6360              	.LBE135:
 6361              	.LBE134:
 6362              	.LBB140:
 6363              	.LBB128:
2101:Core/Src/ADBMS.cpp ****     for(uint8_t ic = 0; ic < tIC; ic++)
 6364              		.loc 1 2101 5 is_stmt 1 view .LVU1732
2101:Core/Src/ADBMS.cpp ****     for(uint8_t ic = 0; ic < tIC; ic++)
 6365              		.loc 1 2101 11 is_stmt 0 view .LVU1733
 6366 00b8 1948     		ldr	r0, .L361+24
 6367              	.LVL699:
2101:Core/Src/ADBMS.cpp ****     for(uint8_t ic = 0; ic < tIC; ic++)
 6368              		.loc 1 2101 11 view .LVU1734
 6369 00ba FFF7FEFF 		bl	puts
 6370              	.LVL700:
2102:Core/Src/ADBMS.cpp ****     {
 6371              		.loc 1 2102 5 is_stmt 1 view .LVU1735
 6372              	.LBB129:
2102:Core/Src/ADBMS.cpp ****     {
 6373              		.loc 1 2102 17 is_stmt 0 view .LVU1736
 6374 00be 4FF00008 		mov	r8, #0
2102:Core/Src/ADBMS.cpp ****     {
 6375              		.loc 1 2102 5 view .LVU1737
 6376 00c2 17E0     		b	.L353
 6377              	.LVL701:
 6378              	.L355:
 6379              	.LBB130:
 6380              	.LBB131:
2107:Core/Src/ADBMS.cpp ****         openWireResultPrint(IC[ic].diag_result.aux_ow[gpio]);
 6381              		.loc 1 2107 9 is_stmt 1 discriminator 3 view .LVU1738
2107:Core/Src/ADBMS.cpp ****         openWireResultPrint(IC[ic].diag_result.aux_ow[gpio]);
 6382              		.loc 1 2107 15 is_stmt 0 discriminator 3 view .LVU1739
 6383 00c4 661C     		adds	r6, r4, #1
 6384 00c6 3146     		mov	r1, r6
 6385 00c8 1648     		ldr	r0, .L361+28
 6386 00ca FFF7FEFF 		bl	printf
 6387              	.LVL702:
2108:Core/Src/ADBMS.cpp ****       }
 6388              		.loc 1 2108 9 is_stmt 1 discriminator 3 view .LVU1740
2108:Core/Src/ADBMS.cpp ****       }
 6389              		.loc 1 2108 34 is_stmt 0 discriminator 3 view .LVU1741
 6390 00ce 4FF42873 		mov	r3, #672
 6391 00d2 03FB0853 		mla	r3, r3, r8, r5
2108:Core/Src/ADBMS.cpp ****       }
 6392              		.loc 1 2108 28 discriminator 3 view .LVU1742
 6393 00d6 2344     		add	r3, r3, r4
 6394 00d8 93F89302 		ldrb	r0, [r3, #659]	@ zero_extendqisi2
 6395 00dc FFF7FEFF 		bl	_Z19openWireResultPrinth
 6396              	.LVL703:
ARM GAS  C:\Users\huawei\AppData\Local\Temp\ccpVCJY0.s 			page 176


2105:Core/Src/ADBMS.cpp ****       {
 6397              		.loc 1 2105 7 is_stmt 1 discriminator 3 view .LVU1743
 6398 00e0 F4B2     		uxtb	r4, r6
 6399              	.LVL704:
 6400              	.L354:
2105:Core/Src/ADBMS.cpp ****       {
 6401              		.loc 1 2105 34 discriminator 1 view .LVU1744
 6402 00e2 092C     		cmp	r4, #9
 6403 00e4 EED9     		bls	.L355
 6404              	.LBE131:
2110:Core/Src/ADBMS.cpp ****     }
 6405              		.loc 1 2110 7 discriminator 2 view .LVU1745
2110:Core/Src/ADBMS.cpp ****     }
 6406              		.loc 1 2110 13 is_stmt 0 discriminator 2 view .LVU1746
 6407 00e6 0B48     		ldr	r0, .L361+12
 6408 00e8 FFF7FEFF 		bl	puts
 6409              	.LVL705:
 6410              	.LBE130:
2102:Core/Src/ADBMS.cpp ****     {
 6411              		.loc 1 2102 5 is_stmt 1 discriminator 2 view .LVU1747
 6412 00ec 08F10108 		add	r8, r8, #1
 6413              	.LVL706:
2102:Core/Src/ADBMS.cpp ****     {
 6414              		.loc 1 2102 5 is_stmt 0 discriminator 2 view .LVU1748
 6415 00f0 5FFA88F8 		uxtb	r8, r8
 6416              	.LVL707:
 6417              	.L353:
2102:Core/Src/ADBMS.cpp ****     {
 6418              		.loc 1 2102 28 is_stmt 1 discriminator 1 view .LVU1749
 6419 00f4 B845     		cmp	r8, r7
 6420 00f6 90D2     		bcs	.L340
 6421              	.LBB133:
2104:Core/Src/ADBMS.cpp ****       for(uint8_t gpio = 0; gpio < (AUX-2); gpio++)
 6422              		.loc 1 2104 7 view .LVU1750
2104:Core/Src/ADBMS.cpp ****       for(uint8_t gpio = 0; gpio < (AUX-2); gpio++)
 6423              		.loc 1 2104 13 is_stmt 0 view .LVU1751
 6424 00f8 08F10101 		add	r1, r8, #1
 6425 00fc 0648     		ldr	r0, .L361+16
 6426 00fe FFF7FEFF 		bl	printf
 6427              	.LVL708:
2105:Core/Src/ADBMS.cpp ****       {
 6428              		.loc 1 2105 7 is_stmt 1 view .LVU1752
 6429              	.LBB132:
2105:Core/Src/ADBMS.cpp ****       {
 6430              		.loc 1 2105 19 is_stmt 0 view .LVU1753
 6431 0102 0024     		movs	r4, #0
2105:Core/Src/ADBMS.cpp ****       {
 6432              		.loc 1 2105 7 view .LVU1754
 6433 0104 EDE7     		b	.L354
 6434              	.L362:
 6435 0106 00BF     		.align	2
 6436              	.L361:
 6437 0108 58000000 		.word	.LC96
 6438 010c 00000000 		.word	.LC91
 6439 0110 14000000 		.word	.LC92
 6440 0114 20000000 		.word	.LC82
 6441 0118 00000000 		.word	.LC9
ARM GAS  C:\Users\huawei\AppData\Local\Temp\ccpVCJY0.s 			page 177


 6442 011c 1C000000 		.word	.LC93
 6443 0120 3C000000 		.word	.LC94
 6444 0124 50000000 		.word	.LC95
 6445              	.LBE132:
 6446              	.LBE133:
 6447              	.LBE129:
 6448              	.LBE128:
 6449              	.LBE140:
 6450              	.LBE148:
 6451              	.LBE151:
 6452              		.cfi_endproc
 6453              	.LFE289:
 6454              		.fnend
 6456              		.global	__aeabi_i2d
 6457              		.global	__aeabi_ddiv
 6458              		.global	__aeabi_d2f
 6459              		.global	__aeabi_f2d
 6460              		.section	.rodata._Z20printPollAdcConvTimei.str1.4,"aMS",%progbits,1
 6461              		.align	2
 6462              	.LC97:
 6463 0000 41646320 		.ascii	"Adc Conversion Time = %fms\012\000"
 6463      436F6E76 
 6463      65727369 
 6463      6F6E2054 
 6463      696D6520 
 6464              		.section	.text._Z20printPollAdcConvTimei,"ax",%progbits
 6465              		.align	1
 6466              		.global	_Z20printPollAdcConvTimei
 6467              		.syntax unified
 6468              		.thumb
 6469              		.thumb_func
 6471              	_Z20printPollAdcConvTimei:
 6472              		.fnstart
 6473              	.LVL709:
 6474              	.LFB291:
2141:Core/Src/ADBMS.cpp **** 
2142:Core/Src/ADBMS.cpp **** /**
2143:Core/Src/ADBMS.cpp ****  *******************************************************************************
2144:Core/Src/ADBMS.cpp ****  * Function: printPollAdcConvTime
2145:Core/Src/ADBMS.cpp ****  * @brief Print Poll adc conversion Time.
2146:Core/Src/ADBMS.cpp ****  *
2147:Core/Src/ADBMS.cpp ****  * @details This function print poll adc conversion Time.
2148:Core/Src/ADBMS.cpp ****  *
2149:Core/Src/ADBMS.cpp ****  * @return None
2150:Core/Src/ADBMS.cpp ****  *
2151:Core/Src/ADBMS.cpp ****  *******************************************************************************
2152:Core/Src/ADBMS.cpp **** */
2153:Core/Src/ADBMS.cpp **** void printPollAdcConvTime(int count)
2154:Core/Src/ADBMS.cpp **** {
 6475              		.loc 1 2154 1 is_stmt 1 view -0
 6476              		.cfi_startproc
 6477              		@ args = 0, pretend = 0, frame = 0
 6478              		@ frame_needed = 0, uses_anonymous_args = 0
 6479              		.loc 1 2154 1 is_stmt 0 view .LVU1756
 6480 0000 08B5     		push	{r3, lr}
 6481              		.save {r3, lr}
 6482              	.LCFI53:
ARM GAS  C:\Users\huawei\AppData\Local\Temp\ccpVCJY0.s 			page 178


 6483              		.cfi_def_cfa_offset 8
 6484              		.cfi_offset 3, -8
 6485              		.cfi_offset 14, -4
2155:Core/Src/ADBMS.cpp ****   printf("Adc Conversion Time = %fms\n", (float)(count/64000.0));
 6486              		.loc 1 2155 3 is_stmt 1 view .LVU1757
 6487              		.loc 1 2155 55 is_stmt 0 view .LVU1758
 6488 0002 FFF7FEFF 		bl	__aeabi_i2d
 6489              	.LVL710:
 6490              		.loc 1 2155 55 view .LVU1759
 6491 0006 0022     		movs	r2, #0
 6492 0008 064B     		ldr	r3, .L365
 6493 000a FFF7FEFF 		bl	__aeabi_ddiv
 6494              	.LVL711:
 6495              		.loc 1 2155 42 view .LVU1760
 6496 000e FFF7FEFF 		bl	__aeabi_d2f
 6497              	.LVL712:
 6498              		.loc 1 2155 9 view .LVU1761
 6499 0012 FFF7FEFF 		bl	__aeabi_f2d
 6500              	.LVL713:
 6501 0016 0246     		mov	r2, r0
 6502 0018 0B46     		mov	r3, r1
 6503 001a 0348     		ldr	r0, .L365+4
 6504 001c FFF7FEFF 		bl	printf
 6505              	.LVL714:
2156:Core/Src/ADBMS.cpp **** }
 6506              		.loc 1 2156 1 view .LVU1762
 6507 0020 08BD     		pop	{r3, pc}
 6508              	.L366:
 6509 0022 00BF     		.align	2
 6510              	.L365:
 6511 0024 0040EF40 		.word	1089421312
 6512 0028 00000000 		.word	.LC97
 6513              		.cfi_endproc
 6514              	.LFE291:
 6515              		.fnend
 6517              		.section	.rodata._Z43adBms6830_start_adc_cell_voltage_measurmenth.str1.4,"aMS",%progbits,1
 6518              		.align	2
 6519              	.LC98:
 6520 0000 43656C6C 		.ascii	"Cell conversion completed\000"
 6520      20636F6E 
 6520      76657273 
 6520      696F6E20 
 6520      636F6D70 
 6521              		.section	.text._Z43adBms6830_start_adc_cell_voltage_measurmenth,"ax",%progbits
 6522              		.align	1
 6523              		.global	_Z43adBms6830_start_adc_cell_voltage_measurmenth
 6524              		.syntax unified
 6525              		.thumb
 6526              		.thumb_func
 6528              	_Z43adBms6830_start_adc_cell_voltage_measurmenth:
 6529              		.fnstart
 6530              	.LVL715:
 6531              	.LFB261:
 904:Core/Src/ADBMS.cpp ****   adBmsWakeupIc(tIC);
 6532              		.loc 1 904 1 is_stmt 1 view -0
 6533              		.cfi_startproc
 6534              		@ args = 0, pretend = 0, frame = 0
ARM GAS  C:\Users\huawei\AppData\Local\Temp\ccpVCJY0.s 			page 179


 6535              		@ frame_needed = 0, uses_anonymous_args = 0
 904:Core/Src/ADBMS.cpp ****   adBmsWakeupIc(tIC);
 6536              		.loc 1 904 1 is_stmt 0 view .LVU1764
 6537 0000 10B5     		push	{r4, lr}
 6538              		.save {r4, lr}
 6539              	.LCFI54:
 6540              		.cfi_def_cfa_offset 8
 6541              		.cfi_offset 4, -8
 6542              		.cfi_offset 14, -4
 6543              		.pad #8
 6544 0002 82B0     		sub	sp, sp, #8
 6545              	.LCFI55:
 6546              		.cfi_def_cfa_offset 16
 905:Core/Src/ADBMS.cpp ****   adBms6830_Adcv(REDUNDANT_MEASUREMENT, CONTINUOUS_MEASUREMENT, DISCHARGE_PERMITTED, RESET_FILTER, 
 6547              		.loc 1 905 3 is_stmt 1 view .LVU1765
 905:Core/Src/ADBMS.cpp ****   adBms6830_Adcv(REDUNDANT_MEASUREMENT, CONTINUOUS_MEASUREMENT, DISCHARGE_PERMITTED, RESET_FILTER, 
 6548              		.loc 1 905 16 is_stmt 0 view .LVU1766
 6549 0004 FFF7FEFF 		bl	_Z13adBmsWakeupIch
 6550              	.LVL716:
 906:Core/Src/ADBMS.cpp ****   pladc_count = adBmsPollAdc(PLADC);
 6551              		.loc 1 906 3 is_stmt 1 view .LVU1767
 906:Core/Src/ADBMS.cpp ****   pladc_count = adBmsPollAdc(PLADC);
 6552              		.loc 1 906 17 is_stmt 0 view .LVU1768
 6553 0008 0C4B     		ldr	r3, .L369
 6554 000a 1B78     		ldrb	r3, [r3]	@ zero_extendqisi2
 6555 000c 0093     		str	r3, [sp]
 6556 000e 0C4B     		ldr	r3, .L369+4
 6557 0010 1B78     		ldrb	r3, [r3]	@ zero_extendqisi2
 6558 0012 0C4A     		ldr	r2, .L369+8
 6559 0014 1278     		ldrb	r2, [r2]	@ zero_extendqisi2
 6560 0016 0C49     		ldr	r1, .L369+12
 6561 0018 0978     		ldrb	r1, [r1]	@ zero_extendqisi2
 6562 001a 0C48     		ldr	r0, .L369+16
 6563 001c 0078     		ldrb	r0, [r0]	@ zero_extendqisi2
 6564 001e FFF7FEFF 		bl	_Z14adBms6830_Adcv2RD4CONT3DCP4RSTF6OW_C_S
 6565              	.LVL717:
 907:Core/Src/ADBMS.cpp ****   printf("Cell conversion completed\n");
 6566              		.loc 1 907 3 is_stmt 1 view .LVU1769
 907:Core/Src/ADBMS.cpp ****   printf("Cell conversion completed\n");
 6567              		.loc 1 907 29 is_stmt 0 view .LVU1770
 6568 0022 0B48     		ldr	r0, .L369+20
 6569 0024 FFF7FEFF 		bl	_Z12adBmsPollAdcPh
 6570              	.LVL718:
 907:Core/Src/ADBMS.cpp ****   printf("Cell conversion completed\n");
 6571              		.loc 1 907 15 view .LVU1771
 6572 0028 0A4C     		ldr	r4, .L369+24
 6573 002a 2060     		str	r0, [r4]
 908:Core/Src/ADBMS.cpp **** 
 6574              		.loc 1 908 3 is_stmt 1 view .LVU1772
 908:Core/Src/ADBMS.cpp **** 
 6575              		.loc 1 908 9 is_stmt 0 view .LVU1773
 6576 002c 0A48     		ldr	r0, .L369+28
 6577 002e FFF7FEFF 		bl	puts
 6578              	.LVL719:
 910:Core/Src/ADBMS.cpp **** }
 6579              		.loc 1 910 3 is_stmt 1 view .LVU1774
 910:Core/Src/ADBMS.cpp **** }
ARM GAS  C:\Users\huawei\AppData\Local\Temp\ccpVCJY0.s 			page 180


 6580              		.loc 1 910 23 is_stmt 0 view .LVU1775
 6581 0032 2068     		ldr	r0, [r4]
 6582 0034 FFF7FEFF 		bl	_Z20printPollAdcConvTimei
 6583              	.LVL720:
 911:Core/Src/ADBMS.cpp **** 
 6584              		.loc 1 911 1 view .LVU1776
 6585 0038 02B0     		add	sp, sp, #8
 6586              	.LCFI56:
 6587              		.cfi_def_cfa_offset 8
 6588              		@ sp needed
 6589 003a 10BD     		pop	{r4, pc}
 6590              	.L370:
 6591              		.align	2
 6592              	.L369:
 6593 003c 00000000 		.word	CELL_OPEN_WIRE_DETECTION
 6594 0040 00000000 		.word	RESET_FILTER
 6595 0044 00000000 		.word	DISCHARGE_PERMITTED
 6596 0048 00000000 		.word	CONTINUOUS_MEASUREMENT
 6597 004c 00000000 		.word	REDUNDANT_MEASUREMENT
 6598 0050 00000000 		.word	PLADC
 6599 0054 00000000 		.word	pladc_count
 6600 0058 00000000 		.word	.LC98
 6601              		.cfi_endproc
 6602              	.LFE261:
 6603              		.fnend
 6605              		.section	.rodata._Z40adBms6830_start_adc_s_voltage_measurmenth.str1.4,"aMS",%progbits,1
 6606              		.align	2
 6607              	.LC99:
 6608 0000 532D566F 		.ascii	"S-Voltage conversion completed\000"
 6608      6C746167 
 6608      6520636F 
 6608      6E766572 
 6608      73696F6E 
 6609              		.section	.text._Z40adBms6830_start_adc_s_voltage_measurmenth,"ax",%progbits
 6610              		.align	1
 6611              		.global	_Z40adBms6830_start_adc_s_voltage_measurmenth
 6612              		.syntax unified
 6613              		.thumb
 6614              		.thumb_func
 6616              	_Z40adBms6830_start_adc_s_voltage_measurmenth:
 6617              		.fnstart
 6618              	.LVL721:
 6619              	.LFB263:
 936:Core/Src/ADBMS.cpp ****   adBmsWakeupIc(tIC);
 6620              		.loc 1 936 1 is_stmt 1 view -0
 6621              		.cfi_startproc
 6622              		@ args = 0, pretend = 0, frame = 0
 6623              		@ frame_needed = 0, uses_anonymous_args = 0
 936:Core/Src/ADBMS.cpp ****   adBmsWakeupIc(tIC);
 6624              		.loc 1 936 1 is_stmt 0 view .LVU1778
 6625 0000 10B5     		push	{r4, lr}
 6626              		.save {r4, lr}
 6627              	.LCFI57:
 6628              		.cfi_def_cfa_offset 8
 6629              		.cfi_offset 4, -8
 6630              		.cfi_offset 14, -4
 937:Core/Src/ADBMS.cpp ****   adBms6830_Adsv(CONTINUOUS_MEASUREMENT, DISCHARGE_PERMITTED, CELL_OPEN_WIRE_DETECTION);
ARM GAS  C:\Users\huawei\AppData\Local\Temp\ccpVCJY0.s 			page 181


 6631              		.loc 1 937 3 is_stmt 1 view .LVU1779
 937:Core/Src/ADBMS.cpp ****   adBms6830_Adsv(CONTINUOUS_MEASUREMENT, DISCHARGE_PERMITTED, CELL_OPEN_WIRE_DETECTION);
 6632              		.loc 1 937 16 is_stmt 0 view .LVU1780
 6633 0002 FFF7FEFF 		bl	_Z13adBmsWakeupIch
 6634              	.LVL722:
 938:Core/Src/ADBMS.cpp ****   pladc_count = adBmsPollAdc(PLADC);
 6635              		.loc 1 938 3 is_stmt 1 view .LVU1781
 938:Core/Src/ADBMS.cpp ****   pladc_count = adBmsPollAdc(PLADC);
 6636              		.loc 1 938 17 is_stmt 0 view .LVU1782
 6637 0006 0A4B     		ldr	r3, .L373
 6638 0008 1A78     		ldrb	r2, [r3]	@ zero_extendqisi2
 6639 000a 0A4B     		ldr	r3, .L373+4
 6640 000c 1978     		ldrb	r1, [r3]	@ zero_extendqisi2
 6641 000e 0A4B     		ldr	r3, .L373+8
 6642 0010 1878     		ldrb	r0, [r3]	@ zero_extendqisi2
 6643 0012 FFF7FEFF 		bl	_Z14adBms6830_Adsv4CONT3DCP6OW_C_S
 6644              	.LVL723:
 939:Core/Src/ADBMS.cpp ****   printf("S-Voltage conversion completed\n");
 6645              		.loc 1 939 3 is_stmt 1 view .LVU1783
 939:Core/Src/ADBMS.cpp ****   printf("S-Voltage conversion completed\n");
 6646              		.loc 1 939 29 is_stmt 0 view .LVU1784
 6647 0016 0948     		ldr	r0, .L373+12
 6648 0018 FFF7FEFF 		bl	_Z12adBmsPollAdcPh
 6649              	.LVL724:
 939:Core/Src/ADBMS.cpp ****   printf("S-Voltage conversion completed\n");
 6650              		.loc 1 939 15 view .LVU1785
 6651 001c 084C     		ldr	r4, .L373+16
 6652 001e 2060     		str	r0, [r4]
 940:Core/Src/ADBMS.cpp **** 
 6653              		.loc 1 940 3 is_stmt 1 view .LVU1786
 940:Core/Src/ADBMS.cpp **** 
 6654              		.loc 1 940 9 is_stmt 0 view .LVU1787
 6655 0020 0848     		ldr	r0, .L373+20
 6656 0022 FFF7FEFF 		bl	puts
 6657              	.LVL725:
 942:Core/Src/ADBMS.cpp **** }
 6658              		.loc 1 942 3 is_stmt 1 view .LVU1788
 942:Core/Src/ADBMS.cpp **** }
 6659              		.loc 1 942 23 is_stmt 0 view .LVU1789
 6660 0026 2068     		ldr	r0, [r4]
 6661 0028 FFF7FEFF 		bl	_Z20printPollAdcConvTimei
 6662              	.LVL726:
 943:Core/Src/ADBMS.cpp **** 
 6663              		.loc 1 943 1 view .LVU1790
 6664 002c 10BD     		pop	{r4, pc}
 6665              	.L374:
 6666 002e 00BF     		.align	2
 6667              	.L373:
 6668 0030 00000000 		.word	CELL_OPEN_WIRE_DETECTION
 6669 0034 00000000 		.word	DISCHARGE_PERMITTED
 6670 0038 00000000 		.word	CONTINUOUS_MEASUREMENT
 6671 003c 00000000 		.word	PLADC
 6672 0040 00000000 		.word	pladc_count
 6673 0044 00000000 		.word	.LC99
 6674              		.cfi_endproc
 6675              	.LFE263:
 6676              		.fnend
ARM GAS  C:\Users\huawei\AppData\Local\Temp\ccpVCJY0.s 			page 182


 6678              		.section	.rodata._Z42adBms6830_start_avgcell_voltage_measurmenth.str1.4,"aMS",%progbits,1
 6679              		.align	2
 6680              	.LC100:
 6681 0000 41766720 		.ascii	"Avg Cell voltage conversion completed\000"
 6681      43656C6C 
 6681      20766F6C 
 6681      74616765 
 6681      20636F6E 
 6682              		.section	.text._Z42adBms6830_start_avgcell_voltage_measurmenth,"ax",%progbits
 6683              		.align	1
 6684              		.global	_Z42adBms6830_start_avgcell_voltage_measurmenth
 6685              		.syntax unified
 6686              		.thumb
 6687              		.thumb_func
 6689              	_Z42adBms6830_start_avgcell_voltage_measurmenth:
 6690              		.fnstart
 6691              	.LVL727:
 6692              	.LFB265:
 968:Core/Src/ADBMS.cpp ****   adBmsWakeupIc(tIC);
 6693              		.loc 1 968 1 is_stmt 1 view -0
 6694              		.cfi_startproc
 6695              		@ args = 0, pretend = 0, frame = 0
 6696              		@ frame_needed = 0, uses_anonymous_args = 0
 968:Core/Src/ADBMS.cpp ****   adBmsWakeupIc(tIC);
 6697              		.loc 1 968 1 is_stmt 0 view .LVU1792
 6698 0000 10B5     		push	{r4, lr}
 6699              		.save {r4, lr}
 6700              	.LCFI58:
 6701              		.cfi_def_cfa_offset 8
 6702              		.cfi_offset 4, -8
 6703              		.cfi_offset 14, -4
 6704              		.pad #8
 6705 0002 82B0     		sub	sp, sp, #8
 6706              	.LCFI59:
 6707              		.cfi_def_cfa_offset 16
 969:Core/Src/ADBMS.cpp ****   adBms6830_Adcv(RD_ON, CONTINUOUS_MEASUREMENT, DISCHARGE_PERMITTED, RESET_FILTER, CELL_OPEN_WIRE_D
 6708              		.loc 1 969 3 is_stmt 1 view .LVU1793
 969:Core/Src/ADBMS.cpp ****   adBms6830_Adcv(RD_ON, CONTINUOUS_MEASUREMENT, DISCHARGE_PERMITTED, RESET_FILTER, CELL_OPEN_WIRE_D
 6709              		.loc 1 969 16 is_stmt 0 view .LVU1794
 6710 0004 FFF7FEFF 		bl	_Z13adBmsWakeupIch
 6711              	.LVL728:
 970:Core/Src/ADBMS.cpp ****   pladc_count = adBmsPollAdc(PLADC);
 6712              		.loc 1 970 3 is_stmt 1 view .LVU1795
 970:Core/Src/ADBMS.cpp ****   pladc_count = adBmsPollAdc(PLADC);
 6713              		.loc 1 970 17 is_stmt 0 view .LVU1796
 6714 0008 0C4B     		ldr	r3, .L377
 6715 000a 1B78     		ldrb	r3, [r3]	@ zero_extendqisi2
 6716 000c 0093     		str	r3, [sp]
 6717 000e 0C4B     		ldr	r3, .L377+4
 6718 0010 1B78     		ldrb	r3, [r3]	@ zero_extendqisi2
 6719 0012 0C4A     		ldr	r2, .L377+8
 6720 0014 1278     		ldrb	r2, [r2]	@ zero_extendqisi2
 6721 0016 0C49     		ldr	r1, .L377+12
 6722 0018 0978     		ldrb	r1, [r1]	@ zero_extendqisi2
 6723 001a 0120     		movs	r0, #1
 6724 001c FFF7FEFF 		bl	_Z14adBms6830_Adcv2RD4CONT3DCP4RSTF6OW_C_S
 6725              	.LVL729:
ARM GAS  C:\Users\huawei\AppData\Local\Temp\ccpVCJY0.s 			page 183


 971:Core/Src/ADBMS.cpp ****   printf("Avg Cell voltage conversion completed\n");
 6726              		.loc 1 971 3 is_stmt 1 view .LVU1797
 971:Core/Src/ADBMS.cpp ****   printf("Avg Cell voltage conversion completed\n");
 6727              		.loc 1 971 29 is_stmt 0 view .LVU1798
 6728 0020 0A48     		ldr	r0, .L377+16
 6729 0022 FFF7FEFF 		bl	_Z12adBmsPollAdcPh
 6730              	.LVL730:
 971:Core/Src/ADBMS.cpp ****   printf("Avg Cell voltage conversion completed\n");
 6731              		.loc 1 971 15 view .LVU1799
 6732 0026 0A4C     		ldr	r4, .L377+20
 6733 0028 2060     		str	r0, [r4]
 972:Core/Src/ADBMS.cpp **** 
 6734              		.loc 1 972 3 is_stmt 1 view .LVU1800
 972:Core/Src/ADBMS.cpp **** 
 6735              		.loc 1 972 9 is_stmt 0 view .LVU1801
 6736 002a 0A48     		ldr	r0, .L377+24
 6737 002c FFF7FEFF 		bl	puts
 6738              	.LVL731:
 974:Core/Src/ADBMS.cpp **** }
 6739              		.loc 1 974 3 is_stmt 1 view .LVU1802
 974:Core/Src/ADBMS.cpp **** }
 6740              		.loc 1 974 23 is_stmt 0 view .LVU1803
 6741 0030 2068     		ldr	r0, [r4]
 6742 0032 FFF7FEFF 		bl	_Z20printPollAdcConvTimei
 6743              	.LVL732:
 975:Core/Src/ADBMS.cpp **** 
 6744              		.loc 1 975 1 view .LVU1804
 6745 0036 02B0     		add	sp, sp, #8
 6746              	.LCFI60:
 6747              		.cfi_def_cfa_offset 8
 6748              		@ sp needed
 6749 0038 10BD     		pop	{r4, pc}
 6750              	.L378:
 6751 003a 00BF     		.align	2
 6752              	.L377:
 6753 003c 00000000 		.word	CELL_OPEN_WIRE_DETECTION
 6754 0040 00000000 		.word	RESET_FILTER
 6755 0044 00000000 		.word	DISCHARGE_PERMITTED
 6756 0048 00000000 		.word	CONTINUOUS_MEASUREMENT
 6757 004c 00000000 		.word	PLADC
 6758 0050 00000000 		.word	pladc_count
 6759 0054 00000000 		.word	.LC100
 6760              		.cfi_endproc
 6761              	.LFE265:
 6762              		.fnend
 6764              		.section	.rodata._Z40adBms6830_start_fcell_voltage_measurmenth.str1.4,"aMS",%progbits,1
 6765              		.align	2
 6766              	.LC101:
 6767 0000 46204365 		.ascii	"F Cell voltage conversion completed\000"
 6767      6C6C2076 
 6767      6F6C7461 
 6767      67652063 
 6767      6F6E7665 
 6768              		.section	.text._Z40adBms6830_start_fcell_voltage_measurmenth,"ax",%progbits
 6769              		.align	1
 6770              		.global	_Z40adBms6830_start_fcell_voltage_measurmenth
 6771              		.syntax unified
ARM GAS  C:\Users\huawei\AppData\Local\Temp\ccpVCJY0.s 			page 184


 6772              		.thumb
 6773              		.thumb_func
 6775              	_Z40adBms6830_start_fcell_voltage_measurmenth:
 6776              		.fnstart
 6777              	.LVL733:
 6778              	.LFB267:
1000:Core/Src/ADBMS.cpp ****   adBmsWakeupIc(tIC);
 6779              		.loc 1 1000 1 is_stmt 1 view -0
 6780              		.cfi_startproc
 6781              		@ args = 0, pretend = 0, frame = 0
 6782              		@ frame_needed = 0, uses_anonymous_args = 0
1000:Core/Src/ADBMS.cpp ****   adBmsWakeupIc(tIC);
 6783              		.loc 1 1000 1 is_stmt 0 view .LVU1806
 6784 0000 10B5     		push	{r4, lr}
 6785              		.save {r4, lr}
 6786              	.LCFI61:
 6787              		.cfi_def_cfa_offset 8
 6788              		.cfi_offset 4, -8
 6789              		.cfi_offset 14, -4
 6790              		.pad #8
 6791 0002 82B0     		sub	sp, sp, #8
 6792              	.LCFI62:
 6793              		.cfi_def_cfa_offset 16
1001:Core/Src/ADBMS.cpp ****   adBms6830_Adcv(REDUNDANT_MEASUREMENT, CONTINUOUS_MEASUREMENT, DISCHARGE_PERMITTED, RESET_FILTER, 
 6794              		.loc 1 1001 3 is_stmt 1 view .LVU1807
1001:Core/Src/ADBMS.cpp ****   adBms6830_Adcv(REDUNDANT_MEASUREMENT, CONTINUOUS_MEASUREMENT, DISCHARGE_PERMITTED, RESET_FILTER, 
 6795              		.loc 1 1001 16 is_stmt 0 view .LVU1808
 6796 0004 FFF7FEFF 		bl	_Z13adBmsWakeupIch
 6797              	.LVL734:
1002:Core/Src/ADBMS.cpp ****   pladc_count = adBmsPollAdc(PLADC);
 6798              		.loc 1 1002 3 is_stmt 1 view .LVU1809
1002:Core/Src/ADBMS.cpp ****   pladc_count = adBmsPollAdc(PLADC);
 6799              		.loc 1 1002 17 is_stmt 0 view .LVU1810
 6800 0008 0C4B     		ldr	r3, .L381
 6801 000a 1B78     		ldrb	r3, [r3]	@ zero_extendqisi2
 6802 000c 0093     		str	r3, [sp]
 6803 000e 0C4B     		ldr	r3, .L381+4
 6804 0010 1B78     		ldrb	r3, [r3]	@ zero_extendqisi2
 6805 0012 0C4A     		ldr	r2, .L381+8
 6806 0014 1278     		ldrb	r2, [r2]	@ zero_extendqisi2
 6807 0016 0C49     		ldr	r1, .L381+12
 6808 0018 0978     		ldrb	r1, [r1]	@ zero_extendqisi2
 6809 001a 0C48     		ldr	r0, .L381+16
 6810 001c 0078     		ldrb	r0, [r0]	@ zero_extendqisi2
 6811 001e FFF7FEFF 		bl	_Z14adBms6830_Adcv2RD4CONT3DCP4RSTF6OW_C_S
 6812              	.LVL735:
1003:Core/Src/ADBMS.cpp ****   printf("F Cell voltage conversion completed\n");
 6813              		.loc 1 1003 3 is_stmt 1 view .LVU1811
1003:Core/Src/ADBMS.cpp ****   printf("F Cell voltage conversion completed\n");
 6814              		.loc 1 1003 29 is_stmt 0 view .LVU1812
 6815 0022 0B48     		ldr	r0, .L381+20
 6816 0024 FFF7FEFF 		bl	_Z12adBmsPollAdcPh
 6817              	.LVL736:
1003:Core/Src/ADBMS.cpp ****   printf("F Cell voltage conversion completed\n");
 6818              		.loc 1 1003 15 view .LVU1813
 6819 0028 0A4C     		ldr	r4, .L381+24
 6820 002a 2060     		str	r0, [r4]
ARM GAS  C:\Users\huawei\AppData\Local\Temp\ccpVCJY0.s 			page 185


1004:Core/Src/ADBMS.cpp **** 
 6821              		.loc 1 1004 3 is_stmt 1 view .LVU1814
1004:Core/Src/ADBMS.cpp **** 
 6822              		.loc 1 1004 9 is_stmt 0 view .LVU1815
 6823 002c 0A48     		ldr	r0, .L381+28
 6824 002e FFF7FEFF 		bl	puts
 6825              	.LVL737:
1006:Core/Src/ADBMS.cpp **** }
 6826              		.loc 1 1006 3 is_stmt 1 view .LVU1816
1006:Core/Src/ADBMS.cpp **** }
 6827              		.loc 1 1006 23 is_stmt 0 view .LVU1817
 6828 0032 2068     		ldr	r0, [r4]
 6829 0034 FFF7FEFF 		bl	_Z20printPollAdcConvTimei
 6830              	.LVL738:
1007:Core/Src/ADBMS.cpp **** 
 6831              		.loc 1 1007 1 view .LVU1818
 6832 0038 02B0     		add	sp, sp, #8
 6833              	.LCFI63:
 6834              		.cfi_def_cfa_offset 8
 6835              		@ sp needed
 6836 003a 10BD     		pop	{r4, pc}
 6837              	.L382:
 6838              		.align	2
 6839              	.L381:
 6840 003c 00000000 		.word	CELL_OPEN_WIRE_DETECTION
 6841 0040 00000000 		.word	RESET_FILTER
 6842 0044 00000000 		.word	DISCHARGE_PERMITTED
 6843 0048 00000000 		.word	CONTINUOUS_MEASUREMENT
 6844 004c 00000000 		.word	REDUNDANT_MEASUREMENT
 6845 0050 00000000 		.word	PLADC
 6846 0054 00000000 		.word	pladc_count
 6847 0058 00000000 		.word	.LC101
 6848              		.cfi_endproc
 6849              	.LFE267:
 6850              		.fnend
 6852              		.section	.rodata._Z38adBms6830_start_aux_voltage_measurmenthP9cell_asic.str1.4,"aMS",%progbits,1
 6853              		.align	2
 6854              	.LC102:
 6855 0000 41757820 		.ascii	"Aux voltage conversion completed\000"
 6855      766F6C74 
 6855      61676520 
 6855      636F6E76 
 6855      65727369 
 6856              		.section	.text._Z38adBms6830_start_aux_voltage_measurmenthP9cell_asic,"ax",%progbits
 6857              		.align	1
 6858              		.global	_Z38adBms6830_start_aux_voltage_measurmenthP9cell_asic
 6859              		.syntax unified
 6860              		.thumb
 6861              		.thumb_func
 6863              	_Z38adBms6830_start_aux_voltage_measurmenthP9cell_asic:
 6864              		.fnstart
 6865              	.LVL739:
 6866              	.LFB269:
1032:Core/Src/ADBMS.cpp ****   for(uint8_t cic = 0; cic < tIC; cic++)
 6867              		.loc 1 1032 1 is_stmt 1 view -0
 6868              		.cfi_startproc
 6869              		@ args = 0, pretend = 0, frame = 0
ARM GAS  C:\Users\huawei\AppData\Local\Temp\ccpVCJY0.s 			page 186


 6870              		@ frame_needed = 0, uses_anonymous_args = 0
1032:Core/Src/ADBMS.cpp ****   for(uint8_t cic = 0; cic < tIC; cic++)
 6871              		.loc 1 1032 1 is_stmt 0 view .LVU1820
 6872 0000 30B5     		push	{r4, r5, lr}
 6873              		.save {r4, r5, lr}
 6874              	.LCFI64:
 6875              		.cfi_def_cfa_offset 12
 6876              		.cfi_offset 4, -12
 6877              		.cfi_offset 5, -8
 6878              		.cfi_offset 14, -4
 6879              		.pad #12
 6880 0002 83B0     		sub	sp, sp, #12
 6881              	.LCFI65:
 6882              		.cfi_def_cfa_offset 24
 6883 0004 0546     		mov	r5, r0
 6884 0006 0C46     		mov	r4, r1
1033:Core/Src/ADBMS.cpp ****   {
 6885              		.loc 1 1033 3 is_stmt 1 view .LVU1821
 6886              	.LVL740:
 6887              	.LBB152:
1033:Core/Src/ADBMS.cpp ****   {
 6888              		.loc 1 1033 15 is_stmt 0 view .LVU1822
 6889 0008 0023     		movs	r3, #0
1033:Core/Src/ADBMS.cpp ****   {
 6890              		.loc 1 1033 3 view .LVU1823
 6891 000a 12E0     		b	.L384
 6892              	.LVL741:
 6893              	.L385:
1036:Core/Src/ADBMS.cpp ****     ic[cic].tx_cfga.gpo = 0X3FF; /* All GPIO pull down off */
 6894              		.loc 1 1036 5 is_stmt 1 discriminator 3 view .LVU1824
1036:Core/Src/ADBMS.cpp ****     ic[cic].tx_cfga.gpo = 0X3FF; /* All GPIO pull down off */
 6895              		.loc 1 1036 11 is_stmt 0 discriminator 3 view .LVU1825
 6896 000c 4FF42872 		mov	r2, #672
 6897 0010 03FB02F2 		mul	r2, r3, r2
 6898 0014 A118     		adds	r1, r4, r2
1036:Core/Src/ADBMS.cpp ****     ic[cic].tx_cfga.gpo = 0X3FF; /* All GPIO pull down off */
 6899              		.loc 1 1036 27 discriminator 3 view .LVU1826
 6900 0016 14F802C0 		ldrb	ip, [r4, r2]	@ zero_extendqisi2
 6901 001a 4CF0010C 		orr	ip, ip, #1
 6902 001e 04F802C0 		strb	ip, [r4, r2]
1037:Core/Src/ADBMS.cpp ****   }
 6903              		.loc 1 1037 5 is_stmt 1 discriminator 3 view .LVU1827
1037:Core/Src/ADBMS.cpp ****   }
 6904              		.loc 1 1037 25 is_stmt 0 discriminator 3 view .LVU1828
 6905 0022 4A88     		ldrh	r2, [r1, #2]
 6906 0024 40F2FF30 		movw	r0, #1023
 6907 0028 60F34E12 		bfi	r2, r0, #5, #10
 6908 002c 4A80     		strh	r2, [r1, #2]	@ movhi
1033:Core/Src/ADBMS.cpp ****   {
 6909              		.loc 1 1033 3 is_stmt 1 discriminator 3 view .LVU1829
 6910 002e 0133     		adds	r3, r3, #1
 6911              	.LVL742:
1033:Core/Src/ADBMS.cpp ****   {
 6912              		.loc 1 1033 3 is_stmt 0 discriminator 3 view .LVU1830
 6913 0030 DBB2     		uxtb	r3, r3
 6914              	.LVL743:
 6915              	.L384:
ARM GAS  C:\Users\huawei\AppData\Local\Temp\ccpVCJY0.s 			page 187


1033:Core/Src/ADBMS.cpp ****   {
 6916              		.loc 1 1033 28 is_stmt 1 discriminator 1 view .LVU1831
 6917 0032 AB42     		cmp	r3, r5
 6918 0034 EAD3     		bcc	.L385
 6919              	.LBE152:
1039:Core/Src/ADBMS.cpp ****   adBmsWriteData(tIC, &ic[0], WRCFGA, Config, A);
 6920              		.loc 1 1039 3 view .LVU1832
1039:Core/Src/ADBMS.cpp ****   adBmsWriteData(tIC, &ic[0], WRCFGA, Config, A);
 6921              		.loc 1 1039 16 is_stmt 0 view .LVU1833
 6922 0036 2846     		mov	r0, r5
 6923 0038 FFF7FEFF 		bl	_Z13adBmsWakeupIch
 6924              	.LVL744:
1040:Core/Src/ADBMS.cpp ****   adBms6830_Adax(AUX_OPEN_WIRE_DETECTION, OPEN_WIRE_CURRENT_SOURCE, AUX_CH_TO_CONVERT);
 6925              		.loc 1 1040 3 is_stmt 1 view .LVU1834
1040:Core/Src/ADBMS.cpp ****   adBms6830_Adax(AUX_OPEN_WIRE_DETECTION, OPEN_WIRE_CURRENT_SOURCE, AUX_CH_TO_CONVERT);
 6926              		.loc 1 1040 17 is_stmt 0 view .LVU1835
 6927 003c 0123     		movs	r3, #1
 6928 003e 0093     		str	r3, [sp]
 6929 0040 0823     		movs	r3, #8
 6930 0042 0D4A     		ldr	r2, .L387
 6931 0044 2146     		mov	r1, r4
 6932 0046 2846     		mov	r0, r5
 6933 0048 FFF7FEFF 		bl	_Z14adBmsWriteDatahP9cell_asicPh4TYPE3GRP
 6934              	.LVL745:
1041:Core/Src/ADBMS.cpp ****   pladc_count = adBmsPollAdc(PLADC);
 6935              		.loc 1 1041 3 is_stmt 1 view .LVU1836
1041:Core/Src/ADBMS.cpp ****   pladc_count = adBmsPollAdc(PLADC);
 6936              		.loc 1 1041 17 is_stmt 0 view .LVU1837
 6937 004c 0B4B     		ldr	r3, .L387+4
 6938 004e 1A78     		ldrb	r2, [r3]	@ zero_extendqisi2
 6939 0050 0B4B     		ldr	r3, .L387+8
 6940 0052 1978     		ldrb	r1, [r3]	@ zero_extendqisi2
 6941 0054 0B4B     		ldr	r3, .L387+12
 6942 0056 1878     		ldrb	r0, [r3]	@ zero_extendqisi2
 6943 0058 FFF7FEFF 		bl	_Z14adBms6830_Adax6OW_AUX3PUP2CH
 6944              	.LVL746:
1042:Core/Src/ADBMS.cpp ****   printf("Aux voltage conversion completed\n");
 6945              		.loc 1 1042 3 is_stmt 1 view .LVU1838
1042:Core/Src/ADBMS.cpp ****   printf("Aux voltage conversion completed\n");
 6946              		.loc 1 1042 29 is_stmt 0 view .LVU1839
 6947 005c 0A48     		ldr	r0, .L387+16
 6948 005e FFF7FEFF 		bl	_Z12adBmsPollAdcPh
 6949              	.LVL747:
1042:Core/Src/ADBMS.cpp ****   printf("Aux voltage conversion completed\n");
 6950              		.loc 1 1042 15 view .LVU1840
 6951 0062 0A4C     		ldr	r4, .L387+20
 6952              	.LVL748:
1042:Core/Src/ADBMS.cpp ****   printf("Aux voltage conversion completed\n");
 6953              		.loc 1 1042 15 view .LVU1841
 6954 0064 2060     		str	r0, [r4]
1043:Core/Src/ADBMS.cpp **** 
 6955              		.loc 1 1043 3 is_stmt 1 view .LVU1842
1043:Core/Src/ADBMS.cpp **** 
 6956              		.loc 1 1043 9 is_stmt 0 view .LVU1843
 6957 0066 0A48     		ldr	r0, .L387+24
 6958 0068 FFF7FEFF 		bl	puts
 6959              	.LVL749:
ARM GAS  C:\Users\huawei\AppData\Local\Temp\ccpVCJY0.s 			page 188


1045:Core/Src/ADBMS.cpp **** }
 6960              		.loc 1 1045 3 is_stmt 1 view .LVU1844
1045:Core/Src/ADBMS.cpp **** }
 6961              		.loc 1 1045 23 is_stmt 0 view .LVU1845
 6962 006c 2068     		ldr	r0, [r4]
 6963 006e FFF7FEFF 		bl	_Z20printPollAdcConvTimei
 6964              	.LVL750:
1046:Core/Src/ADBMS.cpp **** 
 6965              		.loc 1 1046 1 view .LVU1846
 6966 0072 03B0     		add	sp, sp, #12
 6967              	.LCFI66:
 6968              		.cfi_def_cfa_offset 12
 6969              		@ sp needed
 6970 0074 30BD     		pop	{r4, r5, pc}
 6971              	.L388:
 6972 0076 00BF     		.align	2
 6973              	.L387:
 6974 0078 00000000 		.word	WRCFGA
 6975 007c 00000000 		.word	AUX_CH_TO_CONVERT
 6976 0080 00000000 		.word	OPEN_WIRE_CURRENT_SOURCE
 6977 0084 00000000 		.word	AUX_OPEN_WIRE_DETECTION
 6978 0088 00000000 		.word	PLADC
 6979 008c 00000000 		.word	pladc_count
 6980 0090 00000000 		.word	.LC102
 6981              		.cfi_endproc
 6982              	.LFE269:
 6983              		.fnend
 6985              		.section	.rodata._Z39adBms6830_start_raux_voltage_measurmenthP9cell_asic.str1.4,"aMS",%progbits,1
 6986              		.align	2
 6987              	.LC103:
 6988 0000 52417578 		.ascii	"RAux voltage conversion completed\000"
 6988      20766F6C 
 6988      74616765 
 6988      20636F6E 
 6988      76657273 
 6989              		.section	.text._Z39adBms6830_start_raux_voltage_measurmenthP9cell_asic,"ax",%progbits
 6990              		.align	1
 6991              		.global	_Z39adBms6830_start_raux_voltage_measurmenthP9cell_asic
 6992              		.syntax unified
 6993              		.thumb
 6994              		.thumb_func
 6996              	_Z39adBms6830_start_raux_voltage_measurmenthP9cell_asic:
 6997              		.fnstart
 6998              	.LVL751:
 6999              	.LFB271:
1069:Core/Src/ADBMS.cpp ****   for(uint8_t cic = 0; cic < tIC; cic++)
 7000              		.loc 1 1069 1 is_stmt 1 view -0
 7001              		.cfi_startproc
 7002              		@ args = 0, pretend = 0, frame = 0
 7003              		@ frame_needed = 0, uses_anonymous_args = 0
1069:Core/Src/ADBMS.cpp ****   for(uint8_t cic = 0; cic < tIC; cic++)
 7004              		.loc 1 1069 1 is_stmt 0 view .LVU1848
 7005 0000 30B5     		push	{r4, r5, lr}
 7006              		.save {r4, r5, lr}
 7007              	.LCFI67:
 7008              		.cfi_def_cfa_offset 12
 7009              		.cfi_offset 4, -12
ARM GAS  C:\Users\huawei\AppData\Local\Temp\ccpVCJY0.s 			page 189


 7010              		.cfi_offset 5, -8
 7011              		.cfi_offset 14, -4
 7012              		.pad #12
 7013 0002 83B0     		sub	sp, sp, #12
 7014              	.LCFI68:
 7015              		.cfi_def_cfa_offset 24
 7016 0004 0546     		mov	r5, r0
 7017 0006 0C46     		mov	r4, r1
1070:Core/Src/ADBMS.cpp ****   {
 7018              		.loc 1 1070 3 is_stmt 1 view .LVU1849
 7019              	.LVL752:
 7020              	.LBB153:
1070:Core/Src/ADBMS.cpp ****   {
 7021              		.loc 1 1070 15 is_stmt 0 view .LVU1850
 7022 0008 0023     		movs	r3, #0
1070:Core/Src/ADBMS.cpp ****   {
 7023              		.loc 1 1070 3 view .LVU1851
 7024 000a 12E0     		b	.L390
 7025              	.LVL753:
 7026              	.L391:
1073:Core/Src/ADBMS.cpp ****     ic[cic].tx_cfga.gpo = 0X3FF; /* All GPIO pull down off */
 7027              		.loc 1 1073 5 is_stmt 1 discriminator 3 view .LVU1852
1073:Core/Src/ADBMS.cpp ****     ic[cic].tx_cfga.gpo = 0X3FF; /* All GPIO pull down off */
 7028              		.loc 1 1073 11 is_stmt 0 discriminator 3 view .LVU1853
 7029 000c 4FF42872 		mov	r2, #672
 7030 0010 03FB02F2 		mul	r2, r3, r2
 7031 0014 A118     		adds	r1, r4, r2
1073:Core/Src/ADBMS.cpp ****     ic[cic].tx_cfga.gpo = 0X3FF; /* All GPIO pull down off */
 7032              		.loc 1 1073 27 discriminator 3 view .LVU1854
 7033 0016 14F802C0 		ldrb	ip, [r4, r2]	@ zero_extendqisi2
 7034 001a 4CF0010C 		orr	ip, ip, #1
 7035 001e 04F802C0 		strb	ip, [r4, r2]
1074:Core/Src/ADBMS.cpp ****   }
 7036              		.loc 1 1074 5 is_stmt 1 discriminator 3 view .LVU1855
1074:Core/Src/ADBMS.cpp ****   }
 7037              		.loc 1 1074 25 is_stmt 0 discriminator 3 view .LVU1856
 7038 0022 4A88     		ldrh	r2, [r1, #2]
 7039 0024 40F2FF30 		movw	r0, #1023
 7040 0028 60F34E12 		bfi	r2, r0, #5, #10
 7041 002c 4A80     		strh	r2, [r1, #2]	@ movhi
1070:Core/Src/ADBMS.cpp ****   {
 7042              		.loc 1 1070 3 is_stmt 1 discriminator 3 view .LVU1857
 7043 002e 0133     		adds	r3, r3, #1
 7044              	.LVL754:
1070:Core/Src/ADBMS.cpp ****   {
 7045              		.loc 1 1070 3 is_stmt 0 discriminator 3 view .LVU1858
 7046 0030 DBB2     		uxtb	r3, r3
 7047              	.LVL755:
 7048              	.L390:
1070:Core/Src/ADBMS.cpp ****   {
 7049              		.loc 1 1070 28 is_stmt 1 discriminator 1 view .LVU1859
 7050 0032 AB42     		cmp	r3, r5
 7051 0034 EAD3     		bcc	.L391
 7052              	.LBE153:
1076:Core/Src/ADBMS.cpp ****   adBmsWriteData(tIC, &ic[0], WRCFGA, Config, A);
 7053              		.loc 1 1076 3 view .LVU1860
1076:Core/Src/ADBMS.cpp ****   adBmsWriteData(tIC, &ic[0], WRCFGA, Config, A);
ARM GAS  C:\Users\huawei\AppData\Local\Temp\ccpVCJY0.s 			page 190


 7054              		.loc 1 1076 16 is_stmt 0 view .LVU1861
 7055 0036 2846     		mov	r0, r5
 7056 0038 FFF7FEFF 		bl	_Z13adBmsWakeupIch
 7057              	.LVL756:
1077:Core/Src/ADBMS.cpp ****   adBms6830_Adax2(AUX_CH_TO_CONVERT);
 7058              		.loc 1 1077 3 is_stmt 1 view .LVU1862
1077:Core/Src/ADBMS.cpp ****   adBms6830_Adax2(AUX_CH_TO_CONVERT);
 7059              		.loc 1 1077 17 is_stmt 0 view .LVU1863
 7060 003c 0123     		movs	r3, #1
 7061 003e 0093     		str	r3, [sp]
 7062 0040 0823     		movs	r3, #8
 7063 0042 0B4A     		ldr	r2, .L393
 7064 0044 2146     		mov	r1, r4
 7065 0046 2846     		mov	r0, r5
 7066 0048 FFF7FEFF 		bl	_Z14adBmsWriteDatahP9cell_asicPh4TYPE3GRP
 7067              	.LVL757:
1078:Core/Src/ADBMS.cpp ****   pladc_count = adBmsPollAdc(PLADC);
 7068              		.loc 1 1078 3 is_stmt 1 view .LVU1864
1078:Core/Src/ADBMS.cpp ****   pladc_count = adBmsPollAdc(PLADC);
 7069              		.loc 1 1078 18 is_stmt 0 view .LVU1865
 7070 004c 094B     		ldr	r3, .L393+4
 7071 004e 1878     		ldrb	r0, [r3]	@ zero_extendqisi2
 7072 0050 FFF7FEFF 		bl	_Z15adBms6830_Adax22CH
 7073              	.LVL758:
1079:Core/Src/ADBMS.cpp ****   printf("RAux voltage conversion completed\n");
 7074              		.loc 1 1079 3 is_stmt 1 view .LVU1866
1079:Core/Src/ADBMS.cpp ****   printf("RAux voltage conversion completed\n");
 7075              		.loc 1 1079 29 is_stmt 0 view .LVU1867
 7076 0054 0848     		ldr	r0, .L393+8
 7077 0056 FFF7FEFF 		bl	_Z12adBmsPollAdcPh
 7078              	.LVL759:
1079:Core/Src/ADBMS.cpp ****   printf("RAux voltage conversion completed\n");
 7079              		.loc 1 1079 15 view .LVU1868
 7080 005a 084C     		ldr	r4, .L393+12
 7081              	.LVL760:
1079:Core/Src/ADBMS.cpp ****   printf("RAux voltage conversion completed\n");
 7082              		.loc 1 1079 15 view .LVU1869
 7083 005c 2060     		str	r0, [r4]
1080:Core/Src/ADBMS.cpp **** 
 7084              		.loc 1 1080 3 is_stmt 1 view .LVU1870
1080:Core/Src/ADBMS.cpp **** 
 7085              		.loc 1 1080 9 is_stmt 0 view .LVU1871
 7086 005e 0848     		ldr	r0, .L393+16
 7087 0060 FFF7FEFF 		bl	puts
 7088              	.LVL761:
1082:Core/Src/ADBMS.cpp **** }
 7089              		.loc 1 1082 3 is_stmt 1 view .LVU1872
1082:Core/Src/ADBMS.cpp **** }
 7090              		.loc 1 1082 23 is_stmt 0 view .LVU1873
 7091 0064 2068     		ldr	r0, [r4]
 7092 0066 FFF7FEFF 		bl	_Z20printPollAdcConvTimei
 7093              	.LVL762:
1083:Core/Src/ADBMS.cpp **** 
 7094              		.loc 1 1083 1 view .LVU1874
 7095 006a 03B0     		add	sp, sp, #12
 7096              	.LCFI69:
 7097              		.cfi_def_cfa_offset 12
ARM GAS  C:\Users\huawei\AppData\Local\Temp\ccpVCJY0.s 			page 191


 7098              		@ sp needed
 7099 006c 30BD     		pop	{r4, r5, pc}
 7100              	.L394:
 7101 006e 00BF     		.align	2
 7102              	.L393:
 7103 0070 00000000 		.word	WRCFGA
 7104 0074 00000000 		.word	AUX_CH_TO_CONVERT
 7105 0078 00000000 		.word	PLADC
 7106 007c 00000000 		.word	pladc_count
 7107 0080 00000000 		.word	.LC103
 7108              		.cfi_endproc
 7109              	.LFE271:
 7110              		.fnend
 7112              		.section	.rodata._Z9printMenuv.str1.4,"aMS",%progbits,1
 7113              		.align	2
 7114              	.LC104:
 7115 0000 4C697374 		.ascii	"List of ADBMS6830 Command:\000"
 7115      206F6620 
 7115      4144424D 
 7115      53363833 
 7115      3020436F 
 7116 001b 00       		.align	2
 7117              	.LC105:
 7118 001c 57726974 		.ascii	"Write and Read Configuration: 1 \000"
 7118      6520616E 
 7118      64205265 
 7118      61642043 
 7118      6F6E6669 
 7119 003d 000000   		.align	2
 7120              	.LC106:
 7121 0040 52656164 		.ascii	"Read Configuration: 2 \000"
 7121      20436F6E 
 7121      66696775 
 7121      72617469 
 7121      6F6E3A20 
 7122 0057 00       		.align	2
 7123              	.LC107:
 7124 0058 53746172 		.ascii	"Start Cell Voltage Conversion: 3 \000"
 7124      74204365 
 7124      6C6C2056 
 7124      6F6C7461 
 7124      67652043 
 7125 007a 0000     		.align	2
 7126              	.LC108:
 7127 007c 52656164 		.ascii	"Read Cell Voltages: 4 \000"
 7127      2043656C 
 7127      6C20566F 
 7127      6C746167 
 7127      65733A20 
 7128 0093 00       		.align	2
 7129              	.LC109:
 7130 0094 53746172 		.ascii	"Start S-Voltage Conversion: 5 \000"
 7130      7420532D 
 7130      566F6C74 
 7130      61676520 
 7130      436F6E76 
 7131 00b3 00       		.align	2
ARM GAS  C:\Users\huawei\AppData\Local\Temp\ccpVCJY0.s 			page 192


 7132              	.LC110:
 7133 00b4 52656164 		.ascii	"Read S-Voltages: 6 \000"
 7133      20532D56 
 7133      6F6C7461 
 7133      6765733A 
 7133      20362000 
 7134              		.align	2
 7135              	.LC111:
 7136 00c8 53746172 		.ascii	"Start Avg Cell Voltage Conversion: 7 \000"
 7136      74204176 
 7136      67204365 
 7136      6C6C2056 
 7136      6F6C7461 
 7137 00ee 0000     		.align	2
 7138              	.LC112:
 7139 00f0 52656164 		.ascii	"Read Avg Cell Voltages: 8 \000"
 7139      20417667 
 7139      2043656C 
 7139      6C20566F 
 7139      6C746167 
 7140 010b 00       		.align	2
 7141              	.LC113:
 7142 010c 53746172 		.ascii	"Start F-Cell Voltage Conversion: 9 \000"
 7142      7420462D 
 7142      43656C6C 
 7142      20566F6C 
 7142      74616765 
 7143              		.align	2
 7144              	.LC114:
 7145 0130 52656164 		.ascii	"Read F-Cell Voltages: 10 \000"
 7145      20462D43 
 7145      656C6C20 
 7145      566F6C74 
 7145      61676573 
 7146 014a 0000     		.align	2
 7147              	.LC115:
 7148 014c 53746172 		.ascii	"Start Aux Voltage Conversion: 11 \000"
 7148      74204175 
 7148      7820566F 
 7148      6C746167 
 7148      6520436F 
 7149 016e 0000     		.align	2
 7150              	.LC116:
 7151 0170 52656164 		.ascii	"Read Aux Voltages: 12 \000"
 7151      20417578 
 7151      20566F6C 
 7151      74616765 
 7151      733A2031 
 7152 0187 00       		.align	2
 7153              	.LC117:
 7154 0188 53746172 		.ascii	"Start RAux Voltage Conversion: 13 \000"
 7154      74205241 
 7154      75782056 
 7154      6F6C7461 
 7154      67652043 
 7155 01ab 00       		.align	2
 7156              	.LC118:
ARM GAS  C:\Users\huawei\AppData\Local\Temp\ccpVCJY0.s 			page 193


 7157 01ac 52656164 		.ascii	"Read RAux Voltages: 14 \000"
 7157      20524175 
 7157      7820566F 
 7157      6C746167 
 7157      65733A20 
 7158              		.align	2
 7159              	.LC119:
 7160 01c4 52656164 		.ascii	"Read Status Registers: 15 \000"
 7160      20537461 
 7160      74757320 
 7160      52656769 
 7160      73746572 
 7161 01df 00       		.align	2
 7162              	.LC120:
 7163 01e0 4C6F6F70 		.ascii	"Loop Measurements: 16 \000"
 7163      204D6561 
 7163      73757265 
 7163      6D656E74 
 7163      733A2031 
 7164 01f7 00       		.align	2
 7165              	.LC121:
 7166 01f8 436C6561 		.ascii	"Clear Cell registers: 17 \000"
 7166      72204365 
 7166      6C6C2072 
 7166      65676973 
 7166      74657273 
 7167 0212 0000     		.align	2
 7168              	.LC122:
 7169 0214 436C6561 		.ascii	"Clear Aux registers: 18 \000"
 7169      72204175 
 7169      78207265 
 7169      67697374 
 7169      6572733A 
 7170 022d 000000   		.align	2
 7171              	.LC123:
 7172 0230 436C6561 		.ascii	"Clear Spin registers: 19 \000"
 7172      72205370 
 7172      696E2072 
 7172      65676973 
 7172      74657273 
 7173 024a 0000     		.align	2
 7174              	.LC124:
 7175 024c 436C6561 		.ascii	"Clear Fcell registers: 20 \000"
 7175      72204663 
 7175      656C6C20 
 7175      72656769 
 7175      73746572 
 7176 0267 00       		.align	2
 7177              	.LC125:
 7178 0268 5072696E 		.ascii	"Print '0' for menu\000"
 7178      74202730 
 7178      2720666F 
 7178      72206D65 
 7178      6E7500
 7179 027b 00       		.align	2
 7180              	.LC126:
 7181 027c 506C6561 		.ascii	"Please enter command: \000"
ARM GAS  C:\Users\huawei\AppData\Local\Temp\ccpVCJY0.s 			page 194


 7181      73652065 
 7181      6E746572 
 7181      20636F6D 
 7181      6D616E64 
 7182              		.section	.text._Z9printMenuv,"ax",%progbits
 7183              		.align	1
 7184              		.global	_Z9printMenuv
 7185              		.syntax unified
 7186              		.thumb
 7187              		.thumb_func
 7189              	_Z9printMenuv:
 7190              		.fnstart
 7191              	.LFB292:
2157:Core/Src/ADBMS.cpp **** 
2158:Core/Src/ADBMS.cpp **** /**
2159:Core/Src/ADBMS.cpp ****  *******************************************************************************
2160:Core/Src/ADBMS.cpp ****  * Function: printMenu
2161:Core/Src/ADBMS.cpp ****  * @brief Print Command Menu.
2162:Core/Src/ADBMS.cpp ****  *
2163:Core/Src/ADBMS.cpp ****  * @details This function print all command menu.
2164:Core/Src/ADBMS.cpp ****  *
2165:Core/Src/ADBMS.cpp ****  * @return None
2166:Core/Src/ADBMS.cpp ****  *
2167:Core/Src/ADBMS.cpp ****  *******************************************************************************
2168:Core/Src/ADBMS.cpp **** */
2169:Core/Src/ADBMS.cpp **** void printMenu()
2170:Core/Src/ADBMS.cpp **** {
 7192              		.loc 1 2170 1 is_stmt 1 view -0
 7193              		.cfi_startproc
 7194              		@ args = 0, pretend = 0, frame = 0
 7195              		@ frame_needed = 0, uses_anonymous_args = 0
 7196 0000 08B5     		push	{r3, lr}
 7197              		.save {r3, lr}
 7198              	.LCFI70:
 7199              		.cfi_def_cfa_offset 8
 7200              		.cfi_offset 3, -8
 7201              		.cfi_offset 14, -4
2171:Core/Src/ADBMS.cpp ****   printf("List of ADBMS6830 Command:\n");
 7202              		.loc 1 2171 3 view .LVU1876
 7203              		.loc 1 2171 9 is_stmt 0 view .LVU1877
 7204 0002 2848     		ldr	r0, .L397
 7205 0004 FFF7FEFF 		bl	puts
 7206              	.LVL763:
2172:Core/Src/ADBMS.cpp ****   printf("Write and Read Configuration: 1 \n");
 7207              		.loc 1 2172 3 is_stmt 1 view .LVU1878
 7208              		.loc 1 2172 9 is_stmt 0 view .LVU1879
 7209 0008 2748     		ldr	r0, .L397+4
 7210 000a FFF7FEFF 		bl	puts
 7211              	.LVL764:
2173:Core/Src/ADBMS.cpp ****   printf("Read Configuration: 2 \n");
 7212              		.loc 1 2173 3 is_stmt 1 view .LVU1880
 7213              		.loc 1 2173 9 is_stmt 0 view .LVU1881
 7214 000e 2748     		ldr	r0, .L397+8
 7215 0010 FFF7FEFF 		bl	puts
 7216              	.LVL765:
2174:Core/Src/ADBMS.cpp ****   printf("Start Cell Voltage Conversion: 3 \n");
 7217              		.loc 1 2174 3 is_stmt 1 view .LVU1882
ARM GAS  C:\Users\huawei\AppData\Local\Temp\ccpVCJY0.s 			page 195


 7218              		.loc 1 2174 9 is_stmt 0 view .LVU1883
 7219 0014 2648     		ldr	r0, .L397+12
 7220 0016 FFF7FEFF 		bl	puts
 7221              	.LVL766:
2175:Core/Src/ADBMS.cpp ****   printf("Read Cell Voltages: 4 \n");
 7222              		.loc 1 2175 3 is_stmt 1 view .LVU1884
 7223              		.loc 1 2175 9 is_stmt 0 view .LVU1885
 7224 001a 2648     		ldr	r0, .L397+16
 7225 001c FFF7FEFF 		bl	puts
 7226              	.LVL767:
2176:Core/Src/ADBMS.cpp ****   printf("Start S-Voltage Conversion: 5 \n");
 7227              		.loc 1 2176 3 is_stmt 1 view .LVU1886
 7228              		.loc 1 2176 9 is_stmt 0 view .LVU1887
 7229 0020 2548     		ldr	r0, .L397+20
 7230 0022 FFF7FEFF 		bl	puts
 7231              	.LVL768:
2177:Core/Src/ADBMS.cpp ****   printf("Read S-Voltages: 6 \n");
 7232              		.loc 1 2177 3 is_stmt 1 view .LVU1888
 7233              		.loc 1 2177 9 is_stmt 0 view .LVU1889
 7234 0026 2548     		ldr	r0, .L397+24
 7235 0028 FFF7FEFF 		bl	puts
 7236              	.LVL769:
2178:Core/Src/ADBMS.cpp ****   printf("Start Avg Cell Voltage Conversion: 7 \n");
 7237              		.loc 1 2178 3 is_stmt 1 view .LVU1890
 7238              		.loc 1 2178 9 is_stmt 0 view .LVU1891
 7239 002c 2448     		ldr	r0, .L397+28
 7240 002e FFF7FEFF 		bl	puts
 7241              	.LVL770:
2179:Core/Src/ADBMS.cpp ****   printf("Read Avg Cell Voltages: 8 \n");
 7242              		.loc 1 2179 3 is_stmt 1 view .LVU1892
 7243              		.loc 1 2179 9 is_stmt 0 view .LVU1893
 7244 0032 2448     		ldr	r0, .L397+32
 7245 0034 FFF7FEFF 		bl	puts
 7246              	.LVL771:
2180:Core/Src/ADBMS.cpp ****   printf("Start F-Cell Voltage Conversion: 9 \n");
 7247              		.loc 1 2180 3 is_stmt 1 view .LVU1894
 7248              		.loc 1 2180 9 is_stmt 0 view .LVU1895
 7249 0038 2348     		ldr	r0, .L397+36
 7250 003a FFF7FEFF 		bl	puts
 7251              	.LVL772:
2181:Core/Src/ADBMS.cpp ****   printf("Read F-Cell Voltages: 10 \n");
 7252              		.loc 1 2181 3 is_stmt 1 view .LVU1896
 7253              		.loc 1 2181 9 is_stmt 0 view .LVU1897
 7254 003e 2348     		ldr	r0, .L397+40
 7255 0040 FFF7FEFF 		bl	puts
 7256              	.LVL773:
2182:Core/Src/ADBMS.cpp ****   printf("Start Aux Voltage Conversion: 11 \n");
 7257              		.loc 1 2182 3 is_stmt 1 view .LVU1898
 7258              		.loc 1 2182 9 is_stmt 0 view .LVU1899
 7259 0044 2248     		ldr	r0, .L397+44
 7260 0046 FFF7FEFF 		bl	puts
 7261              	.LVL774:
2183:Core/Src/ADBMS.cpp ****   printf("Read Aux Voltages: 12 \n");
 7262              		.loc 1 2183 3 is_stmt 1 view .LVU1900
 7263              		.loc 1 2183 9 is_stmt 0 view .LVU1901
 7264 004a 2248     		ldr	r0, .L397+48
 7265 004c FFF7FEFF 		bl	puts
ARM GAS  C:\Users\huawei\AppData\Local\Temp\ccpVCJY0.s 			page 196


 7266              	.LVL775:
2184:Core/Src/ADBMS.cpp ****   printf("Start RAux Voltage Conversion: 13 \n");
 7267              		.loc 1 2184 3 is_stmt 1 view .LVU1902
 7268              		.loc 1 2184 9 is_stmt 0 view .LVU1903
 7269 0050 2148     		ldr	r0, .L397+52
 7270 0052 FFF7FEFF 		bl	puts
 7271              	.LVL776:
2185:Core/Src/ADBMS.cpp ****   printf("Read RAux Voltages: 14 \n");
 7272              		.loc 1 2185 3 is_stmt 1 view .LVU1904
 7273              		.loc 1 2185 9 is_stmt 0 view .LVU1905
 7274 0056 2148     		ldr	r0, .L397+56
 7275 0058 FFF7FEFF 		bl	puts
 7276              	.LVL777:
2186:Core/Src/ADBMS.cpp ****   printf("Read Status Registers: 15 \n");
 7277              		.loc 1 2186 3 is_stmt 1 view .LVU1906
 7278              		.loc 1 2186 9 is_stmt 0 view .LVU1907
 7279 005c 2048     		ldr	r0, .L397+60
 7280 005e FFF7FEFF 		bl	puts
 7281              	.LVL778:
2187:Core/Src/ADBMS.cpp ****   printf("Loop Measurements: 16 \n");
 7282              		.loc 1 2187 3 is_stmt 1 view .LVU1908
 7283              		.loc 1 2187 9 is_stmt 0 view .LVU1909
 7284 0062 2048     		ldr	r0, .L397+64
 7285 0064 FFF7FEFF 		bl	puts
 7286              	.LVL779:
2188:Core/Src/ADBMS.cpp ****   printf("Clear Cell registers: 17 \n");
 7287              		.loc 1 2188 3 is_stmt 1 view .LVU1910
 7288              		.loc 1 2188 9 is_stmt 0 view .LVU1911
 7289 0068 1F48     		ldr	r0, .L397+68
 7290 006a FFF7FEFF 		bl	puts
 7291              	.LVL780:
2189:Core/Src/ADBMS.cpp ****   printf("Clear Aux registers: 18 \n");
 7292              		.loc 1 2189 3 is_stmt 1 view .LVU1912
 7293              		.loc 1 2189 9 is_stmt 0 view .LVU1913
 7294 006e 1F48     		ldr	r0, .L397+72
 7295 0070 FFF7FEFF 		bl	puts
 7296              	.LVL781:
2190:Core/Src/ADBMS.cpp ****   printf("Clear Spin registers: 19 \n");
 7297              		.loc 1 2190 3 is_stmt 1 view .LVU1914
 7298              		.loc 1 2190 9 is_stmt 0 view .LVU1915
 7299 0074 1E48     		ldr	r0, .L397+76
 7300 0076 FFF7FEFF 		bl	puts
 7301              	.LVL782:
2191:Core/Src/ADBMS.cpp ****   printf("Clear Fcell registers: 20 \n");
 7302              		.loc 1 2191 3 is_stmt 1 view .LVU1916
 7303              		.loc 1 2191 9 is_stmt 0 view .LVU1917
 7304 007a 1E48     		ldr	r0, .L397+80
 7305 007c FFF7FEFF 		bl	puts
 7306              	.LVL783:
2192:Core/Src/ADBMS.cpp **** 
2193:Core/Src/ADBMS.cpp ****   printf("\n");
 7307              		.loc 1 2193 3 is_stmt 1 view .LVU1918
 7308              		.loc 1 2193 9 is_stmt 0 view .LVU1919
 7309 0080 0A20     		movs	r0, #10
 7310 0082 FFF7FEFF 		bl	putchar
 7311              	.LVL784:
2194:Core/Src/ADBMS.cpp ****   printf("Print '0' for menu\n");
ARM GAS  C:\Users\huawei\AppData\Local\Temp\ccpVCJY0.s 			page 197


 7312              		.loc 1 2194 3 is_stmt 1 view .LVU1920
 7313              		.loc 1 2194 9 is_stmt 0 view .LVU1921
 7314 0086 1C48     		ldr	r0, .L397+84
 7315 0088 FFF7FEFF 		bl	puts
 7316              	.LVL785:
2195:Core/Src/ADBMS.cpp ****   printf("Please enter command: \n");
 7317              		.loc 1 2195 3 is_stmt 1 view .LVU1922
 7318              		.loc 1 2195 9 is_stmt 0 view .LVU1923
 7319 008c 1B48     		ldr	r0, .L397+88
 7320 008e FFF7FEFF 		bl	puts
 7321              	.LVL786:
2196:Core/Src/ADBMS.cpp ****   printf("\n\n");
 7322              		.loc 1 2196 3 is_stmt 1 view .LVU1924
 7323              		.loc 1 2196 9 is_stmt 0 view .LVU1925
 7324 0092 1B48     		ldr	r0, .L397+92
 7325 0094 FFF7FEFF 		bl	puts
 7326              	.LVL787:
2197:Core/Src/ADBMS.cpp **** 
2198:Core/Src/ADBMS.cpp ****   HAL_Delay(1000);
 7327              		.loc 1 2198 3 is_stmt 1 view .LVU1926
 7328              		.loc 1 2198 12 is_stmt 0 view .LVU1927
 7329 0098 4FF47A70 		mov	r0, #1000
 7330 009c FFF7FEFF 		bl	HAL_Delay
 7331              	.LVL788:
2199:Core/Src/ADBMS.cpp **** }
 7332              		.loc 1 2199 1 view .LVU1928
 7333 00a0 08BD     		pop	{r3, pc}
 7334              	.L398:
 7335 00a2 00BF     		.align	2
 7336              	.L397:
 7337 00a4 00000000 		.word	.LC104
 7338 00a8 1C000000 		.word	.LC105
 7339 00ac 40000000 		.word	.LC106
 7340 00b0 58000000 		.word	.LC107
 7341 00b4 7C000000 		.word	.LC108
 7342 00b8 94000000 		.word	.LC109
 7343 00bc B4000000 		.word	.LC110
 7344 00c0 C8000000 		.word	.LC111
 7345 00c4 F0000000 		.word	.LC112
 7346 00c8 0C010000 		.word	.LC113
 7347 00cc 30010000 		.word	.LC114
 7348 00d0 4C010000 		.word	.LC115
 7349 00d4 70010000 		.word	.LC116
 7350 00d8 88010000 		.word	.LC117
 7351 00dc AC010000 		.word	.LC118
 7352 00e0 C4010000 		.word	.LC119
 7353 00e4 E0010000 		.word	.LC120
 7354 00e8 F8010000 		.word	.LC121
 7355 00ec 14020000 		.word	.LC122
 7356 00f0 30020000 		.word	.LC123
 7357 00f4 4C020000 		.word	.LC124
 7358 00f8 68020000 		.word	.LC125
 7359 00fc 7C020000 		.word	.LC126
 7360 0100 20000000 		.word	.LC82
 7361              		.cfi_endproc
 7362              	.LFE292:
 7363              		.fnend
ARM GAS  C:\Users\huawei\AppData\Local\Temp\ccpVCJY0.s 			page 198


 7365              		.global	__aeabi_dmul
 7366              		.section	.text._Z10getVoltagei,"ax",%progbits
 7367              		.align	1
 7368              		.global	_Z10getVoltagei
 7369              		.syntax unified
 7370              		.thumb
 7371              		.thumb_func
 7373              	_Z10getVoltagei:
 7374              		.fnstart
 7375              	.LVL789:
 7376              	.LFB293:
2200:Core/Src/ADBMS.cpp **** 
2201:Core/Src/ADBMS.cpp **** /**
2202:Core/Src/ADBMS.cpp ****  *******************************************************************************
2203:Core/Src/ADBMS.cpp ****  * Function: getVoltage
2204:Core/Src/ADBMS.cpp ****  * @brief Get voltages with multiplication factor.
2205:Core/Src/ADBMS.cpp ****  *
2206:Core/Src/ADBMS.cpp ****  * @details This function calculate the voltage.
2207:Core/Src/ADBMS.cpp ****  *
2208:Core/Src/ADBMS.cpp ****  * Parameters:
2209:Core/Src/ADBMS.cpp ****  * @param [in]	data    voltages(uint16_t)
2210:Core/Src/ADBMS.cpp ****  *
2211:Core/Src/ADBMS.cpp ****  * @return voltage(float)
2212:Core/Src/ADBMS.cpp ****  *
2213:Core/Src/ADBMS.cpp ****  *******************************************************************************
2214:Core/Src/ADBMS.cpp **** */
2215:Core/Src/ADBMS.cpp **** float getVoltage(int data)
2216:Core/Src/ADBMS.cpp **** {
 7377              		.loc 1 2216 1 is_stmt 1 view -0
 7378              		.cfi_startproc
 7379              		@ args = 0, pretend = 0, frame = 0
 7380              		@ frame_needed = 0, uses_anonymous_args = 0
 7381              		.loc 1 2216 1 is_stmt 0 view .LVU1930
 7382 0000 08B5     		push	{r3, lr}
 7383              	.LCFI71:
 7384              		.cfi_def_cfa_offset 8
 7385              		.cfi_offset 3, -8
 7386              		.cfi_offset 14, -4
2217:Core/Src/ADBMS.cpp ****     float voltage_float; //voltage in Volts
 7387              		.loc 1 2217 5 is_stmt 1 view .LVU1931
2218:Core/Src/ADBMS.cpp ****     voltage_float = ((data + 10000) * 0.000150);
 7388              		.loc 1 2218 5 view .LVU1932
 7389              		.loc 1 2218 37 is_stmt 0 view .LVU1933
 7390 0002 00F51C50 		add	r0, r0, #9984
 7391              	.LVL790:
 7392              		.loc 1 2218 37 view .LVU1934
 7393 0006 1030     		adds	r0, r0, #16
 7394              	.LVL791:
 7395              		.loc 1 2218 37 view .LVU1935
 7396 0008 FFF7FEFF 		bl	__aeabi_i2d
 7397              	.LVL792:
 7398              		.loc 1 2218 37 view .LVU1936
 7399 000c 04A3     		adr	r3, .L401
 7400 000e D3E90023 		ldrd	r2, [r3]
 7401 0012 FFF7FEFF 		bl	__aeabi_dmul
 7402              	.LVL793:
 7403              		.loc 1 2218 19 view .LVU1937
ARM GAS  C:\Users\huawei\AppData\Local\Temp\ccpVCJY0.s 			page 199


 7404 0016 FFF7FEFF 		bl	__aeabi_d2f
 7405              	.LVL794:
2219:Core/Src/ADBMS.cpp ****     return voltage_float;
 7406              		.loc 1 2219 5 is_stmt 1 view .LVU1938
2220:Core/Src/ADBMS.cpp **** }
 7407              		.loc 1 2220 1 is_stmt 0 view .LVU1939
 7408 001a 00EE100A 		vmov	s0, r0
 7409 001e 08BD     		pop	{r3, pc}
 7410              	.L402:
 7411              		.align	3
 7412              	.L401:
 7413 0020 61325530 		.word	810889825
 7414 0024 2AA9233F 		.word	1059301674
 7415              		.cfi_endproc
 7416              	.LFE293:
 7417              		.cantunwind
 7418              		.fnend
 7420              		.section	.rodata._Z13printVoltageshP9cell_asic4TYPE.str1.4,"aMS",%progbits,1
 7421              		.align	2
 7422              	.LC127:
 7423 0000 4325643D 		.ascii	"C%d=%fV,\000"
 7423      2566562C 
 7423      00
 7424 0009 000000   		.align	2
 7425              	.LC128:
 7426 000c 50454345 		.ascii	"PECError:%d\000"
 7426      72726F72 
 7426      3A256400 
 7427              		.align	2
 7428              	.LC129:
 7429 0018 41432564 		.ascii	"AC%d=%fV,\000"
 7429      3D256656 
 7429      2C00
 7430 0022 0000     		.align	2
 7431              	.LC130:
 7432 0024 46432564 		.ascii	"FC%d=%fV,\000"
 7432      3D256656 
 7432      2C00
 7433 002e 0000     		.align	2
 7434              	.LC131:
 7435 0030 5325643D 		.ascii	"S%d=%fV,\000"
 7435      2566562C 
 7435      00
 7436 0039 000000   		.align	2
 7437              	.LC132:
 7438 003c 41555825 		.ascii	"AUX%d=%fV,\000"
 7438      643D2566 
 7438      562C00
 7439 0047 00       		.align	2
 7440              	.LC133:
 7441 0048 564D563A 		.ascii	"VMV:%fV,\000"
 7441      2566562C 
 7441      00
 7442 0051 000000   		.align	2
 7443              	.LC134:
 7444 0054 562B3A25 		.ascii	"V+:%fV,\000"
 7444      66562C00 
ARM GAS  C:\Users\huawei\AppData\Local\Temp\ccpVCJY0.s 			page 200


 7445              		.align	2
 7446              	.LC135:
 7447 005c 52415558 		.ascii	"RAUX%d=%fV,\000"
 7447      25643D25 
 7447      66562C00 
 7448              		.section	.text._Z13printVoltageshP9cell_asic4TYPE,"ax",%progbits
 7449              		.align	1
 7450              		.global	_Z13printVoltageshP9cell_asic4TYPE
 7451              		.syntax unified
 7452              		.thumb
 7453              		.thumb_func
 7455              	_Z13printVoltageshP9cell_asic4TYPE:
 7456              		.fnstart
 7457              	.LVL795:
 7458              	.LFB280:
1367:Core/Src/ADBMS.cpp ****   float voltage;
 7459              		.loc 1 1367 1 is_stmt 1 view -0
 7460              		.cfi_startproc
 7461              		@ args = 0, pretend = 0, frame = 0
 7462              		@ frame_needed = 0, uses_anonymous_args = 0
1367:Core/Src/ADBMS.cpp ****   float voltage;
 7463              		.loc 1 1367 1 is_stmt 0 view .LVU1941
 7464 0000 2DE9F84F 		push	{r3, r4, r5, r6, r7, r8, r9, r10, fp, lr}
 7465              		.save {r3, r4, r5, r6, r7, r8, r9, r10, fp, lr}
 7466              	.LCFI72:
 7467              		.cfi_def_cfa_offset 40
 7468              		.cfi_offset 3, -40
 7469              		.cfi_offset 4, -36
 7470              		.cfi_offset 5, -32
 7471              		.cfi_offset 6, -28
 7472              		.cfi_offset 7, -24
 7473              		.cfi_offset 8, -20
 7474              		.cfi_offset 9, -16
 7475              		.cfi_offset 10, -12
 7476              		.cfi_offset 11, -8
 7477              		.cfi_offset 14, -4
 7478 0004 8246     		mov	r10, r0
 7479 0006 8946     		mov	r9, r1
 7480 0008 1546     		mov	r5, r2
 7481 000a 0027     		movs	r7, #0
 7482 000c 3E46     		mov	r6, r7
1368:Core/Src/ADBMS.cpp ****   int16_t temp;
 7483              		.loc 1 1368 3 is_stmt 1 view .LVU1942
1369:Core/Src/ADBMS.cpp ****   uint8_t channel;
 7484              		.loc 1 1369 3 view .LVU1943
1370:Core/Src/ADBMS.cpp ****   if((type == Cell) || (type == AvgCell) || (type == F_volt) || (type == S_volt))
 7485              		.loc 1 1370 3 view .LVU1944
1371:Core/Src/ADBMS.cpp ****   {
 7486              		.loc 1 1371 3 view .LVU1945
 7487 000e 072A     		cmp	r2, #7
 7488 0010 0AD8     		bhi	.L405
 7489 0012 DFE802F0 		tbb	[pc, r2]
 7490              	.L406:
 7491 0016 08       		.byte	(.L432-.L406)/2
 7492 0017 04       		.byte	(.L408-.L406)/2
 7493 0018 06       		.byte	(.L407-.L406)/2
 7494 0019 09       		.byte	(.L405-.L406)/2
ARM GAS  C:\Users\huawei\AppData\Local\Temp\ccpVCJY0.s 			page 201


 7495 001a 09       		.byte	(.L405-.L406)/2
 7496 001b 08       		.byte	(.L432-.L406)/2
 7497 001c 08       		.byte	(.L432-.L406)/2
 7498 001d 08       		.byte	(.L432-.L406)/2
 7499              		.p2align 1
 7500              	.L408:
1367:Core/Src/ADBMS.cpp ****   float voltage;
 7501              		.loc 1 1367 1 is_stmt 0 view .LVU1946
 7502 001e 0C26     		movs	r6, #12
 7503 0020 02E0     		b	.L405
 7504              	.L407:
1376:Core/Src/ADBMS.cpp ****   for(uint8_t ic = 0; ic < tIC; ic++)
 7505              		.loc 1 1376 26 is_stmt 1 discriminator 1 view .LVU1947
 7506              	.LVL796:
1376:Core/Src/ADBMS.cpp ****   for(uint8_t ic = 0; ic < tIC; ic++)
 7507              		.loc 1 1376 34 is_stmt 0 discriminator 1 view .LVU1948
 7508 0022 0A26     		movs	r6, #10
 7509 0024 00E0     		b	.L405
 7510              	.LVL797:
 7511              	.L432:
1367:Core/Src/ADBMS.cpp ****   float voltage;
 7512              		.loc 1 1367 1 view .LVU1949
 7513 0026 1026     		movs	r6, #16
 7514              	.L405:
 7515              	.LVL798:
1377:Core/Src/ADBMS.cpp ****   {
 7516              		.loc 1 1377 3 is_stmt 1 view .LVU1950
 7517              	.LBB154:
1377:Core/Src/ADBMS.cpp ****   {
 7518              		.loc 1 1377 15 is_stmt 0 view .LVU1951
 7519 0028 4FF00008 		mov	r8, #0
1377:Core/Src/ADBMS.cpp ****   {
 7520              		.loc 1 1377 3 view .LVU1952
 7521 002c 28E1     		b	.L409
 7522              	.LVL799:
 7523              	.L418:
 7524              	.LBB155:
 7525              	.LBB156:
1382:Core/Src/ADBMS.cpp ****       else if(type == AvgCell){ temp = IC[ic].acell.ac_codes[index]; }
 7526              		.loc 1 1382 25 is_stmt 1 discriminator 1 view .LVU1953
1382:Core/Src/ADBMS.cpp ****       else if(type == AvgCell){ temp = IC[ic].acell.ac_codes[index]; }
 7527              		.loc 1 1382 37 is_stmt 0 discriminator 1 view .LVU1954
 7528 002e 4FF42873 		mov	r3, #672
 7529 0032 03FB0893 		mla	r3, r3, r8, r9
1382:Core/Src/ADBMS.cpp ****       else if(type == AvgCell){ temp = IC[ic].acell.ac_codes[index]; }
 7530              		.loc 1 1382 30 discriminator 1 view .LVU1955
 7531 0036 04F11002 		add	r2, r4, #16
 7532 003a 33F91270 		ldrsh	r7, [r3, r2, lsl #1]
 7533              	.LVL800:
 7534              	.L411:
1388:Core/Src/ADBMS.cpp ****       if(type == Cell)
 7535              		.loc 1 1388 7 is_stmt 1 view .LVU1956
1388:Core/Src/ADBMS.cpp ****       if(type == Cell)
 7536              		.loc 1 1388 27 is_stmt 0 view .LVU1957
 7537 003e 3846     		mov	r0, r7
 7538 0040 FFF7FEFF 		bl	_Z10getVoltagei
 7539              	.LVL801:
ARM GAS  C:\Users\huawei\AppData\Local\Temp\ccpVCJY0.s 			page 202


 7540 0044 10EE100A 		vmov	r0, s0
 7541              	.LVL802:
1389:Core/Src/ADBMS.cpp ****       {
 7542              		.loc 1 1389 7 is_stmt 1 view .LVU1958
 7543 0048 CDB3     		cbz	r5, .L436
1398:Core/Src/ADBMS.cpp ****       {
 7544              		.loc 1 1398 12 view .LVU1959
 7545 004a 6B1E     		subs	r3, r5, #1
 7546 004c 062B     		cmp	r3, #6
 7547 004e 00F20C81 		bhi	.L421
 7548 0052 DFE813F0 		tbh	[pc, r3, lsl #1]
 7549              	.L423:
 7550 0056 B600     		.2byte	(.L427-.L423)/2
 7551 0058 EF00     		.2byte	(.L426-.L423)/2
 7552 005a 0A01     		.2byte	(.L421-.L423)/2
 7553 005c 0A01     		.2byte	(.L421-.L423)/2
 7554 005e 6800     		.2byte	(.L425-.L423)/2
 7555 0060 9C00     		.2byte	(.L424-.L423)/2
 7556 0062 8200     		.2byte	(.L422-.L423)/2
 7557              	.LVL803:
 7558              		.p2align 1
 7559              	.L415:
1383:Core/Src/ADBMS.cpp ****       else if(type == F_volt){ temp = IC[ic].fcell.fc_codes[index]; }
 7560              		.loc 1 1383 33 discriminator 1 view .LVU1960
1383:Core/Src/ADBMS.cpp ****       else if(type == F_volt){ temp = IC[ic].fcell.fc_codes[index]; }
 7561              		.loc 1 1383 45 is_stmt 0 discriminator 1 view .LVU1961
 7562 0064 4FF42873 		mov	r3, #672
 7563 0068 03FB0893 		mla	r3, r3, r8, r9
1383:Core/Src/ADBMS.cpp ****       else if(type == F_volt){ temp = IC[ic].fcell.fc_codes[index]; }
 7564              		.loc 1 1383 38 discriminator 1 view .LVU1962
 7565 006c 04F12002 		add	r2, r4, #32
 7566 0070 33F91270 		ldrsh	r7, [r3, r2, lsl #1]
 7567              	.LVL804:
1383:Core/Src/ADBMS.cpp ****       else if(type == F_volt){ temp = IC[ic].fcell.fc_codes[index]; }
 7568              		.loc 1 1383 38 discriminator 1 view .LVU1963
 7569 0074 E3E7     		b	.L411
 7570              	.L412:
1384:Core/Src/ADBMS.cpp ****       else if(type == S_volt){ temp = IC[ic].scell.sc_codes[index]; }
 7571              		.loc 1 1384 32 is_stmt 1 discriminator 1 view .LVU1964
1384:Core/Src/ADBMS.cpp ****       else if(type == S_volt){ temp = IC[ic].scell.sc_codes[index]; }
 7572              		.loc 1 1384 44 is_stmt 0 discriminator 1 view .LVU1965
 7573 0076 4FF42873 		mov	r3, #672
 7574 007a 03FB0893 		mla	r3, r3, r8, r9
1384:Core/Src/ADBMS.cpp ****       else if(type == S_volt){ temp = IC[ic].scell.sc_codes[index]; }
 7575              		.loc 1 1384 37 discriminator 1 view .LVU1966
 7576 007e 04F14002 		add	r2, r4, #64
 7577 0082 33F91270 		ldrsh	r7, [r3, r2, lsl #1]
 7578              	.LVL805:
1384:Core/Src/ADBMS.cpp ****       else if(type == S_volt){ temp = IC[ic].scell.sc_codes[index]; }
 7579              		.loc 1 1384 37 discriminator 1 view .LVU1967
 7580 0086 DAE7     		b	.L411
 7581              	.L414:
1385:Core/Src/ADBMS.cpp ****       else if(type == Aux){ temp = IC[ic].aux.a_codes[index]; }
 7582              		.loc 1 1385 32 is_stmt 1 discriminator 1 view .LVU1968
1385:Core/Src/ADBMS.cpp ****       else if(type == Aux){ temp = IC[ic].aux.a_codes[index]; }
 7583              		.loc 1 1385 44 is_stmt 0 discriminator 1 view .LVU1969
 7584 0088 4FF42873 		mov	r3, #672
ARM GAS  C:\Users\huawei\AppData\Local\Temp\ccpVCJY0.s 			page 203


 7585 008c 03FB0893 		mla	r3, r3, r8, r9
1385:Core/Src/ADBMS.cpp ****       else if(type == Aux){ temp = IC[ic].aux.a_codes[index]; }
 7586              		.loc 1 1385 37 discriminator 1 view .LVU1970
 7587 0090 04F13002 		add	r2, r4, #48
 7588 0094 33F91270 		ldrsh	r7, [r3, r2, lsl #1]
 7589              	.LVL806:
1385:Core/Src/ADBMS.cpp ****       else if(type == Aux){ temp = IC[ic].aux.a_codes[index]; }
 7590              		.loc 1 1385 37 discriminator 1 view .LVU1971
 7591 0098 D1E7     		b	.L411
 7592              	.L417:
1386:Core/Src/ADBMS.cpp ****       else if(type == RAux){ temp = IC[ic].raux.ra_codes[index]; }
 7593              		.loc 1 1386 29 is_stmt 1 discriminator 1 view .LVU1972
1386:Core/Src/ADBMS.cpp ****       else if(type == RAux){ temp = IC[ic].raux.ra_codes[index]; }
 7594              		.loc 1 1386 41 is_stmt 0 discriminator 1 view .LVU1973
 7595 009a 4FF42873 		mov	r3, #672
 7596 009e 03FB0893 		mla	r3, r3, r8, r9
1386:Core/Src/ADBMS.cpp ****       else if(type == RAux){ temp = IC[ic].raux.ra_codes[index]; }
 7597              		.loc 1 1386 34 discriminator 1 view .LVU1974
 7598 00a2 04F15002 		add	r2, r4, #80
 7599 00a6 33F91270 		ldrsh	r7, [r3, r2, lsl #1]
 7600              	.LVL807:
1386:Core/Src/ADBMS.cpp ****       else if(type == RAux){ temp = IC[ic].raux.ra_codes[index]; }
 7601              		.loc 1 1386 34 discriminator 1 view .LVU1975
 7602 00aa C8E7     		b	.L411
 7603              	.L416:
1387:Core/Src/ADBMS.cpp ****       voltage = getVoltage(temp);
 7604              		.loc 1 1387 30 is_stmt 1 discriminator 1 view .LVU1976
1387:Core/Src/ADBMS.cpp ****       voltage = getVoltage(temp);
 7605              		.loc 1 1387 42 is_stmt 0 discriminator 1 view .LVU1977
 7606 00ac 4FF42873 		mov	r3, #672
 7607 00b0 03FB0893 		mla	r3, r3, r8, r9
1387:Core/Src/ADBMS.cpp ****       voltage = getVoltage(temp);
 7608              		.loc 1 1387 35 discriminator 1 view .LVU1978
 7609 00b4 04F15C02 		add	r2, r4, #92
 7610 00b8 33F91270 		ldrsh	r7, [r3, r2, lsl #1]
 7611              	.LVL808:
1387:Core/Src/ADBMS.cpp ****       voltage = getVoltage(temp);
 7612              		.loc 1 1387 35 discriminator 1 view .LVU1979
 7613 00bc BFE7     		b	.L411
 7614              	.LVL809:
 7615              	.L436:
1391:Core/Src/ADBMS.cpp ****         if(index == (channel-1))
 7616              		.loc 1 1391 9 is_stmt 1 view .LVU1980
1391:Core/Src/ADBMS.cpp ****         if(index == (channel-1))
 7617              		.loc 1 1391 15 is_stmt 0 view .LVU1981
 7618 00be FFF7FEFF 		bl	__aeabi_f2d
 7619              	.LVL810:
1391:Core/Src/ADBMS.cpp ****         if(index == (channel-1))
 7620              		.loc 1 1391 15 view .LVU1982
 7621 00c2 0246     		mov	r2, r0
 7622 00c4 0B46     		mov	r3, r1
 7623 00c6 611C     		adds	r1, r4, #1
 7624 00c8 7348     		ldr	r0, .L442
 7625 00ca FFF7FEFF 		bl	printf
 7626              	.LVL811:
1392:Core/Src/ADBMS.cpp ****         {
 7627              		.loc 1 1392 9 is_stmt 1 view .LVU1983
ARM GAS  C:\Users\huawei\AppData\Local\Temp\ccpVCJY0.s 			page 204


1392:Core/Src/ADBMS.cpp ****         {
 7628              		.loc 1 1392 29 is_stmt 0 view .LVU1984
 7629 00ce 731E     		subs	r3, r6, #1
1392:Core/Src/ADBMS.cpp ****         {
 7630              		.loc 1 1392 9 view .LVU1985
 7631 00d0 9C42     		cmp	r4, r3
 7632 00d2 19D0     		beq	.L437
 7633              	.L420:
1380:Core/Src/ADBMS.cpp ****     {
 7634              		.loc 1 1380 5 is_stmt 1 discriminator 2 view .LVU1986
 7635 00d4 0134     		adds	r4, r4, #1
 7636              	.LVL812:
1380:Core/Src/ADBMS.cpp ****     {
 7637              		.loc 1 1380 5 is_stmt 0 discriminator 2 view .LVU1987
 7638 00d6 E4B2     		uxtb	r4, r4
 7639              	.LVL813:
 7640              	.L410:
1380:Core/Src/ADBMS.cpp ****     {
 7641              		.loc 1 1380 34 is_stmt 1 discriminator 1 view .LVU1988
 7642 00d8 A642     		cmp	r6, r4
 7643 00da 40F2CA80 		bls	.L438
1382:Core/Src/ADBMS.cpp ****       else if(type == AvgCell){ temp = IC[ic].acell.ac_codes[index]; }
 7644              		.loc 1 1382 7 view .LVU1989
 7645 00de 072D     		cmp	r5, #7
 7646 00e0 ADD8     		bhi	.L411
 7647 00e2 01A3     		adr	r3, .L413
 7648 00e4 53F825F0 		ldr	pc, [r3, r5, lsl #2]
 7649              		.p2align 2
 7650              	.L413:
 7651 00e8 2F000000 		.word	.L418+1
 7652 00ec 9B000000 		.word	.L417+1
 7653 00f0 AD000000 		.word	.L416+1
 7654 00f4 3F000000 		.word	.L411+1
 7655 00f8 3F000000 		.word	.L411+1
 7656 00fc 65000000 		.word	.L415+1
 7657 0100 89000000 		.word	.L414+1
 7658 0104 77000000 		.word	.L412+1
 7659              	.LVL814:
 7660              		.p2align 1
 7661              	.L437:
1394:Core/Src/ADBMS.cpp ****           printf("PECError:%d",IC[ic].cccrc.cell_pec);
 7662              		.loc 1 1394 11 view .LVU1990
1394:Core/Src/ADBMS.cpp ****           printf("PECError:%d",IC[ic].cccrc.cell_pec);
 7663              		.loc 1 1394 36 is_stmt 0 view .LVU1991
 7664 0108 4FF4287B 		mov	fp, #672
 7665 010c 0BFB089B 		mla	fp, fp, r8, r9
1394:Core/Src/ADBMS.cpp ****           printf("PECError:%d",IC[ic].cccrc.cell_pec);
 7666              		.loc 1 1394 17 view .LVU1992
 7667 0110 9BF88F11 		ldrb	r1, [fp, #399]	@ zero_extendqisi2
 7668 0114 6148     		ldr	r0, .L442+4
 7669 0116 FFF7FEFF 		bl	printf
 7670              	.LVL815:
1395:Core/Src/ADBMS.cpp ****         }
 7671              		.loc 1 1395 11 is_stmt 1 view .LVU1993
1395:Core/Src/ADBMS.cpp ****         }
 7672              		.loc 1 1395 17 is_stmt 0 view .LVU1994
 7673 011a 9BF89111 		ldrb	r1, [fp, #401]	@ zero_extendqisi2
ARM GAS  C:\Users\huawei\AppData\Local\Temp\ccpVCJY0.s 			page 205


 7674 011e 6048     		ldr	r0, .L442+8
 7675 0120 FFF7FEFF 		bl	printf
 7676              	.LVL816:
 7677 0124 D6E7     		b	.L420
 7678              	.LVL817:
 7679              	.L425:
1400:Core/Src/ADBMS.cpp ****         if(index == (channel-1))
 7680              		.loc 1 1400 9 is_stmt 1 view .LVU1995
1400:Core/Src/ADBMS.cpp ****         if(index == (channel-1))
 7681              		.loc 1 1400 15 is_stmt 0 view .LVU1996
 7682 0126 FFF7FEFF 		bl	__aeabi_f2d
 7683              	.LVL818:
1400:Core/Src/ADBMS.cpp ****         if(index == (channel-1))
 7684              		.loc 1 1400 15 view .LVU1997
 7685 012a 0246     		mov	r2, r0
 7686 012c 0B46     		mov	r3, r1
 7687 012e 611C     		adds	r1, r4, #1
 7688 0130 5C48     		ldr	r0, .L442+12
 7689 0132 FFF7FEFF 		bl	printf
 7690              	.LVL819:
1401:Core/Src/ADBMS.cpp ****         {
 7691              		.loc 1 1401 9 is_stmt 1 view .LVU1998
1401:Core/Src/ADBMS.cpp ****         {
 7692              		.loc 1 1401 29 is_stmt 0 view .LVU1999
 7693 0136 731E     		subs	r3, r6, #1
1401:Core/Src/ADBMS.cpp ****         {
 7694              		.loc 1 1401 9 view .LVU2000
 7695 0138 9C42     		cmp	r4, r3
 7696 013a CBD1     		bne	.L420
1403:Core/Src/ADBMS.cpp ****           printf("PECError:%d",IC[ic].cccrc.acell_pec);
 7697              		.loc 1 1403 11 is_stmt 1 view .LVU2001
1403:Core/Src/ADBMS.cpp ****           printf("PECError:%d",IC[ic].cccrc.acell_pec);
 7698              		.loc 1 1403 36 is_stmt 0 view .LVU2002
 7699 013c 4FF4287B 		mov	fp, #672
 7700 0140 0BFB089B 		mla	fp, fp, r8, r9
1403:Core/Src/ADBMS.cpp ****           printf("PECError:%d",IC[ic].cccrc.acell_pec);
 7701              		.loc 1 1403 17 view .LVU2003
 7702 0144 9BF88F11 		ldrb	r1, [fp, #399]	@ zero_extendqisi2
 7703 0148 5448     		ldr	r0, .L442+4
 7704 014a FFF7FEFF 		bl	printf
 7705              	.LVL820:
1404:Core/Src/ADBMS.cpp ****         }
 7706              		.loc 1 1404 11 is_stmt 1 view .LVU2004
1404:Core/Src/ADBMS.cpp ****         }
 7707              		.loc 1 1404 17 is_stmt 0 view .LVU2005
 7708 014e 9BF89211 		ldrb	r1, [fp, #402]	@ zero_extendqisi2
 7709 0152 5348     		ldr	r0, .L442+8
 7710 0154 FFF7FEFF 		bl	printf
 7711              	.LVL821:
 7712 0158 BCE7     		b	.L420
 7713              	.LVL822:
 7714              	.L422:
1409:Core/Src/ADBMS.cpp ****         if(index == (channel-1))
 7715              		.loc 1 1409 9 is_stmt 1 view .LVU2006
1409:Core/Src/ADBMS.cpp ****         if(index == (channel-1))
 7716              		.loc 1 1409 15 is_stmt 0 view .LVU2007
 7717 015a FFF7FEFF 		bl	__aeabi_f2d
ARM GAS  C:\Users\huawei\AppData\Local\Temp\ccpVCJY0.s 			page 206


 7718              	.LVL823:
1409:Core/Src/ADBMS.cpp ****         if(index == (channel-1))
 7719              		.loc 1 1409 15 view .LVU2008
 7720 015e 0246     		mov	r2, r0
 7721 0160 0B46     		mov	r3, r1
 7722 0162 611C     		adds	r1, r4, #1
 7723 0164 5048     		ldr	r0, .L442+16
 7724 0166 FFF7FEFF 		bl	printf
 7725              	.LVL824:
1410:Core/Src/ADBMS.cpp ****         {
 7726              		.loc 1 1410 9 is_stmt 1 view .LVU2009
1410:Core/Src/ADBMS.cpp ****         {
 7727              		.loc 1 1410 29 is_stmt 0 view .LVU2010
 7728 016a 731E     		subs	r3, r6, #1
1410:Core/Src/ADBMS.cpp ****         {
 7729              		.loc 1 1410 9 view .LVU2011
 7730 016c 9C42     		cmp	r4, r3
 7731 016e B1D1     		bne	.L420
1412:Core/Src/ADBMS.cpp ****           printf("PECError:%d",IC[ic].cccrc.fcell_pec);
 7732              		.loc 1 1412 11 is_stmt 1 view .LVU2012
1412:Core/Src/ADBMS.cpp ****           printf("PECError:%d",IC[ic].cccrc.fcell_pec);
 7733              		.loc 1 1412 36 is_stmt 0 view .LVU2013
 7734 0170 4FF4287B 		mov	fp, #672
 7735 0174 0BFB089B 		mla	fp, fp, r8, r9
1412:Core/Src/ADBMS.cpp ****           printf("PECError:%d",IC[ic].cccrc.fcell_pec);
 7736              		.loc 1 1412 17 view .LVU2014
 7737 0178 9BF88F11 		ldrb	r1, [fp, #399]	@ zero_extendqisi2
 7738 017c 4748     		ldr	r0, .L442+4
 7739 017e FFF7FEFF 		bl	printf
 7740              	.LVL825:
1413:Core/Src/ADBMS.cpp ****         }
 7741              		.loc 1 1413 11 is_stmt 1 view .LVU2015
1413:Core/Src/ADBMS.cpp ****         }
 7742              		.loc 1 1413 17 is_stmt 0 view .LVU2016
 7743 0182 9BF89411 		ldrb	r1, [fp, #404]	@ zero_extendqisi2
 7744 0186 4648     		ldr	r0, .L442+8
 7745 0188 FFF7FEFF 		bl	printf
 7746              	.LVL826:
 7747 018c A2E7     		b	.L420
 7748              	.LVL827:
 7749              	.L424:
1418:Core/Src/ADBMS.cpp ****         if(index == (channel-1))
 7750              		.loc 1 1418 9 is_stmt 1 view .LVU2017
1418:Core/Src/ADBMS.cpp ****         if(index == (channel-1))
 7751              		.loc 1 1418 15 is_stmt 0 view .LVU2018
 7752 018e FFF7FEFF 		bl	__aeabi_f2d
 7753              	.LVL828:
1418:Core/Src/ADBMS.cpp ****         if(index == (channel-1))
 7754              		.loc 1 1418 15 view .LVU2019
 7755 0192 0246     		mov	r2, r0
 7756 0194 0B46     		mov	r3, r1
 7757 0196 611C     		adds	r1, r4, #1
 7758 0198 4448     		ldr	r0, .L442+20
 7759 019a FFF7FEFF 		bl	printf
 7760              	.LVL829:
1419:Core/Src/ADBMS.cpp ****         {
 7761              		.loc 1 1419 9 is_stmt 1 view .LVU2020
ARM GAS  C:\Users\huawei\AppData\Local\Temp\ccpVCJY0.s 			page 207


1419:Core/Src/ADBMS.cpp ****         {
 7762              		.loc 1 1419 29 is_stmt 0 view .LVU2021
 7763 019e 731E     		subs	r3, r6, #1
1419:Core/Src/ADBMS.cpp ****         {
 7764              		.loc 1 1419 9 view .LVU2022
 7765 01a0 9C42     		cmp	r4, r3
 7766 01a2 97D1     		bne	.L420
1421:Core/Src/ADBMS.cpp ****           printf("PECError:%d",IC[ic].cccrc.scell_pec);
 7767              		.loc 1 1421 11 is_stmt 1 view .LVU2023
1421:Core/Src/ADBMS.cpp ****           printf("PECError:%d",IC[ic].cccrc.scell_pec);
 7768              		.loc 1 1421 36 is_stmt 0 view .LVU2024
 7769 01a4 4FF4287B 		mov	fp, #672
 7770 01a8 0BFB089B 		mla	fp, fp, r8, r9
1421:Core/Src/ADBMS.cpp ****           printf("PECError:%d",IC[ic].cccrc.scell_pec);
 7771              		.loc 1 1421 17 view .LVU2025
 7772 01ac 9BF88F11 		ldrb	r1, [fp, #399]	@ zero_extendqisi2
 7773 01b0 3A48     		ldr	r0, .L442+4
 7774 01b2 FFF7FEFF 		bl	printf
 7775              	.LVL830:
1422:Core/Src/ADBMS.cpp ****         }
 7776              		.loc 1 1422 11 is_stmt 1 view .LVU2026
1422:Core/Src/ADBMS.cpp ****         }
 7777              		.loc 1 1422 17 is_stmt 0 view .LVU2027
 7778 01b6 9BF89311 		ldrb	r1, [fp, #403]	@ zero_extendqisi2
 7779 01ba 3948     		ldr	r0, .L442+8
 7780 01bc FFF7FEFF 		bl	printf
 7781              	.LVL831:
 7782 01c0 88E7     		b	.L420
 7783              	.LVL832:
 7784              	.L427:
1427:Core/Src/ADBMS.cpp ****         {
 7785              		.loc 1 1427 9 is_stmt 1 view .LVU2028
 7786 01c2 092C     		cmp	r4, #9
 7787 01c4 1FD9     		bls	.L439
1431:Core/Src/ADBMS.cpp ****         {
 7788              		.loc 1 1431 14 view .LVU2029
 7789 01c6 0A2C     		cmp	r4, #10
 7790 01c8 26D0     		beq	.L440
1435:Core/Src/ADBMS.cpp ****         {
 7791              		.loc 1 1435 14 view .LVU2030
 7792 01ca 0B2C     		cmp	r4, #11
 7793 01cc 82D1     		bne	.L420
1437:Core/Src/ADBMS.cpp ****           printf("CCount:%d,",IC[ic].cccrc.cmd_cntr);
 7794              		.loc 1 1437 11 view .LVU2031
1437:Core/Src/ADBMS.cpp ****           printf("CCount:%d,",IC[ic].cccrc.cmd_cntr);
 7795              		.loc 1 1437 17 is_stmt 0 view .LVU2032
 7796 01ce F3EE047A 		vmov.f32	s15, #2.0e+1
 7797 01d2 60EE277A 		vmul.f32	s15, s0, s15
 7798 01d6 17EE900A 		vmov	r0, s15
 7799              	.LVL833:
1437:Core/Src/ADBMS.cpp ****           printf("CCount:%d,",IC[ic].cccrc.cmd_cntr);
 7800              		.loc 1 1437 17 view .LVU2033
 7801 01da FFF7FEFF 		bl	__aeabi_f2d
 7802              	.LVL834:
1437:Core/Src/ADBMS.cpp ****           printf("CCount:%d,",IC[ic].cccrc.cmd_cntr);
 7803              		.loc 1 1437 17 view .LVU2034
 7804 01de 0246     		mov	r2, r0
ARM GAS  C:\Users\huawei\AppData\Local\Temp\ccpVCJY0.s 			page 208


 7805 01e0 0B46     		mov	r3, r1
 7806 01e2 3348     		ldr	r0, .L442+24
 7807 01e4 FFF7FEFF 		bl	printf
 7808              	.LVL835:
1438:Core/Src/ADBMS.cpp ****           printf("PECError:%d",IC[ic].cccrc.aux_pec);
 7809              		.loc 1 1438 11 is_stmt 1 view .LVU2035
1438:Core/Src/ADBMS.cpp ****           printf("PECError:%d",IC[ic].cccrc.aux_pec);
 7810              		.loc 1 1438 36 is_stmt 0 view .LVU2036
 7811 01e8 4FF4287B 		mov	fp, #672
 7812 01ec 0BFB089B 		mla	fp, fp, r8, r9
1438:Core/Src/ADBMS.cpp ****           printf("PECError:%d",IC[ic].cccrc.aux_pec);
 7813              		.loc 1 1438 17 view .LVU2037
 7814 01f0 9BF88F11 		ldrb	r1, [fp, #399]	@ zero_extendqisi2
 7815 01f4 2948     		ldr	r0, .L442+4
 7816 01f6 FFF7FEFF 		bl	printf
 7817              	.LVL836:
1439:Core/Src/ADBMS.cpp ****         }
 7818              		.loc 1 1439 11 is_stmt 1 view .LVU2038
1439:Core/Src/ADBMS.cpp ****         }
 7819              		.loc 1 1439 17 is_stmt 0 view .LVU2039
 7820 01fa 9BF89511 		ldrb	r1, [fp, #405]	@ zero_extendqisi2
 7821 01fe 2848     		ldr	r0, .L442+8
 7822 0200 FFF7FEFF 		bl	printf
 7823              	.LVL837:
 7824 0204 66E7     		b	.L420
 7825              	.LVL838:
 7826              	.L439:
1429:Core/Src/ADBMS.cpp ****         }
 7827              		.loc 1 1429 11 is_stmt 1 view .LVU2040
1429:Core/Src/ADBMS.cpp ****         }
 7828              		.loc 1 1429 17 is_stmt 0 view .LVU2041
 7829 0206 FFF7FEFF 		bl	__aeabi_f2d
 7830              	.LVL839:
1429:Core/Src/ADBMS.cpp ****         }
 7831              		.loc 1 1429 17 view .LVU2042
 7832 020a 0246     		mov	r2, r0
 7833 020c 0B46     		mov	r3, r1
 7834 020e 611C     		adds	r1, r4, #1
 7835 0210 2848     		ldr	r0, .L442+28
 7836 0212 FFF7FEFF 		bl	printf
 7837              	.LVL840:
 7838 0216 5DE7     		b	.L420
 7839              	.LVL841:
 7840              	.L440:
1433:Core/Src/ADBMS.cpp ****         }
 7841              		.loc 1 1433 11 is_stmt 1 view .LVU2043
1433:Core/Src/ADBMS.cpp ****         }
 7842              		.loc 1 1433 17 is_stmt 0 view .LVU2044
 7843 0218 F3EE047A 		vmov.f32	s15, #2.0e+1
 7844 021c 60EE277A 		vmul.f32	s15, s0, s15
 7845 0220 17EE900A 		vmov	r0, s15
 7846              	.LVL842:
1433:Core/Src/ADBMS.cpp ****         }
 7847              		.loc 1 1433 17 view .LVU2045
 7848 0224 FFF7FEFF 		bl	__aeabi_f2d
 7849              	.LVL843:
1433:Core/Src/ADBMS.cpp ****         }
ARM GAS  C:\Users\huawei\AppData\Local\Temp\ccpVCJY0.s 			page 209


 7850              		.loc 1 1433 17 view .LVU2046
 7851 0228 0246     		mov	r2, r0
 7852 022a 0B46     		mov	r3, r1
 7853 022c 2248     		ldr	r0, .L442+32
 7854 022e FFF7FEFF 		bl	printf
 7855              	.LVL844:
 7856 0232 4FE7     		b	.L420
 7857              	.LVL845:
 7858              	.L426:
1444:Core/Src/ADBMS.cpp ****         if(index == (channel-1))
 7859              		.loc 1 1444 9 is_stmt 1 view .LVU2047
1444:Core/Src/ADBMS.cpp ****         if(index == (channel-1))
 7860              		.loc 1 1444 15 is_stmt 0 view .LVU2048
 7861 0234 FFF7FEFF 		bl	__aeabi_f2d
 7862              	.LVL846:
1444:Core/Src/ADBMS.cpp ****         if(index == (channel-1))
 7863              		.loc 1 1444 15 view .LVU2049
 7864 0238 0246     		mov	r2, r0
 7865 023a 0B46     		mov	r3, r1
 7866 023c 611C     		adds	r1, r4, #1
 7867 023e 1F48     		ldr	r0, .L442+36
 7868 0240 FFF7FEFF 		bl	printf
 7869              	.LVL847:
1445:Core/Src/ADBMS.cpp ****         {
 7870              		.loc 1 1445 9 is_stmt 1 view .LVU2050
1445:Core/Src/ADBMS.cpp ****         {
 7871              		.loc 1 1445 29 is_stmt 0 view .LVU2051
 7872 0244 731E     		subs	r3, r6, #1
1445:Core/Src/ADBMS.cpp ****         {
 7873              		.loc 1 1445 9 view .LVU2052
 7874 0246 9C42     		cmp	r4, r3
 7875 0248 7FF444AF 		bne	.L420
1447:Core/Src/ADBMS.cpp ****           printf("PECError:%d",IC[ic].cccrc.raux_pec);
 7876              		.loc 1 1447 11 is_stmt 1 view .LVU2053
1447:Core/Src/ADBMS.cpp ****           printf("PECError:%d",IC[ic].cccrc.raux_pec);
 7877              		.loc 1 1447 36 is_stmt 0 view .LVU2054
 7878 024c 4FF4287B 		mov	fp, #672
 7879 0250 0BFB089B 		mla	fp, fp, r8, r9
1447:Core/Src/ADBMS.cpp ****           printf("PECError:%d",IC[ic].cccrc.raux_pec);
 7880              		.loc 1 1447 17 view .LVU2055
 7881 0254 9BF88F11 		ldrb	r1, [fp, #399]	@ zero_extendqisi2
 7882 0258 1048     		ldr	r0, .L442+4
 7883 025a FFF7FEFF 		bl	printf
 7884              	.LVL848:
1448:Core/Src/ADBMS.cpp ****         }
 7885              		.loc 1 1448 11 is_stmt 1 view .LVU2056
1448:Core/Src/ADBMS.cpp ****         }
 7886              		.loc 1 1448 17 is_stmt 0 view .LVU2057
 7887 025e 9BF89611 		ldrb	r1, [fp, #406]	@ zero_extendqisi2
 7888 0262 0F48     		ldr	r0, .L442+8
 7889 0264 FFF7FEFF 		bl	printf
 7890              	.LVL849:
 7891 0268 34E7     		b	.L420
 7892              	.LVL850:
 7893              	.L421:
1451:Core/Src/ADBMS.cpp ****     }
 7894              		.loc 1 1451 13 is_stmt 1 view .LVU2058
ARM GAS  C:\Users\huawei\AppData\Local\Temp\ccpVCJY0.s 			page 210


1451:Core/Src/ADBMS.cpp ****     }
 7895              		.loc 1 1451 19 is_stmt 0 view .LVU2059
 7896 026a 1548     		ldr	r0, .L442+40
 7897              	.LVL851:
1451:Core/Src/ADBMS.cpp ****     }
 7898              		.loc 1 1451 19 view .LVU2060
 7899 026c FFF7FEFF 		bl	puts
 7900              	.LVL852:
1451:Core/Src/ADBMS.cpp ****     }
 7901              		.loc 1 1451 19 view .LVU2061
 7902 0270 30E7     		b	.L420
 7903              	.LVL853:
 7904              	.L438:
1451:Core/Src/ADBMS.cpp ****     }
 7905              		.loc 1 1451 19 view .LVU2062
 7906              	.LBE156:
1453:Core/Src/ADBMS.cpp ****   }
 7907              		.loc 1 1453 5 is_stmt 1 discriminator 2 view .LVU2063
1453:Core/Src/ADBMS.cpp ****   }
 7908              		.loc 1 1453 11 is_stmt 0 discriminator 2 view .LVU2064
 7909 0272 1448     		ldr	r0, .L442+44
 7910 0274 FFF7FEFF 		bl	puts
 7911              	.LVL854:
 7912              	.LBE155:
1377:Core/Src/ADBMS.cpp ****   {
 7913              		.loc 1 1377 3 is_stmt 1 discriminator 2 view .LVU2065
 7914 0278 08F10108 		add	r8, r8, #1
 7915              	.LVL855:
1377:Core/Src/ADBMS.cpp ****   {
 7916              		.loc 1 1377 3 is_stmt 0 discriminator 2 view .LVU2066
 7917 027c 5FFA88F8 		uxtb	r8, r8
 7918              	.LVL856:
 7919              	.L409:
1377:Core/Src/ADBMS.cpp ****   {
 7920              		.loc 1 1377 26 is_stmt 1 discriminator 1 view .LVU2067
 7921 0280 D045     		cmp	r8, r10
 7922 0282 06D2     		bcs	.L441
 7923              	.LBB158:
1379:Core/Src/ADBMS.cpp ****     for(uint8_t index = 0; index < channel; index++)
 7924              		.loc 1 1379 5 view .LVU2068
1379:Core/Src/ADBMS.cpp ****     for(uint8_t index = 0; index < channel; index++)
 7925              		.loc 1 1379 11 is_stmt 0 view .LVU2069
 7926 0284 08F10101 		add	r1, r8, #1
 7927 0288 0F48     		ldr	r0, .L442+48
 7928 028a FFF7FEFF 		bl	printf
 7929              	.LVL857:
1380:Core/Src/ADBMS.cpp ****     {
 7930              		.loc 1 1380 5 is_stmt 1 view .LVU2070
 7931              	.LBB157:
1380:Core/Src/ADBMS.cpp ****     {
 7932              		.loc 1 1380 17 is_stmt 0 view .LVU2071
 7933 028e 0024     		movs	r4, #0
1380:Core/Src/ADBMS.cpp ****     {
 7934              		.loc 1 1380 5 view .LVU2072
 7935 0290 22E7     		b	.L410
 7936              	.LVL858:
 7937              	.L441:
ARM GAS  C:\Users\huawei\AppData\Local\Temp\ccpVCJY0.s 			page 211


1380:Core/Src/ADBMS.cpp ****     {
 7938              		.loc 1 1380 5 view .LVU2073
 7939              	.LBE157:
 7940              	.LBE158:
 7941              	.LBE154:
1455:Core/Src/ADBMS.cpp **** 
 7942              		.loc 1 1455 1 view .LVU2074
 7943 0292 BDE8F88F 		pop	{r3, r4, r5, r6, r7, r8, r9, r10, fp, pc}
 7944              	.LVL859:
 7945              	.L443:
1455:Core/Src/ADBMS.cpp **** 
 7946              		.loc 1 1455 1 view .LVU2075
 7947 0296 00BF     		.align	2
 7948              	.L442:
 7949 0298 00000000 		.word	.LC127
 7950 029c 3C010000 		.word	.LC34
 7951 02a0 0C000000 		.word	.LC128
 7952 02a4 18000000 		.word	.LC129
 7953 02a8 24000000 		.word	.LC130
 7954 02ac 30000000 		.word	.LC131
 7955 02b0 54000000 		.word	.LC134
 7956 02b4 3C000000 		.word	.LC132
 7957 02b8 48000000 		.word	.LC133
 7958 02bc 5C000000 		.word	.LC135
 7959 02c0 38000000 		.word	.LC14
 7960 02c4 20000000 		.word	.LC82
 7961 02c8 18000000 		.word	.LC81
 7962              		.cfi_endproc
 7963              	.LFE280:
 7964              		.fnend
 7966              		.section	.text._Z28adBms6830_read_cell_voltageshP9cell_asic,"ax",%progbits
 7967              		.align	1
 7968              		.global	_Z28adBms6830_read_cell_voltageshP9cell_asic
 7969              		.syntax unified
 7970              		.thumb
 7971              		.thumb_func
 7973              	_Z28adBms6830_read_cell_voltageshP9cell_asic:
 7974              		.fnstart
 7975              	.LVL860:
 7976              	.LFB262:
 919:Core/Src/ADBMS.cpp ****   adBmsWakeupIc(tIC);
 7977              		.loc 1 919 1 is_stmt 1 view -0
 7978              		.cfi_startproc
 7979              		@ args = 0, pretend = 0, frame = 0
 7980              		@ frame_needed = 0, uses_anonymous_args = 0
 919:Core/Src/ADBMS.cpp ****   adBmsWakeupIc(tIC);
 7981              		.loc 1 919 1 is_stmt 0 view .LVU2077
 7982 0000 30B5     		push	{r4, r5, lr}
 7983              		.save {r4, r5, lr}
 7984              	.LCFI73:
 7985              		.cfi_def_cfa_offset 12
 7986              		.cfi_offset 4, -12
 7987              		.cfi_offset 5, -8
 7988              		.cfi_offset 14, -4
 7989              		.pad #12
 7990 0002 83B0     		sub	sp, sp, #12
 7991              	.LCFI74:
ARM GAS  C:\Users\huawei\AppData\Local\Temp\ccpVCJY0.s 			page 212


 7992              		.cfi_def_cfa_offset 24
 7993 0004 0446     		mov	r4, r0
 7994 0006 0D46     		mov	r5, r1
 920:Core/Src/ADBMS.cpp ****   adBmsReadData(tIC, &ic[0], RDCVA, Cell, A);
 7995              		.loc 1 920 3 is_stmt 1 view .LVU2078
 920:Core/Src/ADBMS.cpp ****   adBmsReadData(tIC, &ic[0], RDCVA, Cell, A);
 7996              		.loc 1 920 16 is_stmt 0 view .LVU2079
 7997 0008 FFF7FEFF 		bl	_Z13adBmsWakeupIch
 7998              	.LVL861:
 921:Core/Src/ADBMS.cpp ****   adBmsReadData(tIC, &ic[0], RDCVB, Cell, B);
 7999              		.loc 1 921 3 is_stmt 1 view .LVU2080
 921:Core/Src/ADBMS.cpp ****   adBmsReadData(tIC, &ic[0], RDCVB, Cell, B);
 8000              		.loc 1 921 16 is_stmt 0 view .LVU2081
 8001 000c 0123     		movs	r3, #1
 8002 000e 0093     		str	r3, [sp]
 8003 0010 0023     		movs	r3, #0
 8004 0012 1A4A     		ldr	r2, .L446
 8005 0014 2946     		mov	r1, r5
 8006 0016 2046     		mov	r0, r4
 8007 0018 FFF7FEFF 		bl	_Z13adBmsReadDatahP9cell_asicPh4TYPE3GRP
 8008              	.LVL862:
 922:Core/Src/ADBMS.cpp ****   adBmsReadData(tIC, &ic[0], RDCVC, Cell, C);
 8009              		.loc 1 922 3 is_stmt 1 view .LVU2082
 922:Core/Src/ADBMS.cpp ****   adBmsReadData(tIC, &ic[0], RDCVC, Cell, C);
 8010              		.loc 1 922 16 is_stmt 0 view .LVU2083
 8011 001c 0223     		movs	r3, #2
 8012 001e 0093     		str	r3, [sp]
 8013 0020 0023     		movs	r3, #0
 8014 0022 174A     		ldr	r2, .L446+4
 8015 0024 2946     		mov	r1, r5
 8016 0026 2046     		mov	r0, r4
 8017 0028 FFF7FEFF 		bl	_Z13adBmsReadDatahP9cell_asicPh4TYPE3GRP
 8018              	.LVL863:
 923:Core/Src/ADBMS.cpp ****   adBmsReadData(tIC, &ic[0], RDCVD, Cell, D);
 8019              		.loc 1 923 3 is_stmt 1 view .LVU2084
 923:Core/Src/ADBMS.cpp ****   adBmsReadData(tIC, &ic[0], RDCVD, Cell, D);
 8020              		.loc 1 923 16 is_stmt 0 view .LVU2085
 8021 002c 0323     		movs	r3, #3
 8022 002e 0093     		str	r3, [sp]
 8023 0030 0023     		movs	r3, #0
 8024 0032 144A     		ldr	r2, .L446+8
 8025 0034 2946     		mov	r1, r5
 8026 0036 2046     		mov	r0, r4
 8027 0038 FFF7FEFF 		bl	_Z13adBmsReadDatahP9cell_asicPh4TYPE3GRP
 8028              	.LVL864:
 924:Core/Src/ADBMS.cpp ****   adBmsReadData(tIC, &ic[0], RDCVE, Cell, E);
 8029              		.loc 1 924 3 is_stmt 1 view .LVU2086
 924:Core/Src/ADBMS.cpp ****   adBmsReadData(tIC, &ic[0], RDCVE, Cell, E);
 8030              		.loc 1 924 16 is_stmt 0 view .LVU2087
 8031 003c 0423     		movs	r3, #4
 8032 003e 0093     		str	r3, [sp]
 8033 0040 0023     		movs	r3, #0
 8034 0042 114A     		ldr	r2, .L446+12
 8035 0044 2946     		mov	r1, r5
 8036 0046 2046     		mov	r0, r4
 8037 0048 FFF7FEFF 		bl	_Z13adBmsReadDatahP9cell_asicPh4TYPE3GRP
 8038              	.LVL865:
ARM GAS  C:\Users\huawei\AppData\Local\Temp\ccpVCJY0.s 			page 213


 925:Core/Src/ADBMS.cpp ****   adBmsReadData(tIC, &ic[0], RDCVF, Cell, F);
 8039              		.loc 1 925 3 is_stmt 1 view .LVU2088
 925:Core/Src/ADBMS.cpp ****   adBmsReadData(tIC, &ic[0], RDCVF, Cell, F);
 8040              		.loc 1 925 16 is_stmt 0 view .LVU2089
 8041 004c 0523     		movs	r3, #5
 8042 004e 0093     		str	r3, [sp]
 8043 0050 0023     		movs	r3, #0
 8044 0052 0E4A     		ldr	r2, .L446+16
 8045 0054 2946     		mov	r1, r5
 8046 0056 2046     		mov	r0, r4
 8047 0058 FFF7FEFF 		bl	_Z13adBmsReadDatahP9cell_asicPh4TYPE3GRP
 8048              	.LVL866:
 926:Core/Src/ADBMS.cpp ****   printVoltages(tIC, &ic[0], Cell);
 8049              		.loc 1 926 3 is_stmt 1 view .LVU2090
 926:Core/Src/ADBMS.cpp ****   printVoltages(tIC, &ic[0], Cell);
 8050              		.loc 1 926 16 is_stmt 0 view .LVU2091
 8051 005c 0623     		movs	r3, #6
 8052 005e 0093     		str	r3, [sp]
 8053 0060 0023     		movs	r3, #0
 8054 0062 0B4A     		ldr	r2, .L446+20
 8055 0064 2946     		mov	r1, r5
 8056 0066 2046     		mov	r0, r4
 8057 0068 FFF7FEFF 		bl	_Z13adBmsReadDatahP9cell_asicPh4TYPE3GRP
 8058              	.LVL867:
 927:Core/Src/ADBMS.cpp **** }
 8059              		.loc 1 927 3 is_stmt 1 view .LVU2092
 927:Core/Src/ADBMS.cpp **** }
 8060              		.loc 1 927 16 is_stmt 0 view .LVU2093
 8061 006c 0022     		movs	r2, #0
 8062 006e 2946     		mov	r1, r5
 8063 0070 2046     		mov	r0, r4
 8064 0072 FFF7FEFF 		bl	_Z13printVoltageshP9cell_asic4TYPE
 8065              	.LVL868:
 928:Core/Src/ADBMS.cpp **** 
 8066              		.loc 1 928 1 view .LVU2094
 8067 0076 03B0     		add	sp, sp, #12
 8068              	.LCFI75:
 8069              		.cfi_def_cfa_offset 12
 8070              		@ sp needed
 8071 0078 30BD     		pop	{r4, r5, pc}
 8072              	.LVL869:
 8073              	.L447:
 928:Core/Src/ADBMS.cpp **** 
 8074              		.loc 1 928 1 view .LVU2095
 8075 007a 00BF     		.align	2
 8076              	.L446:
 8077 007c 00000000 		.word	RDCVA
 8078 0080 00000000 		.word	RDCVB
 8079 0084 00000000 		.word	RDCVC
 8080 0088 00000000 		.word	RDCVD
 8081 008c 00000000 		.word	RDCVE
 8082 0090 00000000 		.word	RDCVF
 8083              		.cfi_endproc
 8084              	.LFE262:
 8085              		.fnend
 8087              		.section	.text._Z25adBms6830_read_s_voltageshP9cell_asic,"ax",%progbits
 8088              		.align	1
ARM GAS  C:\Users\huawei\AppData\Local\Temp\ccpVCJY0.s 			page 214


 8089              		.global	_Z25adBms6830_read_s_voltageshP9cell_asic
 8090              		.syntax unified
 8091              		.thumb
 8092              		.thumb_func
 8094              	_Z25adBms6830_read_s_voltageshP9cell_asic:
 8095              		.fnstart
 8096              	.LVL870:
 8097              	.LFB264:
 951:Core/Src/ADBMS.cpp ****   adBmsWakeupIc(tIC);
 8098              		.loc 1 951 1 is_stmt 1 view -0
 8099              		.cfi_startproc
 8100              		@ args = 0, pretend = 0, frame = 0
 8101              		@ frame_needed = 0, uses_anonymous_args = 0
 951:Core/Src/ADBMS.cpp ****   adBmsWakeupIc(tIC);
 8102              		.loc 1 951 1 is_stmt 0 view .LVU2097
 8103 0000 70B5     		push	{r4, r5, r6, lr}
 8104              		.save {r4, r5, r6, lr}
 8105              	.LCFI76:
 8106              		.cfi_def_cfa_offset 16
 8107              		.cfi_offset 4, -16
 8108              		.cfi_offset 5, -12
 8109              		.cfi_offset 6, -8
 8110              		.cfi_offset 14, -4
 8111              		.pad #8
 8112 0002 82B0     		sub	sp, sp, #8
 8113              	.LCFI77:
 8114              		.cfi_def_cfa_offset 24
 8115 0004 0446     		mov	r4, r0
 8116 0006 0D46     		mov	r5, r1
 952:Core/Src/ADBMS.cpp ****   adBmsReadData(tIC, &ic[0], RDSVA, S_volt, A);
 8117              		.loc 1 952 3 is_stmt 1 view .LVU2098
 952:Core/Src/ADBMS.cpp ****   adBmsReadData(tIC, &ic[0], RDSVA, S_volt, A);
 8118              		.loc 1 952 16 is_stmt 0 view .LVU2099
 8119 0008 FFF7FEFF 		bl	_Z13adBmsWakeupIch
 8120              	.LVL871:
 953:Core/Src/ADBMS.cpp ****   adBmsReadData(tIC, &ic[0], RDSVB, S_volt, B);
 8121              		.loc 1 953 3 is_stmt 1 view .LVU2100
 953:Core/Src/ADBMS.cpp ****   adBmsReadData(tIC, &ic[0], RDSVB, S_volt, B);
 8122              		.loc 1 953 16 is_stmt 0 view .LVU2101
 8123 000c 0123     		movs	r3, #1
 8124 000e 0093     		str	r3, [sp]
 8125 0010 0623     		movs	r3, #6
 8126 0012 1A4A     		ldr	r2, .L450
 8127 0014 2946     		mov	r1, r5
 8128 0016 2046     		mov	r0, r4
 8129 0018 FFF7FEFF 		bl	_Z13adBmsReadDatahP9cell_asicPh4TYPE3GRP
 8130              	.LVL872:
 954:Core/Src/ADBMS.cpp ****   adBmsReadData(tIC, &ic[0], RDSVC, S_volt, C);
 8131              		.loc 1 954 3 is_stmt 1 view .LVU2102
 954:Core/Src/ADBMS.cpp ****   adBmsReadData(tIC, &ic[0], RDSVC, S_volt, C);
 8132              		.loc 1 954 16 is_stmt 0 view .LVU2103
 8133 001c 0223     		movs	r3, #2
 8134 001e 0093     		str	r3, [sp]
 8135 0020 0623     		movs	r3, #6
 8136 0022 174A     		ldr	r2, .L450+4
 8137 0024 2946     		mov	r1, r5
 8138 0026 2046     		mov	r0, r4
ARM GAS  C:\Users\huawei\AppData\Local\Temp\ccpVCJY0.s 			page 215


 8139 0028 FFF7FEFF 		bl	_Z13adBmsReadDatahP9cell_asicPh4TYPE3GRP
 8140              	.LVL873:
 955:Core/Src/ADBMS.cpp ****   adBmsReadData(tIC, &ic[0], RDSVD, S_volt, D);
 8141              		.loc 1 955 3 is_stmt 1 view .LVU2104
 955:Core/Src/ADBMS.cpp ****   adBmsReadData(tIC, &ic[0], RDSVD, S_volt, D);
 8142              		.loc 1 955 16 is_stmt 0 view .LVU2105
 8143 002c 0323     		movs	r3, #3
 8144 002e 0093     		str	r3, [sp]
 8145 0030 0623     		movs	r3, #6
 8146 0032 144A     		ldr	r2, .L450+8
 8147 0034 2946     		mov	r1, r5
 8148 0036 2046     		mov	r0, r4
 8149 0038 FFF7FEFF 		bl	_Z13adBmsReadDatahP9cell_asicPh4TYPE3GRP
 8150              	.LVL874:
 956:Core/Src/ADBMS.cpp ****   adBmsReadData(tIC, &ic[0], RDSVE, S_volt, E);
 8151              		.loc 1 956 3 is_stmt 1 view .LVU2106
 956:Core/Src/ADBMS.cpp ****   adBmsReadData(tIC, &ic[0], RDSVE, S_volt, E);
 8152              		.loc 1 956 16 is_stmt 0 view .LVU2107
 8153 003c 0423     		movs	r3, #4
 8154 003e 0093     		str	r3, [sp]
 8155 0040 0623     		movs	r3, #6
 8156 0042 114A     		ldr	r2, .L450+12
 8157 0044 2946     		mov	r1, r5
 8158 0046 2046     		mov	r0, r4
 8159 0048 FFF7FEFF 		bl	_Z13adBmsReadDatahP9cell_asicPh4TYPE3GRP
 8160              	.LVL875:
 957:Core/Src/ADBMS.cpp ****   adBmsReadData(tIC, &ic[0], RDSVF, S_volt, F);
 8161              		.loc 1 957 3 is_stmt 1 view .LVU2108
 957:Core/Src/ADBMS.cpp ****   adBmsReadData(tIC, &ic[0], RDSVF, S_volt, F);
 8162              		.loc 1 957 16 is_stmt 0 view .LVU2109
 8163 004c 0523     		movs	r3, #5
 8164 004e 0093     		str	r3, [sp]
 8165 0050 0623     		movs	r3, #6
 8166 0052 0E4A     		ldr	r2, .L450+16
 8167 0054 2946     		mov	r1, r5
 8168 0056 2046     		mov	r0, r4
 8169 0058 FFF7FEFF 		bl	_Z13adBmsReadDatahP9cell_asicPh4TYPE3GRP
 8170              	.LVL876:
 958:Core/Src/ADBMS.cpp ****   printVoltages(tIC, &ic[0], S_volt);
 8171              		.loc 1 958 3 is_stmt 1 view .LVU2110
 958:Core/Src/ADBMS.cpp ****   printVoltages(tIC, &ic[0], S_volt);
 8172              		.loc 1 958 16 is_stmt 0 view .LVU2111
 8173 005c 0626     		movs	r6, #6
 8174 005e 0096     		str	r6, [sp]
 8175 0060 3346     		mov	r3, r6
 8176 0062 0B4A     		ldr	r2, .L450+20
 8177 0064 2946     		mov	r1, r5
 8178 0066 2046     		mov	r0, r4
 8179 0068 FFF7FEFF 		bl	_Z13adBmsReadDatahP9cell_asicPh4TYPE3GRP
 8180              	.LVL877:
 959:Core/Src/ADBMS.cpp **** }
 8181              		.loc 1 959 3 is_stmt 1 view .LVU2112
 959:Core/Src/ADBMS.cpp **** }
 8182              		.loc 1 959 16 is_stmt 0 view .LVU2113
 8183 006c 3246     		mov	r2, r6
 8184 006e 2946     		mov	r1, r5
 8185 0070 2046     		mov	r0, r4
ARM GAS  C:\Users\huawei\AppData\Local\Temp\ccpVCJY0.s 			page 216


 8186 0072 FFF7FEFF 		bl	_Z13printVoltageshP9cell_asic4TYPE
 8187              	.LVL878:
 960:Core/Src/ADBMS.cpp **** 
 8188              		.loc 1 960 1 view .LVU2114
 8189 0076 02B0     		add	sp, sp, #8
 8190              	.LCFI78:
 8191              		.cfi_def_cfa_offset 16
 8192              		@ sp needed
 8193 0078 70BD     		pop	{r4, r5, r6, pc}
 8194              	.LVL879:
 8195              	.L451:
 960:Core/Src/ADBMS.cpp **** 
 8196              		.loc 1 960 1 view .LVU2115
 8197 007a 00BF     		.align	2
 8198              	.L450:
 8199 007c 00000000 		.word	RDSVA
 8200 0080 00000000 		.word	RDSVB
 8201 0084 00000000 		.word	RDSVC
 8202 0088 00000000 		.word	RDSVD
 8203 008c 00000000 		.word	RDSVE
 8204 0090 00000000 		.word	RDSVF
 8205              		.cfi_endproc
 8206              	.LFE264:
 8207              		.fnend
 8209              		.section	.text._Z31adBms6830_read_avgcell_voltageshP9cell_asic,"ax",%progbits
 8210              		.align	1
 8211              		.global	_Z31adBms6830_read_avgcell_voltageshP9cell_asic
 8212              		.syntax unified
 8213              		.thumb
 8214              		.thumb_func
 8216              	_Z31adBms6830_read_avgcell_voltageshP9cell_asic:
 8217              		.fnstart
 8218              	.LVL880:
 8219              	.LFB266:
 983:Core/Src/ADBMS.cpp ****   adBmsWakeupIc(tIC);
 8220              		.loc 1 983 1 is_stmt 1 view -0
 8221              		.cfi_startproc
 8222              		@ args = 0, pretend = 0, frame = 0
 8223              		@ frame_needed = 0, uses_anonymous_args = 0
 983:Core/Src/ADBMS.cpp ****   adBmsWakeupIc(tIC);
 8224              		.loc 1 983 1 is_stmt 0 view .LVU2117
 8225 0000 70B5     		push	{r4, r5, r6, lr}
 8226              		.save {r4, r5, r6, lr}
 8227              	.LCFI79:
 8228              		.cfi_def_cfa_offset 16
 8229              		.cfi_offset 4, -16
 8230              		.cfi_offset 5, -12
 8231              		.cfi_offset 6, -8
 8232              		.cfi_offset 14, -4
 8233              		.pad #8
 8234 0002 82B0     		sub	sp, sp, #8
 8235              	.LCFI80:
 8236              		.cfi_def_cfa_offset 24
 8237 0004 0446     		mov	r4, r0
 8238 0006 0D46     		mov	r5, r1
 984:Core/Src/ADBMS.cpp ****   adBmsReadData(tIC, &ic[0], RDACA, AvgCell, A);
 8239              		.loc 1 984 3 is_stmt 1 view .LVU2118
ARM GAS  C:\Users\huawei\AppData\Local\Temp\ccpVCJY0.s 			page 217


 984:Core/Src/ADBMS.cpp ****   adBmsReadData(tIC, &ic[0], RDACA, AvgCell, A);
 8240              		.loc 1 984 16 is_stmt 0 view .LVU2119
 8241 0008 FFF7FEFF 		bl	_Z13adBmsWakeupIch
 8242              	.LVL881:
 985:Core/Src/ADBMS.cpp ****   adBmsReadData(tIC, &ic[0], RDACB, AvgCell, B);
 8243              		.loc 1 985 3 is_stmt 1 view .LVU2120
 985:Core/Src/ADBMS.cpp ****   adBmsReadData(tIC, &ic[0], RDACB, AvgCell, B);
 8244              		.loc 1 985 16 is_stmt 0 view .LVU2121
 8245 000c 0123     		movs	r3, #1
 8246 000e 0093     		str	r3, [sp]
 8247 0010 0523     		movs	r3, #5
 8248 0012 1A4A     		ldr	r2, .L454
 8249 0014 2946     		mov	r1, r5
 8250 0016 2046     		mov	r0, r4
 8251 0018 FFF7FEFF 		bl	_Z13adBmsReadDatahP9cell_asicPh4TYPE3GRP
 8252              	.LVL882:
 986:Core/Src/ADBMS.cpp ****   adBmsReadData(tIC, &ic[0], RDACC, AvgCell, C);
 8253              		.loc 1 986 3 is_stmt 1 view .LVU2122
 986:Core/Src/ADBMS.cpp ****   adBmsReadData(tIC, &ic[0], RDACC, AvgCell, C);
 8254              		.loc 1 986 16 is_stmt 0 view .LVU2123
 8255 001c 0223     		movs	r3, #2
 8256 001e 0093     		str	r3, [sp]
 8257 0020 0523     		movs	r3, #5
 8258 0022 174A     		ldr	r2, .L454+4
 8259 0024 2946     		mov	r1, r5
 8260 0026 2046     		mov	r0, r4
 8261 0028 FFF7FEFF 		bl	_Z13adBmsReadDatahP9cell_asicPh4TYPE3GRP
 8262              	.LVL883:
 987:Core/Src/ADBMS.cpp ****   adBmsReadData(tIC, &ic[0], RDACD, AvgCell, D);
 8263              		.loc 1 987 3 is_stmt 1 view .LVU2124
 987:Core/Src/ADBMS.cpp ****   adBmsReadData(tIC, &ic[0], RDACD, AvgCell, D);
 8264              		.loc 1 987 16 is_stmt 0 view .LVU2125
 8265 002c 0323     		movs	r3, #3
 8266 002e 0093     		str	r3, [sp]
 8267 0030 0523     		movs	r3, #5
 8268 0032 144A     		ldr	r2, .L454+8
 8269 0034 2946     		mov	r1, r5
 8270 0036 2046     		mov	r0, r4
 8271 0038 FFF7FEFF 		bl	_Z13adBmsReadDatahP9cell_asicPh4TYPE3GRP
 8272              	.LVL884:
 988:Core/Src/ADBMS.cpp ****   adBmsReadData(tIC, &ic[0], RDACE, AvgCell, E);
 8273              		.loc 1 988 3 is_stmt 1 view .LVU2126
 988:Core/Src/ADBMS.cpp ****   adBmsReadData(tIC, &ic[0], RDACE, AvgCell, E);
 8274              		.loc 1 988 16 is_stmt 0 view .LVU2127
 8275 003c 0423     		movs	r3, #4
 8276 003e 0093     		str	r3, [sp]
 8277 0040 0523     		movs	r3, #5
 8278 0042 114A     		ldr	r2, .L454+12
 8279 0044 2946     		mov	r1, r5
 8280 0046 2046     		mov	r0, r4
 8281 0048 FFF7FEFF 		bl	_Z13adBmsReadDatahP9cell_asicPh4TYPE3GRP
 8282              	.LVL885:
 989:Core/Src/ADBMS.cpp ****   adBmsReadData(tIC, &ic[0], RDACF, AvgCell, F);
 8283              		.loc 1 989 3 is_stmt 1 view .LVU2128
 989:Core/Src/ADBMS.cpp ****   adBmsReadData(tIC, &ic[0], RDACF, AvgCell, F);
 8284              		.loc 1 989 16 is_stmt 0 view .LVU2129
 8285 004c 0526     		movs	r6, #5
ARM GAS  C:\Users\huawei\AppData\Local\Temp\ccpVCJY0.s 			page 218


 8286 004e 0096     		str	r6, [sp]
 8287 0050 3346     		mov	r3, r6
 8288 0052 0E4A     		ldr	r2, .L454+16
 8289 0054 2946     		mov	r1, r5
 8290 0056 2046     		mov	r0, r4
 8291 0058 FFF7FEFF 		bl	_Z13adBmsReadDatahP9cell_asicPh4TYPE3GRP
 8292              	.LVL886:
 990:Core/Src/ADBMS.cpp ****   printVoltages(tIC, &ic[0], AvgCell);
 8293              		.loc 1 990 3 is_stmt 1 view .LVU2130
 990:Core/Src/ADBMS.cpp ****   printVoltages(tIC, &ic[0], AvgCell);
 8294              		.loc 1 990 16 is_stmt 0 view .LVU2131
 8295 005c 0623     		movs	r3, #6
 8296 005e 0093     		str	r3, [sp]
 8297 0060 3346     		mov	r3, r6
 8298 0062 0B4A     		ldr	r2, .L454+20
 8299 0064 2946     		mov	r1, r5
 8300 0066 2046     		mov	r0, r4
 8301 0068 FFF7FEFF 		bl	_Z13adBmsReadDatahP9cell_asicPh4TYPE3GRP
 8302              	.LVL887:
 991:Core/Src/ADBMS.cpp **** }
 8303              		.loc 1 991 3 is_stmt 1 view .LVU2132
 991:Core/Src/ADBMS.cpp **** }
 8304              		.loc 1 991 16 is_stmt 0 view .LVU2133
 8305 006c 3246     		mov	r2, r6
 8306 006e 2946     		mov	r1, r5
 8307 0070 2046     		mov	r0, r4
 8308 0072 FFF7FEFF 		bl	_Z13printVoltageshP9cell_asic4TYPE
 8309              	.LVL888:
 992:Core/Src/ADBMS.cpp **** 
 8310              		.loc 1 992 1 view .LVU2134
 8311 0076 02B0     		add	sp, sp, #8
 8312              	.LCFI81:
 8313              		.cfi_def_cfa_offset 16
 8314              		@ sp needed
 8315 0078 70BD     		pop	{r4, r5, r6, pc}
 8316              	.LVL889:
 8317              	.L455:
 992:Core/Src/ADBMS.cpp **** 
 8318              		.loc 1 992 1 view .LVU2135
 8319 007a 00BF     		.align	2
 8320              	.L454:
 8321 007c 00000000 		.word	RDACA
 8322 0080 00000000 		.word	RDACB
 8323 0084 00000000 		.word	RDACC
 8324 0088 00000000 		.word	RDACD
 8325 008c 00000000 		.word	RDACE
 8326 0090 00000000 		.word	RDACF
 8327              		.cfi_endproc
 8328              	.LFE266:
 8329              		.fnend
 8331              		.section	.text._Z29adBms6830_read_fcell_voltageshP9cell_asic,"ax",%progbits
 8332              		.align	1
 8333              		.global	_Z29adBms6830_read_fcell_voltageshP9cell_asic
 8334              		.syntax unified
 8335              		.thumb
 8336              		.thumb_func
 8338              	_Z29adBms6830_read_fcell_voltageshP9cell_asic:
ARM GAS  C:\Users\huawei\AppData\Local\Temp\ccpVCJY0.s 			page 219


 8339              		.fnstart
 8340              	.LVL890:
 8341              	.LFB268:
1015:Core/Src/ADBMS.cpp ****   adBmsWakeupIc(tIC);
 8342              		.loc 1 1015 1 is_stmt 1 view -0
 8343              		.cfi_startproc
 8344              		@ args = 0, pretend = 0, frame = 0
 8345              		@ frame_needed = 0, uses_anonymous_args = 0
1015:Core/Src/ADBMS.cpp ****   adBmsWakeupIc(tIC);
 8346              		.loc 1 1015 1 is_stmt 0 view .LVU2137
 8347 0000 30B5     		push	{r4, r5, lr}
 8348              		.save {r4, r5, lr}
 8349              	.LCFI82:
 8350              		.cfi_def_cfa_offset 12
 8351              		.cfi_offset 4, -12
 8352              		.cfi_offset 5, -8
 8353              		.cfi_offset 14, -4
 8354              		.pad #12
 8355 0002 83B0     		sub	sp, sp, #12
 8356              	.LCFI83:
 8357              		.cfi_def_cfa_offset 24
 8358 0004 0446     		mov	r4, r0
 8359 0006 0D46     		mov	r5, r1
1016:Core/Src/ADBMS.cpp ****   adBmsReadData(tIC, &ic[0], RDFCA, F_volt, A);
 8360              		.loc 1 1016 3 is_stmt 1 view .LVU2138
1016:Core/Src/ADBMS.cpp ****   adBmsReadData(tIC, &ic[0], RDFCA, F_volt, A);
 8361              		.loc 1 1016 16 is_stmt 0 view .LVU2139
 8362 0008 FFF7FEFF 		bl	_Z13adBmsWakeupIch
 8363              	.LVL891:
1017:Core/Src/ADBMS.cpp ****   adBmsReadData(tIC, &ic[0], RDFCB, F_volt, B);
 8364              		.loc 1 1017 3 is_stmt 1 view .LVU2140
1017:Core/Src/ADBMS.cpp ****   adBmsReadData(tIC, &ic[0], RDFCB, F_volt, B);
 8365              		.loc 1 1017 16 is_stmt 0 view .LVU2141
 8366 000c 0123     		movs	r3, #1
 8367 000e 0093     		str	r3, [sp]
 8368 0010 0723     		movs	r3, #7
 8369 0012 1A4A     		ldr	r2, .L458
 8370 0014 2946     		mov	r1, r5
 8371 0016 2046     		mov	r0, r4
 8372 0018 FFF7FEFF 		bl	_Z13adBmsReadDatahP9cell_asicPh4TYPE3GRP
 8373              	.LVL892:
1018:Core/Src/ADBMS.cpp ****   adBmsReadData(tIC, &ic[0], RDFCC, F_volt, C);
 8374              		.loc 1 1018 3 is_stmt 1 view .LVU2142
1018:Core/Src/ADBMS.cpp ****   adBmsReadData(tIC, &ic[0], RDFCC, F_volt, C);
 8375              		.loc 1 1018 16 is_stmt 0 view .LVU2143
 8376 001c 0223     		movs	r3, #2
 8377 001e 0093     		str	r3, [sp]
 8378 0020 0723     		movs	r3, #7
 8379 0022 174A     		ldr	r2, .L458+4
 8380 0024 2946     		mov	r1, r5
 8381 0026 2046     		mov	r0, r4
 8382 0028 FFF7FEFF 		bl	_Z13adBmsReadDatahP9cell_asicPh4TYPE3GRP
 8383              	.LVL893:
1019:Core/Src/ADBMS.cpp ****   adBmsReadData(tIC, &ic[0], RDFCD, F_volt, D);
 8384              		.loc 1 1019 3 is_stmt 1 view .LVU2144
1019:Core/Src/ADBMS.cpp ****   adBmsReadData(tIC, &ic[0], RDFCD, F_volt, D);
 8385              		.loc 1 1019 16 is_stmt 0 view .LVU2145
ARM GAS  C:\Users\huawei\AppData\Local\Temp\ccpVCJY0.s 			page 220


 8386 002c 0323     		movs	r3, #3
 8387 002e 0093     		str	r3, [sp]
 8388 0030 0723     		movs	r3, #7
 8389 0032 144A     		ldr	r2, .L458+8
 8390 0034 2946     		mov	r1, r5
 8391 0036 2046     		mov	r0, r4
 8392 0038 FFF7FEFF 		bl	_Z13adBmsReadDatahP9cell_asicPh4TYPE3GRP
 8393              	.LVL894:
1020:Core/Src/ADBMS.cpp ****   adBmsReadData(tIC, &ic[0], RDFCE, F_volt, E);
 8394              		.loc 1 1020 3 is_stmt 1 view .LVU2146
1020:Core/Src/ADBMS.cpp ****   adBmsReadData(tIC, &ic[0], RDFCE, F_volt, E);
 8395              		.loc 1 1020 16 is_stmt 0 view .LVU2147
 8396 003c 0423     		movs	r3, #4
 8397 003e 0093     		str	r3, [sp]
 8398 0040 0723     		movs	r3, #7
 8399 0042 114A     		ldr	r2, .L458+12
 8400 0044 2946     		mov	r1, r5
 8401 0046 2046     		mov	r0, r4
 8402 0048 FFF7FEFF 		bl	_Z13adBmsReadDatahP9cell_asicPh4TYPE3GRP
 8403              	.LVL895:
1021:Core/Src/ADBMS.cpp ****   adBmsReadData(tIC, &ic[0], RDFCF, F_volt, F);
 8404              		.loc 1 1021 3 is_stmt 1 view .LVU2148
1021:Core/Src/ADBMS.cpp ****   adBmsReadData(tIC, &ic[0], RDFCF, F_volt, F);
 8405              		.loc 1 1021 16 is_stmt 0 view .LVU2149
 8406 004c 0523     		movs	r3, #5
 8407 004e 0093     		str	r3, [sp]
 8408 0050 0723     		movs	r3, #7
 8409 0052 0E4A     		ldr	r2, .L458+16
 8410 0054 2946     		mov	r1, r5
 8411 0056 2046     		mov	r0, r4
 8412 0058 FFF7FEFF 		bl	_Z13adBmsReadDatahP9cell_asicPh4TYPE3GRP
 8413              	.LVL896:
1022:Core/Src/ADBMS.cpp ****   printVoltages(tIC, &ic[0], F_volt);
 8414              		.loc 1 1022 3 is_stmt 1 view .LVU2150
1022:Core/Src/ADBMS.cpp ****   printVoltages(tIC, &ic[0], F_volt);
 8415              		.loc 1 1022 16 is_stmt 0 view .LVU2151
 8416 005c 0623     		movs	r3, #6
 8417 005e 0093     		str	r3, [sp]
 8418 0060 0723     		movs	r3, #7
 8419 0062 0B4A     		ldr	r2, .L458+20
 8420 0064 2946     		mov	r1, r5
 8421 0066 2046     		mov	r0, r4
 8422 0068 FFF7FEFF 		bl	_Z13adBmsReadDatahP9cell_asicPh4TYPE3GRP
 8423              	.LVL897:
1023:Core/Src/ADBMS.cpp **** }
 8424              		.loc 1 1023 3 is_stmt 1 view .LVU2152
1023:Core/Src/ADBMS.cpp **** }
 8425              		.loc 1 1023 16 is_stmt 0 view .LVU2153
 8426 006c 0722     		movs	r2, #7
 8427 006e 2946     		mov	r1, r5
 8428 0070 2046     		mov	r0, r4
 8429 0072 FFF7FEFF 		bl	_Z13printVoltageshP9cell_asic4TYPE
 8430              	.LVL898:
1024:Core/Src/ADBMS.cpp **** 
 8431              		.loc 1 1024 1 view .LVU2154
 8432 0076 03B0     		add	sp, sp, #12
 8433              	.LCFI84:
ARM GAS  C:\Users\huawei\AppData\Local\Temp\ccpVCJY0.s 			page 221


 8434              		.cfi_def_cfa_offset 12
 8435              		@ sp needed
 8436 0078 30BD     		pop	{r4, r5, pc}
 8437              	.LVL899:
 8438              	.L459:
1024:Core/Src/ADBMS.cpp **** 
 8439              		.loc 1 1024 1 view .LVU2155
 8440 007a 00BF     		.align	2
 8441              	.L458:
 8442 007c 00000000 		.word	RDFCA
 8443 0080 00000000 		.word	RDFCB
 8444 0084 00000000 		.word	RDFCC
 8445 0088 00000000 		.word	RDFCD
 8446 008c 00000000 		.word	RDFCE
 8447 0090 00000000 		.word	RDFCF
 8448              		.cfi_endproc
 8449              	.LFE268:
 8450              		.fnend
 8452              		.section	.text._Z27adBms6830_read_aux_voltageshP9cell_asic,"ax",%progbits
 8453              		.align	1
 8454              		.global	_Z27adBms6830_read_aux_voltageshP9cell_asic
 8455              		.syntax unified
 8456              		.thumb
 8457              		.thumb_func
 8459              	_Z27adBms6830_read_aux_voltageshP9cell_asic:
 8460              		.fnstart
 8461              	.LVL900:
 8462              	.LFB270:
1054:Core/Src/ADBMS.cpp ****   adBmsWakeupIc(tIC);
 8463              		.loc 1 1054 1 is_stmt 1 view -0
 8464              		.cfi_startproc
 8465              		@ args = 0, pretend = 0, frame = 0
 8466              		@ frame_needed = 0, uses_anonymous_args = 0
1054:Core/Src/ADBMS.cpp ****   adBmsWakeupIc(tIC);
 8467              		.loc 1 1054 1 is_stmt 0 view .LVU2157
 8468 0000 70B5     		push	{r4, r5, r6, lr}
 8469              		.save {r4, r5, r6, lr}
 8470              	.LCFI85:
 8471              		.cfi_def_cfa_offset 16
 8472              		.cfi_offset 4, -16
 8473              		.cfi_offset 5, -12
 8474              		.cfi_offset 6, -8
 8475              		.cfi_offset 14, -4
 8476              		.pad #8
 8477 0002 82B0     		sub	sp, sp, #8
 8478              	.LCFI86:
 8479              		.cfi_def_cfa_offset 24
 8480 0004 0446     		mov	r4, r0
 8481 0006 0D46     		mov	r5, r1
1055:Core/Src/ADBMS.cpp ****   adBmsReadData(tIC, &ic[0], RDAUXA, Aux, A);
 8482              		.loc 1 1055 3 is_stmt 1 view .LVU2158
1055:Core/Src/ADBMS.cpp ****   adBmsReadData(tIC, &ic[0], RDAUXA, Aux, A);
 8483              		.loc 1 1055 16 is_stmt 0 view .LVU2159
 8484 0008 FFF7FEFF 		bl	_Z13adBmsWakeupIch
 8485              	.LVL901:
1056:Core/Src/ADBMS.cpp ****   adBmsReadData(tIC, &ic[0], RDAUXB, Aux, B);
 8486              		.loc 1 1056 3 is_stmt 1 view .LVU2160
ARM GAS  C:\Users\huawei\AppData\Local\Temp\ccpVCJY0.s 			page 222


1056:Core/Src/ADBMS.cpp ****   adBmsReadData(tIC, &ic[0], RDAUXB, Aux, B);
 8487              		.loc 1 1056 16 is_stmt 0 view .LVU2161
 8488 000c 0126     		movs	r6, #1
 8489 000e 0096     		str	r6, [sp]
 8490 0010 3346     		mov	r3, r6
 8491 0012 124A     		ldr	r2, .L462
 8492 0014 2946     		mov	r1, r5
 8493 0016 2046     		mov	r0, r4
 8494 0018 FFF7FEFF 		bl	_Z13adBmsReadDatahP9cell_asicPh4TYPE3GRP
 8495              	.LVL902:
1057:Core/Src/ADBMS.cpp ****   adBmsReadData(tIC, &ic[0], RDAUXC, Aux, C);
 8496              		.loc 1 1057 3 is_stmt 1 view .LVU2162
1057:Core/Src/ADBMS.cpp ****   adBmsReadData(tIC, &ic[0], RDAUXC, Aux, C);
 8497              		.loc 1 1057 16 is_stmt 0 view .LVU2163
 8498 001c 0223     		movs	r3, #2
 8499 001e 0093     		str	r3, [sp]
 8500 0020 3346     		mov	r3, r6
 8501 0022 0F4A     		ldr	r2, .L462+4
 8502 0024 2946     		mov	r1, r5
 8503 0026 2046     		mov	r0, r4
 8504 0028 FFF7FEFF 		bl	_Z13adBmsReadDatahP9cell_asicPh4TYPE3GRP
 8505              	.LVL903:
1058:Core/Src/ADBMS.cpp ****   adBmsReadData(tIC, &ic[0], RDAUXD, Aux, D);
 8506              		.loc 1 1058 3 is_stmt 1 view .LVU2164
1058:Core/Src/ADBMS.cpp ****   adBmsReadData(tIC, &ic[0], RDAUXD, Aux, D);
 8507              		.loc 1 1058 16 is_stmt 0 view .LVU2165
 8508 002c 0323     		movs	r3, #3
 8509 002e 0093     		str	r3, [sp]
 8510 0030 3346     		mov	r3, r6
 8511 0032 0C4A     		ldr	r2, .L462+8
 8512 0034 2946     		mov	r1, r5
 8513 0036 2046     		mov	r0, r4
 8514 0038 FFF7FEFF 		bl	_Z13adBmsReadDatahP9cell_asicPh4TYPE3GRP
 8515              	.LVL904:
1059:Core/Src/ADBMS.cpp ****   printVoltages(tIC, &ic[0], Aux);
 8516              		.loc 1 1059 3 is_stmt 1 view .LVU2166
1059:Core/Src/ADBMS.cpp ****   printVoltages(tIC, &ic[0], Aux);
 8517              		.loc 1 1059 16 is_stmt 0 view .LVU2167
 8518 003c 0423     		movs	r3, #4
 8519 003e 0093     		str	r3, [sp]
 8520 0040 3346     		mov	r3, r6
 8521 0042 094A     		ldr	r2, .L462+12
 8522 0044 2946     		mov	r1, r5
 8523 0046 2046     		mov	r0, r4
 8524 0048 FFF7FEFF 		bl	_Z13adBmsReadDatahP9cell_asicPh4TYPE3GRP
 8525              	.LVL905:
1060:Core/Src/ADBMS.cpp **** }
 8526              		.loc 1 1060 3 is_stmt 1 view .LVU2168
1060:Core/Src/ADBMS.cpp **** }
 8527              		.loc 1 1060 16 is_stmt 0 view .LVU2169
 8528 004c 3246     		mov	r2, r6
 8529 004e 2946     		mov	r1, r5
 8530 0050 2046     		mov	r0, r4
 8531 0052 FFF7FEFF 		bl	_Z13printVoltageshP9cell_asic4TYPE
 8532              	.LVL906:
1061:Core/Src/ADBMS.cpp **** 
 8533              		.loc 1 1061 1 view .LVU2170
ARM GAS  C:\Users\huawei\AppData\Local\Temp\ccpVCJY0.s 			page 223


 8534 0056 02B0     		add	sp, sp, #8
 8535              	.LCFI87:
 8536              		.cfi_def_cfa_offset 16
 8537              		@ sp needed
 8538 0058 70BD     		pop	{r4, r5, r6, pc}
 8539              	.LVL907:
 8540              	.L463:
1061:Core/Src/ADBMS.cpp **** 
 8541              		.loc 1 1061 1 view .LVU2171
 8542 005a 00BF     		.align	2
 8543              	.L462:
 8544 005c 00000000 		.word	RDAUXA
 8545 0060 00000000 		.word	RDAUXB
 8546 0064 00000000 		.word	RDAUXC
 8547 0068 00000000 		.word	RDAUXD
 8548              		.cfi_endproc
 8549              	.LFE270:
 8550              		.fnend
 8552              		.section	.text._Z28adBms6830_read_raux_voltageshP9cell_asic,"ax",%progbits
 8553              		.align	1
 8554              		.global	_Z28adBms6830_read_raux_voltageshP9cell_asic
 8555              		.syntax unified
 8556              		.thumb
 8557              		.thumb_func
 8559              	_Z28adBms6830_read_raux_voltageshP9cell_asic:
 8560              		.fnstart
 8561              	.LVL908:
 8562              	.LFB272:
1091:Core/Src/ADBMS.cpp ****   adBmsWakeupIc(tIC);
 8563              		.loc 1 1091 1 is_stmt 1 view -0
 8564              		.cfi_startproc
 8565              		@ args = 0, pretend = 0, frame = 0
 8566              		@ frame_needed = 0, uses_anonymous_args = 0
1091:Core/Src/ADBMS.cpp ****   adBmsWakeupIc(tIC);
 8567              		.loc 1 1091 1 is_stmt 0 view .LVU2173
 8568 0000 70B5     		push	{r4, r5, r6, lr}
 8569              		.save {r4, r5, r6, lr}
 8570              	.LCFI88:
 8571              		.cfi_def_cfa_offset 16
 8572              		.cfi_offset 4, -16
 8573              		.cfi_offset 5, -12
 8574              		.cfi_offset 6, -8
 8575              		.cfi_offset 14, -4
 8576              		.pad #8
 8577 0002 82B0     		sub	sp, sp, #8
 8578              	.LCFI89:
 8579              		.cfi_def_cfa_offset 24
 8580 0004 0446     		mov	r4, r0
 8581 0006 0D46     		mov	r5, r1
1092:Core/Src/ADBMS.cpp ****   adBmsReadData(tIC, &ic[0], RDRAXA, RAux, A);
 8582              		.loc 1 1092 3 is_stmt 1 view .LVU2174
1092:Core/Src/ADBMS.cpp ****   adBmsReadData(tIC, &ic[0], RDRAXA, RAux, A);
 8583              		.loc 1 1092 16 is_stmt 0 view .LVU2175
 8584 0008 FFF7FEFF 		bl	_Z13adBmsWakeupIch
 8585              	.LVL909:
1093:Core/Src/ADBMS.cpp ****   adBmsReadData(tIC, &ic[0], RDRAXB, RAux, B);
 8586              		.loc 1 1093 3 is_stmt 1 view .LVU2176
ARM GAS  C:\Users\huawei\AppData\Local\Temp\ccpVCJY0.s 			page 224


1093:Core/Src/ADBMS.cpp ****   adBmsReadData(tIC, &ic[0], RDRAXB, RAux, B);
 8587              		.loc 1 1093 16 is_stmt 0 view .LVU2177
 8588 000c 0123     		movs	r3, #1
 8589 000e 0093     		str	r3, [sp]
 8590 0010 0223     		movs	r3, #2
 8591 0012 124A     		ldr	r2, .L466
 8592 0014 2946     		mov	r1, r5
 8593 0016 2046     		mov	r0, r4
 8594 0018 FFF7FEFF 		bl	_Z13adBmsReadDatahP9cell_asicPh4TYPE3GRP
 8595              	.LVL910:
1094:Core/Src/ADBMS.cpp ****   adBmsReadData(tIC, &ic[0], RDRAXC, RAux, C);
 8596              		.loc 1 1094 3 is_stmt 1 view .LVU2178
1094:Core/Src/ADBMS.cpp ****   adBmsReadData(tIC, &ic[0], RDRAXC, RAux, C);
 8597              		.loc 1 1094 16 is_stmt 0 view .LVU2179
 8598 001c 0226     		movs	r6, #2
 8599 001e 0096     		str	r6, [sp]
 8600 0020 3346     		mov	r3, r6
 8601 0022 0F4A     		ldr	r2, .L466+4
 8602 0024 2946     		mov	r1, r5
 8603 0026 2046     		mov	r0, r4
 8604 0028 FFF7FEFF 		bl	_Z13adBmsReadDatahP9cell_asicPh4TYPE3GRP
 8605              	.LVL911:
1095:Core/Src/ADBMS.cpp ****   adBmsReadData(tIC, &ic[0], RDRAXD, RAux, D);
 8606              		.loc 1 1095 3 is_stmt 1 view .LVU2180
1095:Core/Src/ADBMS.cpp ****   adBmsReadData(tIC, &ic[0], RDRAXD, RAux, D);
 8607              		.loc 1 1095 16 is_stmt 0 view .LVU2181
 8608 002c 0323     		movs	r3, #3
 8609 002e 0093     		str	r3, [sp]
 8610 0030 3346     		mov	r3, r6
 8611 0032 0C4A     		ldr	r2, .L466+8
 8612 0034 2946     		mov	r1, r5
 8613 0036 2046     		mov	r0, r4
 8614 0038 FFF7FEFF 		bl	_Z13adBmsReadDatahP9cell_asicPh4TYPE3GRP
 8615              	.LVL912:
1096:Core/Src/ADBMS.cpp ****   printVoltages(tIC, &ic[0], RAux);
 8616              		.loc 1 1096 3 is_stmt 1 view .LVU2182
1096:Core/Src/ADBMS.cpp ****   printVoltages(tIC, &ic[0], RAux);
 8617              		.loc 1 1096 16 is_stmt 0 view .LVU2183
 8618 003c 0423     		movs	r3, #4
 8619 003e 0093     		str	r3, [sp]
 8620 0040 3346     		mov	r3, r6
 8621 0042 094A     		ldr	r2, .L466+12
 8622 0044 2946     		mov	r1, r5
 8623 0046 2046     		mov	r0, r4
 8624 0048 FFF7FEFF 		bl	_Z13adBmsReadDatahP9cell_asicPh4TYPE3GRP
 8625              	.LVL913:
1097:Core/Src/ADBMS.cpp **** }
 8626              		.loc 1 1097 3 is_stmt 1 view .LVU2184
1097:Core/Src/ADBMS.cpp **** }
 8627              		.loc 1 1097 16 is_stmt 0 view .LVU2185
 8628 004c 3246     		mov	r2, r6
 8629 004e 2946     		mov	r1, r5
 8630 0050 2046     		mov	r0, r4
 8631 0052 FFF7FEFF 		bl	_Z13printVoltageshP9cell_asic4TYPE
 8632              	.LVL914:
1098:Core/Src/ADBMS.cpp **** 
 8633              		.loc 1 1098 1 view .LVU2186
ARM GAS  C:\Users\huawei\AppData\Local\Temp\ccpVCJY0.s 			page 225


 8634 0056 02B0     		add	sp, sp, #8
 8635              	.LCFI90:
 8636              		.cfi_def_cfa_offset 16
 8637              		@ sp needed
 8638 0058 70BD     		pop	{r4, r5, r6, pc}
 8639              	.LVL915:
 8640              	.L467:
1098:Core/Src/ADBMS.cpp **** 
 8641              		.loc 1 1098 1 view .LVU2187
 8642 005a 00BF     		.align	2
 8643              	.L466:
 8644 005c 00000000 		.word	RDRAXA
 8645 0060 00000000 		.word	RDRAXB
 8646 0064 00000000 		.word	RDRAXC
 8647 0068 00000000 		.word	RDRAXD
 8648              		.cfi_endproc
 8649              	.LFE272:
 8650              		.fnend
 8652              		.section	.rodata._Z11printStatushP9cell_asic4TYPE3GRP.str1.4,"aMS",%progbits,1
 8653              		.align	2
 8654              	.LC136:
 8655 0000 53746174 		.ascii	"Status A:\000"
 8655      75732041 
 8655      3A00
 8656 000a 0000     		.align	2
 8657              	.LC137:
 8658 000c 56524546 		.ascii	"VREF2:%fV, \000"
 8658      323A2566 
 8658      562C2000 
 8659              		.align	2
 8660              	.LC138:
 8661 0018 56524546 		.ascii	"VREF3:%fV, \000"
 8661      333A2566 
 8661      562C2000 
 8662              		.global	__aeabi_dsub
 8663              		.align	2
 8664              	.LC139:
 8665 0024 49544D50 		.ascii	"ITMP:%f\357\277\275C\012\000"
 8665      3A2566EF 
 8665      BFBD430A 
 8665      00
 8666 0031 000000   		.align	2
 8667              	.LC140:
 8668 0034 43436F75 		.ascii	"CCount:%d, \000"
 8668      6E743A25 
 8668      642C2000 
 8669              		.align	2
 8670              	.LC141:
 8671 0040 53746174 		.ascii	"Status B:\000"
 8671      75732042 
 8671      3A00
 8672 004a 0000     		.align	2
 8673              	.LC142:
 8674 004c 56413A25 		.ascii	"VA:%fV, \000"
 8674      66562C20 
 8674      00
 8675 0055 000000   		.align	2
ARM GAS  C:\Users\huawei\AppData\Local\Temp\ccpVCJY0.s 			page 226


 8676              	.LC143:
 8677 0058 56443A25 		.ascii	"VD:%fV, \000"
 8677      66562C20 
 8677      00
 8678 0061 000000   		.align	2
 8679              	.LC144:
 8680 0064 5652344B 		.ascii	"VR4K:%fV\012\000"
 8680      3A256656 
 8680      0A00
 8681 006e 0000     		.align	2
 8682              	.LC145:
 8683 0070 53746174 		.ascii	"Status C:\000"
 8683      75732043 
 8683      3A00
 8684 007a 0000     		.align	2
 8685              	.LC146:
 8686 007c 4353464C 		.ascii	"CSFLT:0x%X, \000"
 8686      543A3078 
 8686      25582C20 
 8686      00
 8687 0089 000000   		.align	2
 8688              	.LC147:
 8689 008c 4F545032 		.ascii	"OTP2_MED:0x%X, \000"
 8689      5F4D4544 
 8689      3A307825 
 8689      582C2000 
 8690              		.align	2
 8691              	.LC148:
 8692 009c 4F545032 		.ascii	"OTP2_ED:0x%X, \000"
 8692      5F45443A 
 8692      30782558 
 8692      2C2000
 8693 00ab 00       		.align	2
 8694              	.LC149:
 8695 00ac 4F545031 		.ascii	"OTP1_MED:0x%X \000"
 8695      5F4D4544 
 8695      3A307825 
 8695      582000
 8696 00bb 00       		.align	2
 8697              	.LC150:
 8698 00bc 4F545031 		.ascii	"OTP1_ED:0x%X, \000"
 8698      5F45443A 
 8698      30782558 
 8698      2C2000
 8699 00cb 00       		.align	2
 8700              	.LC151:
 8701 00cc 56445F55 		.ascii	"VD_UV:0x%X, \000"
 8701      563A3078 
 8701      25582C20 
 8701      00
 8702 00d9 000000   		.align	2
 8703              	.LC152:
 8704 00dc 56445F4F 		.ascii	"VD_OV:0x%X, \000"
 8704      563A3078 
 8704      25582C20 
 8704      00
 8705 00e9 000000   		.align	2
ARM GAS  C:\Users\huawei\AppData\Local\Temp\ccpVCJY0.s 			page 227


 8706              	.LC153:
 8707 00ec 56415F55 		.ascii	"VA_UV:0x%X, \000"
 8707      563A3078 
 8707      25582C20 
 8707      00
 8708 00f9 000000   		.align	2
 8709              	.LC154:
 8710 00fc 56415F4F 		.ascii	"VA_OV:0x%X\012\000"
 8710      563A3078 
 8710      25580A00 
 8711              		.align	2
 8712              	.LC155:
 8713 0108 4F534343 		.ascii	"OSCCHK:0x%X, \000"
 8713      484B3A30 
 8713      7825582C 
 8713      2000
 8714 0116 0000     		.align	2
 8715              	.LC156:
 8716 0118 544D4F44 		.ascii	"TMODCHK:0x%X, \000"
 8716      43484B3A 
 8716      30782558 
 8716      2C2000
 8717 0127 00       		.align	2
 8718              	.LC157:
 8719 0128 54485344 		.ascii	"THSD:0x%X, \000"
 8719      3A307825 
 8719      582C2000 
 8720              		.align	2
 8721              	.LC158:
 8722 0134 534C4545 		.ascii	"SLEEP:0x%X, \000"
 8722      503A3078 
 8722      25582C20 
 8722      00
 8723 0141 000000   		.align	2
 8724              	.LC159:
 8725 0144 53504946 		.ascii	"SPIFLT:0x%X, \000"
 8725      4C543A30 
 8725      7825582C 
 8725      2000
 8726 0152 0000     		.align	2
 8727              	.LC160:
 8728 0154 434F4D50 		.ascii	"COMP:0x%X, \000"
 8728      3A307825 
 8728      582C2000 
 8729              		.align	2
 8730              	.LC161:
 8731 0160 5644454C 		.ascii	"VDEL:0x%X, \000"
 8731      3A307825 
 8731      582C2000 
 8732              		.align	2
 8733              	.LC162:
 8734 016c 5644453A 		.ascii	"VDE:0x%X\012\000"
 8734      30782558 
 8734      0A00
 8735 0176 0000     		.align	2
 8736              	.LC163:
 8737 0178 53746174 		.ascii	"Status D:\000"
ARM GAS  C:\Users\huawei\AppData\Local\Temp\ccpVCJY0.s 			page 228


 8737      75732044 
 8737      3A00
 8738 0182 0000     		.align	2
 8739              	.LC164:
 8740 0184 43315556 		.ascii	"C1UV:0x%X, \000"
 8740      3A307825 
 8740      582C2000 
 8741              		.align	2
 8742              	.LC165:
 8743 0190 43325556 		.ascii	"C2UV:0x%X, \000"
 8743      3A307825 
 8743      582C2000 
 8744              		.align	2
 8745              	.LC166:
 8746 019c 43335556 		.ascii	"C3UV:0x%X, \000"
 8746      3A307825 
 8746      582C2000 
 8747              		.align	2
 8748              	.LC167:
 8749 01a8 43345556 		.ascii	"C4UV:0x%X, \000"
 8749      3A307825 
 8749      582C2000 
 8750              		.align	2
 8751              	.LC168:
 8752 01b4 43355556 		.ascii	"C5UV:0x%X, \000"
 8752      3A307825 
 8752      582C2000 
 8753              		.align	2
 8754              	.LC169:
 8755 01c0 43365556 		.ascii	"C6UV:0x%X, \000"
 8755      3A307825 
 8755      582C2000 
 8756              		.align	2
 8757              	.LC170:
 8758 01cc 43375556 		.ascii	"C7UV:0x%X, \000"
 8758      3A307825 
 8758      582C2000 
 8759              		.align	2
 8760              	.LC171:
 8761 01d8 43385556 		.ascii	"C8UV:0x%X, \000"
 8761      3A307825 
 8761      582C2000 
 8762              		.align	2
 8763              	.LC172:
 8764 01e4 43395556 		.ascii	"C9UV:0x%X, \000"
 8764      3A307825 
 8764      582C2000 
 8765              		.align	2
 8766              	.LC173:
 8767 01f0 43313055 		.ascii	"C10UV:0x%X, \000"
 8767      563A3078 
 8767      25582C20 
 8767      00
 8768 01fd 000000   		.align	2
 8769              	.LC174:
 8770 0200 43313155 		.ascii	"C11UV:0x%X, \000"
 8770      563A3078 
ARM GAS  C:\Users\huawei\AppData\Local\Temp\ccpVCJY0.s 			page 229


 8770      25582C20 
 8770      00
 8771 020d 000000   		.align	2
 8772              	.LC175:
 8773 0210 43313255 		.ascii	"C12UV:0x%X, \000"
 8773      563A3078 
 8773      25582C20 
 8773      00
 8774 021d 000000   		.align	2
 8775              	.LC176:
 8776 0220 43313355 		.ascii	"C13UV:0x%X, \000"
 8776      563A3078 
 8776      25582C20 
 8776      00
 8777 022d 000000   		.align	2
 8778              	.LC177:
 8779 0230 43313455 		.ascii	"C14UV:0x%X, \000"
 8779      563A3078 
 8779      25582C20 
 8779      00
 8780 023d 000000   		.align	2
 8781              	.LC178:
 8782 0240 43313555 		.ascii	"C15UV:0x%X, \000"
 8782      563A3078 
 8782      25582C20 
 8782      00
 8783 024d 000000   		.align	2
 8784              	.LC179:
 8785 0250 43313655 		.ascii	"C16UV:0x%X\012\000"
 8785      563A3078 
 8785      25580A00 
 8786              		.align	2
 8787              	.LC180:
 8788 025c 43314F56 		.ascii	"C1OV:0x%X, \000"
 8788      3A307825 
 8788      582C2000 
 8789              		.align	2
 8790              	.LC181:
 8791 0268 43324F56 		.ascii	"C2OV:0x%X, \000"
 8791      3A307825 
 8791      582C2000 
 8792              		.align	2
 8793              	.LC182:
 8794 0274 43334F56 		.ascii	"C3OV:0x%X, \000"
 8794      3A307825 
 8794      582C2000 
 8795              		.align	2
 8796              	.LC183:
 8797 0280 43344F56 		.ascii	"C4OV:0x%X, \000"
 8797      3A307825 
 8797      582C2000 
 8798              		.align	2
 8799              	.LC184:
 8800 028c 43354F56 		.ascii	"C5OV:0x%X, \000"
 8800      3A307825 
 8800      582C2000 
 8801              		.align	2
ARM GAS  C:\Users\huawei\AppData\Local\Temp\ccpVCJY0.s 			page 230


 8802              	.LC185:
 8803 0298 43364F56 		.ascii	"C6OV:0x%X, \000"
 8803      3A307825 
 8803      582C2000 
 8804              		.align	2
 8805              	.LC186:
 8806 02a4 43374F56 		.ascii	"C7OV:0x%X, \000"
 8806      3A307825 
 8806      582C2000 
 8807              		.align	2
 8808              	.LC187:
 8809 02b0 43384F56 		.ascii	"C8OV:0x%X, \000"
 8809      3A307825 
 8809      582C2000 
 8810              		.align	2
 8811              	.LC188:
 8812 02bc 43394F56 		.ascii	"C9OV:0x%X, \000"
 8812      3A307825 
 8812      582C2000 
 8813              		.align	2
 8814              	.LC189:
 8815 02c8 4331304F 		.ascii	"C10OV:0x%X, \000"
 8815      563A3078 
 8815      25582C20 
 8815      00
 8816 02d5 000000   		.align	2
 8817              	.LC190:
 8818 02d8 4331314F 		.ascii	"C11OV:0x%X, \000"
 8818      563A3078 
 8818      25582C20 
 8818      00
 8819 02e5 000000   		.align	2
 8820              	.LC191:
 8821 02e8 4331324F 		.ascii	"C12OV:0x%X, \000"
 8821      563A3078 
 8821      25582C20 
 8821      00
 8822 02f5 000000   		.align	2
 8823              	.LC192:
 8824 02f8 4331334F 		.ascii	"C13OV:0x%X, \000"
 8824      563A3078 
 8824      25582C20 
 8824      00
 8825 0305 000000   		.align	2
 8826              	.LC193:
 8827 0308 4331344F 		.ascii	"C14OV:0x%X, \000"
 8827      563A3078 
 8827      25582C20 
 8827      00
 8828 0315 000000   		.align	2
 8829              	.LC194:
 8830 0318 4331354F 		.ascii	"C15OV:0x%X, \000"
 8830      563A3078 
 8830      25582C20 
 8830      00
 8831 0325 000000   		.align	2
 8832              	.LC195:
ARM GAS  C:\Users\huawei\AppData\Local\Temp\ccpVCJY0.s 			page 231


 8833 0328 4331364F 		.ascii	"C16OV:0x%X\012\000"
 8833      563A3078 
 8833      25580A00 
 8834              		.align	2
 8835              	.LC196:
 8836 0334 4354533A 		.ascii	"CTS:0x%X, \000"
 8836      30782558 
 8836      2C2000
 8837 033f 00       		.align	2
 8838              	.LC197:
 8839 0340 43543A30 		.ascii	"CT:0x%X, \000"
 8839      7825582C 
 8839      2000
 8840 034a 0000     		.align	2
 8841              	.LC198:
 8842 034c 4F435F43 		.ascii	"OC_CNTR:0x%X\012\000"
 8842      4E54523A 
 8842      30782558 
 8842      0A00
 8843 035a 0000     		.align	2
 8844              	.LC199:
 8845 035c 53746174 		.ascii	"Status E:\000"
 8845      75732045 
 8845      3A00
 8846 0366 0000     		.align	2
 8847              	.LC200:
 8848 0368 4750493A 		.ascii	"GPI:0x%X, \000"
 8848      30782558 
 8848      2C2000
 8849 0373 00       		.align	2
 8850              	.LC201:
 8851 0374 5245565F 		.ascii	"REV_ID:0x%X\012\000"
 8851      49443A30 
 8851      7825580A 
 8851      00
 8852 0381 000000   		.align	2
 8853              	.LC202:
 8854 0384 49544D50 		.ascii	"ITMP:%f\357\277\275C\012\012\000"
 8854      3A2566EF 
 8854      BFBD430A 
 8854      0A00
 8855 0392 0000     		.align	2
 8856              	.LC203:
 8857 0394 5652344B 		.ascii	"VR4K:%fV\012\012\000"
 8857      3A256656 
 8857      0A0A00
 8858 039f 00       		.align	2
 8859              	.LC204:
 8860 03a0 4F545031 		.ascii	"OTP1_MED:0x%X, \000"
 8860      5F4D4544 
 8860      3A307825 
 8860      582C2000 
 8861              		.align	2
 8862              	.LC205:
 8863 03b0 5644453A 		.ascii	"VDE:0x%X\012\012\000"
 8863      30782558 
 8863      0A0A00
ARM GAS  C:\Users\huawei\AppData\Local\Temp\ccpVCJY0.s 			page 232


 8864 03bb 00       		.align	2
 8865              	.LC206:
 8866 03bc 43543A30 		.ascii	"CT:0x%X\012\012\000"
 8866      7825580A 
 8866      0A00
 8867 03c6 0000     		.align	2
 8868              	.LC207:
 8869 03c8 5245565F 		.ascii	"REV_ID:0x%X\012\012\000"
 8869      49443A30 
 8869      7825580A 
 8869      0A00
 8870              		.section	.text._Z11printStatushP9cell_asic4TYPE3GRP,"ax",%progbits
 8871              		.align	1
 8872              		.global	_Z11printStatushP9cell_asic4TYPE3GRP
 8873              		.syntax unified
 8874              		.thumb
 8875              		.thumb_func
 8877              	_Z11printStatushP9cell_asic4TYPE3GRP:
 8878              		.fnstart
 8879              	.LVL916:
 8880              	.LFB281:
1478:Core/Src/ADBMS.cpp ****   float voltage;
 8881              		.loc 1 1478 1 is_stmt 1 view -0
 8882              		.cfi_startproc
 8883              		@ args = 0, pretend = 0, frame = 0
 8884              		@ frame_needed = 0, uses_anonymous_args = 0
1478:Core/Src/ADBMS.cpp ****   float voltage;
 8885              		.loc 1 1478 1 is_stmt 0 view .LVU2189
 8886 0000 2DE9F843 		push	{r3, r4, r5, r6, r7, r8, r9, lr}
 8887              		.save {r3, r4, r5, r6, r7, r8, r9, lr}
 8888              	.LCFI91:
 8889              		.cfi_def_cfa_offset 32
 8890              		.cfi_offset 3, -32
 8891              		.cfi_offset 4, -28
 8892              		.cfi_offset 5, -24
 8893              		.cfi_offset 6, -20
 8894              		.cfi_offset 7, -16
 8895              		.cfi_offset 8, -12
 8896              		.cfi_offset 9, -8
 8897              		.cfi_offset 14, -4
 8898 0004 0646     		mov	r6, r0
 8899 0006 8946     		mov	r9, r1
 8900 0008 1746     		mov	r7, r2
 8901 000a 9846     		mov	r8, r3
1479:Core/Src/ADBMS.cpp ****   for(uint8_t ic = 0; ic < tIC; ic++)
 8902              		.loc 1 1479 3 is_stmt 1 view .LVU2190
1480:Core/Src/ADBMS.cpp ****   {
 8903              		.loc 1 1480 3 view .LVU2191
 8904              	.LVL917:
 8905              	.LBB159:
1480:Core/Src/ADBMS.cpp ****   {
 8906              		.loc 1 1480 15 is_stmt 0 view .LVU2192
 8907 000c 0024     		movs	r4, #0
1480:Core/Src/ADBMS.cpp ****   {
 8908              		.loc 1 1480 3 view .LVU2193
 8909 000e 43E0     		b	.L469
 8910              	.LVL918:
ARM GAS  C:\Users\huawei\AppData\Local\Temp\ccpVCJY0.s 			page 233


 8911              	.L477:
1487:Core/Src/ADBMS.cpp ****         voltage = getVoltage(IC[ic].stata.vref2);
 8912              		.loc 1 1487 9 is_stmt 1 view .LVU2194
1487:Core/Src/ADBMS.cpp ****         voltage = getVoltage(IC[ic].stata.vref2);
 8913              		.loc 1 1487 15 is_stmt 0 view .LVU2195
 8914 0010 9348     		ldr	r0, .L482+16
 8915 0012 FFF7FEFF 		bl	puts
 8916              	.LVL919:
1488:Core/Src/ADBMS.cpp ****         printf("VREF2:%fV, ", voltage);
 8917              		.loc 1 1488 9 is_stmt 1 view .LVU2196
1488:Core/Src/ADBMS.cpp ****         printf("VREF2:%fV, ", voltage);
 8918              		.loc 1 1488 35 is_stmt 0 view .LVU2197
 8919 0016 4FF42875 		mov	r5, #672
 8920 001a 05FB0495 		mla	r5, r5, r4, r9
1488:Core/Src/ADBMS.cpp ****         printf("VREF2:%fV, ", voltage);
 8921              		.loc 1 1488 29 view .LVU2198
 8922 001e B5F8CC00 		ldrh	r0, [r5, #204]
 8923 0022 FFF7FEFF 		bl	_Z10getVoltagei
 8924              	.LVL920:
 8925 0026 10EE100A 		vmov	r0, s0
 8926              	.LVL921:
1489:Core/Src/ADBMS.cpp ****         voltage = getVoltage(IC[ic].stata.vref3);
 8927              		.loc 1 1489 9 is_stmt 1 view .LVU2199
1489:Core/Src/ADBMS.cpp ****         voltage = getVoltage(IC[ic].stata.vref3);
 8928              		.loc 1 1489 15 is_stmt 0 view .LVU2200
 8929 002a FFF7FEFF 		bl	__aeabi_f2d
 8930              	.LVL922:
1489:Core/Src/ADBMS.cpp ****         voltage = getVoltage(IC[ic].stata.vref3);
 8931              		.loc 1 1489 15 view .LVU2201
 8932 002e 0246     		mov	r2, r0
 8933 0030 0B46     		mov	r3, r1
 8934 0032 8C48     		ldr	r0, .L482+20
 8935 0034 FFF7FEFF 		bl	printf
 8936              	.LVL923:
1490:Core/Src/ADBMS.cpp ****         printf("VREF3:%fV, ", voltage);
 8937              		.loc 1 1490 9 is_stmt 1 view .LVU2202
1490:Core/Src/ADBMS.cpp ****         printf("VREF3:%fV, ", voltage);
 8938              		.loc 1 1490 29 is_stmt 0 view .LVU2203
 8939 0038 B5F8D000 		ldrh	r0, [r5, #208]
 8940 003c FFF7FEFF 		bl	_Z10getVoltagei
 8941              	.LVL924:
 8942 0040 10EE100A 		vmov	r0, s0
 8943              	.LVL925:
1491:Core/Src/ADBMS.cpp ****         voltage = getVoltage(IC[ic].stata.itmp);
 8944              		.loc 1 1491 9 is_stmt 1 view .LVU2204
1491:Core/Src/ADBMS.cpp ****         voltage = getVoltage(IC[ic].stata.itmp);
 8945              		.loc 1 1491 15 is_stmt 0 view .LVU2205
 8946 0044 FFF7FEFF 		bl	__aeabi_f2d
 8947              	.LVL926:
1491:Core/Src/ADBMS.cpp ****         voltage = getVoltage(IC[ic].stata.itmp);
 8948              		.loc 1 1491 15 view .LVU2206
 8949 0048 0246     		mov	r2, r0
 8950 004a 0B46     		mov	r3, r1
 8951 004c 8648     		ldr	r0, .L482+24
 8952 004e FFF7FEFF 		bl	printf
 8953              	.LVL927:
1492:Core/Src/ADBMS.cpp ****         printf("ITMP:%fC\n", (voltage/0.0075)-273);
ARM GAS  C:\Users\huawei\AppData\Local\Temp\ccpVCJY0.s 			page 234


 8954              		.loc 1 1492 9 is_stmt 1 view .LVU2207
1492:Core/Src/ADBMS.cpp ****         printf("ITMP:%fC\n", (voltage/0.0075)-273);
 8955              		.loc 1 1492 29 is_stmt 0 view .LVU2208
 8956 0052 B5F8CE00 		ldrh	r0, [r5, #206]
 8957 0056 FFF7FEFF 		bl	_Z10getVoltagei
 8958              	.LVL928:
 8959 005a 10EE100A 		vmov	r0, s0
 8960              	.LVL929:
1493:Core/Src/ADBMS.cpp **** 
 8961              		.loc 1 1493 9 is_stmt 1 view .LVU2209
1493:Core/Src/ADBMS.cpp **** 
 8962              		.loc 1 1493 34 is_stmt 0 view .LVU2210
 8963 005e FFF7FEFF 		bl	__aeabi_f2d
 8964              	.LVL930:
1493:Core/Src/ADBMS.cpp **** 
 8965              		.loc 1 1493 41 view .LVU2211
 8966 0062 7BA3     		adr	r3, .L482
 8967 0064 D3E90023 		ldrd	r2, [r3]
 8968 0068 FFF7FEFF 		bl	__aeabi_ddiv
 8969              	.LVL931:
1493:Core/Src/ADBMS.cpp **** 
 8970              		.loc 1 1493 15 view .LVU2212
 8971 006c 7AA3     		adr	r3, .L482+8
 8972 006e D3E90023 		ldrd	r2, [r3]
 8973 0072 FFF7FEFF 		bl	__aeabi_dsub
 8974              	.LVL932:
 8975 0076 0246     		mov	r2, r0
 8976 0078 0B46     		mov	r3, r1
 8977 007a 7C48     		ldr	r0, .L482+28
 8978 007c FFF7FEFF 		bl	printf
 8979              	.LVL933:
1495:Core/Src/ADBMS.cpp ****         printf("PECError:%d\n\n",IC[ic].cccrc.stat_pec);
 8980              		.loc 1 1495 9 is_stmt 1 view .LVU2213
1495:Core/Src/ADBMS.cpp ****         printf("PECError:%d\n\n",IC[ic].cccrc.stat_pec);
 8981              		.loc 1 1495 15 is_stmt 0 view .LVU2214
 8982 0080 95F88F11 		ldrb	r1, [r5, #399]	@ zero_extendqisi2
 8983 0084 7A48     		ldr	r0, .L482+32
 8984 0086 FFF7FEFF 		bl	printf
 8985              	.LVL934:
1496:Core/Src/ADBMS.cpp ****       }
 8986              		.loc 1 1496 9 is_stmt 1 view .LVU2215
1496:Core/Src/ADBMS.cpp ****       }
 8987              		.loc 1 1496 15 is_stmt 0 view .LVU2216
 8988 008a 95F89711 		ldrb	r1, [r5, #407]	@ zero_extendqisi2
 8989 008e 7948     		ldr	r0, .L482+36
 8990 0090 FFF7FEFF 		bl	printf
 8991              	.LVL935:
 8992              	.L470:
1480:Core/Src/ADBMS.cpp ****   {
 8993              		.loc 1 1480 3 is_stmt 1 discriminator 2 view .LVU2217
 8994 0094 0134     		adds	r4, r4, #1
 8995              	.LVL936:
1480:Core/Src/ADBMS.cpp ****   {
 8996              		.loc 1 1480 3 is_stmt 0 discriminator 2 view .LVU2218
 8997 0096 E4B2     		uxtb	r4, r4
 8998              	.LVL937:
 8999              	.L469:
ARM GAS  C:\Users\huawei\AppData\Local\Temp\ccpVCJY0.s 			page 235


1480:Core/Src/ADBMS.cpp ****   {
 9000              		.loc 1 1480 26 is_stmt 1 discriminator 1 view .LVU2219
 9001 0098 B442     		cmp	r4, r6
 9002 009a 80F0F983 		bcs	.L481
1482:Core/Src/ADBMS.cpp ****     if(type == Status)
 9003              		.loc 1 1482 5 view .LVU2220
1482:Core/Src/ADBMS.cpp ****     if(type == Status)
 9004              		.loc 1 1482 11 is_stmt 0 view .LVU2221
 9005 009e 611C     		adds	r1, r4, #1
 9006 00a0 7548     		ldr	r0, .L482+40
 9007 00a2 FFF7FEFF 		bl	printf
 9008              	.LVL938:
1483:Core/Src/ADBMS.cpp ****     {
 9009              		.loc 1 1483 5 is_stmt 1 view .LVU2222
 9010 00a6 032F     		cmp	r7, #3
 9011 00a8 F4D1     		bne	.L470
1485:Core/Src/ADBMS.cpp ****       {
 9012              		.loc 1 1485 7 view .LVU2223
 9013 00aa B8F1050F 		cmp	r8, #5
 9014 00ae 00F2EB83 		bhi	.L471
 9015 00b2 01A3     		adr	r3, .L473
 9016 00b4 53F828F0 		ldr	pc, [r3, r8, lsl #2]
 9017              		.p2align 2
 9018              	.L473:
 9019 00b8 41050000 		.word	.L478+1
 9020 00bc 11000000 		.word	.L477+1
 9021 00c0 D1000000 		.word	.L476+1
 9022 00c4 43010000 		.word	.L475+1
 9023 00c8 D5020000 		.word	.L474+1
 9024 00cc 5D040000 		.word	.L472+1
 9025              		.p2align 1
 9026              	.L476:
1500:Core/Src/ADBMS.cpp ****         voltage = getVoltage(IC[ic].statb.va);
 9027              		.loc 1 1500 9 view .LVU2224
1500:Core/Src/ADBMS.cpp ****         voltage = getVoltage(IC[ic].statb.va);
 9028              		.loc 1 1500 15 is_stmt 0 view .LVU2225
 9029 00d0 6A48     		ldr	r0, .L482+44
 9030 00d2 FFF7FEFF 		bl	puts
 9031              	.LVL939:
1501:Core/Src/ADBMS.cpp ****         printf("VA:%fV, ", voltage);
 9032              		.loc 1 1501 9 is_stmt 1 view .LVU2226
1501:Core/Src/ADBMS.cpp ****         printf("VA:%fV, ", voltage);
 9033              		.loc 1 1501 35 is_stmt 0 view .LVU2227
 9034 00d6 4FF42875 		mov	r5, #672
 9035 00da 05FB0495 		mla	r5, r5, r4, r9
1501:Core/Src/ADBMS.cpp ****         printf("VA:%fV, ", voltage);
 9036              		.loc 1 1501 29 view .LVU2228
 9037 00de B5F8D400 		ldrh	r0, [r5, #212]
 9038 00e2 FFF7FEFF 		bl	_Z10getVoltagei
 9039              	.LVL940:
 9040 00e6 10EE100A 		vmov	r0, s0
 9041              	.LVL941:
1502:Core/Src/ADBMS.cpp ****         voltage = getVoltage(IC[ic].statb.vd);
 9042              		.loc 1 1502 9 is_stmt 1 view .LVU2229
1502:Core/Src/ADBMS.cpp ****         voltage = getVoltage(IC[ic].statb.vd);
 9043              		.loc 1 1502 15 is_stmt 0 view .LVU2230
 9044 00ea FFF7FEFF 		bl	__aeabi_f2d
ARM GAS  C:\Users\huawei\AppData\Local\Temp\ccpVCJY0.s 			page 236


 9045              	.LVL942:
1502:Core/Src/ADBMS.cpp ****         voltage = getVoltage(IC[ic].statb.vd);
 9046              		.loc 1 1502 15 view .LVU2231
 9047 00ee 0246     		mov	r2, r0
 9048 00f0 0B46     		mov	r3, r1
 9049 00f2 6348     		ldr	r0, .L482+48
 9050 00f4 FFF7FEFF 		bl	printf
 9051              	.LVL943:
1503:Core/Src/ADBMS.cpp ****         printf("VD:%fV, ", voltage);
 9052              		.loc 1 1503 9 is_stmt 1 view .LVU2232
1503:Core/Src/ADBMS.cpp ****         printf("VD:%fV, ", voltage);
 9053              		.loc 1 1503 29 is_stmt 0 view .LVU2233
 9054 00f8 B5F8D200 		ldrh	r0, [r5, #210]
 9055 00fc FFF7FEFF 		bl	_Z10getVoltagei
 9056              	.LVL944:
 9057 0100 10EE100A 		vmov	r0, s0
 9058              	.LVL945:
1504:Core/Src/ADBMS.cpp ****         voltage = getVoltage(IC[ic].statb.vr4k);
 9059              		.loc 1 1504 9 is_stmt 1 view .LVU2234
1504:Core/Src/ADBMS.cpp ****         voltage = getVoltage(IC[ic].statb.vr4k);
 9060              		.loc 1 1504 15 is_stmt 0 view .LVU2235
 9061 0104 FFF7FEFF 		bl	__aeabi_f2d
 9062              	.LVL946:
1504:Core/Src/ADBMS.cpp ****         voltage = getVoltage(IC[ic].statb.vr4k);
 9063              		.loc 1 1504 15 view .LVU2236
 9064 0108 0246     		mov	r2, r0
 9065 010a 0B46     		mov	r3, r1
 9066 010c 5D48     		ldr	r0, .L482+52
 9067 010e FFF7FEFF 		bl	printf
 9068              	.LVL947:
1505:Core/Src/ADBMS.cpp ****         printf("VR4K:%fV\n", voltage);
 9069              		.loc 1 1505 9 is_stmt 1 view .LVU2237
1505:Core/Src/ADBMS.cpp ****         printf("VR4K:%fV\n", voltage);
 9070              		.loc 1 1505 29 is_stmt 0 view .LVU2238
 9071 0112 B5F8D600 		ldrh	r0, [r5, #214]
 9072 0116 FFF7FEFF 		bl	_Z10getVoltagei
 9073              	.LVL948:
 9074 011a 10EE100A 		vmov	r0, s0
 9075              	.LVL949:
1506:Core/Src/ADBMS.cpp **** 
 9076              		.loc 1 1506 9 is_stmt 1 view .LVU2239
1506:Core/Src/ADBMS.cpp **** 
 9077              		.loc 1 1506 15 is_stmt 0 view .LVU2240
 9078 011e FFF7FEFF 		bl	__aeabi_f2d
 9079              	.LVL950:
1506:Core/Src/ADBMS.cpp **** 
 9080              		.loc 1 1506 15 view .LVU2241
 9081 0122 0246     		mov	r2, r0
 9082 0124 0B46     		mov	r3, r1
 9083 0126 5848     		ldr	r0, .L482+56
 9084 0128 FFF7FEFF 		bl	printf
 9085              	.LVL951:
1508:Core/Src/ADBMS.cpp ****         printf("PECError:%d\n\n",IC[ic].cccrc.stat_pec);
 9086              		.loc 1 1508 9 is_stmt 1 view .LVU2242
1508:Core/Src/ADBMS.cpp ****         printf("PECError:%d\n\n",IC[ic].cccrc.stat_pec);
 9087              		.loc 1 1508 15 is_stmt 0 view .LVU2243
 9088 012c 95F88F11 		ldrb	r1, [r5, #399]	@ zero_extendqisi2
ARM GAS  C:\Users\huawei\AppData\Local\Temp\ccpVCJY0.s 			page 237


 9089 0130 4F48     		ldr	r0, .L482+32
 9090 0132 FFF7FEFF 		bl	printf
 9091              	.LVL952:
1509:Core/Src/ADBMS.cpp ****       }
 9092              		.loc 1 1509 9 is_stmt 1 view .LVU2244
1509:Core/Src/ADBMS.cpp ****       }
 9093              		.loc 1 1509 15 is_stmt 0 view .LVU2245
 9094 0136 95F89711 		ldrb	r1, [r5, #407]	@ zero_extendqisi2
 9095 013a 4E48     		ldr	r0, .L482+36
 9096 013c FFF7FEFF 		bl	printf
 9097              	.LVL953:
 9098 0140 A8E7     		b	.L470
 9099              	.LVL954:
 9100              	.L475:
1513:Core/Src/ADBMS.cpp ****         printf("CSFLT:0x%X, ", IC[ic].statc.cs_flt);
 9101              		.loc 1 1513 9 is_stmt 1 view .LVU2246
1513:Core/Src/ADBMS.cpp ****         printf("CSFLT:0x%X, ", IC[ic].statc.cs_flt);
 9102              		.loc 1 1513 15 is_stmt 0 view .LVU2247
 9103 0142 5248     		ldr	r0, .L482+60
 9104 0144 FFF7FEFF 		bl	puts
 9105              	.LVL955:
1514:Core/Src/ADBMS.cpp **** 
 9106              		.loc 1 1514 9 is_stmt 1 view .LVU2248
1514:Core/Src/ADBMS.cpp **** 
 9107              		.loc 1 1514 37 is_stmt 0 view .LVU2249
 9108 0148 4FF42875 		mov	r5, #672
 9109 014c 05FB0495 		mla	r5, r5, r4, r9
1514:Core/Src/ADBMS.cpp **** 
 9110              		.loc 1 1514 15 view .LVU2250
 9111 0150 B5F8D810 		ldrh	r1, [r5, #216]
 9112 0154 4E48     		ldr	r0, .L482+64
 9113 0156 FFF7FEFF 		bl	printf
 9114              	.LVL956:
1516:Core/Src/ADBMS.cpp ****         printf("OTP2_ED:0x%X, ", IC[ic].statc.otp2_ed);
 9115              		.loc 1 1516 9 is_stmt 1 view .LVU2251
1516:Core/Src/ADBMS.cpp ****         printf("OTP2_ED:0x%X, ", IC[ic].statc.otp2_ed);
 9116              		.loc 1 1516 48 is_stmt 0 view .LVU2252
 9117 015a 95F8DA10 		ldrb	r1, [r5, #218]	@ zero_extendqisi2
1516:Core/Src/ADBMS.cpp ****         printf("OTP2_ED:0x%X, ", IC[ic].statc.otp2_ed);
 9118              		.loc 1 1516 15 view .LVU2253
 9119 015e C909     		lsrs	r1, r1, #7
 9120 0160 4C48     		ldr	r0, .L482+68
 9121 0162 FFF7FEFF 		bl	printf
 9122              	.LVL957:
1517:Core/Src/ADBMS.cpp ****         printf("OTP1_MED:0x%X ", IC[ic].statc.otp1_med);
 9123              		.loc 1 1517 9 is_stmt 1 view .LVU2254
1517:Core/Src/ADBMS.cpp ****         printf("OTP1_MED:0x%X ", IC[ic].statc.otp1_med);
 9124              		.loc 1 1517 47 is_stmt 0 view .LVU2255
 9125 0166 95F8DA10 		ldrb	r1, [r5, #218]	@ zero_extendqisi2
1517:Core/Src/ADBMS.cpp ****         printf("OTP1_MED:0x%X ", IC[ic].statc.otp1_med);
 9126              		.loc 1 1517 15 view .LVU2256
 9127 016a C1F38011 		ubfx	r1, r1, #6, #1
 9128 016e 4A48     		ldr	r0, .L482+72
 9129 0170 FFF7FEFF 		bl	printf
 9130              	.LVL958:
1518:Core/Src/ADBMS.cpp ****         printf("OTP1_ED:0x%X, ", IC[ic].statc.otp1_ed);
 9131              		.loc 1 1518 9 is_stmt 1 view .LVU2257
ARM GAS  C:\Users\huawei\AppData\Local\Temp\ccpVCJY0.s 			page 238


1518:Core/Src/ADBMS.cpp ****         printf("OTP1_ED:0x%X, ", IC[ic].statc.otp1_ed);
 9132              		.loc 1 1518 47 is_stmt 0 view .LVU2258
 9133 0174 95F8DA10 		ldrb	r1, [r5, #218]	@ zero_extendqisi2
1518:Core/Src/ADBMS.cpp ****         printf("OTP1_ED:0x%X, ", IC[ic].statc.otp1_ed);
 9134              		.loc 1 1518 15 view .LVU2259
 9135 0178 C1F34011 		ubfx	r1, r1, #5, #1
 9136 017c 4748     		ldr	r0, .L482+76
 9137 017e FFF7FEFF 		bl	printf
 9138              	.LVL959:
1519:Core/Src/ADBMS.cpp ****         printf("VD_UV:0x%X, ", IC[ic].statc.vd_uv);
 9139              		.loc 1 1519 9 is_stmt 1 view .LVU2260
1519:Core/Src/ADBMS.cpp ****         printf("VD_UV:0x%X, ", IC[ic].statc.vd_uv);
 9140              		.loc 1 1519 47 is_stmt 0 view .LVU2261
 9141 0182 95F8DA10 		ldrb	r1, [r5, #218]	@ zero_extendqisi2
1519:Core/Src/ADBMS.cpp ****         printf("VD_UV:0x%X, ", IC[ic].statc.vd_uv);
 9142              		.loc 1 1519 15 view .LVU2262
 9143 0186 C1F30011 		ubfx	r1, r1, #4, #1
 9144 018a 4548     		ldr	r0, .L482+80
 9145 018c FFF7FEFF 		bl	printf
 9146              	.LVL960:
1520:Core/Src/ADBMS.cpp ****         printf("VD_OV:0x%X, ", IC[ic].statc.vd_ov);
 9147              		.loc 1 1520 9 is_stmt 1 view .LVU2263
1520:Core/Src/ADBMS.cpp ****         printf("VD_OV:0x%X, ", IC[ic].statc.vd_ov);
 9148              		.loc 1 1520 45 is_stmt 0 view .LVU2264
 9149 0190 95F8DA10 		ldrb	r1, [r5, #218]	@ zero_extendqisi2
1520:Core/Src/ADBMS.cpp ****         printf("VD_OV:0x%X, ", IC[ic].statc.vd_ov);
 9150              		.loc 1 1520 15 view .LVU2265
 9151 0194 C1F3C001 		ubfx	r1, r1, #3, #1
 9152 0198 4248     		ldr	r0, .L482+84
 9153 019a FFF7FEFF 		bl	printf
 9154              	.LVL961:
1521:Core/Src/ADBMS.cpp ****         printf("VA_UV:0x%X, ", IC[ic].statc.va_uv);
 9155              		.loc 1 1521 9 is_stmt 1 view .LVU2266
1521:Core/Src/ADBMS.cpp ****         printf("VA_UV:0x%X, ", IC[ic].statc.va_uv);
 9156              		.loc 1 1521 45 is_stmt 0 view .LVU2267
 9157 019e 95F8DA10 		ldrb	r1, [r5, #218]	@ zero_extendqisi2
1521:Core/Src/ADBMS.cpp ****         printf("VA_UV:0x%X, ", IC[ic].statc.va_uv);
 9158              		.loc 1 1521 15 view .LVU2268
 9159 01a2 C1F38001 		ubfx	r1, r1, #2, #1
 9160 01a6 4048     		ldr	r0, .L482+88
 9161 01a8 FFF7FEFF 		bl	printf
 9162              	.LVL962:
1522:Core/Src/ADBMS.cpp ****         printf("VA_OV:0x%X\n", IC[ic].statc.va_ov);
 9163              		.loc 1 1522 9 is_stmt 1 view .LVU2269
1522:Core/Src/ADBMS.cpp ****         printf("VA_OV:0x%X\n", IC[ic].statc.va_ov);
 9164              		.loc 1 1522 45 is_stmt 0 view .LVU2270
 9165 01ac 95F8DA10 		ldrb	r1, [r5, #218]	@ zero_extendqisi2
1522:Core/Src/ADBMS.cpp ****         printf("VA_OV:0x%X\n", IC[ic].statc.va_ov);
 9166              		.loc 1 1522 15 view .LVU2271
 9167 01b0 C1F34001 		ubfx	r1, r1, #1, #1
 9168 01b4 3D48     		ldr	r0, .L482+92
 9169 01b6 FFF7FEFF 		bl	printf
 9170              	.LVL963:
1523:Core/Src/ADBMS.cpp **** 
 9171              		.loc 1 1523 9 is_stmt 1 view .LVU2272
1523:Core/Src/ADBMS.cpp **** 
 9172              		.loc 1 1523 45 is_stmt 0 view .LVU2273
ARM GAS  C:\Users\huawei\AppData\Local\Temp\ccpVCJY0.s 			page 239


 9173 01ba 95F8DA10 		ldrb	r1, [r5, #218]	@ zero_extendqisi2
1523:Core/Src/ADBMS.cpp **** 
 9174              		.loc 1 1523 15 view .LVU2274
 9175 01be 01F00101 		and	r1, r1, #1
 9176 01c2 3B48     		ldr	r0, .L482+96
 9177 01c4 FFF7FEFF 		bl	printf
 9178              	.LVL964:
1525:Core/Src/ADBMS.cpp ****         printf("TMODCHK:0x%X, ", IC[ic].statc.tmodchk);
 9179              		.loc 1 1525 9 is_stmt 1 view .LVU2275
1525:Core/Src/ADBMS.cpp ****         printf("TMODCHK:0x%X, ", IC[ic].statc.tmodchk);
 9180              		.loc 1 1525 46 is_stmt 0 view .LVU2276
 9181 01c8 95F8DB10 		ldrb	r1, [r5, #219]	@ zero_extendqisi2
1525:Core/Src/ADBMS.cpp ****         printf("TMODCHK:0x%X, ", IC[ic].statc.tmodchk);
 9182              		.loc 1 1525 15 view .LVU2277
 9183 01cc C909     		lsrs	r1, r1, #7
 9184 01ce 3948     		ldr	r0, .L482+100
 9185 01d0 FFF7FEFF 		bl	printf
 9186              	.LVL965:
1526:Core/Src/ADBMS.cpp ****         printf("THSD:0x%X, ", IC[ic].statc.thsd);
 9187              		.loc 1 1526 9 is_stmt 1 view .LVU2278
1526:Core/Src/ADBMS.cpp ****         printf("THSD:0x%X, ", IC[ic].statc.thsd);
 9188              		.loc 1 1526 47 is_stmt 0 view .LVU2279
 9189 01d4 95F8DB10 		ldrb	r1, [r5, #219]	@ zero_extendqisi2
1526:Core/Src/ADBMS.cpp ****         printf("THSD:0x%X, ", IC[ic].statc.thsd);
 9190              		.loc 1 1526 15 view .LVU2280
 9191 01d8 C1F38011 		ubfx	r1, r1, #6, #1
 9192 01dc 3648     		ldr	r0, .L482+104
 9193 01de FFF7FEFF 		bl	printf
 9194              	.LVL966:
1527:Core/Src/ADBMS.cpp ****         printf("SLEEP:0x%X, ", IC[ic].statc.sleep);
 9195              		.loc 1 1527 9 is_stmt 1 view .LVU2281
1527:Core/Src/ADBMS.cpp ****         printf("SLEEP:0x%X, ", IC[ic].statc.sleep);
 9196              		.loc 1 1527 44 is_stmt 0 view .LVU2282
 9197 01e2 95F8DB10 		ldrb	r1, [r5, #219]	@ zero_extendqisi2
1527:Core/Src/ADBMS.cpp ****         printf("SLEEP:0x%X, ", IC[ic].statc.sleep);
 9198              		.loc 1 1527 15 view .LVU2283
 9199 01e6 C1F34011 		ubfx	r1, r1, #5, #1
 9200 01ea 3448     		ldr	r0, .L482+108
 9201 01ec FFF7FEFF 		bl	printf
 9202              	.LVL967:
1528:Core/Src/ADBMS.cpp ****         printf("SPIFLT:0x%X, ", IC[ic].statc.spiflt);
 9203              		.loc 1 1528 9 is_stmt 1 view .LVU2284
1528:Core/Src/ADBMS.cpp ****         printf("SPIFLT:0x%X, ", IC[ic].statc.spiflt);
 9204              		.loc 1 1528 45 is_stmt 0 view .LVU2285
 9205 01f0 95F8DB10 		ldrb	r1, [r5, #219]	@ zero_extendqisi2
1528:Core/Src/ADBMS.cpp ****         printf("SPIFLT:0x%X, ", IC[ic].statc.spiflt);
 9206              		.loc 1 1528 15 view .LVU2286
 9207 01f4 C1F30011 		ubfx	r1, r1, #4, #1
 9208 01f8 3148     		ldr	r0, .L482+112
 9209 01fa FFF7FEFF 		bl	printf
 9210              	.LVL968:
1529:Core/Src/ADBMS.cpp ****         printf("COMP:0x%X, ", IC[ic].statc.comp);
 9211              		.loc 1 1529 9 is_stmt 1 view .LVU2287
1529:Core/Src/ADBMS.cpp ****         printf("COMP:0x%X, ", IC[ic].statc.comp);
 9212              		.loc 1 1529 46 is_stmt 0 view .LVU2288
 9213 01fe 95F8DB10 		ldrb	r1, [r5, #219]	@ zero_extendqisi2
1529:Core/Src/ADBMS.cpp ****         printf("COMP:0x%X, ", IC[ic].statc.comp);
ARM GAS  C:\Users\huawei\AppData\Local\Temp\ccpVCJY0.s 			page 240


 9214              		.loc 1 1529 15 view .LVU2289
 9215 0202 C1F3C001 		ubfx	r1, r1, #3, #1
 9216 0206 2F48     		ldr	r0, .L482+116
 9217 0208 FFF7FEFF 		bl	printf
 9218              	.LVL969:
1530:Core/Src/ADBMS.cpp ****         printf("VDEL:0x%X, ", IC[ic].statc.vdel);
 9219              		.loc 1 1530 9 is_stmt 1 view .LVU2290
1530:Core/Src/ADBMS.cpp ****         printf("VDEL:0x%X, ", IC[ic].statc.vdel);
 9220              		.loc 1 1530 44 is_stmt 0 view .LVU2291
 9221 020c 95F8DB10 		ldrb	r1, [r5, #219]	@ zero_extendqisi2
1530:Core/Src/ADBMS.cpp ****         printf("VDEL:0x%X, ", IC[ic].statc.vdel);
 9222              		.loc 1 1530 15 view .LVU2292
 9223 0210 C1F38001 		ubfx	r1, r1, #2, #1
 9224 0214 2C48     		ldr	r0, .L482+120
 9225 0216 FFF7FEFF 		bl	printf
 9226              	.LVL970:
1531:Core/Src/ADBMS.cpp ****         printf("VDE:0x%X\n", IC[ic].statc.vde);
 9227              		.loc 1 1531 9 is_stmt 1 view .LVU2293
1531:Core/Src/ADBMS.cpp ****         printf("VDE:0x%X\n", IC[ic].statc.vde);
 9228              		.loc 1 1531 44 is_stmt 0 view .LVU2294
 9229 021a 95F8DB10 		ldrb	r1, [r5, #219]	@ zero_extendqisi2
1531:Core/Src/ADBMS.cpp ****         printf("VDE:0x%X\n", IC[ic].statc.vde);
 9230              		.loc 1 1531 15 view .LVU2295
 9231 021e C1F34001 		ubfx	r1, r1, #1, #1
 9232 0222 2A48     		ldr	r0, .L482+124
 9233 0224 FFF7FEFF 		bl	printf
 9234              	.LVL971:
1532:Core/Src/ADBMS.cpp **** 
 9235              		.loc 1 1532 9 is_stmt 1 view .LVU2296
1532:Core/Src/ADBMS.cpp **** 
 9236              		.loc 1 1532 43 is_stmt 0 view .LVU2297
 9237 0228 95F8DB10 		ldrb	r1, [r5, #219]	@ zero_extendqisi2
1532:Core/Src/ADBMS.cpp **** 
 9238              		.loc 1 1532 15 view .LVU2298
 9239 022c 01F00101 		and	r1, r1, #1
 9240 0230 2748     		ldr	r0, .L482+128
 9241 0232 FFF7FEFF 		bl	printf
 9242              	.LVL972:
1534:Core/Src/ADBMS.cpp ****         printf("PECError:%d\n\n", IC[ic].cccrc.stat_pec);
 9243              		.loc 1 1534 9 is_stmt 1 view .LVU2299
1534:Core/Src/ADBMS.cpp ****         printf("PECError:%d\n\n", IC[ic].cccrc.stat_pec);
 9244              		.loc 1 1534 15 is_stmt 0 view .LVU2300
 9245 0236 95F88F11 		ldrb	r1, [r5, #399]	@ zero_extendqisi2
 9246 023a 0D48     		ldr	r0, .L482+32
 9247 023c FFF7FEFF 		bl	printf
 9248              	.LVL973:
1535:Core/Src/ADBMS.cpp ****       }
 9249              		.loc 1 1535 9 is_stmt 1 view .LVU2301
1535:Core/Src/ADBMS.cpp ****       }
 9250              		.loc 1 1535 15 is_stmt 0 view .LVU2302
 9251 0240 95F89711 		ldrb	r1, [r5, #407]	@ zero_extendqisi2
 9252 0244 0B48     		ldr	r0, .L482+36
 9253 0246 FFF7FEFF 		bl	printf
 9254              	.LVL974:
 9255 024a 23E7     		b	.L470
 9256              	.L483:
 9257 024c AFF30080 		.align	3
ARM GAS  C:\Users\huawei\AppData\Local\Temp\ccpVCJY0.s 			page 241


 9258              	.L482:
 9259 0250 B81E85EB 		.word	-343597384
 9260 0254 51B87E3F 		.word	1065269329
 9261 0258 00000000 		.word	0
 9262 025c 00107140 		.word	1081151488
 9263 0260 00000000 		.word	.LC136
 9264 0264 0C000000 		.word	.LC137
 9265 0268 18000000 		.word	.LC138
 9266 026c 24000000 		.word	.LC139
 9267 0270 34000000 		.word	.LC140
 9268 0274 48010000 		.word	.LC35
 9269 0278 00000000 		.word	.LC9
 9270 027c 40000000 		.word	.LC141
 9271 0280 4C000000 		.word	.LC142
 9272 0284 58000000 		.word	.LC143
 9273 0288 64000000 		.word	.LC144
 9274 028c 70000000 		.word	.LC145
 9275 0290 7C000000 		.word	.LC146
 9276 0294 8C000000 		.word	.LC147
 9277 0298 9C000000 		.word	.LC148
 9278 029c AC000000 		.word	.LC149
 9279 02a0 BC000000 		.word	.LC150
 9280 02a4 CC000000 		.word	.LC151
 9281 02a8 DC000000 		.word	.LC152
 9282 02ac EC000000 		.word	.LC153
 9283 02b0 FC000000 		.word	.LC154
 9284 02b4 08010000 		.word	.LC155
 9285 02b8 18010000 		.word	.LC156
 9286 02bc 28010000 		.word	.LC157
 9287 02c0 34010000 		.word	.LC158
 9288 02c4 44010000 		.word	.LC159
 9289 02c8 54010000 		.word	.LC160
 9290 02cc 60010000 		.word	.LC161
 9291 02d0 6C010000 		.word	.LC162
 9292              	.L474:
1539:Core/Src/ADBMS.cpp ****         printf("C1UV:0x%X, ", IC[ic].statd.c_uv[0]);
 9293              		.loc 1 1539 9 is_stmt 1 view .LVU2303
1539:Core/Src/ADBMS.cpp ****         printf("C1UV:0x%X, ", IC[ic].statd.c_uv[0]);
 9294              		.loc 1 1539 15 is_stmt 0 view .LVU2304
 9295 02d4 7148     		ldr	r0, .L484
 9296 02d6 FFF7FEFF 		bl	puts
 9297              	.LVL975:
1540:Core/Src/ADBMS.cpp ****         printf("C2UV:0x%X, ", IC[ic].statd.c_uv[1]);
 9298              		.loc 1 1540 9 is_stmt 1 view .LVU2305
1540:Core/Src/ADBMS.cpp ****         printf("C2UV:0x%X, ", IC[ic].statd.c_uv[1]);
 9299              		.loc 1 1540 36 is_stmt 0 view .LVU2306
 9300 02da 4FF42875 		mov	r5, #672
 9301 02de 05FB0495 		mla	r5, r5, r4, r9
1540:Core/Src/ADBMS.cpp ****         printf("C2UV:0x%X, ", IC[ic].statd.c_uv[1]);
 9302              		.loc 1 1540 15 view .LVU2307
 9303 02e2 95F8EC10 		ldrb	r1, [r5, #236]	@ zero_extendqisi2
 9304 02e6 6E48     		ldr	r0, .L484+4
 9305 02e8 FFF7FEFF 		bl	printf
 9306              	.LVL976:
1541:Core/Src/ADBMS.cpp ****         printf("C3UV:0x%X, ", IC[ic].statd.c_uv[2]);
 9307              		.loc 1 1541 9 is_stmt 1 view .LVU2308
1541:Core/Src/ADBMS.cpp ****         printf("C3UV:0x%X, ", IC[ic].statd.c_uv[2]);
ARM GAS  C:\Users\huawei\AppData\Local\Temp\ccpVCJY0.s 			page 242


 9308              		.loc 1 1541 15 is_stmt 0 view .LVU2309
 9309 02ec 95F8ED10 		ldrb	r1, [r5, #237]	@ zero_extendqisi2
 9310 02f0 6C48     		ldr	r0, .L484+8
 9311 02f2 FFF7FEFF 		bl	printf
 9312              	.LVL977:
1542:Core/Src/ADBMS.cpp ****         printf("C4UV:0x%X, ", IC[ic].statd.c_uv[3]);
 9313              		.loc 1 1542 9 is_stmt 1 view .LVU2310
1542:Core/Src/ADBMS.cpp ****         printf("C4UV:0x%X, ", IC[ic].statd.c_uv[3]);
 9314              		.loc 1 1542 15 is_stmt 0 view .LVU2311
 9315 02f6 95F8EE10 		ldrb	r1, [r5, #238]	@ zero_extendqisi2
 9316 02fa 6B48     		ldr	r0, .L484+12
 9317 02fc FFF7FEFF 		bl	printf
 9318              	.LVL978:
1543:Core/Src/ADBMS.cpp ****         printf("C5UV:0x%X, ", IC[ic].statd.c_uv[4]);
 9319              		.loc 1 1543 9 is_stmt 1 view .LVU2312
1543:Core/Src/ADBMS.cpp ****         printf("C5UV:0x%X, ", IC[ic].statd.c_uv[4]);
 9320              		.loc 1 1543 15 is_stmt 0 view .LVU2313
 9321 0300 95F8EF10 		ldrb	r1, [r5, #239]	@ zero_extendqisi2
 9322 0304 6948     		ldr	r0, .L484+16
 9323 0306 FFF7FEFF 		bl	printf
 9324              	.LVL979:
1544:Core/Src/ADBMS.cpp ****         printf("C6UV:0x%X, ", IC[ic].statd.c_uv[5]);
 9325              		.loc 1 1544 9 is_stmt 1 view .LVU2314
1544:Core/Src/ADBMS.cpp ****         printf("C6UV:0x%X, ", IC[ic].statd.c_uv[5]);
 9326              		.loc 1 1544 15 is_stmt 0 view .LVU2315
 9327 030a 95F8F010 		ldrb	r1, [r5, #240]	@ zero_extendqisi2
 9328 030e 6848     		ldr	r0, .L484+20
 9329 0310 FFF7FEFF 		bl	printf
 9330              	.LVL980:
1545:Core/Src/ADBMS.cpp ****         printf("C7UV:0x%X, ", IC[ic].statd.c_uv[6]);
 9331              		.loc 1 1545 9 is_stmt 1 view .LVU2316
1545:Core/Src/ADBMS.cpp ****         printf("C7UV:0x%X, ", IC[ic].statd.c_uv[6]);
 9332              		.loc 1 1545 15 is_stmt 0 view .LVU2317
 9333 0314 95F8F110 		ldrb	r1, [r5, #241]	@ zero_extendqisi2
 9334 0318 6648     		ldr	r0, .L484+24
 9335 031a FFF7FEFF 		bl	printf
 9336              	.LVL981:
1546:Core/Src/ADBMS.cpp ****         printf("C8UV:0x%X, ", IC[ic].statd.c_uv[7]);
 9337              		.loc 1 1546 9 is_stmt 1 view .LVU2318
1546:Core/Src/ADBMS.cpp ****         printf("C8UV:0x%X, ", IC[ic].statd.c_uv[7]);
 9338              		.loc 1 1546 15 is_stmt 0 view .LVU2319
 9339 031e 95F8F210 		ldrb	r1, [r5, #242]	@ zero_extendqisi2
 9340 0322 6548     		ldr	r0, .L484+28
 9341 0324 FFF7FEFF 		bl	printf
 9342              	.LVL982:
1547:Core/Src/ADBMS.cpp ****         printf("C9UV:0x%X, ", IC[ic].statd.c_uv[8]);
 9343              		.loc 1 1547 9 is_stmt 1 view .LVU2320
1547:Core/Src/ADBMS.cpp ****         printf("C9UV:0x%X, ", IC[ic].statd.c_uv[8]);
 9344              		.loc 1 1547 15 is_stmt 0 view .LVU2321
 9345 0328 95F8F310 		ldrb	r1, [r5, #243]	@ zero_extendqisi2
 9346 032c 6348     		ldr	r0, .L484+32
 9347 032e FFF7FEFF 		bl	printf
 9348              	.LVL983:
1548:Core/Src/ADBMS.cpp ****         printf("C10UV:0x%X, ", IC[ic].statd.c_uv[9]);
 9349              		.loc 1 1548 9 is_stmt 1 view .LVU2322
1548:Core/Src/ADBMS.cpp ****         printf("C10UV:0x%X, ", IC[ic].statd.c_uv[9]);
 9350              		.loc 1 1548 15 is_stmt 0 view .LVU2323
ARM GAS  C:\Users\huawei\AppData\Local\Temp\ccpVCJY0.s 			page 243


 9351 0332 95F8F410 		ldrb	r1, [r5, #244]	@ zero_extendqisi2
 9352 0336 6248     		ldr	r0, .L484+36
 9353 0338 FFF7FEFF 		bl	printf
 9354              	.LVL984:
1549:Core/Src/ADBMS.cpp ****         printf("C11UV:0x%X, ", IC[ic].statd.c_uv[10]);
 9355              		.loc 1 1549 9 is_stmt 1 view .LVU2324
1549:Core/Src/ADBMS.cpp ****         printf("C11UV:0x%X, ", IC[ic].statd.c_uv[10]);
 9356              		.loc 1 1549 15 is_stmt 0 view .LVU2325
 9357 033c 95F8F510 		ldrb	r1, [r5, #245]	@ zero_extendqisi2
 9358 0340 6048     		ldr	r0, .L484+40
 9359 0342 FFF7FEFF 		bl	printf
 9360              	.LVL985:
1550:Core/Src/ADBMS.cpp ****         printf("C12UV:0x%X, ", IC[ic].statd.c_uv[11]);
 9361              		.loc 1 1550 9 is_stmt 1 view .LVU2326
1550:Core/Src/ADBMS.cpp ****         printf("C12UV:0x%X, ", IC[ic].statd.c_uv[11]);
 9362              		.loc 1 1550 15 is_stmt 0 view .LVU2327
 9363 0346 95F8F610 		ldrb	r1, [r5, #246]	@ zero_extendqisi2
 9364 034a 5F48     		ldr	r0, .L484+44
 9365 034c FFF7FEFF 		bl	printf
 9366              	.LVL986:
1551:Core/Src/ADBMS.cpp ****         printf("C13UV:0x%X, ", IC[ic].statd.c_uv[12]);
 9367              		.loc 1 1551 9 is_stmt 1 view .LVU2328
1551:Core/Src/ADBMS.cpp ****         printf("C13UV:0x%X, ", IC[ic].statd.c_uv[12]);
 9368              		.loc 1 1551 15 is_stmt 0 view .LVU2329
 9369 0350 95F8F710 		ldrb	r1, [r5, #247]	@ zero_extendqisi2
 9370 0354 5D48     		ldr	r0, .L484+48
 9371 0356 FFF7FEFF 		bl	printf
 9372              	.LVL987:
1552:Core/Src/ADBMS.cpp ****         printf("C14UV:0x%X, ", IC[ic].statd.c_uv[13]);
 9373              		.loc 1 1552 9 is_stmt 1 view .LVU2330
1552:Core/Src/ADBMS.cpp ****         printf("C14UV:0x%X, ", IC[ic].statd.c_uv[13]);
 9374              		.loc 1 1552 15 is_stmt 0 view .LVU2331
 9375 035a 95F8F810 		ldrb	r1, [r5, #248]	@ zero_extendqisi2
 9376 035e 5C48     		ldr	r0, .L484+52
 9377 0360 FFF7FEFF 		bl	printf
 9378              	.LVL988:
1553:Core/Src/ADBMS.cpp ****         printf("C15UV:0x%X, ", IC[ic].statd.c_uv[14]);
 9379              		.loc 1 1553 9 is_stmt 1 view .LVU2332
1553:Core/Src/ADBMS.cpp ****         printf("C15UV:0x%X, ", IC[ic].statd.c_uv[14]);
 9380              		.loc 1 1553 15 is_stmt 0 view .LVU2333
 9381 0364 95F8F910 		ldrb	r1, [r5, #249]	@ zero_extendqisi2
 9382 0368 5A48     		ldr	r0, .L484+56
 9383 036a FFF7FEFF 		bl	printf
 9384              	.LVL989:
1554:Core/Src/ADBMS.cpp ****         printf("C16UV:0x%X\n", IC[ic].statd.c_uv[15]);
 9385              		.loc 1 1554 9 is_stmt 1 view .LVU2334
1554:Core/Src/ADBMS.cpp ****         printf("C16UV:0x%X\n", IC[ic].statd.c_uv[15]);
 9386              		.loc 1 1554 15 is_stmt 0 view .LVU2335
 9387 036e 95F8FA10 		ldrb	r1, [r5, #250]	@ zero_extendqisi2
 9388 0372 5948     		ldr	r0, .L484+60
 9389 0374 FFF7FEFF 		bl	printf
 9390              	.LVL990:
1555:Core/Src/ADBMS.cpp **** 
 9391              		.loc 1 1555 9 is_stmt 1 view .LVU2336
1555:Core/Src/ADBMS.cpp **** 
 9392              		.loc 1 1555 15 is_stmt 0 view .LVU2337
 9393 0378 95F8FB10 		ldrb	r1, [r5, #251]	@ zero_extendqisi2
ARM GAS  C:\Users\huawei\AppData\Local\Temp\ccpVCJY0.s 			page 244


 9394 037c 5748     		ldr	r0, .L484+64
 9395 037e FFF7FEFF 		bl	printf
 9396              	.LVL991:
1557:Core/Src/ADBMS.cpp ****         printf("C2OV:0x%X, ", IC[ic].statd.c_ov[1]);
 9397              		.loc 1 1557 9 is_stmt 1 view .LVU2338
1557:Core/Src/ADBMS.cpp ****         printf("C2OV:0x%X, ", IC[ic].statd.c_ov[1]);
 9398              		.loc 1 1557 15 is_stmt 0 view .LVU2339
 9399 0382 95F8DC10 		ldrb	r1, [r5, #220]	@ zero_extendqisi2
 9400 0386 5648     		ldr	r0, .L484+68
 9401 0388 FFF7FEFF 		bl	printf
 9402              	.LVL992:
1558:Core/Src/ADBMS.cpp ****         printf("C3OV:0x%X, ", IC[ic].statd.c_ov[2]);
 9403              		.loc 1 1558 9 is_stmt 1 view .LVU2340
1558:Core/Src/ADBMS.cpp ****         printf("C3OV:0x%X, ", IC[ic].statd.c_ov[2]);
 9404              		.loc 1 1558 15 is_stmt 0 view .LVU2341
 9405 038c 95F8DD10 		ldrb	r1, [r5, #221]	@ zero_extendqisi2
 9406 0390 5448     		ldr	r0, .L484+72
 9407 0392 FFF7FEFF 		bl	printf
 9408              	.LVL993:
1559:Core/Src/ADBMS.cpp ****         printf("C4OV:0x%X, ", IC[ic].statd.c_ov[3]);
 9409              		.loc 1 1559 9 is_stmt 1 view .LVU2342
1559:Core/Src/ADBMS.cpp ****         printf("C4OV:0x%X, ", IC[ic].statd.c_ov[3]);
 9410              		.loc 1 1559 15 is_stmt 0 view .LVU2343
 9411 0396 95F8DE10 		ldrb	r1, [r5, #222]	@ zero_extendqisi2
 9412 039a 5348     		ldr	r0, .L484+76
 9413 039c FFF7FEFF 		bl	printf
 9414              	.LVL994:
1560:Core/Src/ADBMS.cpp ****         printf("C5OV:0x%X, ", IC[ic].statd.c_ov[4]);
 9415              		.loc 1 1560 9 is_stmt 1 view .LVU2344
1560:Core/Src/ADBMS.cpp ****         printf("C5OV:0x%X, ", IC[ic].statd.c_ov[4]);
 9416              		.loc 1 1560 15 is_stmt 0 view .LVU2345
 9417 03a0 95F8DF10 		ldrb	r1, [r5, #223]	@ zero_extendqisi2
 9418 03a4 5148     		ldr	r0, .L484+80
 9419 03a6 FFF7FEFF 		bl	printf
 9420              	.LVL995:
1561:Core/Src/ADBMS.cpp ****         printf("C6OV:0x%X, ", IC[ic].statd.c_ov[5]);
 9421              		.loc 1 1561 9 is_stmt 1 view .LVU2346
1561:Core/Src/ADBMS.cpp ****         printf("C6OV:0x%X, ", IC[ic].statd.c_ov[5]);
 9422              		.loc 1 1561 15 is_stmt 0 view .LVU2347
 9423 03aa 95F8E010 		ldrb	r1, [r5, #224]	@ zero_extendqisi2
 9424 03ae 5048     		ldr	r0, .L484+84
 9425 03b0 FFF7FEFF 		bl	printf
 9426              	.LVL996:
1562:Core/Src/ADBMS.cpp ****         printf("C7OV:0x%X, ", IC[ic].statd.c_ov[6]);
 9427              		.loc 1 1562 9 is_stmt 1 view .LVU2348
1562:Core/Src/ADBMS.cpp ****         printf("C7OV:0x%X, ", IC[ic].statd.c_ov[6]);
 9428              		.loc 1 1562 15 is_stmt 0 view .LVU2349
 9429 03b4 95F8E110 		ldrb	r1, [r5, #225]	@ zero_extendqisi2
 9430 03b8 4E48     		ldr	r0, .L484+88
 9431 03ba FFF7FEFF 		bl	printf
 9432              	.LVL997:
1563:Core/Src/ADBMS.cpp ****         printf("C8OV:0x%X, ", IC[ic].statd.c_ov[7]);
 9433              		.loc 1 1563 9 is_stmt 1 view .LVU2350
1563:Core/Src/ADBMS.cpp ****         printf("C8OV:0x%X, ", IC[ic].statd.c_ov[7]);
 9434              		.loc 1 1563 15 is_stmt 0 view .LVU2351
 9435 03be 95F8E210 		ldrb	r1, [r5, #226]	@ zero_extendqisi2
 9436 03c2 4D48     		ldr	r0, .L484+92
ARM GAS  C:\Users\huawei\AppData\Local\Temp\ccpVCJY0.s 			page 245


 9437 03c4 FFF7FEFF 		bl	printf
 9438              	.LVL998:
1564:Core/Src/ADBMS.cpp ****         printf("C9OV:0x%X, ", IC[ic].statd.c_ov[8]);
 9439              		.loc 1 1564 9 is_stmt 1 view .LVU2352
1564:Core/Src/ADBMS.cpp ****         printf("C9OV:0x%X, ", IC[ic].statd.c_ov[8]);
 9440              		.loc 1 1564 15 is_stmt 0 view .LVU2353
 9441 03c8 95F8E310 		ldrb	r1, [r5, #227]	@ zero_extendqisi2
 9442 03cc 4B48     		ldr	r0, .L484+96
 9443 03ce FFF7FEFF 		bl	printf
 9444              	.LVL999:
1565:Core/Src/ADBMS.cpp ****         printf("C10OV:0x%X, ", IC[ic].statd.c_ov[9]);
 9445              		.loc 1 1565 9 is_stmt 1 view .LVU2354
1565:Core/Src/ADBMS.cpp ****         printf("C10OV:0x%X, ", IC[ic].statd.c_ov[9]);
 9446              		.loc 1 1565 15 is_stmt 0 view .LVU2355
 9447 03d2 95F8E410 		ldrb	r1, [r5, #228]	@ zero_extendqisi2
 9448 03d6 4A48     		ldr	r0, .L484+100
 9449 03d8 FFF7FEFF 		bl	printf
 9450              	.LVL1000:
1566:Core/Src/ADBMS.cpp ****         printf("C11OV:0x%X, ", IC[ic].statd.c_ov[10]);
 9451              		.loc 1 1566 9 is_stmt 1 view .LVU2356
1566:Core/Src/ADBMS.cpp ****         printf("C11OV:0x%X, ", IC[ic].statd.c_ov[10]);
 9452              		.loc 1 1566 15 is_stmt 0 view .LVU2357
 9453 03dc 95F8E510 		ldrb	r1, [r5, #229]	@ zero_extendqisi2
 9454 03e0 4848     		ldr	r0, .L484+104
 9455 03e2 FFF7FEFF 		bl	printf
 9456              	.LVL1001:
1567:Core/Src/ADBMS.cpp ****         printf("C12OV:0x%X, ", IC[ic].statd.c_ov[11]);
 9457              		.loc 1 1567 9 is_stmt 1 view .LVU2358
1567:Core/Src/ADBMS.cpp ****         printf("C12OV:0x%X, ", IC[ic].statd.c_ov[11]);
 9458              		.loc 1 1567 15 is_stmt 0 view .LVU2359
 9459 03e6 95F8E610 		ldrb	r1, [r5, #230]	@ zero_extendqisi2
 9460 03ea 4748     		ldr	r0, .L484+108
 9461 03ec FFF7FEFF 		bl	printf
 9462              	.LVL1002:
1568:Core/Src/ADBMS.cpp ****         printf("C13OV:0x%X, ", IC[ic].statd.c_ov[12]);
 9463              		.loc 1 1568 9 is_stmt 1 view .LVU2360
1568:Core/Src/ADBMS.cpp ****         printf("C13OV:0x%X, ", IC[ic].statd.c_ov[12]);
 9464              		.loc 1 1568 15 is_stmt 0 view .LVU2361
 9465 03f0 95F8E710 		ldrb	r1, [r5, #231]	@ zero_extendqisi2
 9466 03f4 4548     		ldr	r0, .L484+112
 9467 03f6 FFF7FEFF 		bl	printf
 9468              	.LVL1003:
1569:Core/Src/ADBMS.cpp ****         printf("C14OV:0x%X, ", IC[ic].statd.c_ov[13]);
 9469              		.loc 1 1569 9 is_stmt 1 view .LVU2362
1569:Core/Src/ADBMS.cpp ****         printf("C14OV:0x%X, ", IC[ic].statd.c_ov[13]);
 9470              		.loc 1 1569 15 is_stmt 0 view .LVU2363
 9471 03fa 95F8E810 		ldrb	r1, [r5, #232]	@ zero_extendqisi2
 9472 03fe 4448     		ldr	r0, .L484+116
 9473 0400 FFF7FEFF 		bl	printf
 9474              	.LVL1004:
1570:Core/Src/ADBMS.cpp ****         printf("C15OV:0x%X, ", IC[ic].statd.c_ov[14]);
 9475              		.loc 1 1570 9 is_stmt 1 view .LVU2364
1570:Core/Src/ADBMS.cpp ****         printf("C15OV:0x%X, ", IC[ic].statd.c_ov[14]);
 9476              		.loc 1 1570 15 is_stmt 0 view .LVU2365
 9477 0404 95F8E910 		ldrb	r1, [r5, #233]	@ zero_extendqisi2
 9478 0408 4248     		ldr	r0, .L484+120
 9479 040a FFF7FEFF 		bl	printf
ARM GAS  C:\Users\huawei\AppData\Local\Temp\ccpVCJY0.s 			page 246


 9480              	.LVL1005:
1571:Core/Src/ADBMS.cpp ****         printf("C16OV:0x%X\n", IC[ic].statd.c_ov[15]);
 9481              		.loc 1 1571 9 is_stmt 1 view .LVU2366
1571:Core/Src/ADBMS.cpp ****         printf("C16OV:0x%X\n", IC[ic].statd.c_ov[15]);
 9482              		.loc 1 1571 15 is_stmt 0 view .LVU2367
 9483 040e 95F8EA10 		ldrb	r1, [r5, #234]	@ zero_extendqisi2
 9484 0412 4148     		ldr	r0, .L484+124
 9485 0414 FFF7FEFF 		bl	printf
 9486              	.LVL1006:
1572:Core/Src/ADBMS.cpp **** 
 9487              		.loc 1 1572 9 is_stmt 1 view .LVU2368
1572:Core/Src/ADBMS.cpp **** 
 9488              		.loc 1 1572 15 is_stmt 0 view .LVU2369
 9489 0418 95F8EB10 		ldrb	r1, [r5, #235]	@ zero_extendqisi2
 9490 041c 3F48     		ldr	r0, .L484+128
 9491 041e FFF7FEFF 		bl	printf
 9492              	.LVL1007:
1574:Core/Src/ADBMS.cpp ****         printf("CT:0x%X, ", IC[ic].statd.ct);
 9493              		.loc 1 1574 9 is_stmt 1 view .LVU2370
1574:Core/Src/ADBMS.cpp ****         printf("CT:0x%X, ", IC[ic].statd.ct);
 9494              		.loc 1 1574 43 is_stmt 0 view .LVU2371
 9495 0422 95F8FC10 		ldrb	r1, [r5, #252]	@ zero_extendqisi2
1574:Core/Src/ADBMS.cpp ****         printf("CT:0x%X, ", IC[ic].statd.ct);
 9496              		.loc 1 1574 15 view .LVU2372
 9497 0426 8909     		lsrs	r1, r1, #6
 9498 0428 3D48     		ldr	r0, .L484+132
 9499 042a FFF7FEFF 		bl	printf
 9500              	.LVL1008:
1575:Core/Src/ADBMS.cpp ****         printf("OC_CNTR:0x%X\n", IC[ic].statd.oc_cntr);
 9501              		.loc 1 1575 9 is_stmt 1 view .LVU2373
1575:Core/Src/ADBMS.cpp ****         printf("OC_CNTR:0x%X\n", IC[ic].statd.oc_cntr);
 9502              		.loc 1 1575 42 is_stmt 0 view .LVU2374
 9503 042e 95F8FC10 		ldrb	r1, [r5, #252]	@ zero_extendqisi2
1575:Core/Src/ADBMS.cpp ****         printf("OC_CNTR:0x%X\n", IC[ic].statd.oc_cntr);
 9504              		.loc 1 1575 15 view .LVU2375
 9505 0432 01F03F01 		and	r1, r1, #63
 9506 0436 3B48     		ldr	r0, .L484+136
 9507 0438 FFF7FEFF 		bl	printf
 9508              	.LVL1009:
1576:Core/Src/ADBMS.cpp **** 
 9509              		.loc 1 1576 9 is_stmt 1 view .LVU2376
1576:Core/Src/ADBMS.cpp **** 
 9510              		.loc 1 1576 15 is_stmt 0 view .LVU2377
 9511 043c 95F8FD10 		ldrb	r1, [r5, #253]	@ zero_extendqisi2
 9512 0440 3948     		ldr	r0, .L484+140
 9513 0442 FFF7FEFF 		bl	printf
 9514              	.LVL1010:
1578:Core/Src/ADBMS.cpp ****         printf("PECError:%d\n\n", IC[ic].cccrc.stat_pec);
 9515              		.loc 1 1578 9 is_stmt 1 view .LVU2378
1578:Core/Src/ADBMS.cpp ****         printf("PECError:%d\n\n", IC[ic].cccrc.stat_pec);
 9516              		.loc 1 1578 15 is_stmt 0 view .LVU2379
 9517 0446 95F88F11 		ldrb	r1, [r5, #399]	@ zero_extendqisi2
 9518 044a 3848     		ldr	r0, .L484+144
 9519 044c FFF7FEFF 		bl	printf
 9520              	.LVL1011:
1579:Core/Src/ADBMS.cpp ****       }
 9521              		.loc 1 1579 9 is_stmt 1 view .LVU2380
ARM GAS  C:\Users\huawei\AppData\Local\Temp\ccpVCJY0.s 			page 247


1579:Core/Src/ADBMS.cpp ****       }
 9522              		.loc 1 1579 15 is_stmt 0 view .LVU2381
 9523 0450 95F89711 		ldrb	r1, [r5, #407]	@ zero_extendqisi2
 9524 0454 3648     		ldr	r0, .L484+148
 9525 0456 FFF7FEFF 		bl	printf
 9526              	.LVL1012:
 9527 045a 1BE6     		b	.L470
 9528              	.L472:
1583:Core/Src/ADBMS.cpp ****         printf("GPI:0x%X, ", IC[ic].state.gpi);
 9529              		.loc 1 1583 9 is_stmt 1 view .LVU2382
1583:Core/Src/ADBMS.cpp ****         printf("GPI:0x%X, ", IC[ic].state.gpi);
 9530              		.loc 1 1583 15 is_stmt 0 view .LVU2383
 9531 045c 3548     		ldr	r0, .L484+152
 9532 045e FFF7FEFF 		bl	puts
 9533              	.LVL1013:
1584:Core/Src/ADBMS.cpp ****         printf("REV_ID:0x%X\n", IC[ic].state.rev);
 9534              		.loc 1 1584 9 is_stmt 1 view .LVU2384
1584:Core/Src/ADBMS.cpp ****         printf("REV_ID:0x%X\n", IC[ic].state.rev);
 9535              		.loc 1 1584 35 is_stmt 0 view .LVU2385
 9536 0462 4FF42875 		mov	r5, #672
 9537 0466 05FB0495 		mla	r5, r5, r4, r9
1584:Core/Src/ADBMS.cpp ****         printf("REV_ID:0x%X\n", IC[ic].state.rev);
 9538              		.loc 1 1584 43 view .LVU2386
 9539 046a B5F8FE10 		ldrh	r1, [r5, #254]
1584:Core/Src/ADBMS.cpp ****         printf("REV_ID:0x%X\n", IC[ic].state.rev);
 9540              		.loc 1 1584 15 view .LVU2387
 9541 046e C1F30901 		ubfx	r1, r1, #0, #10
 9542 0472 3148     		ldr	r0, .L484+156
 9543 0474 FFF7FEFF 		bl	printf
 9544              	.LVL1014:
1585:Core/Src/ADBMS.cpp **** 
 9545              		.loc 1 1585 9 is_stmt 1 view .LVU2388
1585:Core/Src/ADBMS.cpp **** 
 9546              		.loc 1 1585 46 is_stmt 0 view .LVU2389
 9547 0478 95F8FF10 		ldrb	r1, [r5, #255]	@ zero_extendqisi2
1585:Core/Src/ADBMS.cpp **** 
 9548              		.loc 1 1585 15 view .LVU2390
 9549 047c C1F38301 		ubfx	r1, r1, #2, #4
 9550 0480 2E48     		ldr	r0, .L484+160
 9551 0482 FFF7FEFF 		bl	printf
 9552              	.LVL1015:
1587:Core/Src/ADBMS.cpp ****         printf("PECError:%d\n\n", IC[ic].cccrc.stat_pec);
 9553              		.loc 1 1587 9 is_stmt 1 view .LVU2391
1587:Core/Src/ADBMS.cpp ****         printf("PECError:%d\n\n", IC[ic].cccrc.stat_pec);
 9554              		.loc 1 1587 15 is_stmt 0 view .LVU2392
 9555 0486 95F88F11 		ldrb	r1, [r5, #399]	@ zero_extendqisi2
 9556 048a 2848     		ldr	r0, .L484+144
 9557 048c FFF7FEFF 		bl	printf
 9558              	.LVL1016:
1588:Core/Src/ADBMS.cpp ****       }
 9559              		.loc 1 1588 9 is_stmt 1 view .LVU2393
1588:Core/Src/ADBMS.cpp ****       }
 9560              		.loc 1 1588 15 is_stmt 0 view .LVU2394
 9561 0490 95F89711 		ldrb	r1, [r5, #407]	@ zero_extendqisi2
 9562 0494 2648     		ldr	r0, .L484+148
 9563 0496 FFF7FEFF 		bl	printf
 9564              	.LVL1017:
ARM GAS  C:\Users\huawei\AppData\Local\Temp\ccpVCJY0.s 			page 248


 9565 049a FBE5     		b	.L470
 9566              	.L485:
 9567              		.align	2
 9568              	.L484:
 9569 049c 78010000 		.word	.LC163
 9570 04a0 84010000 		.word	.LC164
 9571 04a4 90010000 		.word	.LC165
 9572 04a8 9C010000 		.word	.LC166
 9573 04ac A8010000 		.word	.LC167
 9574 04b0 B4010000 		.word	.LC168
 9575 04b4 C0010000 		.word	.LC169
 9576 04b8 CC010000 		.word	.LC170
 9577 04bc D8010000 		.word	.LC171
 9578 04c0 E4010000 		.word	.LC172
 9579 04c4 F0010000 		.word	.LC173
 9580 04c8 00020000 		.word	.LC174
 9581 04cc 10020000 		.word	.LC175
 9582 04d0 20020000 		.word	.LC176
 9583 04d4 30020000 		.word	.LC177
 9584 04d8 40020000 		.word	.LC178
 9585 04dc 50020000 		.word	.LC179
 9586 04e0 5C020000 		.word	.LC180
 9587 04e4 68020000 		.word	.LC181
 9588 04e8 74020000 		.word	.LC182
 9589 04ec 80020000 		.word	.LC183
 9590 04f0 8C020000 		.word	.LC184
 9591 04f4 98020000 		.word	.LC185
 9592 04f8 A4020000 		.word	.LC186
 9593 04fc B0020000 		.word	.LC187
 9594 0500 BC020000 		.word	.LC188
 9595 0504 C8020000 		.word	.LC189
 9596 0508 D8020000 		.word	.LC190
 9597 050c E8020000 		.word	.LC191
 9598 0510 F8020000 		.word	.LC192
 9599 0514 08030000 		.word	.LC193
 9600 0518 18030000 		.word	.LC194
 9601 051c 28030000 		.word	.LC195
 9602 0520 34030000 		.word	.LC196
 9603 0524 40030000 		.word	.LC197
 9604 0528 4C030000 		.word	.LC198
 9605 052c 34000000 		.word	.LC140
 9606 0530 48010000 		.word	.LC35
 9607 0534 5C030000 		.word	.LC199
 9608 0538 68030000 		.word	.LC200
 9609 053c 74030000 		.word	.LC201
 9610              	.L478:
1592:Core/Src/ADBMS.cpp ****         voltage = getVoltage(IC[ic].stata.vref2);
 9611              		.loc 1 1592 9 is_stmt 1 view .LVU2395
1592:Core/Src/ADBMS.cpp ****         voltage = getVoltage(IC[ic].stata.vref2);
 9612              		.loc 1 1592 15 is_stmt 0 view .LVU2396
 9613 0540 D948     		ldr	r0, .L486+16
 9614 0542 FFF7FEFF 		bl	puts
 9615              	.LVL1018:
1593:Core/Src/ADBMS.cpp ****         printf("VREF2:%fV, ", voltage);
 9616              		.loc 1 1593 9 is_stmt 1 view .LVU2397
1593:Core/Src/ADBMS.cpp ****         printf("VREF2:%fV, ", voltage);
 9617              		.loc 1 1593 35 is_stmt 0 view .LVU2398
ARM GAS  C:\Users\huawei\AppData\Local\Temp\ccpVCJY0.s 			page 249


 9618 0546 4FF42875 		mov	r5, #672
 9619 054a 05FB0495 		mla	r5, r5, r4, r9
1593:Core/Src/ADBMS.cpp ****         printf("VREF2:%fV, ", voltage);
 9620              		.loc 1 1593 29 view .LVU2399
 9621 054e B5F8CC00 		ldrh	r0, [r5, #204]
 9622 0552 FFF7FEFF 		bl	_Z10getVoltagei
 9623              	.LVL1019:
 9624 0556 10EE100A 		vmov	r0, s0
 9625              	.LVL1020:
1594:Core/Src/ADBMS.cpp ****         voltage = getVoltage(IC[ic].stata.vref3);
 9626              		.loc 1 1594 9 is_stmt 1 view .LVU2400
1594:Core/Src/ADBMS.cpp ****         voltage = getVoltage(IC[ic].stata.vref3);
 9627              		.loc 1 1594 15 is_stmt 0 view .LVU2401
 9628 055a FFF7FEFF 		bl	__aeabi_f2d
 9629              	.LVL1021:
1594:Core/Src/ADBMS.cpp ****         voltage = getVoltage(IC[ic].stata.vref3);
 9630              		.loc 1 1594 15 view .LVU2402
 9631 055e 0246     		mov	r2, r0
 9632 0560 0B46     		mov	r3, r1
 9633 0562 D248     		ldr	r0, .L486+20
 9634 0564 FFF7FEFF 		bl	printf
 9635              	.LVL1022:
1595:Core/Src/ADBMS.cpp ****         printf("VREF3:%fV, ", voltage);
 9636              		.loc 1 1595 9 is_stmt 1 view .LVU2403
1595:Core/Src/ADBMS.cpp ****         printf("VREF3:%fV, ", voltage);
 9637              		.loc 1 1595 29 is_stmt 0 view .LVU2404
 9638 0568 B5F8D000 		ldrh	r0, [r5, #208]
 9639 056c FFF7FEFF 		bl	_Z10getVoltagei
 9640              	.LVL1023:
 9641 0570 10EE100A 		vmov	r0, s0
 9642              	.LVL1024:
1596:Core/Src/ADBMS.cpp ****         voltage = getVoltage(IC[ic].stata.itmp);
 9643              		.loc 1 1596 9 is_stmt 1 view .LVU2405
1596:Core/Src/ADBMS.cpp ****         voltage = getVoltage(IC[ic].stata.itmp);
 9644              		.loc 1 1596 15 is_stmt 0 view .LVU2406
 9645 0574 FFF7FEFF 		bl	__aeabi_f2d
 9646              	.LVL1025:
1596:Core/Src/ADBMS.cpp ****         voltage = getVoltage(IC[ic].stata.itmp);
 9647              		.loc 1 1596 15 view .LVU2407
 9648 0578 0246     		mov	r2, r0
 9649 057a 0B46     		mov	r3, r1
 9650 057c CC48     		ldr	r0, .L486+24
 9651 057e FFF7FEFF 		bl	printf
 9652              	.LVL1026:
1597:Core/Src/ADBMS.cpp ****         printf("ITMP:%fC\n\n", (voltage/0.0075)-273);
 9653              		.loc 1 1597 9 is_stmt 1 view .LVU2408
1597:Core/Src/ADBMS.cpp ****         printf("ITMP:%fC\n\n", (voltage/0.0075)-273);
 9654              		.loc 1 1597 29 is_stmt 0 view .LVU2409
 9655 0582 B5F8CE00 		ldrh	r0, [r5, #206]
 9656 0586 FFF7FEFF 		bl	_Z10getVoltagei
 9657              	.LVL1027:
 9658 058a 10EE100A 		vmov	r0, s0
 9659              	.LVL1028:
1598:Core/Src/ADBMS.cpp **** 
 9660              		.loc 1 1598 9 is_stmt 1 view .LVU2410
1598:Core/Src/ADBMS.cpp **** 
 9661              		.loc 1 1598 36 is_stmt 0 view .LVU2411
ARM GAS  C:\Users\huawei\AppData\Local\Temp\ccpVCJY0.s 			page 250


 9662 058e FFF7FEFF 		bl	__aeabi_f2d
 9663              	.LVL1029:
1598:Core/Src/ADBMS.cpp **** 
 9664              		.loc 1 1598 43 view .LVU2412
 9665 0592 C1A3     		adr	r3, .L486
 9666 0594 D3E90023 		ldrd	r2, [r3]
 9667 0598 FFF7FEFF 		bl	__aeabi_ddiv
 9668              	.LVL1030:
1598:Core/Src/ADBMS.cpp **** 
 9669              		.loc 1 1598 15 view .LVU2413
 9670 059c C0A3     		adr	r3, .L486+8
 9671 059e D3E90023 		ldrd	r2, [r3]
 9672 05a2 FFF7FEFF 		bl	__aeabi_dsub
 9673              	.LVL1031:
 9674 05a6 0246     		mov	r2, r0
 9675 05a8 0B46     		mov	r3, r1
 9676 05aa C248     		ldr	r0, .L486+28
 9677 05ac FFF7FEFF 		bl	printf
 9678              	.LVL1032:
1600:Core/Src/ADBMS.cpp ****         voltage = getVoltage(IC[ic].statb.va);
 9679              		.loc 1 1600 9 is_stmt 1 view .LVU2414
1600:Core/Src/ADBMS.cpp ****         voltage = getVoltage(IC[ic].statb.va);
 9680              		.loc 1 1600 15 is_stmt 0 view .LVU2415
 9681 05b0 C148     		ldr	r0, .L486+32
 9682 05b2 FFF7FEFF 		bl	puts
 9683              	.LVL1033:
1601:Core/Src/ADBMS.cpp ****         printf("VA:%fV, ", voltage);
 9684              		.loc 1 1601 9 is_stmt 1 view .LVU2416
1601:Core/Src/ADBMS.cpp ****         printf("VA:%fV, ", voltage);
 9685              		.loc 1 1601 29 is_stmt 0 view .LVU2417
 9686 05b6 B5F8D400 		ldrh	r0, [r5, #212]
 9687 05ba FFF7FEFF 		bl	_Z10getVoltagei
 9688              	.LVL1034:
 9689 05be 10EE100A 		vmov	r0, s0
 9690              	.LVL1035:
1602:Core/Src/ADBMS.cpp ****         voltage = getVoltage(IC[ic].statb.vd);
 9691              		.loc 1 1602 9 is_stmt 1 view .LVU2418
1602:Core/Src/ADBMS.cpp ****         voltage = getVoltage(IC[ic].statb.vd);
 9692              		.loc 1 1602 15 is_stmt 0 view .LVU2419
 9693 05c2 FFF7FEFF 		bl	__aeabi_f2d
 9694              	.LVL1036:
1602:Core/Src/ADBMS.cpp ****         voltage = getVoltage(IC[ic].statb.vd);
 9695              		.loc 1 1602 15 view .LVU2420
 9696 05c6 0246     		mov	r2, r0
 9697 05c8 0B46     		mov	r3, r1
 9698 05ca BC48     		ldr	r0, .L486+36
 9699 05cc FFF7FEFF 		bl	printf
 9700              	.LVL1037:
1603:Core/Src/ADBMS.cpp ****         printf("VD:%fV, ", voltage);
 9701              		.loc 1 1603 9 is_stmt 1 view .LVU2421
1603:Core/Src/ADBMS.cpp ****         printf("VD:%fV, ", voltage);
 9702              		.loc 1 1603 29 is_stmt 0 view .LVU2422
 9703 05d0 B5F8D200 		ldrh	r0, [r5, #210]
 9704 05d4 FFF7FEFF 		bl	_Z10getVoltagei
 9705              	.LVL1038:
 9706 05d8 10EE100A 		vmov	r0, s0
 9707              	.LVL1039:
ARM GAS  C:\Users\huawei\AppData\Local\Temp\ccpVCJY0.s 			page 251


1604:Core/Src/ADBMS.cpp ****         voltage = getVoltage(IC[ic].statb.vr4k);
 9708              		.loc 1 1604 9 is_stmt 1 view .LVU2423
1604:Core/Src/ADBMS.cpp ****         voltage = getVoltage(IC[ic].statb.vr4k);
 9709              		.loc 1 1604 15 is_stmt 0 view .LVU2424
 9710 05dc FFF7FEFF 		bl	__aeabi_f2d
 9711              	.LVL1040:
1604:Core/Src/ADBMS.cpp ****         voltage = getVoltage(IC[ic].statb.vr4k);
 9712              		.loc 1 1604 15 view .LVU2425
 9713 05e0 0246     		mov	r2, r0
 9714 05e2 0B46     		mov	r3, r1
 9715 05e4 B648     		ldr	r0, .L486+40
 9716 05e6 FFF7FEFF 		bl	printf
 9717              	.LVL1041:
1605:Core/Src/ADBMS.cpp ****         printf("VR4K:%fV\n\n", voltage);
 9718              		.loc 1 1605 9 is_stmt 1 view .LVU2426
1605:Core/Src/ADBMS.cpp ****         printf("VR4K:%fV\n\n", voltage);
 9719              		.loc 1 1605 29 is_stmt 0 view .LVU2427
 9720 05ea B5F8D600 		ldrh	r0, [r5, #214]
 9721 05ee FFF7FEFF 		bl	_Z10getVoltagei
 9722              	.LVL1042:
 9723 05f2 10EE100A 		vmov	r0, s0
 9724              	.LVL1043:
1606:Core/Src/ADBMS.cpp **** 
 9725              		.loc 1 1606 9 is_stmt 1 view .LVU2428
1606:Core/Src/ADBMS.cpp **** 
 9726              		.loc 1 1606 15 is_stmt 0 view .LVU2429
 9727 05f6 FFF7FEFF 		bl	__aeabi_f2d
 9728              	.LVL1044:
1606:Core/Src/ADBMS.cpp **** 
 9729              		.loc 1 1606 15 view .LVU2430
 9730 05fa 0246     		mov	r2, r0
 9731 05fc 0B46     		mov	r3, r1
 9732 05fe B148     		ldr	r0, .L486+44
 9733 0600 FFF7FEFF 		bl	printf
 9734              	.LVL1045:
1608:Core/Src/ADBMS.cpp ****         printf("CSFLT:0x%X, ", IC[ic].statc.cs_flt);
 9735              		.loc 1 1608 9 is_stmt 1 view .LVU2431
1608:Core/Src/ADBMS.cpp ****         printf("CSFLT:0x%X, ", IC[ic].statc.cs_flt);
 9736              		.loc 1 1608 15 is_stmt 0 view .LVU2432
 9737 0604 B048     		ldr	r0, .L486+48
 9738 0606 FFF7FEFF 		bl	puts
 9739              	.LVL1046:
1609:Core/Src/ADBMS.cpp **** 
 9740              		.loc 1 1609 9 is_stmt 1 view .LVU2433
1609:Core/Src/ADBMS.cpp **** 
 9741              		.loc 1 1609 15 is_stmt 0 view .LVU2434
 9742 060a B5F8D810 		ldrh	r1, [r5, #216]
 9743 060e AF48     		ldr	r0, .L486+52
 9744 0610 FFF7FEFF 		bl	printf
 9745              	.LVL1047:
1611:Core/Src/ADBMS.cpp ****         printf("OTP2_ED:0x%X, ", IC[ic].statc.otp2_ed);
 9746              		.loc 1 1611 9 is_stmt 1 view .LVU2435
1611:Core/Src/ADBMS.cpp ****         printf("OTP2_ED:0x%X, ", IC[ic].statc.otp2_ed);
 9747              		.loc 1 1611 48 is_stmt 0 view .LVU2436
 9748 0614 95F8DA10 		ldrb	r1, [r5, #218]	@ zero_extendqisi2
1611:Core/Src/ADBMS.cpp ****         printf("OTP2_ED:0x%X, ", IC[ic].statc.otp2_ed);
 9749              		.loc 1 1611 15 view .LVU2437
ARM GAS  C:\Users\huawei\AppData\Local\Temp\ccpVCJY0.s 			page 252


 9750 0618 C909     		lsrs	r1, r1, #7
 9751 061a AD48     		ldr	r0, .L486+56
 9752 061c FFF7FEFF 		bl	printf
 9753              	.LVL1048:
1612:Core/Src/ADBMS.cpp ****         printf("OTP1_MED:0x%X, ", IC[ic].statc.otp1_med);
 9754              		.loc 1 1612 9 is_stmt 1 view .LVU2438
1612:Core/Src/ADBMS.cpp ****         printf("OTP1_MED:0x%X, ", IC[ic].statc.otp1_med);
 9755              		.loc 1 1612 47 is_stmt 0 view .LVU2439
 9756 0620 95F8DA10 		ldrb	r1, [r5, #218]	@ zero_extendqisi2
1612:Core/Src/ADBMS.cpp ****         printf("OTP1_MED:0x%X, ", IC[ic].statc.otp1_med);
 9757              		.loc 1 1612 15 view .LVU2440
 9758 0624 C1F38011 		ubfx	r1, r1, #6, #1
 9759 0628 AA48     		ldr	r0, .L486+60
 9760 062a FFF7FEFF 		bl	printf
 9761              	.LVL1049:
1613:Core/Src/ADBMS.cpp ****         printf("OTP1_ED:0x%X, ", IC[ic].statc.otp1_ed);
 9762              		.loc 1 1613 9 is_stmt 1 view .LVU2441
1613:Core/Src/ADBMS.cpp ****         printf("OTP1_ED:0x%X, ", IC[ic].statc.otp1_ed);
 9763              		.loc 1 1613 48 is_stmt 0 view .LVU2442
 9764 062e 95F8DA10 		ldrb	r1, [r5, #218]	@ zero_extendqisi2
1613:Core/Src/ADBMS.cpp ****         printf("OTP1_ED:0x%X, ", IC[ic].statc.otp1_ed);
 9765              		.loc 1 1613 15 view .LVU2443
 9766 0632 C1F34011 		ubfx	r1, r1, #5, #1
 9767 0636 A848     		ldr	r0, .L486+64
 9768 0638 FFF7FEFF 		bl	printf
 9769              	.LVL1050:
1614:Core/Src/ADBMS.cpp ****         printf("VD_UV:0x%X, ", IC[ic].statc.vd_uv);
 9770              		.loc 1 1614 9 is_stmt 1 view .LVU2444
1614:Core/Src/ADBMS.cpp ****         printf("VD_UV:0x%X, ", IC[ic].statc.vd_uv);
 9771              		.loc 1 1614 47 is_stmt 0 view .LVU2445
 9772 063c 95F8DA10 		ldrb	r1, [r5, #218]	@ zero_extendqisi2
1614:Core/Src/ADBMS.cpp ****         printf("VD_UV:0x%X, ", IC[ic].statc.vd_uv);
 9773              		.loc 1 1614 15 view .LVU2446
 9774 0640 C1F30011 		ubfx	r1, r1, #4, #1
 9775 0644 A548     		ldr	r0, .L486+68
 9776 0646 FFF7FEFF 		bl	printf
 9777              	.LVL1051:
1615:Core/Src/ADBMS.cpp ****         printf("VD_OV:0x%X, ", IC[ic].statc.vd_ov);
 9778              		.loc 1 1615 9 is_stmt 1 view .LVU2447
1615:Core/Src/ADBMS.cpp ****         printf("VD_OV:0x%X, ", IC[ic].statc.vd_ov);
 9779              		.loc 1 1615 45 is_stmt 0 view .LVU2448
 9780 064a 95F8DA10 		ldrb	r1, [r5, #218]	@ zero_extendqisi2
1615:Core/Src/ADBMS.cpp ****         printf("VD_OV:0x%X, ", IC[ic].statc.vd_ov);
 9781              		.loc 1 1615 15 view .LVU2449
 9782 064e C1F3C001 		ubfx	r1, r1, #3, #1
 9783 0652 A348     		ldr	r0, .L486+72
 9784 0654 FFF7FEFF 		bl	printf
 9785              	.LVL1052:
1616:Core/Src/ADBMS.cpp ****         printf("VA_UV:0x%X, ", IC[ic].statc.va_uv);
 9786              		.loc 1 1616 9 is_stmt 1 view .LVU2450
1616:Core/Src/ADBMS.cpp ****         printf("VA_UV:0x%X, ", IC[ic].statc.va_uv);
 9787              		.loc 1 1616 45 is_stmt 0 view .LVU2451
 9788 0658 95F8DA10 		ldrb	r1, [r5, #218]	@ zero_extendqisi2
1616:Core/Src/ADBMS.cpp ****         printf("VA_UV:0x%X, ", IC[ic].statc.va_uv);
 9789              		.loc 1 1616 15 view .LVU2452
 9790 065c C1F38001 		ubfx	r1, r1, #2, #1
 9791 0660 A048     		ldr	r0, .L486+76
ARM GAS  C:\Users\huawei\AppData\Local\Temp\ccpVCJY0.s 			page 253


 9792 0662 FFF7FEFF 		bl	printf
 9793              	.LVL1053:
1617:Core/Src/ADBMS.cpp ****         printf("VA_OV:0x%X\n", IC[ic].statc.va_ov);
 9794              		.loc 1 1617 9 is_stmt 1 view .LVU2453
1617:Core/Src/ADBMS.cpp ****         printf("VA_OV:0x%X\n", IC[ic].statc.va_ov);
 9795              		.loc 1 1617 45 is_stmt 0 view .LVU2454
 9796 0666 95F8DA10 		ldrb	r1, [r5, #218]	@ zero_extendqisi2
1617:Core/Src/ADBMS.cpp ****         printf("VA_OV:0x%X\n", IC[ic].statc.va_ov);
 9797              		.loc 1 1617 15 view .LVU2455
 9798 066a C1F34001 		ubfx	r1, r1, #1, #1
 9799 066e 9E48     		ldr	r0, .L486+80
 9800 0670 FFF7FEFF 		bl	printf
 9801              	.LVL1054:
1618:Core/Src/ADBMS.cpp **** 
 9802              		.loc 1 1618 9 is_stmt 1 view .LVU2456
1618:Core/Src/ADBMS.cpp **** 
 9803              		.loc 1 1618 45 is_stmt 0 view .LVU2457
 9804 0674 95F8DA10 		ldrb	r1, [r5, #218]	@ zero_extendqisi2
1618:Core/Src/ADBMS.cpp **** 
 9805              		.loc 1 1618 15 view .LVU2458
 9806 0678 01F00101 		and	r1, r1, #1
 9807 067c 9B48     		ldr	r0, .L486+84
 9808 067e FFF7FEFF 		bl	printf
 9809              	.LVL1055:
1620:Core/Src/ADBMS.cpp ****         printf("TMODCHK:0x%X, ", IC[ic].statc.tmodchk);
 9810              		.loc 1 1620 9 is_stmt 1 view .LVU2459
1620:Core/Src/ADBMS.cpp ****         printf("TMODCHK:0x%X, ", IC[ic].statc.tmodchk);
 9811              		.loc 1 1620 46 is_stmt 0 view .LVU2460
 9812 0682 95F8DB10 		ldrb	r1, [r5, #219]	@ zero_extendqisi2
1620:Core/Src/ADBMS.cpp ****         printf("TMODCHK:0x%X, ", IC[ic].statc.tmodchk);
 9813              		.loc 1 1620 15 view .LVU2461
 9814 0686 C909     		lsrs	r1, r1, #7
 9815 0688 9948     		ldr	r0, .L486+88
 9816 068a FFF7FEFF 		bl	printf
 9817              	.LVL1056:
1621:Core/Src/ADBMS.cpp ****         printf("THSD:0x%X, ", IC[ic].statc.thsd);
 9818              		.loc 1 1621 9 is_stmt 1 view .LVU2462
1621:Core/Src/ADBMS.cpp ****         printf("THSD:0x%X, ", IC[ic].statc.thsd);
 9819              		.loc 1 1621 47 is_stmt 0 view .LVU2463
 9820 068e 95F8DB10 		ldrb	r1, [r5, #219]	@ zero_extendqisi2
1621:Core/Src/ADBMS.cpp ****         printf("THSD:0x%X, ", IC[ic].statc.thsd);
 9821              		.loc 1 1621 15 view .LVU2464
 9822 0692 C1F38011 		ubfx	r1, r1, #6, #1
 9823 0696 9748     		ldr	r0, .L486+92
 9824 0698 FFF7FEFF 		bl	printf
 9825              	.LVL1057:
1622:Core/Src/ADBMS.cpp ****         printf("SLEEP:0x%X, ", IC[ic].statc.sleep);
 9826              		.loc 1 1622 9 is_stmt 1 view .LVU2465
1622:Core/Src/ADBMS.cpp ****         printf("SLEEP:0x%X, ", IC[ic].statc.sleep);
 9827              		.loc 1 1622 44 is_stmt 0 view .LVU2466
 9828 069c 95F8DB10 		ldrb	r1, [r5, #219]	@ zero_extendqisi2
1622:Core/Src/ADBMS.cpp ****         printf("SLEEP:0x%X, ", IC[ic].statc.sleep);
 9829              		.loc 1 1622 15 view .LVU2467
 9830 06a0 C1F34011 		ubfx	r1, r1, #5, #1
 9831 06a4 9448     		ldr	r0, .L486+96
 9832 06a6 FFF7FEFF 		bl	printf
 9833              	.LVL1058:
ARM GAS  C:\Users\huawei\AppData\Local\Temp\ccpVCJY0.s 			page 254


1623:Core/Src/ADBMS.cpp ****         printf("SPIFLT:0x%X, ", IC[ic].statc.spiflt);
 9834              		.loc 1 1623 9 is_stmt 1 view .LVU2468
1623:Core/Src/ADBMS.cpp ****         printf("SPIFLT:0x%X, ", IC[ic].statc.spiflt);
 9835              		.loc 1 1623 45 is_stmt 0 view .LVU2469
 9836 06aa 95F8DB10 		ldrb	r1, [r5, #219]	@ zero_extendqisi2
1623:Core/Src/ADBMS.cpp ****         printf("SPIFLT:0x%X, ", IC[ic].statc.spiflt);
 9837              		.loc 1 1623 15 view .LVU2470
 9838 06ae C1F30011 		ubfx	r1, r1, #4, #1
 9839 06b2 9248     		ldr	r0, .L486+100
 9840 06b4 FFF7FEFF 		bl	printf
 9841              	.LVL1059:
1624:Core/Src/ADBMS.cpp ****         printf("COMP:0x%X, ", IC[ic].statc.comp);
 9842              		.loc 1 1624 9 is_stmt 1 view .LVU2471
1624:Core/Src/ADBMS.cpp ****         printf("COMP:0x%X, ", IC[ic].statc.comp);
 9843              		.loc 1 1624 46 is_stmt 0 view .LVU2472
 9844 06b8 95F8DB10 		ldrb	r1, [r5, #219]	@ zero_extendqisi2
1624:Core/Src/ADBMS.cpp ****         printf("COMP:0x%X, ", IC[ic].statc.comp);
 9845              		.loc 1 1624 15 view .LVU2473
 9846 06bc C1F3C001 		ubfx	r1, r1, #3, #1
 9847 06c0 8F48     		ldr	r0, .L486+104
 9848 06c2 FFF7FEFF 		bl	printf
 9849              	.LVL1060:
1625:Core/Src/ADBMS.cpp ****         printf("VDEL:0x%X, ", IC[ic].statc.vdel);
 9850              		.loc 1 1625 9 is_stmt 1 view .LVU2474
1625:Core/Src/ADBMS.cpp ****         printf("VDEL:0x%X, ", IC[ic].statc.vdel);
 9851              		.loc 1 1625 44 is_stmt 0 view .LVU2475
 9852 06c6 95F8DB10 		ldrb	r1, [r5, #219]	@ zero_extendqisi2
1625:Core/Src/ADBMS.cpp ****         printf("VDEL:0x%X, ", IC[ic].statc.vdel);
 9853              		.loc 1 1625 15 view .LVU2476
 9854 06ca C1F38001 		ubfx	r1, r1, #2, #1
 9855 06ce 8D48     		ldr	r0, .L486+108
 9856 06d0 FFF7FEFF 		bl	printf
 9857              	.LVL1061:
1626:Core/Src/ADBMS.cpp ****         printf("VDE:0x%X\n\n", IC[ic].statc.vde);
 9858              		.loc 1 1626 9 is_stmt 1 view .LVU2477
1626:Core/Src/ADBMS.cpp ****         printf("VDE:0x%X\n\n", IC[ic].statc.vde);
 9859              		.loc 1 1626 44 is_stmt 0 view .LVU2478
 9860 06d4 95F8DB10 		ldrb	r1, [r5, #219]	@ zero_extendqisi2
1626:Core/Src/ADBMS.cpp ****         printf("VDE:0x%X\n\n", IC[ic].statc.vde);
 9861              		.loc 1 1626 15 view .LVU2479
 9862 06d8 C1F34001 		ubfx	r1, r1, #1, #1
 9863 06dc 8A48     		ldr	r0, .L486+112
 9864 06de FFF7FEFF 		bl	printf
 9865              	.LVL1062:
1627:Core/Src/ADBMS.cpp **** 
 9866              		.loc 1 1627 9 is_stmt 1 view .LVU2480
1627:Core/Src/ADBMS.cpp **** 
 9867              		.loc 1 1627 45 is_stmt 0 view .LVU2481
 9868 06e2 95F8DB10 		ldrb	r1, [r5, #219]	@ zero_extendqisi2
1627:Core/Src/ADBMS.cpp **** 
 9869              		.loc 1 1627 15 view .LVU2482
 9870 06e6 01F00101 		and	r1, r1, #1
 9871 06ea 8848     		ldr	r0, .L486+116
 9872 06ec FFF7FEFF 		bl	printf
 9873              	.LVL1063:
1629:Core/Src/ADBMS.cpp ****         printf("C1UV:0x%X, ", IC[ic].statd.c_uv[0]);
 9874              		.loc 1 1629 9 is_stmt 1 view .LVU2483
ARM GAS  C:\Users\huawei\AppData\Local\Temp\ccpVCJY0.s 			page 255


1629:Core/Src/ADBMS.cpp ****         printf("C1UV:0x%X, ", IC[ic].statd.c_uv[0]);
 9875              		.loc 1 1629 15 is_stmt 0 view .LVU2484
 9876 06f0 8748     		ldr	r0, .L486+120
 9877 06f2 FFF7FEFF 		bl	puts
 9878              	.LVL1064:
1630:Core/Src/ADBMS.cpp ****         printf("C2UV:0x%X, ", IC[ic].statd.c_uv[1]);
 9879              		.loc 1 1630 9 is_stmt 1 view .LVU2485
1630:Core/Src/ADBMS.cpp ****         printf("C2UV:0x%X, ", IC[ic].statd.c_uv[1]);
 9880              		.loc 1 1630 15 is_stmt 0 view .LVU2486
 9881 06f6 95F8EC10 		ldrb	r1, [r5, #236]	@ zero_extendqisi2
 9882 06fa 8648     		ldr	r0, .L486+124
 9883 06fc FFF7FEFF 		bl	printf
 9884              	.LVL1065:
1631:Core/Src/ADBMS.cpp ****         printf("C3UV:0x%X, ", IC[ic].statd.c_uv[2]);
 9885              		.loc 1 1631 9 is_stmt 1 view .LVU2487
1631:Core/Src/ADBMS.cpp ****         printf("C3UV:0x%X, ", IC[ic].statd.c_uv[2]);
 9886              		.loc 1 1631 15 is_stmt 0 view .LVU2488
 9887 0700 95F8ED10 		ldrb	r1, [r5, #237]	@ zero_extendqisi2
 9888 0704 8448     		ldr	r0, .L486+128
 9889 0706 FFF7FEFF 		bl	printf
 9890              	.LVL1066:
1632:Core/Src/ADBMS.cpp ****         printf("C4UV:0x%X, ", IC[ic].statd.c_uv[3]);
 9891              		.loc 1 1632 9 is_stmt 1 view .LVU2489
1632:Core/Src/ADBMS.cpp ****         printf("C4UV:0x%X, ", IC[ic].statd.c_uv[3]);
 9892              		.loc 1 1632 15 is_stmt 0 view .LVU2490
 9893 070a 95F8EE10 		ldrb	r1, [r5, #238]	@ zero_extendqisi2
 9894 070e 8348     		ldr	r0, .L486+132
 9895 0710 FFF7FEFF 		bl	printf
 9896              	.LVL1067:
1633:Core/Src/ADBMS.cpp ****         printf("C5UV:0x%X, ", IC[ic].statd.c_uv[4]);
 9897              		.loc 1 1633 9 is_stmt 1 view .LVU2491
1633:Core/Src/ADBMS.cpp ****         printf("C5UV:0x%X, ", IC[ic].statd.c_uv[4]);
 9898              		.loc 1 1633 15 is_stmt 0 view .LVU2492
 9899 0714 95F8EF10 		ldrb	r1, [r5, #239]	@ zero_extendqisi2
 9900 0718 8148     		ldr	r0, .L486+136
 9901 071a FFF7FEFF 		bl	printf
 9902              	.LVL1068:
1634:Core/Src/ADBMS.cpp ****         printf("C6UV:0x%X, ", IC[ic].statd.c_uv[5]);
 9903              		.loc 1 1634 9 is_stmt 1 view .LVU2493
1634:Core/Src/ADBMS.cpp ****         printf("C6UV:0x%X, ", IC[ic].statd.c_uv[5]);
 9904              		.loc 1 1634 15 is_stmt 0 view .LVU2494
 9905 071e 95F8F010 		ldrb	r1, [r5, #240]	@ zero_extendqisi2
 9906 0722 8048     		ldr	r0, .L486+140
 9907 0724 FFF7FEFF 		bl	printf
 9908              	.LVL1069:
1635:Core/Src/ADBMS.cpp ****         printf("C7UV:0x%X, ", IC[ic].statd.c_uv[6]);
 9909              		.loc 1 1635 9 is_stmt 1 view .LVU2495
1635:Core/Src/ADBMS.cpp ****         printf("C7UV:0x%X, ", IC[ic].statd.c_uv[6]);
 9910              		.loc 1 1635 15 is_stmt 0 view .LVU2496
 9911 0728 95F8F110 		ldrb	r1, [r5, #241]	@ zero_extendqisi2
 9912 072c 7E48     		ldr	r0, .L486+144
 9913 072e FFF7FEFF 		bl	printf
 9914              	.LVL1070:
1636:Core/Src/ADBMS.cpp ****         printf("C8UV:0x%X, ", IC[ic].statd.c_uv[7]);
 9915              		.loc 1 1636 9 is_stmt 1 view .LVU2497
1636:Core/Src/ADBMS.cpp ****         printf("C8UV:0x%X, ", IC[ic].statd.c_uv[7]);
 9916              		.loc 1 1636 15 is_stmt 0 view .LVU2498
ARM GAS  C:\Users\huawei\AppData\Local\Temp\ccpVCJY0.s 			page 256


 9917 0732 95F8F210 		ldrb	r1, [r5, #242]	@ zero_extendqisi2
 9918 0736 7D48     		ldr	r0, .L486+148
 9919 0738 FFF7FEFF 		bl	printf
 9920              	.LVL1071:
1637:Core/Src/ADBMS.cpp ****         printf("C9UV:0x%X, ", IC[ic].statd.c_uv[8]);
 9921              		.loc 1 1637 9 is_stmt 1 view .LVU2499
1637:Core/Src/ADBMS.cpp ****         printf("C9UV:0x%X, ", IC[ic].statd.c_uv[8]);
 9922              		.loc 1 1637 15 is_stmt 0 view .LVU2500
 9923 073c 95F8F310 		ldrb	r1, [r5, #243]	@ zero_extendqisi2
 9924 0740 7B48     		ldr	r0, .L486+152
 9925 0742 FFF7FEFF 		bl	printf
 9926              	.LVL1072:
1638:Core/Src/ADBMS.cpp ****         printf("C10UV:0x%X, ", IC[ic].statd.c_uv[9]);
 9927              		.loc 1 1638 9 is_stmt 1 view .LVU2501
1638:Core/Src/ADBMS.cpp ****         printf("C10UV:0x%X, ", IC[ic].statd.c_uv[9]);
 9928              		.loc 1 1638 15 is_stmt 0 view .LVU2502
 9929 0746 95F8F410 		ldrb	r1, [r5, #244]	@ zero_extendqisi2
 9930 074a 7A48     		ldr	r0, .L486+156
 9931 074c FFF7FEFF 		bl	printf
 9932              	.LVL1073:
1639:Core/Src/ADBMS.cpp ****         printf("C11UV:0x%X, ", IC[ic].statd.c_uv[10]);
 9933              		.loc 1 1639 9 is_stmt 1 view .LVU2503
1639:Core/Src/ADBMS.cpp ****         printf("C11UV:0x%X, ", IC[ic].statd.c_uv[10]);
 9934              		.loc 1 1639 15 is_stmt 0 view .LVU2504
 9935 0750 95F8F510 		ldrb	r1, [r5, #245]	@ zero_extendqisi2
 9936 0754 7848     		ldr	r0, .L486+160
 9937 0756 FFF7FEFF 		bl	printf
 9938              	.LVL1074:
1640:Core/Src/ADBMS.cpp ****         printf("C12UV:0x%X, ", IC[ic].statd.c_uv[11]);
 9939              		.loc 1 1640 9 is_stmt 1 view .LVU2505
1640:Core/Src/ADBMS.cpp ****         printf("C12UV:0x%X, ", IC[ic].statd.c_uv[11]);
 9940              		.loc 1 1640 15 is_stmt 0 view .LVU2506
 9941 075a 95F8F610 		ldrb	r1, [r5, #246]	@ zero_extendqisi2
 9942 075e 7748     		ldr	r0, .L486+164
 9943 0760 FFF7FEFF 		bl	printf
 9944              	.LVL1075:
1641:Core/Src/ADBMS.cpp ****         printf("C13UV:0x%X, ", IC[ic].statd.c_uv[12]);
 9945              		.loc 1 1641 9 is_stmt 1 view .LVU2507
1641:Core/Src/ADBMS.cpp ****         printf("C13UV:0x%X, ", IC[ic].statd.c_uv[12]);
 9946              		.loc 1 1641 15 is_stmt 0 view .LVU2508
 9947 0764 95F8F710 		ldrb	r1, [r5, #247]	@ zero_extendqisi2
 9948 0768 7548     		ldr	r0, .L486+168
 9949 076a FFF7FEFF 		bl	printf
 9950              	.LVL1076:
1642:Core/Src/ADBMS.cpp ****         printf("C14UV:0x%X, ", IC[ic].statd.c_uv[13]);
 9951              		.loc 1 1642 9 is_stmt 1 view .LVU2509
1642:Core/Src/ADBMS.cpp ****         printf("C14UV:0x%X, ", IC[ic].statd.c_uv[13]);
 9952              		.loc 1 1642 15 is_stmt 0 view .LVU2510
 9953 076e 95F8F810 		ldrb	r1, [r5, #248]	@ zero_extendqisi2
 9954 0772 7448     		ldr	r0, .L486+172
 9955 0774 FFF7FEFF 		bl	printf
 9956              	.LVL1077:
1643:Core/Src/ADBMS.cpp ****         printf("C15UV:0x%X, ", IC[ic].statd.c_uv[14]);
 9957              		.loc 1 1643 9 is_stmt 1 view .LVU2511
1643:Core/Src/ADBMS.cpp ****         printf("C15UV:0x%X, ", IC[ic].statd.c_uv[14]);
 9958              		.loc 1 1643 15 is_stmt 0 view .LVU2512
 9959 0778 95F8F910 		ldrb	r1, [r5, #249]	@ zero_extendqisi2
ARM GAS  C:\Users\huawei\AppData\Local\Temp\ccpVCJY0.s 			page 257


 9960 077c 7248     		ldr	r0, .L486+176
 9961 077e FFF7FEFF 		bl	printf
 9962              	.LVL1078:
1644:Core/Src/ADBMS.cpp ****         printf("C16UV:0x%X\n", IC[ic].statd.c_uv[15]);
 9963              		.loc 1 1644 9 is_stmt 1 view .LVU2513
1644:Core/Src/ADBMS.cpp ****         printf("C16UV:0x%X\n", IC[ic].statd.c_uv[15]);
 9964              		.loc 1 1644 15 is_stmt 0 view .LVU2514
 9965 0782 95F8FA10 		ldrb	r1, [r5, #250]	@ zero_extendqisi2
 9966 0786 7148     		ldr	r0, .L486+180
 9967 0788 FFF7FEFF 		bl	printf
 9968              	.LVL1079:
1645:Core/Src/ADBMS.cpp **** 
 9969              		.loc 1 1645 9 is_stmt 1 view .LVU2515
1645:Core/Src/ADBMS.cpp **** 
 9970              		.loc 1 1645 15 is_stmt 0 view .LVU2516
 9971 078c 95F8FB10 		ldrb	r1, [r5, #251]	@ zero_extendqisi2
 9972 0790 6F48     		ldr	r0, .L486+184
 9973 0792 FFF7FEFF 		bl	printf
 9974              	.LVL1080:
1647:Core/Src/ADBMS.cpp ****         printf("C2OV:0x%X, ", IC[ic].statd.c_ov[1]);
 9975              		.loc 1 1647 9 is_stmt 1 view .LVU2517
1647:Core/Src/ADBMS.cpp ****         printf("C2OV:0x%X, ", IC[ic].statd.c_ov[1]);
 9976              		.loc 1 1647 15 is_stmt 0 view .LVU2518
 9977 0796 95F8DC10 		ldrb	r1, [r5, #220]	@ zero_extendqisi2
 9978 079a 6E48     		ldr	r0, .L486+188
 9979 079c FFF7FEFF 		bl	printf
 9980              	.LVL1081:
1648:Core/Src/ADBMS.cpp ****         printf("C3OV:0x%X, ", IC[ic].statd.c_ov[2]);
 9981              		.loc 1 1648 9 is_stmt 1 view .LVU2519
1648:Core/Src/ADBMS.cpp ****         printf("C3OV:0x%X, ", IC[ic].statd.c_ov[2]);
 9982              		.loc 1 1648 15 is_stmt 0 view .LVU2520
 9983 07a0 95F8DD10 		ldrb	r1, [r5, #221]	@ zero_extendqisi2
 9984 07a4 6C48     		ldr	r0, .L486+192
 9985 07a6 FFF7FEFF 		bl	printf
 9986              	.LVL1082:
1649:Core/Src/ADBMS.cpp ****         printf("C4OV:0x%X, ", IC[ic].statd.c_ov[3]);
 9987              		.loc 1 1649 9 is_stmt 1 view .LVU2521
1649:Core/Src/ADBMS.cpp ****         printf("C4OV:0x%X, ", IC[ic].statd.c_ov[3]);
 9988              		.loc 1 1649 15 is_stmt 0 view .LVU2522
 9989 07aa 95F8DE10 		ldrb	r1, [r5, #222]	@ zero_extendqisi2
 9990 07ae 6B48     		ldr	r0, .L486+196
 9991 07b0 FFF7FEFF 		bl	printf
 9992              	.LVL1083:
1650:Core/Src/ADBMS.cpp ****         printf("C5OV:0x%X, ", IC[ic].statd.c_ov[4]);
 9993              		.loc 1 1650 9 is_stmt 1 view .LVU2523
1650:Core/Src/ADBMS.cpp ****         printf("C5OV:0x%X, ", IC[ic].statd.c_ov[4]);
 9994              		.loc 1 1650 15 is_stmt 0 view .LVU2524
 9995 07b4 95F8DF10 		ldrb	r1, [r5, #223]	@ zero_extendqisi2
 9996 07b8 6948     		ldr	r0, .L486+200
 9997 07ba FFF7FEFF 		bl	printf
 9998              	.LVL1084:
1651:Core/Src/ADBMS.cpp ****         printf("C6OV:0x%X, ", IC[ic].statd.c_ov[5]);
 9999              		.loc 1 1651 9 is_stmt 1 view .LVU2525
1651:Core/Src/ADBMS.cpp ****         printf("C6OV:0x%X, ", IC[ic].statd.c_ov[5]);
 10000              		.loc 1 1651 15 is_stmt 0 view .LVU2526
 10001 07be 95F8E010 		ldrb	r1, [r5, #224]	@ zero_extendqisi2
 10002 07c2 6848     		ldr	r0, .L486+204
ARM GAS  C:\Users\huawei\AppData\Local\Temp\ccpVCJY0.s 			page 258


 10003 07c4 FFF7FEFF 		bl	printf
 10004              	.LVL1085:
1652:Core/Src/ADBMS.cpp ****         printf("C7OV:0x%X, ", IC[ic].statd.c_ov[6]);
 10005              		.loc 1 1652 9 is_stmt 1 view .LVU2527
1652:Core/Src/ADBMS.cpp ****         printf("C7OV:0x%X, ", IC[ic].statd.c_ov[6]);
 10006              		.loc 1 1652 15 is_stmt 0 view .LVU2528
 10007 07c8 95F8E110 		ldrb	r1, [r5, #225]	@ zero_extendqisi2
 10008 07cc 6648     		ldr	r0, .L486+208
 10009 07ce FFF7FEFF 		bl	printf
 10010              	.LVL1086:
1653:Core/Src/ADBMS.cpp ****         printf("C8OV:0x%X, ", IC[ic].statd.c_ov[7]);
 10011              		.loc 1 1653 9 is_stmt 1 view .LVU2529
1653:Core/Src/ADBMS.cpp ****         printf("C8OV:0x%X, ", IC[ic].statd.c_ov[7]);
 10012              		.loc 1 1653 15 is_stmt 0 view .LVU2530
 10013 07d2 95F8E210 		ldrb	r1, [r5, #226]	@ zero_extendqisi2
 10014 07d6 6548     		ldr	r0, .L486+212
 10015 07d8 FFF7FEFF 		bl	printf
 10016              	.LVL1087:
1654:Core/Src/ADBMS.cpp ****         printf("C9OV:0x%X, ", IC[ic].statd.c_ov[8]);
 10017              		.loc 1 1654 9 is_stmt 1 view .LVU2531
1654:Core/Src/ADBMS.cpp ****         printf("C9OV:0x%X, ", IC[ic].statd.c_ov[8]);
 10018              		.loc 1 1654 15 is_stmt 0 view .LVU2532
 10019 07dc 95F8E310 		ldrb	r1, [r5, #227]	@ zero_extendqisi2
 10020 07e0 6348     		ldr	r0, .L486+216
 10021 07e2 FFF7FEFF 		bl	printf
 10022              	.LVL1088:
1655:Core/Src/ADBMS.cpp ****         printf("C10OV:0x%X, ", IC[ic].statd.c_ov[9]);
 10023              		.loc 1 1655 9 is_stmt 1 view .LVU2533
1655:Core/Src/ADBMS.cpp ****         printf("C10OV:0x%X, ", IC[ic].statd.c_ov[9]);
 10024              		.loc 1 1655 15 is_stmt 0 view .LVU2534
 10025 07e6 95F8E410 		ldrb	r1, [r5, #228]	@ zero_extendqisi2
 10026 07ea 6248     		ldr	r0, .L486+220
 10027 07ec FFF7FEFF 		bl	printf
 10028              	.LVL1089:
1656:Core/Src/ADBMS.cpp ****         printf("C11OV:0x%X, ", IC[ic].statd.c_ov[10]);
 10029              		.loc 1 1656 9 is_stmt 1 view .LVU2535
1656:Core/Src/ADBMS.cpp ****         printf("C11OV:0x%X, ", IC[ic].statd.c_ov[10]);
 10030              		.loc 1 1656 15 is_stmt 0 view .LVU2536
 10031 07f0 95F8E510 		ldrb	r1, [r5, #229]	@ zero_extendqisi2
 10032 07f4 6048     		ldr	r0, .L486+224
 10033 07f6 FFF7FEFF 		bl	printf
 10034              	.LVL1090:
1657:Core/Src/ADBMS.cpp ****         printf("C12OV:0x%X, ", IC[ic].statd.c_ov[11]);
 10035              		.loc 1 1657 9 is_stmt 1 view .LVU2537
1657:Core/Src/ADBMS.cpp ****         printf("C12OV:0x%X, ", IC[ic].statd.c_ov[11]);
 10036              		.loc 1 1657 15 is_stmt 0 view .LVU2538
 10037 07fa 95F8E610 		ldrb	r1, [r5, #230]	@ zero_extendqisi2
 10038 07fe 5F48     		ldr	r0, .L486+228
 10039 0800 FFF7FEFF 		bl	printf
 10040              	.LVL1091:
1658:Core/Src/ADBMS.cpp ****         printf("C13OV:0x%X, ", IC[ic].statd.c_ov[12]);
 10041              		.loc 1 1658 9 is_stmt 1 view .LVU2539
1658:Core/Src/ADBMS.cpp ****         printf("C13OV:0x%X, ", IC[ic].statd.c_ov[12]);
 10042              		.loc 1 1658 15 is_stmt 0 view .LVU2540
 10043 0804 95F8E710 		ldrb	r1, [r5, #231]	@ zero_extendqisi2
 10044 0808 5D48     		ldr	r0, .L486+232
 10045 080a FFF7FEFF 		bl	printf
ARM GAS  C:\Users\huawei\AppData\Local\Temp\ccpVCJY0.s 			page 259


 10046              	.LVL1092:
1659:Core/Src/ADBMS.cpp ****         printf("C14OV:0x%X, ", IC[ic].statd.c_ov[13]);
 10047              		.loc 1 1659 9 is_stmt 1 view .LVU2541
1659:Core/Src/ADBMS.cpp ****         printf("C14OV:0x%X, ", IC[ic].statd.c_ov[13]);
 10048              		.loc 1 1659 15 is_stmt 0 view .LVU2542
 10049 080e 95F8E810 		ldrb	r1, [r5, #232]	@ zero_extendqisi2
 10050 0812 5C48     		ldr	r0, .L486+236
 10051 0814 FFF7FEFF 		bl	printf
 10052              	.LVL1093:
1660:Core/Src/ADBMS.cpp ****         printf("C15OV:0x%X, ", IC[ic].statd.c_ov[14]);
 10053              		.loc 1 1660 9 is_stmt 1 view .LVU2543
1660:Core/Src/ADBMS.cpp ****         printf("C15OV:0x%X, ", IC[ic].statd.c_ov[14]);
 10054              		.loc 1 1660 15 is_stmt 0 view .LVU2544
 10055 0818 95F8E910 		ldrb	r1, [r5, #233]	@ zero_extendqisi2
 10056 081c 5A48     		ldr	r0, .L486+240
 10057 081e FFF7FEFF 		bl	printf
 10058              	.LVL1094:
1661:Core/Src/ADBMS.cpp ****         printf("C16OV:0x%X\n", IC[ic].statd.c_ov[15]);
 10059              		.loc 1 1661 9 is_stmt 1 view .LVU2545
1661:Core/Src/ADBMS.cpp ****         printf("C16OV:0x%X\n", IC[ic].statd.c_ov[15]);
 10060              		.loc 1 1661 15 is_stmt 0 view .LVU2546
 10061 0822 95F8EA10 		ldrb	r1, [r5, #234]	@ zero_extendqisi2
 10062 0826 5948     		ldr	r0, .L486+244
 10063 0828 FFF7FEFF 		bl	printf
 10064              	.LVL1095:
1662:Core/Src/ADBMS.cpp **** 
 10065              		.loc 1 1662 9 is_stmt 1 view .LVU2547
1662:Core/Src/ADBMS.cpp **** 
 10066              		.loc 1 1662 15 is_stmt 0 view .LVU2548
 10067 082c 95F8EB10 		ldrb	r1, [r5, #235]	@ zero_extendqisi2
 10068 0830 5748     		ldr	r0, .L486+248
 10069 0832 FFF7FEFF 		bl	printf
 10070              	.LVL1096:
1664:Core/Src/ADBMS.cpp ****         printf("CT:0x%X\n\n", IC[ic].statd.ct);
 10071              		.loc 1 1664 9 is_stmt 1 view .LVU2549
1664:Core/Src/ADBMS.cpp ****         printf("CT:0x%X\n\n", IC[ic].statd.ct);
 10072              		.loc 1 1664 43 is_stmt 0 view .LVU2550
 10073 0836 95F8FC10 		ldrb	r1, [r5, #252]	@ zero_extendqisi2
1664:Core/Src/ADBMS.cpp ****         printf("CT:0x%X\n\n", IC[ic].statd.ct);
 10074              		.loc 1 1664 15 view .LVU2551
 10075 083a 8909     		lsrs	r1, r1, #6
 10076 083c 5548     		ldr	r0, .L486+252
 10077 083e FFF7FEFF 		bl	printf
 10078              	.LVL1097:
1665:Core/Src/ADBMS.cpp **** 
 10079              		.loc 1 1665 9 is_stmt 1 view .LVU2552
1665:Core/Src/ADBMS.cpp **** 
 10080              		.loc 1 1665 44 is_stmt 0 view .LVU2553
 10081 0842 95F8FC10 		ldrb	r1, [r5, #252]	@ zero_extendqisi2
1665:Core/Src/ADBMS.cpp **** 
 10082              		.loc 1 1665 15 view .LVU2554
 10083 0846 01F03F01 		and	r1, r1, #63
 10084 084a 5348     		ldr	r0, .L486+256
 10085 084c FFF7FEFF 		bl	printf
 10086              	.LVL1098:
1667:Core/Src/ADBMS.cpp ****         printf("GPI:0x%X, ", IC[ic].state.gpi);
 10087              		.loc 1 1667 9 is_stmt 1 view .LVU2555
ARM GAS  C:\Users\huawei\AppData\Local\Temp\ccpVCJY0.s 			page 260


1667:Core/Src/ADBMS.cpp ****         printf("GPI:0x%X, ", IC[ic].state.gpi);
 10088              		.loc 1 1667 15 is_stmt 0 view .LVU2556
 10089 0850 5248     		ldr	r0, .L486+260
 10090 0852 FFF7FEFF 		bl	puts
 10091              	.LVL1099:
1668:Core/Src/ADBMS.cpp ****         printf("REV_ID:0x%X\n\n", IC[ic].state.rev);
 10092              		.loc 1 1668 9 is_stmt 1 view .LVU2557
1668:Core/Src/ADBMS.cpp ****         printf("REV_ID:0x%X\n\n", IC[ic].state.rev);
 10093              		.loc 1 1668 43 is_stmt 0 view .LVU2558
 10094 0856 B5F8FE10 		ldrh	r1, [r5, #254]
1668:Core/Src/ADBMS.cpp ****         printf("REV_ID:0x%X\n\n", IC[ic].state.rev);
 10095              		.loc 1 1668 15 view .LVU2559
 10096 085a C1F30901 		ubfx	r1, r1, #0, #10
 10097 085e 5048     		ldr	r0, .L486+264
 10098 0860 FFF7FEFF 		bl	printf
 10099              	.LVL1100:
1669:Core/Src/ADBMS.cpp **** 
 10100              		.loc 1 1669 9 is_stmt 1 view .LVU2560
1669:Core/Src/ADBMS.cpp **** 
 10101              		.loc 1 1669 48 is_stmt 0 view .LVU2561
 10102 0864 95F8FF10 		ldrb	r1, [r5, #255]	@ zero_extendqisi2
1669:Core/Src/ADBMS.cpp **** 
 10103              		.loc 1 1669 15 view .LVU2562
 10104 0868 C1F38301 		ubfx	r1, r1, #2, #4
 10105 086c 4D48     		ldr	r0, .L486+268
 10106 086e FFF7FEFF 		bl	printf
 10107              	.LVL1101:
1671:Core/Src/ADBMS.cpp ****         printf("PECError:%d\n\n", IC[ic].cccrc.stat_pec);
 10108              		.loc 1 1671 9 is_stmt 1 view .LVU2563
1671:Core/Src/ADBMS.cpp ****         printf("PECError:%d\n\n", IC[ic].cccrc.stat_pec);
 10109              		.loc 1 1671 15 is_stmt 0 view .LVU2564
 10110 0872 95F88F11 		ldrb	r1, [r5, #399]	@ zero_extendqisi2
 10111 0876 4C48     		ldr	r0, .L486+272
 10112 0878 FFF7FEFF 		bl	printf
 10113              	.LVL1102:
1672:Core/Src/ADBMS.cpp ****       }
 10114              		.loc 1 1672 9 is_stmt 1 view .LVU2565
1672:Core/Src/ADBMS.cpp ****       }
 10115              		.loc 1 1672 15 is_stmt 0 view .LVU2566
 10116 087c 95F89711 		ldrb	r1, [r5, #407]	@ zero_extendqisi2
 10117 0880 4A48     		ldr	r0, .L486+276
 10118 0882 FFF7FEFF 		bl	printf
 10119              	.LVL1103:
 10120 0886 05E4     		b	.L470
 10121              	.LVL1104:
 10122              	.L471:
1674:Core/Src/ADBMS.cpp ****     }
 10123              		.loc 1 1674 13 is_stmt 1 view .LVU2567
1674:Core/Src/ADBMS.cpp ****     }
 10124              		.loc 1 1674 19 is_stmt 0 view .LVU2568
 10125 0888 4948     		ldr	r0, .L486+280
 10126 088a FFF7FEFF 		bl	puts
 10127              	.LVL1105:
 10128 088e 01E4     		b	.L470
 10129              	.L481:
 10130              	.LBE159:
1677:Core/Src/ADBMS.cpp **** 
ARM GAS  C:\Users\huawei\AppData\Local\Temp\ccpVCJY0.s 			page 261


 10131              		.loc 1 1677 1 view .LVU2569
 10132 0890 BDE8F883 		pop	{r3, r4, r5, r6, r7, r8, r9, pc}
 10133              	.LVL1106:
 10134              	.L487:
1677:Core/Src/ADBMS.cpp **** 
 10135              		.loc 1 1677 1 view .LVU2570
 10136 0894 AFF30080 		.align	3
 10137              	.L486:
 10138 0898 B81E85EB 		.word	-343597384
 10139 089c 51B87E3F 		.word	1065269329
 10140 08a0 00000000 		.word	0
 10141 08a4 00107140 		.word	1081151488
 10142 08a8 00000000 		.word	.LC136
 10143 08ac 0C000000 		.word	.LC137
 10144 08b0 18000000 		.word	.LC138
 10145 08b4 84030000 		.word	.LC202
 10146 08b8 40000000 		.word	.LC141
 10147 08bc 4C000000 		.word	.LC142
 10148 08c0 58000000 		.word	.LC143
 10149 08c4 94030000 		.word	.LC203
 10150 08c8 70000000 		.word	.LC145
 10151 08cc 7C000000 		.word	.LC146
 10152 08d0 8C000000 		.word	.LC147
 10153 08d4 9C000000 		.word	.LC148
 10154 08d8 A0030000 		.word	.LC204
 10155 08dc BC000000 		.word	.LC150
 10156 08e0 CC000000 		.word	.LC151
 10157 08e4 DC000000 		.word	.LC152
 10158 08e8 EC000000 		.word	.LC153
 10159 08ec FC000000 		.word	.LC154
 10160 08f0 08010000 		.word	.LC155
 10161 08f4 18010000 		.word	.LC156
 10162 08f8 28010000 		.word	.LC157
 10163 08fc 34010000 		.word	.LC158
 10164 0900 44010000 		.word	.LC159
 10165 0904 54010000 		.word	.LC160
 10166 0908 60010000 		.word	.LC161
 10167 090c B0030000 		.word	.LC205
 10168 0910 78010000 		.word	.LC163
 10169 0914 84010000 		.word	.LC164
 10170 0918 90010000 		.word	.LC165
 10171 091c 9C010000 		.word	.LC166
 10172 0920 A8010000 		.word	.LC167
 10173 0924 B4010000 		.word	.LC168
 10174 0928 C0010000 		.word	.LC169
 10175 092c CC010000 		.word	.LC170
 10176 0930 D8010000 		.word	.LC171
 10177 0934 E4010000 		.word	.LC172
 10178 0938 F0010000 		.word	.LC173
 10179 093c 00020000 		.word	.LC174
 10180 0940 10020000 		.word	.LC175
 10181 0944 20020000 		.word	.LC176
 10182 0948 30020000 		.word	.LC177
 10183 094c 40020000 		.word	.LC178
 10184 0950 50020000 		.word	.LC179
 10185 0954 5C020000 		.word	.LC180
 10186 0958 68020000 		.word	.LC181
ARM GAS  C:\Users\huawei\AppData\Local\Temp\ccpVCJY0.s 			page 262


 10187 095c 74020000 		.word	.LC182
 10188 0960 80020000 		.word	.LC183
 10189 0964 8C020000 		.word	.LC184
 10190 0968 98020000 		.word	.LC185
 10191 096c A4020000 		.word	.LC186
 10192 0970 B0020000 		.word	.LC187
 10193 0974 BC020000 		.word	.LC188
 10194 0978 C8020000 		.word	.LC189
 10195 097c D8020000 		.word	.LC190
 10196 0980 E8020000 		.word	.LC191
 10197 0984 F8020000 		.word	.LC192
 10198 0988 08030000 		.word	.LC193
 10199 098c 18030000 		.word	.LC194
 10200 0990 28030000 		.word	.LC195
 10201 0994 34030000 		.word	.LC196
 10202 0998 BC030000 		.word	.LC206
 10203 099c 5C030000 		.word	.LC199
 10204 09a0 68030000 		.word	.LC200
 10205 09a4 C8030000 		.word	.LC207
 10206 09a8 34000000 		.word	.LC140
 10207 09ac 48010000 		.word	.LC35
 10208 09b0 38000000 		.word	.LC14
 10209              		.cfi_endproc
 10210              	.LFE281:
 10211              		.fnend
 10213              		.section	.text._Z31adBms6830_read_status_registershP9cell_asic,"ax",%progbits
 10214              		.align	1
 10215              		.global	_Z31adBms6830_read_status_registershP9cell_asic
 10216              		.syntax unified
 10217              		.thumb
 10218              		.thumb_func
 10220              	_Z31adBms6830_read_status_registershP9cell_asic:
 10221              		.fnstart
 10222              	.LVL1107:
 10223              	.LFB273:
1106:Core/Src/ADBMS.cpp ****   adBmsWakeupIc(tIC);
 10224              		.loc 1 1106 1 is_stmt 1 view -0
 10225              		.cfi_startproc
 10226              		@ args = 0, pretend = 0, frame = 0
 10227              		@ frame_needed = 0, uses_anonymous_args = 0
1106:Core/Src/ADBMS.cpp ****   adBmsWakeupIc(tIC);
 10228              		.loc 1 1106 1 is_stmt 0 view .LVU2572
 10229 0000 2DE9F043 		push	{r4, r5, r6, r7, r8, r9, lr}
 10230              		.save {r4, r5, r6, r7, r8, r9, lr}
 10231              	.LCFI92:
 10232              		.cfi_def_cfa_offset 28
 10233              		.cfi_offset 4, -28
 10234              		.cfi_offset 5, -24
 10235              		.cfi_offset 6, -20
 10236              		.cfi_offset 7, -16
 10237              		.cfi_offset 8, -12
 10238              		.cfi_offset 9, -8
 10239              		.cfi_offset 14, -4
 10240              		.pad #12
 10241 0004 83B0     		sub	sp, sp, #12
 10242              	.LCFI93:
 10243              		.cfi_def_cfa_offset 40
ARM GAS  C:\Users\huawei\AppData\Local\Temp\ccpVCJY0.s 			page 263


 10244 0006 0446     		mov	r4, r0
 10245 0008 0D46     		mov	r5, r1
1107:Core/Src/ADBMS.cpp ****   adBmsWriteData(tIC, &ic[0], WRCFGA, Config, A);
 10246              		.loc 1 1107 3 is_stmt 1 view .LVU2573
1107:Core/Src/ADBMS.cpp ****   adBmsWriteData(tIC, &ic[0], WRCFGA, Config, A);
 10247              		.loc 1 1107 16 is_stmt 0 view .LVU2574
 10248 000a FFF7FEFF 		bl	_Z13adBmsWakeupIch
 10249              	.LVL1108:
1108:Core/Src/ADBMS.cpp ****   adBmsWriteData(tIC, &ic[0], WRCFGB, Config, B);
 10250              		.loc 1 1108 3 is_stmt 1 view .LVU2575
1108:Core/Src/ADBMS.cpp ****   adBmsWriteData(tIC, &ic[0], WRCFGB, Config, B);
 10251              		.loc 1 1108 17 is_stmt 0 view .LVU2576
 10252 000e 4FF00108 		mov	r8, #1
 10253 0012 CDF80080 		str	r8, [sp]
 10254 0016 0823     		movs	r3, #8
 10255 0018 304A     		ldr	r2, .L490
 10256 001a 2946     		mov	r1, r5
 10257 001c 2046     		mov	r0, r4
 10258 001e FFF7FEFF 		bl	_Z14adBmsWriteDatahP9cell_asicPh4TYPE3GRP
 10259              	.LVL1109:
1109:Core/Src/ADBMS.cpp ****   adBms6830_Adax(AUX_OPEN_WIRE_DETECTION, OPEN_WIRE_CURRENT_SOURCE, AUX_CH_TO_CONVERT);
 10260              		.loc 1 1109 3 is_stmt 1 view .LVU2577
1109:Core/Src/ADBMS.cpp ****   adBms6830_Adax(AUX_OPEN_WIRE_DETECTION, OPEN_WIRE_CURRENT_SOURCE, AUX_CH_TO_CONVERT);
 10261              		.loc 1 1109 17 is_stmt 0 view .LVU2578
 10262 0022 0226     		movs	r6, #2
 10263 0024 0096     		str	r6, [sp]
 10264 0026 0823     		movs	r3, #8
 10265 0028 2D4A     		ldr	r2, .L490+4
 10266 002a 2946     		mov	r1, r5
 10267 002c 2046     		mov	r0, r4
 10268 002e FFF7FEFF 		bl	_Z14adBmsWriteDatahP9cell_asicPh4TYPE3GRP
 10269              	.LVL1110:
1110:Core/Src/ADBMS.cpp ****   pladc_count = adBmsPollAdc(PLADC);
 10270              		.loc 1 1110 3 is_stmt 1 view .LVU2579
1110:Core/Src/ADBMS.cpp ****   pladc_count = adBmsPollAdc(PLADC);
 10271              		.loc 1 1110 17 is_stmt 0 view .LVU2580
 10272 0032 2C4B     		ldr	r3, .L490+8
 10273 0034 1A78     		ldrb	r2, [r3]	@ zero_extendqisi2
 10274 0036 2C4B     		ldr	r3, .L490+12
 10275 0038 1978     		ldrb	r1, [r3]	@ zero_extendqisi2
 10276 003a 2C4B     		ldr	r3, .L490+16
 10277 003c 1878     		ldrb	r0, [r3]	@ zero_extendqisi2
 10278 003e FFF7FEFF 		bl	_Z14adBms6830_Adax6OW_AUX3PUP2CH
 10279              	.LVL1111:
1111:Core/Src/ADBMS.cpp ****   adBms6830_Adcv(REDUNDANT_MEASUREMENT, CONTINUOUS_MEASUREMENT, DISCHARGE_PERMITTED, RESET_FILTER, 
 10280              		.loc 1 1111 3 is_stmt 1 view .LVU2581
1111:Core/Src/ADBMS.cpp ****   adBms6830_Adcv(REDUNDANT_MEASUREMENT, CONTINUOUS_MEASUREMENT, DISCHARGE_PERMITTED, RESET_FILTER, 
 10281              		.loc 1 1111 29 is_stmt 0 view .LVU2582
 10282 0042 DFF8D890 		ldr	r9, .L490+64
 10283 0046 4846     		mov	r0, r9
 10284 0048 FFF7FEFF 		bl	_Z12adBmsPollAdcPh
 10285              	.LVL1112:
1111:Core/Src/ADBMS.cpp ****   adBms6830_Adcv(REDUNDANT_MEASUREMENT, CONTINUOUS_MEASUREMENT, DISCHARGE_PERMITTED, RESET_FILTER, 
 10286              		.loc 1 1111 15 view .LVU2583
 10287 004c 284F     		ldr	r7, .L490+20
 10288 004e 3860     		str	r0, [r7]
1112:Core/Src/ADBMS.cpp ****   pladc_count = pladc_count + adBmsPollAdc(PLADC);
ARM GAS  C:\Users\huawei\AppData\Local\Temp\ccpVCJY0.s 			page 264


 10289              		.loc 1 1112 3 is_stmt 1 view .LVU2584
1112:Core/Src/ADBMS.cpp ****   pladc_count = pladc_count + adBmsPollAdc(PLADC);
 10290              		.loc 1 1112 17 is_stmt 0 view .LVU2585
 10291 0050 284B     		ldr	r3, .L490+24
 10292 0052 1B78     		ldrb	r3, [r3]	@ zero_extendqisi2
 10293 0054 0093     		str	r3, [sp]
 10294 0056 284B     		ldr	r3, .L490+28
 10295 0058 1B78     		ldrb	r3, [r3]	@ zero_extendqisi2
 10296 005a 284A     		ldr	r2, .L490+32
 10297 005c 1278     		ldrb	r2, [r2]	@ zero_extendqisi2
 10298 005e 2849     		ldr	r1, .L490+36
 10299 0060 0978     		ldrb	r1, [r1]	@ zero_extendqisi2
 10300 0062 2848     		ldr	r0, .L490+40
 10301 0064 0078     		ldrb	r0, [r0]	@ zero_extendqisi2
 10302 0066 FFF7FEFF 		bl	_Z14adBms6830_Adcv2RD4CONT3DCP4RSTF6OW_C_S
 10303              	.LVL1113:
1113:Core/Src/ADBMS.cpp **** 
 10304              		.loc 1 1113 3 is_stmt 1 view .LVU2586
1113:Core/Src/ADBMS.cpp **** 
 10305              		.loc 1 1113 43 is_stmt 0 view .LVU2587
 10306 006a 4846     		mov	r0, r9
 10307 006c FFF7FEFF 		bl	_Z12adBmsPollAdcPh
 10308              	.LVL1114:
1113:Core/Src/ADBMS.cpp **** 
 10309              		.loc 1 1113 29 view .LVU2588
 10310 0070 3B68     		ldr	r3, [r7]
 10311 0072 1844     		add	r0, r0, r3
1113:Core/Src/ADBMS.cpp **** 
 10312              		.loc 1 1113 15 view .LVU2589
 10313 0074 3860     		str	r0, [r7]
1115:Core/Src/ADBMS.cpp ****   adBmsReadData(tIC, &ic[0], RDSTATB, Status, B);
 10314              		.loc 1 1115 3 is_stmt 1 view .LVU2590
1115:Core/Src/ADBMS.cpp ****   adBmsReadData(tIC, &ic[0], RDSTATB, Status, B);
 10315              		.loc 1 1115 16 is_stmt 0 view .LVU2591
 10316 0076 CDF80080 		str	r8, [sp]
 10317 007a 0323     		movs	r3, #3
 10318 007c 224A     		ldr	r2, .L490+44
 10319 007e 2946     		mov	r1, r5
 10320 0080 2046     		mov	r0, r4
 10321 0082 FFF7FEFF 		bl	_Z13adBmsReadDatahP9cell_asicPh4TYPE3GRP
 10322              	.LVL1115:
1116:Core/Src/ADBMS.cpp ****   adBmsReadData(tIC, &ic[0], RDSTATC, Status, C);
 10323              		.loc 1 1116 3 is_stmt 1 view .LVU2592
1116:Core/Src/ADBMS.cpp ****   adBmsReadData(tIC, &ic[0], RDSTATC, Status, C);
 10324              		.loc 1 1116 16 is_stmt 0 view .LVU2593
 10325 0086 0096     		str	r6, [sp]
 10326 0088 0323     		movs	r3, #3
 10327 008a 204A     		ldr	r2, .L490+48
 10328 008c 2946     		mov	r1, r5
 10329 008e 2046     		mov	r0, r4
 10330 0090 FFF7FEFF 		bl	_Z13adBmsReadDatahP9cell_asicPh4TYPE3GRP
 10331              	.LVL1116:
1117:Core/Src/ADBMS.cpp ****   adBmsReadData(tIC, &ic[0], RDSTATD, Status, D);
 10332              		.loc 1 1117 3 is_stmt 1 view .LVU2594
1117:Core/Src/ADBMS.cpp ****   adBmsReadData(tIC, &ic[0], RDSTATD, Status, D);
 10333              		.loc 1 1117 16 is_stmt 0 view .LVU2595
 10334 0094 0326     		movs	r6, #3
ARM GAS  C:\Users\huawei\AppData\Local\Temp\ccpVCJY0.s 			page 265


 10335 0096 0096     		str	r6, [sp]
 10336 0098 3346     		mov	r3, r6
 10337 009a 1D4A     		ldr	r2, .L490+52
 10338 009c 2946     		mov	r1, r5
 10339 009e 2046     		mov	r0, r4
 10340 00a0 FFF7FEFF 		bl	_Z13adBmsReadDatahP9cell_asicPh4TYPE3GRP
 10341              	.LVL1117:
1118:Core/Src/ADBMS.cpp ****   adBmsReadData(tIC, &ic[0], RDSTATE, Status, E);
 10342              		.loc 1 1118 3 is_stmt 1 view .LVU2596
1118:Core/Src/ADBMS.cpp ****   adBmsReadData(tIC, &ic[0], RDSTATE, Status, E);
 10343              		.loc 1 1118 16 is_stmt 0 view .LVU2597
 10344 00a4 0423     		movs	r3, #4
 10345 00a6 0093     		str	r3, [sp]
 10346 00a8 3346     		mov	r3, r6
 10347 00aa 1A4A     		ldr	r2, .L490+56
 10348 00ac 2946     		mov	r1, r5
 10349 00ae 2046     		mov	r0, r4
 10350 00b0 FFF7FEFF 		bl	_Z13adBmsReadDatahP9cell_asicPh4TYPE3GRP
 10351              	.LVL1118:
1119:Core/Src/ADBMS.cpp ****   printPollAdcConvTime(pladc_count);
 10352              		.loc 1 1119 3 is_stmt 1 view .LVU2598
1119:Core/Src/ADBMS.cpp ****   printPollAdcConvTime(pladc_count);
 10353              		.loc 1 1119 16 is_stmt 0 view .LVU2599
 10354 00b4 0523     		movs	r3, #5
 10355 00b6 0093     		str	r3, [sp]
 10356 00b8 3346     		mov	r3, r6
 10357 00ba 174A     		ldr	r2, .L490+60
 10358 00bc 2946     		mov	r1, r5
 10359 00be 2046     		mov	r0, r4
 10360 00c0 FFF7FEFF 		bl	_Z13adBmsReadDatahP9cell_asicPh4TYPE3GRP
 10361              	.LVL1119:
1120:Core/Src/ADBMS.cpp ****   printStatus(tIC, &ic[0], Status, ALL_GRP);
 10362              		.loc 1 1120 3 is_stmt 1 view .LVU2600
1120:Core/Src/ADBMS.cpp ****   printStatus(tIC, &ic[0], Status, ALL_GRP);
 10363              		.loc 1 1120 23 is_stmt 0 view .LVU2601
 10364 00c4 3868     		ldr	r0, [r7]
 10365 00c6 FFF7FEFF 		bl	_Z20printPollAdcConvTimei
 10366              	.LVL1120:
1121:Core/Src/ADBMS.cpp **** }
 10367              		.loc 1 1121 3 is_stmt 1 view .LVU2602
1121:Core/Src/ADBMS.cpp **** }
 10368              		.loc 1 1121 14 is_stmt 0 view .LVU2603
 10369 00ca 0023     		movs	r3, #0
 10370 00cc 3246     		mov	r2, r6
 10371 00ce 2946     		mov	r1, r5
 10372 00d0 2046     		mov	r0, r4
 10373 00d2 FFF7FEFF 		bl	_Z11printStatushP9cell_asic4TYPE3GRP
 10374              	.LVL1121:
1122:Core/Src/ADBMS.cpp **** 
 10375              		.loc 1 1122 1 view .LVU2604
 10376 00d6 03B0     		add	sp, sp, #12
 10377              	.LCFI94:
 10378              		.cfi_def_cfa_offset 28
 10379              		@ sp needed
 10380 00d8 BDE8F083 		pop	{r4, r5, r6, r7, r8, r9, pc}
 10381              	.LVL1122:
 10382              	.L491:
ARM GAS  C:\Users\huawei\AppData\Local\Temp\ccpVCJY0.s 			page 266


1122:Core/Src/ADBMS.cpp **** 
 10383              		.loc 1 1122 1 view .LVU2605
 10384              		.align	2
 10385              	.L490:
 10386 00dc 00000000 		.word	WRCFGA
 10387 00e0 00000000 		.word	WRCFGB
 10388 00e4 00000000 		.word	AUX_CH_TO_CONVERT
 10389 00e8 00000000 		.word	OPEN_WIRE_CURRENT_SOURCE
 10390 00ec 00000000 		.word	AUX_OPEN_WIRE_DETECTION
 10391 00f0 00000000 		.word	pladc_count
 10392 00f4 00000000 		.word	CELL_OPEN_WIRE_DETECTION
 10393 00f8 00000000 		.word	RESET_FILTER
 10394 00fc 00000000 		.word	DISCHARGE_PERMITTED
 10395 0100 00000000 		.word	CONTINUOUS_MEASUREMENT
 10396 0104 00000000 		.word	REDUNDANT_MEASUREMENT
 10397 0108 00000000 		.word	RDSTATA
 10398 010c 00000000 		.word	RDSTATB
 10399 0110 00000000 		.word	RDSTATC
 10400 0114 00000000 		.word	RDSTATD
 10401 0118 00000000 		.word	RDSTATE
 10402 011c 00000000 		.word	PLADC
 10403              		.cfi_endproc
 10404              	.LFE273:
 10405              		.fnend
 10407              		.section	.rodata._ZL10Crc15Table,"a"
 10408              		.align	2
 10411              	_ZL10Crc15Table:
 10412 0000 0000     		.short	0
 10413 0002 99C5     		.short	-14951
 10414 0004 ABCE     		.short	-12629
 10415 0006 320B     		.short	2866
 10416 0008 CFD8     		.short	-10033
 10417 000a 561D     		.short	7510
 10418 000c 6416     		.short	5732
 10419 000e FDD3     		.short	-11267
 10420 0010 07F4     		.short	-3065
 10421 0012 9E31     		.short	12702
 10422 0014 AC3A     		.short	15020
 10423 0016 35FF     		.short	-203
 10424 0018 C82C     		.short	11464
 10425 001a 51E9     		.short	-5807
 10426 001c 63E2     		.short	-7581
 10427 001e FA27     		.short	10234
 10428 0020 97AD     		.short	-21097
 10429 0022 0E68     		.short	26638
 10430 0024 3C63     		.short	25404
 10431 0026 A5A6     		.short	-22875
 10432 0028 5875     		.short	30040
 10433 002a C1B0     		.short	-20287
 10434 002c F3BB     		.short	-17421
 10435 002e 6A7E     		.short	32362
 10436 0030 9059     		.short	22928
 10437 0032 099C     		.short	-25591
 10438 0034 3B97     		.short	-26821
 10439 0036 A252     		.short	21154
 10440 0038 5F81     		.short	-32417
 10441 003a C644     		.short	17606
ARM GAS  C:\Users\huawei\AppData\Local\Temp\ccpVCJY0.s 			page 267


 10442 003c F44F     		.short	20468
 10443 003e 6D8A     		.short	-30099
 10444 0040 2E5B     		.short	23342
 10445 0042 B79E     		.short	-24905
 10446 0044 8595     		.short	-27259
 10447 0046 1C50     		.short	20508
 10448 0048 E183     		.short	-31775
 10449 004a 7846     		.short	18040
 10450 004c 4A4D     		.short	19786
 10451 004e D388     		.short	-30509
 10452 0050 29AF     		.short	-20695
 10453 0052 B06A     		.short	27312
 10454 0054 8261     		.short	24962
 10455 0056 1BA4     		.short	-23525
 10456 0058 E677     		.short	30694
 10457 005a 7FB2     		.short	-19841
 10458 005c 4DB9     		.short	-18099
 10459 005e D47C     		.short	31956
 10460 0060 B9F6     		.short	-2375
 10461 0062 2033     		.short	13088
 10462 0064 1238     		.short	14354
 10463 0066 8BFD     		.short	-629
 10464 0068 762E     		.short	11894
 10465 006a EFEB     		.short	-5137
 10466 006c DDE0     		.short	-7971
 10467 006e 4425     		.short	9540
 10468 0070 BE02     		.short	702
 10469 0072 27C7     		.short	-14553
 10470 0074 15CC     		.short	-13291
 10471 0076 8C09     		.short	2444
 10472 0078 71DA     		.short	-9615
 10473 007a E81F     		.short	8168
 10474 007c DA14     		.short	5338
 10475 007e 43D1     		.short	-11965
 10476 0080 C5F3     		.short	-3131
 10477 0082 5C36     		.short	13916
 10478 0084 6E3D     		.short	15726
 10479 0086 F7F8     		.short	-1801
 10480 0088 0A2B     		.short	11018
 10481 008a 93EE     		.short	-4461
 10482 008c A1E5     		.short	-6751
 10483 008e 3820     		.short	8248
 10484 0090 C207     		.short	1986
 10485 0092 5BC2     		.short	-15781
 10486 0094 69C9     		.short	-13975
 10487 0096 F00C     		.short	3312
 10488 0098 0DDF     		.short	-8435
 10489 009a 941A     		.short	6804
 10490 009c A611     		.short	4518
 10491 009e 3FD4     		.short	-11201
 10492 00a0 525E     		.short	24146
 10493 00a2 CB9B     		.short	-25653
 10494 00a4 F990     		.short	-28423
 10495 00a6 6055     		.short	21856
 10496 00a8 9D86     		.short	-31075
 10497 00aa 0443     		.short	17156
 10498 00ac 3648     		.short	18486
ARM GAS  C:\Users\huawei\AppData\Local\Temp\ccpVCJY0.s 			page 268


 10499 00ae AF8D     		.short	-29265
 10500 00b0 55AA     		.short	-21931
 10501 00b2 CC6F     		.short	28620
 10502 00b4 FE64     		.short	25854
 10503 00b6 67A1     		.short	-24217
 10504 00b8 9A72     		.short	29338
 10505 00ba 03B7     		.short	-18685
 10506 00bc 31BC     		.short	-17359
 10507 00be A879     		.short	31144
 10508 00c0 EBA8     		.short	-22293
 10509 00c2 726D     		.short	28018
 10510 00c4 4066     		.short	26176
 10511 00c6 D9A3     		.short	-23591
 10512 00c8 2470     		.short	28708
 10513 00ca BDB5     		.short	-19011
 10514 00cc 8FBE     		.short	-16753
 10515 00ce 167B     		.short	31510
 10516 00d0 EC5C     		.short	23788
 10517 00d2 7599     		.short	-26251
 10518 00d4 4792     		.short	-28089
 10519 00d6 DE57     		.short	22494
 10520 00d8 2384     		.short	-31709
 10521 00da BA41     		.short	16826
 10522 00dc 884A     		.short	19080
 10523 00de 118F     		.short	-28911
 10524 00e0 7C05     		.short	1404
 10525 00e2 E5C0     		.short	-16155
 10526 00e4 D7CB     		.short	-13353
 10527 00e6 4E0E     		.short	3662
 10528 00e8 B3DD     		.short	-8781
 10529 00ea 2A18     		.short	6186
 10530 00ec 1813     		.short	4888
 10531 00ee 81D6     		.short	-10623
 10532 00f0 7BF1     		.short	-3717
 10533 00f2 E234     		.short	13538
 10534 00f4 D03F     		.short	16336
 10535 00f6 49FA     		.short	-1463
 10536 00f8 B429     		.short	10676
 10537 00fa 2DEC     		.short	-5075
 10538 00fc 1FE7     		.short	-6369
 10539 00fe 8622     		.short	8838
 10540 0100 13A2     		.short	-24045
 10541 0102 8A67     		.short	26506
 10542 0104 B86C     		.short	27832
 10543 0106 21A9     		.short	-22239
 10544 0108 DC7A     		.short	31452
 10545 010a 45BF     		.short	-16571
 10546 010c 77B4     		.short	-19337
 10547 010e EE71     		.short	29166
 10548 0110 1456     		.short	22036
 10549 0112 8D93     		.short	-27763
 10550 0114 BF98     		.short	-26433
 10551 0116 265D     		.short	23846
 10552 0118 DB8E     		.short	-28965
 10553 011a 424B     		.short	19266
 10554 011c 7040     		.short	16496
 10555 011e E985     		.short	-31255
ARM GAS  C:\Users\huawei\AppData\Local\Temp\ccpVCJY0.s 			page 269


 10556 0120 840F     		.short	3972
 10557 0122 1DCA     		.short	-13795
 10558 0124 2FC1     		.short	-16081
 10559 0126 B604     		.short	1206
 10560 0128 4BD7     		.short	-10421
 10561 012a D212     		.short	4818
 10562 012c E019     		.short	6624
 10563 012e 79DC     		.short	-9095
 10564 0130 83FB     		.short	-1149
 10565 0132 1A3E     		.short	15898
 10566 0134 2835     		.short	13608
 10567 0136 B1F0     		.short	-3919
 10568 0138 4C23     		.short	9036
 10569 013a D5E6     		.short	-6443
 10570 013c E7ED     		.short	-4633
 10571 013e 7E28     		.short	10366
 10572 0140 3DF9     		.short	-1731
 10573 0142 A43C     		.short	15524
 10574 0144 9637     		.short	14230
 10575 0146 0FF2     		.short	-3569
 10576 0148 F221     		.short	8690
 10577 014a 6BE4     		.short	-7061
 10578 014c 59EF     		.short	-4263
 10579 014e C02A     		.short	10944
 10580 0150 3A0D     		.short	3386
 10581 0152 A3C8     		.short	-14173
 10582 0154 91C3     		.short	-15471
 10583 0156 0806     		.short	1544
 10584 0158 F5D5     		.short	-10763
 10585 015a 6C10     		.short	4204
 10586 015c 5E1B     		.short	7006
 10587 015e C7DE     		.short	-8505
 10588 0160 AA54     		.short	21674
 10589 0162 3391     		.short	-28365
 10590 0164 019A     		.short	-26111
 10591 0166 985F     		.short	24472
 10592 0168 658C     		.short	-29595
 10593 016a FC49     		.short	18940
 10594 016c CE42     		.short	17102
 10595 016e 5787     		.short	-30889
 10596 0170 ADA0     		.short	-24403
 10597 0172 3465     		.short	25908
 10598 0174 066E     		.short	28166
 10599 0176 9FAB     		.short	-21601
 10600 0178 6278     		.short	30818
 10601 017a FBBD     		.short	-16901
 10602 017c C9B6     		.short	-18743
 10603 017e 5073     		.short	29520
 10604 0180 D651     		.short	20950
 10605 0182 4F94     		.short	-27569
 10606 0184 7D9F     		.short	-24707
 10607 0186 E45A     		.short	23268
 10608 0188 1989     		.short	-30439
 10609 018a 804C     		.short	19584
 10610 018c B247     		.short	18354
 10611 018e 2B82     		.short	-32213
 10612 0190 D1A5     		.short	-23087
ARM GAS  C:\Users\huawei\AppData\Local\Temp\ccpVCJY0.s 			page 270


 10613 0192 4860     		.short	24648
 10614 0194 7A6B     		.short	27514
 10615 0196 E3AE     		.short	-20765
 10616 0198 1E7D     		.short	32030
 10617 019a 87B8     		.short	-18297
 10618 019c B5B3     		.short	-19531
 10619 019e 2C76     		.short	30252
 10620 01a0 41FC     		.short	-959
 10621 01a2 D839     		.short	14808
 10622 01a4 EA32     		.short	13034
 10623 01a6 73F7     		.short	-2189
 10624 01a8 8E24     		.short	9358
 10625 01aa 17E1     		.short	-7913
 10626 01ac 25EA     		.short	-5595
 10627 01ae BC2F     		.short	12220
 10628 01b0 4608     		.short	2118
 10629 01b2 DFCD     		.short	-12833
 10630 01b4 EDC6     		.short	-14611
 10631 01b6 7403     		.short	884
 10632 01b8 89D0     		.short	-12151
 10633 01ba 1015     		.short	5392
 10634 01bc 221E     		.short	7714
 10635 01be BBDB     		.short	-9285
 10636 01c0 F80A     		.short	2808
 10637 01c2 61CF     		.short	-12447
 10638 01c4 53C4     		.short	-15277
 10639 01c6 CA01     		.short	458
 10640 01c8 37D2     		.short	-11721
 10641 01ca AE17     		.short	6062
 10642 01cc 9C1C     		.short	7324
 10643 01ce 05D9     		.short	-9979
 10644 01d0 FFFE     		.short	-257
 10645 01d2 663B     		.short	15206
 10646 01d4 5430     		.short	12372
 10647 01d6 CDF5     		.short	-2611
 10648 01d8 3026     		.short	9776
 10649 01da A9E3     		.short	-7255
 10650 01dc 9BE8     		.short	-5989
 10651 01de 022D     		.short	11522
 10652 01e0 6FA7     		.short	-22673
 10653 01e2 F662     		.short	25334
 10654 01e4 C469     		.short	27076
 10655 01e6 5DAC     		.short	-21411
 10656 01e8 A07F     		.short	32672
 10657 01ea 39BA     		.short	-17863
 10658 01ec 0BB1     		.short	-20213
 10659 01ee 9274     		.short	29842
 10660 01f0 6853     		.short	21352
 10661 01f2 F196     		.short	-26895
 10662 01f4 C39D     		.short	-25149
 10663 01f6 5A58     		.short	22618
 10664 01f8 A78B     		.short	-29785
 10665 01fa 3E4E     		.short	20030
 10666 01fc 0C45     		.short	17676
 10667 01fe 9580     		.short	-32619
 10668              		.global	pladc_count
 10669              		.section	.bss.pladc_count,"aw",%nobits
ARM GAS  C:\Users\huawei\AppData\Local\Temp\ccpVCJY0.s 			page 271


 10670              		.align	2
 10673              	pladc_count:
 10674 0000 00000000 		.space	4
 10675              		.global	loop_count
 10676              		.section	.bss.loop_count,"aw",%nobits
 10677              		.align	2
 10680              	loop_count:
 10681 0000 00000000 		.space	4
 10682              		.global	IC
 10683              		.section	.bss.IC,"aw",%nobits
 10684              		.align	2
 10687              	IC:
 10688 0000 00000000 		.space	1344
 10688      00000000 
 10688      00000000 
 10688      00000000 
 10688      00000000 
 10689              		.global	INJECT_ERR_SPI_READ
 10690              		.section	.bss.INJECT_ERR_SPI_READ,"aw",%nobits
 10693              	INJECT_ERR_SPI_READ:
 10694 0000 00       		.space	1
 10695              		.global	RESET_FILTER
 10696              		.section	.bss.RESET_FILTER,"aw",%nobits
 10699              	RESET_FILTER:
 10700 0000 00       		.space	1
 10701              		.global	DISCHARGE_PERMITTED
 10702              		.section	.bss.DISCHARGE_PERMITTED,"aw",%nobits
 10705              	DISCHARGE_PERMITTED:
 10706 0000 00       		.space	1
 10707              		.global	OPEN_WIRE_CURRENT_SOURCE
 10708              		.section	.bss.OPEN_WIRE_CURRENT_SOURCE,"aw",%nobits
 10711              	OPEN_WIRE_CURRENT_SOURCE:
 10712 0000 00       		.space	1
 10713              		.global	AUX_OPEN_WIRE_DETECTION
 10714              		.section	.bss.AUX_OPEN_WIRE_DETECTION,"aw",%nobits
 10717              	AUX_OPEN_WIRE_DETECTION:
 10718 0000 00       		.space	1
 10719              		.global	CELL_OPEN_WIRE_DETECTION
 10720              		.section	.bss.CELL_OPEN_WIRE_DETECTION,"aw",%nobits
 10723              	CELL_OPEN_WIRE_DETECTION:
 10724 0000 00       		.space	1
 10725              		.global	CONTINUOUS_MEASUREMENT
 10726              		.section	.bss.CONTINUOUS_MEASUREMENT,"aw",%nobits
 10729              	CONTINUOUS_MEASUREMENT:
 10730 0000 00       		.space	1
 10731              		.global	AUX_CH_TO_CONVERT
 10732              		.section	.bss.AUX_CH_TO_CONVERT,"aw",%nobits
 10735              	AUX_CH_TO_CONVERT:
 10736 0000 00       		.space	1
 10737              		.global	REDUNDANT_MEASUREMENT
 10738              		.section	.bss.REDUNDANT_MEASUREMENT,"aw",%nobits
 10741              	REDUNDANT_MEASUREMENT:
 10742 0000 00       		.space	1
 10743              		.global	hspi
 10744              		.section	.data.hspi,"aw"
 10745              		.align	2
 10748              	hspi:
ARM GAS  C:\Users\huawei\AppData\Local\Temp\ccpVCJY0.s 			page 272


 10749 0000 00000000 		.word	hspi2
 10750              		.global	RDSID
 10751              		.section	.data.RDSID,"aw"
 10752              		.align	2
 10755              	RDSID:
 10756 0000 002C     		.ascii	"\000,"
 10757              		.global	SRST
 10758              		.section	.data.SRST,"aw"
 10759              		.align	2
 10762              	SRST:
 10763 0000 0027     		.ascii	"\000'"
 10764              		.global	UNSNAP
 10765              		.section	.data.UNSNAP,"aw"
 10766              		.align	2
 10769              	UNSNAP:
 10770 0000 002F     		.ascii	"\000/"
 10771              		.global	SNAP
 10772              		.section	.data.SNAP,"aw"
 10773              		.align	2
 10776              	SNAP:
 10777 0000 002D     		.ascii	"\000-"
 10778              		.global	RSTCC
 10779              		.section	.data.RSTCC,"aw"
 10780              		.align	2
 10783              	RSTCC:
 10784 0000 002E     		.ascii	"\000."
 10785              		.global	UNMUTE
 10786              		.section	.data.UNMUTE,"aw"
 10787              		.align	2
 10790              	UNMUTE:
 10791 0000 0029     		.ascii	"\000)"
 10792              		.global	MUTE
 10793              		.section	.data.MUTE,"aw"
 10794              		.align	2
 10797              	MUTE:
 10798 0000 0028     		.ascii	"\000("
 10799              		.global	STCOMM
 10800              		.section	.data.STCOMM,"aw"
 10801              		.align	2
 10804              	STCOMM:
 10805 0000 0723B9E4 		.ascii	"\007#\271\344\000\000\000\000\000\000\000\000\000"
 10805      00000000 
 10805      00000000 
 10805      00
 10806              		.global	RDCOMM
 10807              		.section	.data.RDCOMM,"aw"
 10808              		.align	2
 10811              	RDCOMM:
 10812 0000 0722     		.ascii	"\007\""
 10813              		.global	WRCOMM
 10814              		.section	.data.WRCOMM,"aw"
 10815              		.align	2
 10818              	WRCOMM:
 10819 0000 0721     		.ascii	"\007!"
 10820              		.global	DIAGN
 10821              		.section	.data.DIAGN,"aw"
 10822              		.align	2
ARM GAS  C:\Users\huawei\AppData\Local\Temp\ccpVCJY0.s 			page 273


 10825              	DIAGN:
 10826 0000 0715     		.ascii	"\007\025"
 10827              		.global	PLAUX2
 10828              		.section	.data.PLAUX2,"aw"
 10829              		.align	2
 10832              	PLAUX2:
 10833 0000 071F     		.ascii	"\007\037"
 10834              		.global	PLAUX1
 10835              		.section	.data.PLAUX1,"aw"
 10836              		.align	2
 10839              	PLAUX1:
 10840 0000 071E     		.ascii	"\007\036"
 10841              		.global	PLSADC
 10842              		.section	.data.PLSADC,"aw"
 10843              		.align	2
 10846              	PLSADC:
 10847 0000 071D     		.ascii	"\007\035"
 10848              		.global	PLCADC
 10849              		.section	.data.PLCADC,"aw"
 10850              		.align	2
 10853              	PLCADC:
 10854 0000 071C     		.ascii	"\007\034"
 10855              		.global	PLAUT
 10856              		.section	.data.PLAUT,"aw"
 10857              		.align	2
 10860              	PLAUT:
 10861 0000 0719     		.ascii	"\007\031"
 10862              		.global	PLADC
 10863              		.section	.data.PLADC,"aw"
 10864              		.align	2
 10867              	PLADC:
 10868 0000 0718     		.ascii	"\007\030"
 10869              		.global	CLOVUV
 10870              		.section	.data.CLOVUV,"aw"
 10871              		.align	2
 10874              	CLOVUV:
 10875 0000 0715     		.ascii	"\007\025"
 10876              		.global	CLRFC
 10877              		.section	.data.CLRFC,"aw"
 10878              		.align	2
 10881              	CLRFC:
 10882 0000 0714     		.ascii	"\007\024"
 10883              		.global	CLRFLAG
 10884              		.section	.data.CLRFLAG,"aw"
 10885              		.align	2
 10888              	CLRFLAG:
 10889 0000 0717     		.ascii	"\007\027"
 10890              		.global	CLRSPIN
 10891              		.section	.data.CLRSPIN,"aw"
 10892              		.align	2
 10895              	CLRSPIN:
 10896 0000 0716     		.ascii	"\007\026"
 10897              		.global	CLRAUX
 10898              		.section	.data.CLRAUX,"aw"
 10899              		.align	2
 10902              	CLRAUX:
 10903 0000 0712     		.ascii	"\007\022"
ARM GAS  C:\Users\huawei\AppData\Local\Temp\ccpVCJY0.s 			page 274


 10904              		.global	CLRCELL
 10905              		.section	.data.CLRCELL,"aw"
 10906              		.align	2
 10909              	CLRCELL:
 10910 0000 0711     		.ascii	"\007\021"
 10911              		.global	RDPWM2
 10912              		.section	.data.RDPWM2,"aw"
 10913              		.align	2
 10916              	RDPWM2:
 10917 0000 0023     		.ascii	"\000#"
 10918              		.global	WRPWM2
 10919              		.section	.data.WRPWM2,"aw"
 10920              		.align	2
 10923              	WRPWM2:
 10924 0000 0021     		.ascii	"\000!"
 10925              		.global	RDPWM1
 10926              		.section	.data.RDPWM1,"aw"
 10927              		.align	2
 10930              	RDPWM1:
 10931 0000 0022     		.ascii	"\000\""
 10932              		.global	WRPWM1
 10933              		.section	.data.WRPWM1,"aw"
 10934              		.align	2
 10937              	WRPWM1:
 10938 0000 0020     		.ascii	"\000 "
 10939              		.global	RDSTATE
 10940              		.section	.data.RDSTATE,"aw"
 10941              		.align	2
 10944              	RDSTATE:
 10945 0000 0034     		.ascii	"\0004"
 10946              		.global	RDSTATD
 10947              		.section	.data.RDSTATD,"aw"
 10948              		.align	2
 10951              	RDSTATD:
 10952 0000 0033     		.ascii	"\0003"
 10953              		.global	RDSTATCERR
 10954              		.section	.data.RDSTATCERR,"aw"
 10955              		.align	2
 10958              	RDSTATCERR:
 10959 0000 0072     		.ascii	"\000r"
 10960              		.global	RDSTATC
 10961              		.section	.data.RDSTATC,"aw"
 10962              		.align	2
 10965              	RDSTATC:
 10966 0000 0032     		.ascii	"\0002"
 10967              		.global	RDSTATB
 10968              		.section	.data.RDSTATB,"aw"
 10969              		.align	2
 10972              	RDSTATB:
 10973 0000 0031     		.ascii	"\0001"
 10974              		.global	RDSTATA
 10975              		.section	.data.RDSTATA,"aw"
 10976              		.align	2
 10979              	RDSTATA:
 10980 0000 0030     		.ascii	"\0000"
 10981              		.global	RDRAXD
 10982              		.section	.data.RDRAXD,"aw"
ARM GAS  C:\Users\huawei\AppData\Local\Temp\ccpVCJY0.s 			page 275


 10983              		.align	2
 10986              	RDRAXD:
 10987 0000 0025     		.ascii	"\000%"
 10988              		.global	RDRAXC
 10989              		.section	.data.RDRAXC,"aw"
 10990              		.align	2
 10993              	RDRAXC:
 10994 0000 001E     		.ascii	"\000\036"
 10995              		.global	RDRAXB
 10996              		.section	.data.RDRAXB,"aw"
 10997              		.align	2
 11000              	RDRAXB:
 11001 0000 001D     		.ascii	"\000\035"
 11002              		.global	RDRAXA
 11003              		.section	.data.RDRAXA,"aw"
 11004              		.align	2
 11007              	RDRAXA:
 11008 0000 001C     		.ascii	"\000\034"
 11009              		.global	RDAUXD
 11010              		.section	.data.RDAUXD,"aw"
 11011              		.align	2
 11014              	RDAUXD:
 11015 0000 001F     		.ascii	"\000\037"
 11016              		.global	RDAUXC
 11017              		.section	.data.RDAUXC,"aw"
 11018              		.align	2
 11021              	RDAUXC:
 11022 0000 001B     		.ascii	"\000\033"
 11023              		.global	RDAUXB
 11024              		.section	.data.RDAUXB,"aw"
 11025              		.align	2
 11028              	RDAUXB:
 11029 0000 001A     		.ascii	"\000\032"
 11030              		.global	RDAUXA
 11031              		.section	.data.RDAUXA,"aw"
 11032              		.align	2
 11035              	RDAUXA:
 11036 0000 0019     		.ascii	"\000\031"
 11037              		.global	RDFCALL
 11038              		.section	.data.RDFCALL,"aw"
 11039              		.align	2
 11042              	RDFCALL:
 11043 0000 0018     		.ascii	"\000\030"
 11044              		.global	RDFCF
 11045              		.section	.data.RDFCF,"aw"
 11046              		.align	2
 11049              	RDFCF:
 11050 0000 0017     		.ascii	"\000\027"
 11051              		.global	RDFCE
 11052              		.section	.data.RDFCE,"aw"
 11053              		.align	2
 11056              	RDFCE:
 11057 0000 0016     		.ascii	"\000\026"
 11058              		.global	RDFCD
 11059              		.section	.data.RDFCD,"aw"
 11060              		.align	2
 11063              	RDFCD:
ARM GAS  C:\Users\huawei\AppData\Local\Temp\ccpVCJY0.s 			page 276


 11064 0000 0015     		.ascii	"\000\025"
 11065              		.global	RDFCC
 11066              		.section	.data.RDFCC,"aw"
 11067              		.align	2
 11070              	RDFCC:
 11071 0000 0014     		.ascii	"\000\024"
 11072              		.global	RDFCB
 11073              		.section	.data.RDFCB,"aw"
 11074              		.align	2
 11077              	RDFCB:
 11078 0000 0013     		.ascii	"\000\023"
 11079              		.global	RDFCA
 11080              		.section	.data.RDFCA,"aw"
 11081              		.align	2
 11084              	RDFCA:
 11085 0000 0012     		.ascii	"\000\022"
 11086              		.global	RDASALL
 11087              		.section	.data.RDASALL,"aw"
 11088              		.align	2
 11091              	RDASALL:
 11092 0000 0035     		.ascii	"\0005"
 11093              		.global	RDACSALL
 11094              		.section	.data.RDACSALL,"aw"
 11095              		.align	2
 11098              	RDACSALL:
 11099 0000 0051     		.ascii	"\000Q"
 11100              		.global	RDCSALL
 11101              		.section	.data.RDCSALL,"aw"
 11102              		.align	2
 11105              	RDCSALL:
 11106 0000 0011     		.ascii	"\000\021"
 11107              		.global	RDSALL
 11108              		.section	.data.RDSALL,"aw"
 11109              		.align	2
 11112              	RDSALL:
 11113 0000 0010     		.ascii	"\000\020"
 11114              		.global	RDSVF
 11115              		.section	.data.RDSVF,"aw"
 11116              		.align	2
 11119              	RDSVF:
 11120 0000 000F     		.ascii	"\000\017"
 11121              		.global	RDSVE
 11122              		.section	.data.RDSVE,"aw"
 11123              		.align	2
 11126              	RDSVE:
 11127 0000 000E     		.ascii	"\000\016"
 11128              		.global	RDSVD
 11129              		.section	.data.RDSVD,"aw"
 11130              		.align	2
 11133              	RDSVD:
 11134 0000 000D     		.ascii	"\000\015"
 11135              		.global	RDSVC
 11136              		.section	.data.RDSVC,"aw"
 11137              		.align	2
 11140              	RDSVC:
 11141 0000 0007     		.ascii	"\000\007"
 11142              		.global	RDSVB
ARM GAS  C:\Users\huawei\AppData\Local\Temp\ccpVCJY0.s 			page 277


 11143              		.section	.data.RDSVB,"aw"
 11144              		.align	2
 11147              	RDSVB:
 11148 0000 0005     		.ascii	"\000\005"
 11149              		.global	RDSVA
 11150              		.section	.data.RDSVA,"aw"
 11151              		.align	2
 11154              	RDSVA:
 11155 0000 0003     		.ascii	"\000\003"
 11156              		.global	RDACALL
 11157              		.section	.data.RDACALL,"aw"
 11158              		.align	2
 11161              	RDACALL:
 11162 0000 004C     		.ascii	"\000L"
 11163              		.global	RDACF
 11164              		.section	.data.RDACF,"aw"
 11165              		.align	2
 11168              	RDACF:
 11169 0000 004B     		.ascii	"\000K"
 11170              		.global	RDACE
 11171              		.section	.data.RDACE,"aw"
 11172              		.align	2
 11175              	RDACE:
 11176 0000 0049     		.ascii	"\000I"
 11177              		.global	RDACD
 11178              		.section	.data.RDACD,"aw"
 11179              		.align	2
 11182              	RDACD:
 11183 0000 004A     		.ascii	"\000J"
 11184              		.global	RDACC
 11185              		.section	.data.RDACC,"aw"
 11186              		.align	2
 11189              	RDACC:
 11190 0000 0048     		.ascii	"\000H"
 11191              		.global	RDACB
 11192              		.section	.data.RDACB,"aw"
 11193              		.align	2
 11196              	RDACB:
 11197 0000 0046     		.ascii	"\000F"
 11198              		.global	RDACA
 11199              		.section	.data.RDACA,"aw"
 11200              		.align	2
 11203              	RDACA:
 11204 0000 0044     		.ascii	"\000D"
 11205              		.global	RDCVALL
 11206              		.section	.data.RDCVALL,"aw"
 11207              		.align	2
 11210              	RDCVALL:
 11211 0000 000C     		.ascii	"\000\014"
 11212              		.global	RDCVF
 11213              		.section	.data.RDCVF,"aw"
 11214              		.align	2
 11217              	RDCVF:
 11218 0000 000B     		.ascii	"\000\013"
 11219              		.global	RDCVE
 11220              		.section	.data.RDCVE,"aw"
 11221              		.align	2
ARM GAS  C:\Users\huawei\AppData\Local\Temp\ccpVCJY0.s 			page 278


 11224              	RDCVE:
 11225 0000 0009     		.ascii	"\000\011"
 11226              		.global	RDCVD
 11227              		.section	.data.RDCVD,"aw"
 11228              		.align	2
 11231              	RDCVD:
 11232 0000 000A     		.ascii	"\000\012"
 11233              		.global	RDCVC
 11234              		.section	.data.RDCVC,"aw"
 11235              		.align	2
 11238              	RDCVC:
 11239 0000 0008     		.ascii	"\000\010"
 11240              		.global	RDCVB
 11241              		.section	.data.RDCVB,"aw"
 11242              		.align	2
 11245              	RDCVB:
 11246 0000 0006     		.ascii	"\000\006"
 11247              		.global	RDCVA
 11248              		.section	.data.RDCVA,"aw"
 11249              		.align	2
 11252              	RDCVA:
 11253 0000 0004     		.ascii	"\000\004"
 11254              		.global	RDCFGB
 11255              		.section	.data.RDCFGB,"aw"
 11256              		.align	2
 11259              	RDCFGB:
 11260 0000 0026     		.ascii	"\000&"
 11261              		.global	RDCFGA
 11262              		.section	.data.RDCFGA,"aw"
 11263              		.align	2
 11266              	RDCFGA:
 11267 0000 0002     		.ascii	"\000\002"
 11268              		.global	WRCFGB
 11269              		.section	.data.WRCFGB,"aw"
 11270              		.align	2
 11273              	WRCFGB:
 11274 0000 0024     		.ascii	"\000$"
 11275              		.global	WRCFGA
 11276              		.section	.data.WRCFGA,"aw"
 11277              		.align	2
 11280              	WRCFGA:
 11281 0000 0001     		.ascii	"\000\001"
 11282              		.text
 11283              	.Letext0:
 11284              		.file 2 "c:\\users\\huawei\\desktop\\workspace\\stm32\\vs code tools\\arm-gnu-toolchain-12.2.rel1-
 11285              		.file 3 "c:\\users\\huawei\\desktop\\workspace\\stm32\\vs code tools\\arm-gnu-toolchain-12.2.rel1-
 11286              		.file 4 "Drivers/CMSIS/Device/ST/STM32F4xx/Include/stm32f446xx.h"
 11287              		.file 5 "Drivers/CMSIS/Device/ST/STM32F4xx/Include/stm32f4xx.h"
 11288              		.file 6 "c:\\users\\huawei\\desktop\\workspace\\stm32\\vs code tools\\arm-gnu-toolchain-12.2.rel1-
 11289              		.file 7 "Drivers/STM32F4xx_HAL_Driver/Inc/stm32f4xx_hal_def.h"
 11290              		.file 8 "Drivers/STM32F4xx_HAL_Driver/Inc/stm32f4xx_hal_gpio.h"
 11291              		.file 9 "Drivers/STM32F4xx_HAL_Driver/Inc/stm32f4xx_hal_dma.h"
 11292              		.file 10 "Drivers/STM32F4xx_HAL_Driver/Inc/stm32f4xx_hal_spi.h"
 11293              		.file 11 "Drivers/STM32F4xx_HAL_Driver/Inc/stm32f4xx_hal.h"
 11294              		.file 12 "Core/Inc/adBms6830Data.h"
 11295              		.file 13 "c:\\users\\huawei\\desktop\\workspace\\stm32\\vs code tools\\arm-gnu-toolchain-12.2.rel1
 11296              		.file 14 "c:\\users\\huawei\\desktop\\workspace\\stm32\\vs code tools\\arm-gnu-toolchain-12.2.rel1
ARM GAS  C:\Users\huawei\AppData\Local\Temp\ccpVCJY0.s 			page 279


 11297              		.file 15 "c:\\users\\huawei\\desktop\\workspace\\stm32\\vs code tools\\arm-gnu-toolchain-12.2.rel1
 11298              		.file 16 "c:\\users\\huawei\\desktop\\workspace\\stm32\\vs code tools\\arm-gnu-toolchain-12.2.rel1
 11299              		.file 17 "c:\\users\\huawei\\desktop\\workspace\\stm32\\vs code tools\\arm-gnu-toolchain-12.2.rel1
 11300              		.file 18 "Core/Inc/adBms6830CmdList.h"
 11301              		.file 19 "Core/Inc/ADBMS.h"
 11302              		.file 20 "c:\\users\\huawei\\desktop\\workspace\\stm32\\vs code tools\\arm-gnu-toolchain-12.2.rel1
 11303              		.file 21 "c:\\users\\huawei\\desktop\\workspace\\stm32\\vs code tools\\arm-gnu-toolchain-12.2.rel1
 11304              		.file 22 "Core/Inc/adBms6830ParseCreate.h"
ARM GAS  C:\Users\huawei\AppData\Local\Temp\ccpVCJY0.s 			page 280


DEFINED SYMBOLS
                            *ABS*:00000000 ADBMS.cpp
C:\Users\huawei\AppData\Local\Temp\ccpVCJY0.s:21     .text._Z10adBmsCsLowv:00000000 $t
C:\Users\huawei\AppData\Local\Temp\ccpVCJY0.s:27     .text._Z10adBmsCsLowv:00000000 _Z10adBmsCsLowv
C:\Users\huawei\AppData\Local\Temp\ccpVCJY0.s:52     .text._Z10adBmsCsLowv:00000010 $d
  .ARM.extab.text._Z10adBmsCsLowv:00000000 $d
  .ARM.exidx.text._Z10adBmsCsLowv:00000000 $d
C:\Users\huawei\AppData\Local\Temp\ccpVCJY0.s:58     .text._Z11adBmsCsHighv:00000000 $t
C:\Users\huawei\AppData\Local\Temp\ccpVCJY0.s:64     .text._Z11adBmsCsHighv:00000000 _Z11adBmsCsHighv
C:\Users\huawei\AppData\Local\Temp\ccpVCJY0.s:89     .text._Z11adBmsCsHighv:00000010 $d
 .ARM.extab.text._Z11adBmsCsHighv:00000000 $d
 .ARM.exidx.text._Z11adBmsCsHighv:00000000 $d
C:\Users\huawei\AppData\Local\Temp\ccpVCJY0.s:95     .text._Z13adBmsWakeupIch:00000000 $t
C:\Users\huawei\AppData\Local\Temp\ccpVCJY0.s:101    .text._Z13adBmsWakeupIch:00000000 _Z13adBmsWakeupIch
.ARM.exidx.text._Z13adBmsWakeupIch:00000000 $d
C:\Users\huawei\AppData\Local\Temp\ccpVCJY0.s:165    .text._Z10Pec15_CalchPh:00000000 $t
C:\Users\huawei\AppData\Local\Temp\ccpVCJY0.s:171    .text._Z10Pec15_CalchPh:00000000 _Z10Pec15_CalchPh
C:\Users\huawei\AppData\Local\Temp\ccpVCJY0.s:256    .text._Z10Pec15_CalchPh:00000040 $d
C:\Users\huawei\AppData\Local\Temp\ccpVCJY0.s:10411  .rodata._ZL10Crc15Table:00000000 _ZL10Crc15Table
.ARM.exidx.text._Z10Pec15_CalchPh:00000000 $d
C:\Users\huawei\AppData\Local\Temp\ccpVCJY0.s:263    .text._Z10pec10_calcbiPh:00000000 $t
C:\Users\huawei\AppData\Local\Temp\ccpVCJY0.s:269    .text._Z10pec10_calcbiPh:00000000 _Z10pec10_calcbiPh
.ARM.exidx.text._Z10pec10_calcbiPh:00000000 $d
C:\Users\huawei\AppData\Local\Temp\ccpVCJY0.s:439    .rodata._Z11spiReadDatahPhS_S_S_h.str1.4:00000000 $d
C:\Users\huawei\AppData\Local\Temp\ccpVCJY0.s:443    .text._Z11spiReadDatahPhS_S_S_h:00000000 $t
C:\Users\huawei\AppData\Local\Temp\ccpVCJY0.s:449    .text._Z11spiReadDatahPhS_S_S_h:00000000 _Z11spiReadDatahPhS_S_S_h
C:\Users\huawei\AppData\Local\Temp\ccpVCJY0.s:738    .text._Z11spiReadDatahPhS_S_S_h:00000118 $d
C:\Users\huawei\AppData\Local\Temp\ccpVCJY0.s:10748  .data.hspi:00000000 hspi
.ARM.exidx.text._Z11spiReadDatahPhS_S_S_h:00000000 $d
C:\Users\huawei\AppData\Local\Temp\ccpVCJY0.s:745    .rodata._Z13adBmsReadDatahP9cell_asicPh4TYPE3GRP.str1.4:00000000 $d
C:\Users\huawei\AppData\Local\Temp\ccpVCJY0.s:752    .text._Z13adBmsReadDatahP9cell_asicPh4TYPE3GRP:00000000 $t
C:\Users\huawei\AppData\Local\Temp\ccpVCJY0.s:758    .text._Z13adBmsReadDatahP9cell_asicPh4TYPE3GRP:00000000 _Z13adBmsReadDatahP9cell_asicPh4TYPE3GRP
C:\Users\huawei\AppData\Local\Temp\ccpVCJY0.s:805    .text._Z13adBmsReadDatahP9cell_asicPh4TYPE3GRP:00000026 $d
C:\Users\huawei\AppData\Local\Temp\ccpVCJY0.s:899    .text._Z13adBmsReadDatahP9cell_asicPh4TYPE3GRP:00000090 $d
C:\Users\huawei\AppData\Local\Temp\ccpVCJY0.s:919    .text._Z13adBmsReadDatahP9cell_asicPh4TYPE3GRP:000000b6 $t
C:\Users\huawei\AppData\Local\Temp\ccpVCJY0.s:1561   .text._Z13adBmsReadDatahP9cell_asicPh4TYPE3GRP:00000338 $d
C:\Users\huawei\AppData\Local\Temp\ccpVCJY0.s:1570   .text._Z13adBmsReadDatahP9cell_asicPh4TYPE3GRP:00000340 $t
.ARM.exidx.text._Z13adBmsReadDatahP9cell_asicPh4TYPE3GRP:00000000 $d
C:\Users\huawei\AppData\Local\Temp\ccpVCJY0.s:1966   .rodata._Z12spiWriteDatahPhS_.str1.4:00000000 $d
C:\Users\huawei\AppData\Local\Temp\ccpVCJY0.s:1970   .text._Z12spiWriteDatahPhS_:00000000 $t
C:\Users\huawei\AppData\Local\Temp\ccpVCJY0.s:1976   .text._Z12spiWriteDatahPhS_:00000000 _Z12spiWriteDatahPhS_
C:\Users\huawei\AppData\Local\Temp\ccpVCJY0.s:2219   .text._Z12spiWriteDatahPhS_:000000c8 $d
.ARM.exidx.text._Z12spiWriteDatahPhS_:00000000 $d
C:\Users\huawei\AppData\Local\Temp\ccpVCJY0.s:2226   .rodata._Z14adBmsWriteDatahP9cell_asicPh4TYPE3GRP.str1.4:00000000 $d
C:\Users\huawei\AppData\Local\Temp\ccpVCJY0.s:2230   .text._Z14adBmsWriteDatahP9cell_asicPh4TYPE3GRP:00000000 $t
C:\Users\huawei\AppData\Local\Temp\ccpVCJY0.s:2236   .text._Z14adBmsWriteDatahP9cell_asicPh4TYPE3GRP:00000000 _Z14adBmsWriteDatahP9cell_asicPh4TYPE3GRP
C:\Users\huawei\AppData\Local\Temp\ccpVCJY0.s:2293   .text._Z14adBmsWriteDatahP9cell_asicPh4TYPE3GRP:00000030 $d
C:\Users\huawei\AppData\Local\Temp\ccpVCJY0.s:2301   .text._Z14adBmsWriteDatahP9cell_asicPh4TYPE3GRP:00000038 $t
C:\Users\huawei\AppData\Local\Temp\ccpVCJY0.s:2734   .text._Z14adBmsWriteDatahP9cell_asicPh4TYPE3GRP:000001c8 $d
.ARM.exidx.text._Z14adBmsWriteDatahP9cell_asicPh4TYPE3GRP:00000000 $d
C:\Users\huawei\AppData\Local\Temp\ccpVCJY0.s:2745   .text._Z12adBmsPollAdcPh:00000000 $t
C:\Users\huawei\AppData\Local\Temp\ccpVCJY0.s:2751   .text._Z12adBmsPollAdcPh:00000000 _Z12adBmsPollAdcPh
C:\Users\huawei\AppData\Local\Temp\ccpVCJY0.s:2847   .text._Z12adBmsPollAdcPh:00000068 $d
.ARM.exidx.text._Z12adBmsPollAdcPh:00000000 $d
C:\Users\huawei\AppData\Local\Temp\ccpVCJY0.s:2853   .text._Z14adBms6830_Adcv2RD4CONT3DCP4RSTF6OW_C_S:00000000 $t
C:\Users\huawei\AppData\Local\Temp\ccpVCJY0.s:2859   .text._Z14adBms6830_Adcv2RD4CONT3DCP4RSTF6OW_C_S:00000000 _Z14adBms6830_Adcv2RD4CONT3DCP4RSTF6OW_C_S
.ARM.exidx.text._Z14adBms6830_Adcv2RD4CONT3DCP4RSTF6OW_C_S:00000000 $d
ARM GAS  C:\Users\huawei\AppData\Local\Temp\ccpVCJY0.s 			page 281


C:\Users\huawei\AppData\Local\Temp\ccpVCJY0.s:2933   .text._Z14adBms6830_Adsv4CONT3DCP6OW_C_S:00000000 $t
C:\Users\huawei\AppData\Local\Temp\ccpVCJY0.s:2939   .text._Z14adBms6830_Adsv4CONT3DCP6OW_C_S:00000000 _Z14adBms6830_Adsv4CONT3DCP6OW_C_S
.ARM.exidx.text._Z14adBms6830_Adsv4CONT3DCP6OW_C_S:00000000 $d
C:\Users\huawei\AppData\Local\Temp\ccpVCJY0.s:3002   .text._Z14adBms6830_Adax6OW_AUX3PUP2CH:00000000 $t
C:\Users\huawei\AppData\Local\Temp\ccpVCJY0.s:3008   .text._Z14adBms6830_Adax6OW_AUX3PUP2CH:00000000 _Z14adBms6830_Adax6OW_AUX3PUP2CH
.ARM.exidx.text._Z14adBms6830_Adax6OW_AUX3PUP2CH:00000000 $d
C:\Users\huawei\AppData\Local\Temp\ccpVCJY0.s:3072   .text._Z15adBms6830_Adax22CH:00000000 $t
C:\Users\huawei\AppData\Local\Temp\ccpVCJY0.s:3078   .text._Z15adBms6830_Adax22CH:00000000 _Z15adBms6830_Adax22CH
.ARM.exidx.text._Z15adBms6830_Adax22CH:00000000 $d
C:\Users\huawei\AppData\Local\Temp\ccpVCJY0.s:3123   .rodata._Z32adBms6830_clear_cell_measurementh.str1.4:00000000 $d
C:\Users\huawei\AppData\Local\Temp\ccpVCJY0.s:3127   .text._Z32adBms6830_clear_cell_measurementh:00000000 $t
C:\Users\huawei\AppData\Local\Temp\ccpVCJY0.s:3133   .text._Z32adBms6830_clear_cell_measurementh:00000000 _Z32adBms6830_clear_cell_measurementh
C:\Users\huawei\AppData\Local\Temp\ccpVCJY0.s:3167   .text._Z32adBms6830_clear_cell_measurementh:00000014 $d
C:\Users\huawei\AppData\Local\Temp\ccpVCJY0.s:10909  .data.CLRCELL:00000000 CLRCELL
.ARM.extab.text._Z32adBms6830_clear_cell_measurementh:00000000 $d
.ARM.exidx.text._Z32adBms6830_clear_cell_measurementh:00000000 $d
C:\Users\huawei\AppData\Local\Temp\ccpVCJY0.s:3174   .rodata._Z31adBms6830_clear_aux_measurementh.str1.4:00000000 $d
C:\Users\huawei\AppData\Local\Temp\ccpVCJY0.s:3178   .text._Z31adBms6830_clear_aux_measurementh:00000000 $t
C:\Users\huawei\AppData\Local\Temp\ccpVCJY0.s:3184   .text._Z31adBms6830_clear_aux_measurementh:00000000 _Z31adBms6830_clear_aux_measurementh
C:\Users\huawei\AppData\Local\Temp\ccpVCJY0.s:3218   .text._Z31adBms6830_clear_aux_measurementh:00000014 $d
C:\Users\huawei\AppData\Local\Temp\ccpVCJY0.s:10902  .data.CLRAUX:00000000 CLRAUX
.ARM.extab.text._Z31adBms6830_clear_aux_measurementh:00000000 $d
.ARM.exidx.text._Z31adBms6830_clear_aux_measurementh:00000000 $d
C:\Users\huawei\AppData\Local\Temp\ccpVCJY0.s:3225   .rodata._Z32adBms6830_clear_spin_measurementh.str1.4:00000000 $d
C:\Users\huawei\AppData\Local\Temp\ccpVCJY0.s:3229   .text._Z32adBms6830_clear_spin_measurementh:00000000 $t
C:\Users\huawei\AppData\Local\Temp\ccpVCJY0.s:3235   .text._Z32adBms6830_clear_spin_measurementh:00000000 _Z32adBms6830_clear_spin_measurementh
C:\Users\huawei\AppData\Local\Temp\ccpVCJY0.s:3269   .text._Z32adBms6830_clear_spin_measurementh:00000014 $d
C:\Users\huawei\AppData\Local\Temp\ccpVCJY0.s:10895  .data.CLRSPIN:00000000 CLRSPIN
.ARM.extab.text._Z32adBms6830_clear_spin_measurementh:00000000 $d
.ARM.exidx.text._Z32adBms6830_clear_spin_measurementh:00000000 $d
C:\Users\huawei\AppData\Local\Temp\ccpVCJY0.s:3276   .rodata._Z33adBms6830_clear_fcell_measurementh.str1.4:00000000 $d
C:\Users\huawei\AppData\Local\Temp\ccpVCJY0.s:3280   .text._Z33adBms6830_clear_fcell_measurementh:00000000 $t
C:\Users\huawei\AppData\Local\Temp\ccpVCJY0.s:3286   .text._Z33adBms6830_clear_fcell_measurementh:00000000 _Z33adBms6830_clear_fcell_measurementh
C:\Users\huawei\AppData\Local\Temp\ccpVCJY0.s:3320   .text._Z33adBms6830_clear_fcell_measurementh:00000014 $d
C:\Users\huawei\AppData\Local\Temp\ccpVCJY0.s:10881  .data.CLRFC:00000000 CLRFC
.ARM.extab.text._Z33adBms6830_clear_fcell_measurementh:00000000 $d
.ARM.exidx.text._Z33adBms6830_clear_fcell_measurementh:00000000 $d
C:\Users\huawei\AppData\Local\Temp\ccpVCJY0.s:3327   .rodata._Z16printWriteConfighP9cell_asic4TYPE3GRP.str1.4:00000000 $d
C:\Users\huawei\AppData\Local\Temp\ccpVCJY0.s:3346   .text._Z16printWriteConfighP9cell_asic4TYPE3GRP:00000000 $t
C:\Users\huawei\AppData\Local\Temp\ccpVCJY0.s:3352   .text._Z16printWriteConfighP9cell_asic4TYPE3GRP:00000000 _Z16printWriteConfighP9cell_asic4TYPE3GRP
C:\Users\huawei\AppData\Local\Temp\ccpVCJY0.s:3614   .text._Z16printWriteConfighP9cell_asic4TYPE3GRP:00000178 $d
.ARM.exidx.text._Z16printWriteConfighP9cell_asic4TYPE3GRP:00000000 $d
C:\Users\huawei\AppData\Local\Temp\ccpVCJY0.s:3625   .rodata._Z15printReadConfighP9cell_asic4TYPE3GRP.str1.4:00000000 $d
C:\Users\huawei\AppData\Local\Temp\ccpVCJY0.s:3710   .text._Z15printReadConfighP9cell_asic4TYPE3GRP:00000000 $t
C:\Users\huawei\AppData\Local\Temp\ccpVCJY0.s:3716   .text._Z15printReadConfighP9cell_asic4TYPE3GRP:00000000 _Z15printReadConfighP9cell_asic4TYPE3GRP
C:\Users\huawei\AppData\Local\Temp\ccpVCJY0.s:4236   .text._Z15printReadConfighP9cell_asic4TYPE3GRP:000002d4 $d
.ARM.exidx.text._Z15printReadConfighP9cell_asic4TYPE3GRP:00000000 $d
C:\Users\huawei\AppData\Local\Temp\ccpVCJY0.s:4271   .text._Z27adBms6830_write_read_confighP9cell_asic:00000000 $t
C:\Users\huawei\AppData\Local\Temp\ccpVCJY0.s:4277   .text._Z27adBms6830_write_read_confighP9cell_asic:00000000 _Z27adBms6830_write_read_confighP9cell_asic
C:\Users\huawei\AppData\Local\Temp\ccpVCJY0.s:4370   .text._Z27adBms6830_write_read_confighP9cell_asic:00000064 $d
C:\Users\huawei\AppData\Local\Temp\ccpVCJY0.s:11280  .data.WRCFGA:00000000 WRCFGA
C:\Users\huawei\AppData\Local\Temp\ccpVCJY0.s:11273  .data.WRCFGB:00000000 WRCFGB
C:\Users\huawei\AppData\Local\Temp\ccpVCJY0.s:11266  .data.RDCFGA:00000000 RDCFGA
C:\Users\huawei\AppData\Local\Temp\ccpVCJY0.s:11259  .data.RDCFGB:00000000 RDCFGB
.ARM.exidx.text._Z27adBms6830_write_read_confighP9cell_asic:00000000 $d
C:\Users\huawei\AppData\Local\Temp\ccpVCJY0.s:4379   .text._Z21adBms6830_read_confighP9cell_asic:00000000 $t
C:\Users\huawei\AppData\Local\Temp\ccpVCJY0.s:4385   .text._Z21adBms6830_read_confighP9cell_asic:00000000 _Z21adBms6830_read_confighP9cell_asic
ARM GAS  C:\Users\huawei\AppData\Local\Temp\ccpVCJY0.s 			page 282


C:\Users\huawei\AppData\Local\Temp\ccpVCJY0.s:4450   .text._Z21adBms6830_read_confighP9cell_asic:0000003c $d
.ARM.exidx.text._Z21adBms6830_read_confighP9cell_asic:00000000 $d
C:\Users\huawei\AppData\Local\Temp\ccpVCJY0.s:4457   .rodata._Z14printDeviceSIDhP9cell_asic4TYPE.str1.4:00000000 $d
C:\Users\huawei\AppData\Local\Temp\ccpVCJY0.s:4464   .text._Z14printDeviceSIDhP9cell_asic4TYPE:00000000 $t
C:\Users\huawei\AppData\Local\Temp\ccpVCJY0.s:4470   .text._Z14printDeviceSIDhP9cell_asic4TYPE:00000000 _Z14printDeviceSIDhP9cell_asic4TYPE
C:\Users\huawei\AppData\Local\Temp\ccpVCJY0.s:4595   .text._Z14printDeviceSIDhP9cell_asic4TYPE:00000090 $d
.ARM.exidx.text._Z14printDeviceSIDhP9cell_asic4TYPE:00000000 $d
C:\Users\huawei\AppData\Local\Temp\ccpVCJY0.s:4606   .rodata._Z22printWritePwmDutyCyclehP9cell_asic4TYPE3GRP.str1.4:00000000 $d
C:\Users\huawei\AppData\Local\Temp\ccpVCJY0.s:4616   .text._Z22printWritePwmDutyCyclehP9cell_asic4TYPE3GRP:00000000 $t
C:\Users\huawei\AppData\Local\Temp\ccpVCJY0.s:4622   .text._Z22printWritePwmDutyCyclehP9cell_asic4TYPE3GRP:00000000 _Z22printWritePwmDutyCyclehP9cell_asic4TYPE3GRP
C:\Users\huawei\AppData\Local\Temp\ccpVCJY0.s:4828   .text._Z22printWritePwmDutyCyclehP9cell_asic4TYPE3GRP:00000110 $d
.ARM.exidx.text._Z22printWritePwmDutyCyclehP9cell_asic4TYPE3GRP:00000000 $d
C:\Users\huawei\AppData\Local\Temp\ccpVCJY0.s:4840   .rodata._Z21printReadPwmDutyCyclehP9cell_asic4TYPE3GRP.str1.4:00000000 $d
C:\Users\huawei\AppData\Local\Temp\ccpVCJY0.s:4898   .text._Z21printReadPwmDutyCyclehP9cell_asic4TYPE3GRP:00000000 $t
C:\Users\huawei\AppData\Local\Temp\ccpVCJY0.s:4904   .text._Z21printReadPwmDutyCyclehP9cell_asic4TYPE3GRP:00000000 _Z21printReadPwmDutyCyclehP9cell_asic4TYPE3GRP
C:\Users\huawei\AppData\Local\Temp\ccpVCJY0.s:5238   .text._Z21printReadPwmDutyCyclehP9cell_asic4TYPE3GRP:000001e8 $d
.ARM.exidx.text._Z21printReadPwmDutyCyclehP9cell_asic4TYPE3GRP:00000000 $d
C:\Users\huawei\AppData\Local\Temp\ccpVCJY0.s:5266   .rodata._Z18printWriteCommDatahP9cell_asic4TYPE.str1.4:00000000 $d
C:\Users\huawei\AppData\Local\Temp\ccpVCJY0.s:5270   .text._Z18printWriteCommDatahP9cell_asic4TYPE:00000000 $t
C:\Users\huawei\AppData\Local\Temp\ccpVCJY0.s:5276   .text._Z18printWriteCommDatahP9cell_asic4TYPE:00000000 _Z18printWriteCommDatahP9cell_asic4TYPE
C:\Users\huawei\AppData\Local\Temp\ccpVCJY0.s:5389   .text._Z18printWriteCommDatahP9cell_asic4TYPE:0000007c $d
.ARM.exidx.text._Z18printWriteCommDatahP9cell_asic4TYPE:00000000 $d
C:\Users\huawei\AppData\Local\Temp\ccpVCJY0.s:5399   .rodata._Z17printReadCommDatahP9cell_asic4TYPE.str1.4:00000000 $d
C:\Users\huawei\AppData\Local\Temp\ccpVCJY0.s:5430   .text._Z17printReadCommDatahP9cell_asic4TYPE:00000000 $t
C:\Users\huawei\AppData\Local\Temp\ccpVCJY0.s:5436   .text._Z17printReadCommDatahP9cell_asic4TYPE:00000000 _Z17printReadCommDatahP9cell_asic4TYPE
C:\Users\huawei\AppData\Local\Temp\ccpVCJY0.s:5576   .text._Z17printReadCommDatahP9cell_asic4TYPE:000000ac $d
.ARM.exidx.text._Z17printReadCommDatahP9cell_asic4TYPE:00000000 $d
C:\Users\huawei\AppData\Local\Temp\ccpVCJY0.s:5595   .rodata._Z25diagnosticTestResultPrinth.str1.4:00000000 $d
C:\Users\huawei\AppData\Local\Temp\ccpVCJY0.s:5602   .text._Z25diagnosticTestResultPrinth:00000000 $t
C:\Users\huawei\AppData\Local\Temp\ccpVCJY0.s:5608   .text._Z25diagnosticTestResultPrinth:00000000 _Z25diagnosticTestResultPrinth
C:\Users\huawei\AppData\Local\Temp\ccpVCJY0.s:5649   .text._Z25diagnosticTestResultPrinth:00000018 $d
.ARM.extab.text._Z25diagnosticTestResultPrinth:00000000 $d
.ARM.exidx.text._Z25diagnosticTestResultPrinth:00000000 $d
C:\Users\huawei\AppData\Local\Temp\ccpVCJY0.s:5656   .rodata._Z25printDiagnosticTestResulthP9cell_asic15DIAGNOSTIC_TYPE.str1.4:00000000 $d
C:\Users\huawei\AppData\Local\Temp\ccpVCJY0.s:5684   .text._Z25printDiagnosticTestResulthP9cell_asic15DIAGNOSTIC_TYPE:00000000 $t
C:\Users\huawei\AppData\Local\Temp\ccpVCJY0.s:5690   .text._Z25printDiagnosticTestResulthP9cell_asic15DIAGNOSTIC_TYPE:00000000 _Z25printDiagnosticTestResulthP9cell_asic15DIAGNOSTIC_TYPE
C:\Users\huawei\AppData\Local\Temp\ccpVCJY0.s:5716   .text._Z25printDiagnosticTestResulthP9cell_asic15DIAGNOSTIC_TYPE:00000010 $d
C:\Users\huawei\AppData\Local\Temp\ccpVCJY0.s:5722   .text._Z25printDiagnosticTestResulthP9cell_asic15DIAGNOSTIC_TYPE:00000016 $t
C:\Users\huawei\AppData\Local\Temp\ccpVCJY0.s:6047   .text._Z25printDiagnosticTestResulthP9cell_asic15DIAGNOSTIC_TYPE:0000014c $d
.ARM.exidx.text._Z25printDiagnosticTestResulthP9cell_asic15DIAGNOSTIC_TYPE:00000000 $d
C:\Users\huawei\AppData\Local\Temp\ccpVCJY0.s:6061   .rodata._Z19openWireResultPrinth.str1.4:00000000 $d
C:\Users\huawei\AppData\Local\Temp\ccpVCJY0.s:6068   .text._Z19openWireResultPrinth:00000000 $t
C:\Users\huawei\AppData\Local\Temp\ccpVCJY0.s:6074   .text._Z19openWireResultPrinth:00000000 _Z19openWireResultPrinth
C:\Users\huawei\AppData\Local\Temp\ccpVCJY0.s:6115   .text._Z19openWireResultPrinth:00000018 $d
.ARM.extab.text._Z19openWireResultPrinth:00000000 $d
.ARM.exidx.text._Z19openWireResultPrinth:00000000 $d
C:\Users\huawei\AppData\Local\Temp\ccpVCJY0.s:6122   .rodata._Z23printOpenWireTestResulthP9cell_asic4TYPE.str1.4:00000000 $d
C:\Users\huawei\AppData\Local\Temp\ccpVCJY0.s:6141   .text._Z23printOpenWireTestResulthP9cell_asic4TYPE:00000000 $t
C:\Users\huawei\AppData\Local\Temp\ccpVCJY0.s:6147   .text._Z23printOpenWireTestResulthP9cell_asic4TYPE:00000000 _Z23printOpenWireTestResulthP9cell_asic4TYPE
C:\Users\huawei\AppData\Local\Temp\ccpVCJY0.s:6437   .text._Z23printOpenWireTestResulthP9cell_asic4TYPE:00000108 $d
.ARM.exidx.text._Z23printOpenWireTestResulthP9cell_asic4TYPE:00000000 $d
C:\Users\huawei\AppData\Local\Temp\ccpVCJY0.s:6461   .rodata._Z20printPollAdcConvTimei.str1.4:00000000 $d
C:\Users\huawei\AppData\Local\Temp\ccpVCJY0.s:6465   .text._Z20printPollAdcConvTimei:00000000 $t
C:\Users\huawei\AppData\Local\Temp\ccpVCJY0.s:6471   .text._Z20printPollAdcConvTimei:00000000 _Z20printPollAdcConvTimei
C:\Users\huawei\AppData\Local\Temp\ccpVCJY0.s:6511   .text._Z20printPollAdcConvTimei:00000024 $d
.ARM.extab.text._Z20printPollAdcConvTimei:00000000 $d
.ARM.exidx.text._Z20printPollAdcConvTimei:00000000 $d
ARM GAS  C:\Users\huawei\AppData\Local\Temp\ccpVCJY0.s 			page 283


C:\Users\huawei\AppData\Local\Temp\ccpVCJY0.s:6518   .rodata._Z43adBms6830_start_adc_cell_voltage_measurmenth.str1.4:00000000 $d
C:\Users\huawei\AppData\Local\Temp\ccpVCJY0.s:6522   .text._Z43adBms6830_start_adc_cell_voltage_measurmenth:00000000 $t
C:\Users\huawei\AppData\Local\Temp\ccpVCJY0.s:6528   .text._Z43adBms6830_start_adc_cell_voltage_measurmenth:00000000 _Z43adBms6830_start_adc_cell_voltage_measurmenth
C:\Users\huawei\AppData\Local\Temp\ccpVCJY0.s:6593   .text._Z43adBms6830_start_adc_cell_voltage_measurmenth:0000003c $d
C:\Users\huawei\AppData\Local\Temp\ccpVCJY0.s:10723  .bss.CELL_OPEN_WIRE_DETECTION:00000000 CELL_OPEN_WIRE_DETECTION
C:\Users\huawei\AppData\Local\Temp\ccpVCJY0.s:10699  .bss.RESET_FILTER:00000000 RESET_FILTER
C:\Users\huawei\AppData\Local\Temp\ccpVCJY0.s:10705  .bss.DISCHARGE_PERMITTED:00000000 DISCHARGE_PERMITTED
C:\Users\huawei\AppData\Local\Temp\ccpVCJY0.s:10729  .bss.CONTINUOUS_MEASUREMENT:00000000 CONTINUOUS_MEASUREMENT
C:\Users\huawei\AppData\Local\Temp\ccpVCJY0.s:10741  .bss.REDUNDANT_MEASUREMENT:00000000 REDUNDANT_MEASUREMENT
C:\Users\huawei\AppData\Local\Temp\ccpVCJY0.s:10867  .data.PLADC:00000000 PLADC
C:\Users\huawei\AppData\Local\Temp\ccpVCJY0.s:10673  .bss.pladc_count:00000000 pladc_count
.ARM.exidx.text._Z43adBms6830_start_adc_cell_voltage_measurmenth:00000000 $d
C:\Users\huawei\AppData\Local\Temp\ccpVCJY0.s:6606   .rodata._Z40adBms6830_start_adc_s_voltage_measurmenth.str1.4:00000000 $d
C:\Users\huawei\AppData\Local\Temp\ccpVCJY0.s:6610   .text._Z40adBms6830_start_adc_s_voltage_measurmenth:00000000 $t
C:\Users\huawei\AppData\Local\Temp\ccpVCJY0.s:6616   .text._Z40adBms6830_start_adc_s_voltage_measurmenth:00000000 _Z40adBms6830_start_adc_s_voltage_measurmenth
C:\Users\huawei\AppData\Local\Temp\ccpVCJY0.s:6668   .text._Z40adBms6830_start_adc_s_voltage_measurmenth:00000030 $d
.ARM.exidx.text._Z40adBms6830_start_adc_s_voltage_measurmenth:00000000 $d
C:\Users\huawei\AppData\Local\Temp\ccpVCJY0.s:6679   .rodata._Z42adBms6830_start_avgcell_voltage_measurmenth.str1.4:00000000 $d
C:\Users\huawei\AppData\Local\Temp\ccpVCJY0.s:6683   .text._Z42adBms6830_start_avgcell_voltage_measurmenth:00000000 $t
C:\Users\huawei\AppData\Local\Temp\ccpVCJY0.s:6689   .text._Z42adBms6830_start_avgcell_voltage_measurmenth:00000000 _Z42adBms6830_start_avgcell_voltage_measurmenth
C:\Users\huawei\AppData\Local\Temp\ccpVCJY0.s:6753   .text._Z42adBms6830_start_avgcell_voltage_measurmenth:0000003c $d
.ARM.exidx.text._Z42adBms6830_start_avgcell_voltage_measurmenth:00000000 $d
C:\Users\huawei\AppData\Local\Temp\ccpVCJY0.s:6765   .rodata._Z40adBms6830_start_fcell_voltage_measurmenth.str1.4:00000000 $d
C:\Users\huawei\AppData\Local\Temp\ccpVCJY0.s:6769   .text._Z40adBms6830_start_fcell_voltage_measurmenth:00000000 $t
C:\Users\huawei\AppData\Local\Temp\ccpVCJY0.s:6775   .text._Z40adBms6830_start_fcell_voltage_measurmenth:00000000 _Z40adBms6830_start_fcell_voltage_measurmenth
C:\Users\huawei\AppData\Local\Temp\ccpVCJY0.s:6840   .text._Z40adBms6830_start_fcell_voltage_measurmenth:0000003c $d
.ARM.exidx.text._Z40adBms6830_start_fcell_voltage_measurmenth:00000000 $d
C:\Users\huawei\AppData\Local\Temp\ccpVCJY0.s:6853   .rodata._Z38adBms6830_start_aux_voltage_measurmenthP9cell_asic.str1.4:00000000 $d
C:\Users\huawei\AppData\Local\Temp\ccpVCJY0.s:6857   .text._Z38adBms6830_start_aux_voltage_measurmenthP9cell_asic:00000000 $t
C:\Users\huawei\AppData\Local\Temp\ccpVCJY0.s:6863   .text._Z38adBms6830_start_aux_voltage_measurmenthP9cell_asic:00000000 _Z38adBms6830_start_aux_voltage_measurmenthP9cell_asic
C:\Users\huawei\AppData\Local\Temp\ccpVCJY0.s:6974   .text._Z38adBms6830_start_aux_voltage_measurmenthP9cell_asic:00000078 $d
C:\Users\huawei\AppData\Local\Temp\ccpVCJY0.s:10735  .bss.AUX_CH_TO_CONVERT:00000000 AUX_CH_TO_CONVERT
C:\Users\huawei\AppData\Local\Temp\ccpVCJY0.s:10711  .bss.OPEN_WIRE_CURRENT_SOURCE:00000000 OPEN_WIRE_CURRENT_SOURCE
C:\Users\huawei\AppData\Local\Temp\ccpVCJY0.s:10717  .bss.AUX_OPEN_WIRE_DETECTION:00000000 AUX_OPEN_WIRE_DETECTION
.ARM.exidx.text._Z38adBms6830_start_aux_voltage_measurmenthP9cell_asic:00000000 $d
C:\Users\huawei\AppData\Local\Temp\ccpVCJY0.s:6986   .rodata._Z39adBms6830_start_raux_voltage_measurmenthP9cell_asic.str1.4:00000000 $d
C:\Users\huawei\AppData\Local\Temp\ccpVCJY0.s:6990   .text._Z39adBms6830_start_raux_voltage_measurmenthP9cell_asic:00000000 $t
C:\Users\huawei\AppData\Local\Temp\ccpVCJY0.s:6996   .text._Z39adBms6830_start_raux_voltage_measurmenthP9cell_asic:00000000 _Z39adBms6830_start_raux_voltage_measurmenthP9cell_asic
C:\Users\huawei\AppData\Local\Temp\ccpVCJY0.s:7103   .text._Z39adBms6830_start_raux_voltage_measurmenthP9cell_asic:00000070 $d
.ARM.exidx.text._Z39adBms6830_start_raux_voltage_measurmenthP9cell_asic:00000000 $d
C:\Users\huawei\AppData\Local\Temp\ccpVCJY0.s:7113   .rodata._Z9printMenuv.str1.4:00000000 $d
C:\Users\huawei\AppData\Local\Temp\ccpVCJY0.s:7183   .text._Z9printMenuv:00000000 $t
C:\Users\huawei\AppData\Local\Temp\ccpVCJY0.s:7189   .text._Z9printMenuv:00000000 _Z9printMenuv
C:\Users\huawei\AppData\Local\Temp\ccpVCJY0.s:7337   .text._Z9printMenuv:000000a4 $d
    .ARM.extab.text._Z9printMenuv:00000000 $d
    .ARM.exidx.text._Z9printMenuv:00000000 $d
C:\Users\huawei\AppData\Local\Temp\ccpVCJY0.s:7367   .text._Z10getVoltagei:00000000 $t
C:\Users\huawei\AppData\Local\Temp\ccpVCJY0.s:7373   .text._Z10getVoltagei:00000000 _Z10getVoltagei
C:\Users\huawei\AppData\Local\Temp\ccpVCJY0.s:7413   .text._Z10getVoltagei:00000020 $d
  .ARM.exidx.text._Z10getVoltagei:00000000 $d
C:\Users\huawei\AppData\Local\Temp\ccpVCJY0.s:7421   .rodata._Z13printVoltageshP9cell_asic4TYPE.str1.4:00000000 $d
C:\Users\huawei\AppData\Local\Temp\ccpVCJY0.s:7449   .text._Z13printVoltageshP9cell_asic4TYPE:00000000 $t
C:\Users\huawei\AppData\Local\Temp\ccpVCJY0.s:7455   .text._Z13printVoltageshP9cell_asic4TYPE:00000000 _Z13printVoltageshP9cell_asic4TYPE
C:\Users\huawei\AppData\Local\Temp\ccpVCJY0.s:7491   .text._Z13printVoltageshP9cell_asic4TYPE:00000016 $d
C:\Users\huawei\AppData\Local\Temp\ccpVCJY0.s:7499   .text._Z13printVoltageshP9cell_asic4TYPE:0000001e $t
C:\Users\huawei\AppData\Local\Temp\ccpVCJY0.s:7550   .text._Z13printVoltageshP9cell_asic4TYPE:00000056 $d
C:\Users\huawei\AppData\Local\Temp\ccpVCJY0.s:7558   .text._Z13printVoltageshP9cell_asic4TYPE:00000064 $t
ARM GAS  C:\Users\huawei\AppData\Local\Temp\ccpVCJY0.s 			page 284


C:\Users\huawei\AppData\Local\Temp\ccpVCJY0.s:7651   .text._Z13printVoltageshP9cell_asic4TYPE:000000e8 $d
C:\Users\huawei\AppData\Local\Temp\ccpVCJY0.s:7660   .text._Z13printVoltageshP9cell_asic4TYPE:00000108 $t
C:\Users\huawei\AppData\Local\Temp\ccpVCJY0.s:7949   .text._Z13printVoltageshP9cell_asic4TYPE:00000298 $d
.ARM.exidx.text._Z13printVoltageshP9cell_asic4TYPE:00000000 $d
C:\Users\huawei\AppData\Local\Temp\ccpVCJY0.s:7967   .text._Z28adBms6830_read_cell_voltageshP9cell_asic:00000000 $t
C:\Users\huawei\AppData\Local\Temp\ccpVCJY0.s:7973   .text._Z28adBms6830_read_cell_voltageshP9cell_asic:00000000 _Z28adBms6830_read_cell_voltageshP9cell_asic
C:\Users\huawei\AppData\Local\Temp\ccpVCJY0.s:8077   .text._Z28adBms6830_read_cell_voltageshP9cell_asic:0000007c $d
C:\Users\huawei\AppData\Local\Temp\ccpVCJY0.s:11252  .data.RDCVA:00000000 RDCVA
C:\Users\huawei\AppData\Local\Temp\ccpVCJY0.s:11245  .data.RDCVB:00000000 RDCVB
C:\Users\huawei\AppData\Local\Temp\ccpVCJY0.s:11238  .data.RDCVC:00000000 RDCVC
C:\Users\huawei\AppData\Local\Temp\ccpVCJY0.s:11231  .data.RDCVD:00000000 RDCVD
C:\Users\huawei\AppData\Local\Temp\ccpVCJY0.s:11224  .data.RDCVE:00000000 RDCVE
C:\Users\huawei\AppData\Local\Temp\ccpVCJY0.s:11217  .data.RDCVF:00000000 RDCVF
.ARM.exidx.text._Z28adBms6830_read_cell_voltageshP9cell_asic:00000000 $d
C:\Users\huawei\AppData\Local\Temp\ccpVCJY0.s:8088   .text._Z25adBms6830_read_s_voltageshP9cell_asic:00000000 $t
C:\Users\huawei\AppData\Local\Temp\ccpVCJY0.s:8094   .text._Z25adBms6830_read_s_voltageshP9cell_asic:00000000 _Z25adBms6830_read_s_voltageshP9cell_asic
C:\Users\huawei\AppData\Local\Temp\ccpVCJY0.s:8199   .text._Z25adBms6830_read_s_voltageshP9cell_asic:0000007c $d
C:\Users\huawei\AppData\Local\Temp\ccpVCJY0.s:11154  .data.RDSVA:00000000 RDSVA
C:\Users\huawei\AppData\Local\Temp\ccpVCJY0.s:11147  .data.RDSVB:00000000 RDSVB
C:\Users\huawei\AppData\Local\Temp\ccpVCJY0.s:11140  .data.RDSVC:00000000 RDSVC
C:\Users\huawei\AppData\Local\Temp\ccpVCJY0.s:11133  .data.RDSVD:00000000 RDSVD
C:\Users\huawei\AppData\Local\Temp\ccpVCJY0.s:11126  .data.RDSVE:00000000 RDSVE
C:\Users\huawei\AppData\Local\Temp\ccpVCJY0.s:11119  .data.RDSVF:00000000 RDSVF
.ARM.exidx.text._Z25adBms6830_read_s_voltageshP9cell_asic:00000000 $d
C:\Users\huawei\AppData\Local\Temp\ccpVCJY0.s:8210   .text._Z31adBms6830_read_avgcell_voltageshP9cell_asic:00000000 $t
C:\Users\huawei\AppData\Local\Temp\ccpVCJY0.s:8216   .text._Z31adBms6830_read_avgcell_voltageshP9cell_asic:00000000 _Z31adBms6830_read_avgcell_voltageshP9cell_asic
C:\Users\huawei\AppData\Local\Temp\ccpVCJY0.s:8321   .text._Z31adBms6830_read_avgcell_voltageshP9cell_asic:0000007c $d
C:\Users\huawei\AppData\Local\Temp\ccpVCJY0.s:11203  .data.RDACA:00000000 RDACA
C:\Users\huawei\AppData\Local\Temp\ccpVCJY0.s:11196  .data.RDACB:00000000 RDACB
C:\Users\huawei\AppData\Local\Temp\ccpVCJY0.s:11189  .data.RDACC:00000000 RDACC
C:\Users\huawei\AppData\Local\Temp\ccpVCJY0.s:11182  .data.RDACD:00000000 RDACD
C:\Users\huawei\AppData\Local\Temp\ccpVCJY0.s:11175  .data.RDACE:00000000 RDACE
C:\Users\huawei\AppData\Local\Temp\ccpVCJY0.s:11168  .data.RDACF:00000000 RDACF
.ARM.exidx.text._Z31adBms6830_read_avgcell_voltageshP9cell_asic:00000000 $d
C:\Users\huawei\AppData\Local\Temp\ccpVCJY0.s:8332   .text._Z29adBms6830_read_fcell_voltageshP9cell_asic:00000000 $t
C:\Users\huawei\AppData\Local\Temp\ccpVCJY0.s:8338   .text._Z29adBms6830_read_fcell_voltageshP9cell_asic:00000000 _Z29adBms6830_read_fcell_voltageshP9cell_asic
C:\Users\huawei\AppData\Local\Temp\ccpVCJY0.s:8442   .text._Z29adBms6830_read_fcell_voltageshP9cell_asic:0000007c $d
C:\Users\huawei\AppData\Local\Temp\ccpVCJY0.s:11084  .data.RDFCA:00000000 RDFCA
C:\Users\huawei\AppData\Local\Temp\ccpVCJY0.s:11077  .data.RDFCB:00000000 RDFCB
C:\Users\huawei\AppData\Local\Temp\ccpVCJY0.s:11070  .data.RDFCC:00000000 RDFCC
C:\Users\huawei\AppData\Local\Temp\ccpVCJY0.s:11063  .data.RDFCD:00000000 RDFCD
C:\Users\huawei\AppData\Local\Temp\ccpVCJY0.s:11056  .data.RDFCE:00000000 RDFCE
C:\Users\huawei\AppData\Local\Temp\ccpVCJY0.s:11049  .data.RDFCF:00000000 RDFCF
.ARM.exidx.text._Z29adBms6830_read_fcell_voltageshP9cell_asic:00000000 $d
C:\Users\huawei\AppData\Local\Temp\ccpVCJY0.s:8453   .text._Z27adBms6830_read_aux_voltageshP9cell_asic:00000000 $t
C:\Users\huawei\AppData\Local\Temp\ccpVCJY0.s:8459   .text._Z27adBms6830_read_aux_voltageshP9cell_asic:00000000 _Z27adBms6830_read_aux_voltageshP9cell_asic
C:\Users\huawei\AppData\Local\Temp\ccpVCJY0.s:8544   .text._Z27adBms6830_read_aux_voltageshP9cell_asic:0000005c $d
C:\Users\huawei\AppData\Local\Temp\ccpVCJY0.s:11035  .data.RDAUXA:00000000 RDAUXA
C:\Users\huawei\AppData\Local\Temp\ccpVCJY0.s:11028  .data.RDAUXB:00000000 RDAUXB
C:\Users\huawei\AppData\Local\Temp\ccpVCJY0.s:11021  .data.RDAUXC:00000000 RDAUXC
C:\Users\huawei\AppData\Local\Temp\ccpVCJY0.s:11014  .data.RDAUXD:00000000 RDAUXD
.ARM.exidx.text._Z27adBms6830_read_aux_voltageshP9cell_asic:00000000 $d
C:\Users\huawei\AppData\Local\Temp\ccpVCJY0.s:8553   .text._Z28adBms6830_read_raux_voltageshP9cell_asic:00000000 $t
C:\Users\huawei\AppData\Local\Temp\ccpVCJY0.s:8559   .text._Z28adBms6830_read_raux_voltageshP9cell_asic:00000000 _Z28adBms6830_read_raux_voltageshP9cell_asic
C:\Users\huawei\AppData\Local\Temp\ccpVCJY0.s:8644   .text._Z28adBms6830_read_raux_voltageshP9cell_asic:0000005c $d
C:\Users\huawei\AppData\Local\Temp\ccpVCJY0.s:11007  .data.RDRAXA:00000000 RDRAXA
C:\Users\huawei\AppData\Local\Temp\ccpVCJY0.s:11000  .data.RDRAXB:00000000 RDRAXB
ARM GAS  C:\Users\huawei\AppData\Local\Temp\ccpVCJY0.s 			page 285


C:\Users\huawei\AppData\Local\Temp\ccpVCJY0.s:10993  .data.RDRAXC:00000000 RDRAXC
C:\Users\huawei\AppData\Local\Temp\ccpVCJY0.s:10986  .data.RDRAXD:00000000 RDRAXD
.ARM.exidx.text._Z28adBms6830_read_raux_voltageshP9cell_asic:00000000 $d
C:\Users\huawei\AppData\Local\Temp\ccpVCJY0.s:8653   .rodata._Z11printStatushP9cell_asic4TYPE3GRP.str1.4:00000000 $d
C:\Users\huawei\AppData\Local\Temp\ccpVCJY0.s:8871   .text._Z11printStatushP9cell_asic4TYPE3GRP:00000000 $t
C:\Users\huawei\AppData\Local\Temp\ccpVCJY0.s:8877   .text._Z11printStatushP9cell_asic4TYPE3GRP:00000000 _Z11printStatushP9cell_asic4TYPE3GRP
C:\Users\huawei\AppData\Local\Temp\ccpVCJY0.s:9019   .text._Z11printStatushP9cell_asic4TYPE3GRP:000000b8 $d
C:\Users\huawei\AppData\Local\Temp\ccpVCJY0.s:9025   .text._Z11printStatushP9cell_asic4TYPE3GRP:000000d0 $t
C:\Users\huawei\AppData\Local\Temp\ccpVCJY0.s:9259   .text._Z11printStatushP9cell_asic4TYPE3GRP:00000250 $d
C:\Users\huawei\AppData\Local\Temp\ccpVCJY0.s:9295   .text._Z11printStatushP9cell_asic4TYPE3GRP:000002d4 $t
C:\Users\huawei\AppData\Local\Temp\ccpVCJY0.s:9569   .text._Z11printStatushP9cell_asic4TYPE3GRP:0000049c $d
C:\Users\huawei\AppData\Local\Temp\ccpVCJY0.s:9613   .text._Z11printStatushP9cell_asic4TYPE3GRP:00000540 $t
C:\Users\huawei\AppData\Local\Temp\ccpVCJY0.s:10138  .text._Z11printStatushP9cell_asic4TYPE3GRP:00000898 $d
.ARM.exidx.text._Z11printStatushP9cell_asic4TYPE3GRP:00000000 $d
C:\Users\huawei\AppData\Local\Temp\ccpVCJY0.s:10214  .text._Z31adBms6830_read_status_registershP9cell_asic:00000000 $t
C:\Users\huawei\AppData\Local\Temp\ccpVCJY0.s:10220  .text._Z31adBms6830_read_status_registershP9cell_asic:00000000 _Z31adBms6830_read_status_registershP9cell_asic
C:\Users\huawei\AppData\Local\Temp\ccpVCJY0.s:10386  .text._Z31adBms6830_read_status_registershP9cell_asic:000000dc $d
C:\Users\huawei\AppData\Local\Temp\ccpVCJY0.s:10979  .data.RDSTATA:00000000 RDSTATA
C:\Users\huawei\AppData\Local\Temp\ccpVCJY0.s:10972  .data.RDSTATB:00000000 RDSTATB
C:\Users\huawei\AppData\Local\Temp\ccpVCJY0.s:10965  .data.RDSTATC:00000000 RDSTATC
C:\Users\huawei\AppData\Local\Temp\ccpVCJY0.s:10951  .data.RDSTATD:00000000 RDSTATD
C:\Users\huawei\AppData\Local\Temp\ccpVCJY0.s:10944  .data.RDSTATE:00000000 RDSTATE
.ARM.exidx.text._Z31adBms6830_read_status_registershP9cell_asic:00000000 $d
C:\Users\huawei\AppData\Local\Temp\ccpVCJY0.s:10408  .rodata._ZL10Crc15Table:00000000 $d
C:\Users\huawei\AppData\Local\Temp\ccpVCJY0.s:10670  .bss.pladc_count:00000000 $d
C:\Users\huawei\AppData\Local\Temp\ccpVCJY0.s:10680  .bss.loop_count:00000000 loop_count
C:\Users\huawei\AppData\Local\Temp\ccpVCJY0.s:10677  .bss.loop_count:00000000 $d
C:\Users\huawei\AppData\Local\Temp\ccpVCJY0.s:10687  .bss.IC:00000000 IC
C:\Users\huawei\AppData\Local\Temp\ccpVCJY0.s:10684  .bss.IC:00000000 $d
C:\Users\huawei\AppData\Local\Temp\ccpVCJY0.s:10693  .bss.INJECT_ERR_SPI_READ:00000000 INJECT_ERR_SPI_READ
C:\Users\huawei\AppData\Local\Temp\ccpVCJY0.s:10694  .bss.INJECT_ERR_SPI_READ:00000000 $d
C:\Users\huawei\AppData\Local\Temp\ccpVCJY0.s:10700  .bss.RESET_FILTER:00000000 $d
C:\Users\huawei\AppData\Local\Temp\ccpVCJY0.s:10706  .bss.DISCHARGE_PERMITTED:00000000 $d
C:\Users\huawei\AppData\Local\Temp\ccpVCJY0.s:10712  .bss.OPEN_WIRE_CURRENT_SOURCE:00000000 $d
C:\Users\huawei\AppData\Local\Temp\ccpVCJY0.s:10718  .bss.AUX_OPEN_WIRE_DETECTION:00000000 $d
C:\Users\huawei\AppData\Local\Temp\ccpVCJY0.s:10724  .bss.CELL_OPEN_WIRE_DETECTION:00000000 $d
C:\Users\huawei\AppData\Local\Temp\ccpVCJY0.s:10730  .bss.CONTINUOUS_MEASUREMENT:00000000 $d
C:\Users\huawei\AppData\Local\Temp\ccpVCJY0.s:10736  .bss.AUX_CH_TO_CONVERT:00000000 $d
C:\Users\huawei\AppData\Local\Temp\ccpVCJY0.s:10742  .bss.REDUNDANT_MEASUREMENT:00000000 $d
C:\Users\huawei\AppData\Local\Temp\ccpVCJY0.s:10745  .data.hspi:00000000 $d
C:\Users\huawei\AppData\Local\Temp\ccpVCJY0.s:10755  .data.RDSID:00000000 RDSID
C:\Users\huawei\AppData\Local\Temp\ccpVCJY0.s:10752  .data.RDSID:00000000 $d
C:\Users\huawei\AppData\Local\Temp\ccpVCJY0.s:10762  .data.SRST:00000000 SRST
C:\Users\huawei\AppData\Local\Temp\ccpVCJY0.s:10759  .data.SRST:00000000 $d
C:\Users\huawei\AppData\Local\Temp\ccpVCJY0.s:10769  .data.UNSNAP:00000000 UNSNAP
C:\Users\huawei\AppData\Local\Temp\ccpVCJY0.s:10766  .data.UNSNAP:00000000 $d
C:\Users\huawei\AppData\Local\Temp\ccpVCJY0.s:10776  .data.SNAP:00000000 SNAP
C:\Users\huawei\AppData\Local\Temp\ccpVCJY0.s:10773  .data.SNAP:00000000 $d
C:\Users\huawei\AppData\Local\Temp\ccpVCJY0.s:10783  .data.RSTCC:00000000 RSTCC
C:\Users\huawei\AppData\Local\Temp\ccpVCJY0.s:10780  .data.RSTCC:00000000 $d
C:\Users\huawei\AppData\Local\Temp\ccpVCJY0.s:10790  .data.UNMUTE:00000000 UNMUTE
C:\Users\huawei\AppData\Local\Temp\ccpVCJY0.s:10787  .data.UNMUTE:00000000 $d
C:\Users\huawei\AppData\Local\Temp\ccpVCJY0.s:10797  .data.MUTE:00000000 MUTE
C:\Users\huawei\AppData\Local\Temp\ccpVCJY0.s:10794  .data.MUTE:00000000 $d
C:\Users\huawei\AppData\Local\Temp\ccpVCJY0.s:10804  .data.STCOMM:00000000 STCOMM
C:\Users\huawei\AppData\Local\Temp\ccpVCJY0.s:10801  .data.STCOMM:00000000 $d
C:\Users\huawei\AppData\Local\Temp\ccpVCJY0.s:10811  .data.RDCOMM:00000000 RDCOMM
ARM GAS  C:\Users\huawei\AppData\Local\Temp\ccpVCJY0.s 			page 286


C:\Users\huawei\AppData\Local\Temp\ccpVCJY0.s:10808  .data.RDCOMM:00000000 $d
C:\Users\huawei\AppData\Local\Temp\ccpVCJY0.s:10818  .data.WRCOMM:00000000 WRCOMM
C:\Users\huawei\AppData\Local\Temp\ccpVCJY0.s:10815  .data.WRCOMM:00000000 $d
C:\Users\huawei\AppData\Local\Temp\ccpVCJY0.s:10825  .data.DIAGN:00000000 DIAGN
C:\Users\huawei\AppData\Local\Temp\ccpVCJY0.s:10822  .data.DIAGN:00000000 $d
C:\Users\huawei\AppData\Local\Temp\ccpVCJY0.s:10832  .data.PLAUX2:00000000 PLAUX2
C:\Users\huawei\AppData\Local\Temp\ccpVCJY0.s:10829  .data.PLAUX2:00000000 $d
C:\Users\huawei\AppData\Local\Temp\ccpVCJY0.s:10839  .data.PLAUX1:00000000 PLAUX1
C:\Users\huawei\AppData\Local\Temp\ccpVCJY0.s:10836  .data.PLAUX1:00000000 $d
C:\Users\huawei\AppData\Local\Temp\ccpVCJY0.s:10846  .data.PLSADC:00000000 PLSADC
C:\Users\huawei\AppData\Local\Temp\ccpVCJY0.s:10843  .data.PLSADC:00000000 $d
C:\Users\huawei\AppData\Local\Temp\ccpVCJY0.s:10853  .data.PLCADC:00000000 PLCADC
C:\Users\huawei\AppData\Local\Temp\ccpVCJY0.s:10850  .data.PLCADC:00000000 $d
C:\Users\huawei\AppData\Local\Temp\ccpVCJY0.s:10860  .data.PLAUT:00000000 PLAUT
C:\Users\huawei\AppData\Local\Temp\ccpVCJY0.s:10857  .data.PLAUT:00000000 $d
C:\Users\huawei\AppData\Local\Temp\ccpVCJY0.s:10864  .data.PLADC:00000000 $d
C:\Users\huawei\AppData\Local\Temp\ccpVCJY0.s:10874  .data.CLOVUV:00000000 CLOVUV
C:\Users\huawei\AppData\Local\Temp\ccpVCJY0.s:10871  .data.CLOVUV:00000000 $d
C:\Users\huawei\AppData\Local\Temp\ccpVCJY0.s:10878  .data.CLRFC:00000000 $d
C:\Users\huawei\AppData\Local\Temp\ccpVCJY0.s:10888  .data.CLRFLAG:00000000 CLRFLAG
C:\Users\huawei\AppData\Local\Temp\ccpVCJY0.s:10885  .data.CLRFLAG:00000000 $d
C:\Users\huawei\AppData\Local\Temp\ccpVCJY0.s:10892  .data.CLRSPIN:00000000 $d
C:\Users\huawei\AppData\Local\Temp\ccpVCJY0.s:10899  .data.CLRAUX:00000000 $d
C:\Users\huawei\AppData\Local\Temp\ccpVCJY0.s:10906  .data.CLRCELL:00000000 $d
C:\Users\huawei\AppData\Local\Temp\ccpVCJY0.s:10916  .data.RDPWM2:00000000 RDPWM2
C:\Users\huawei\AppData\Local\Temp\ccpVCJY0.s:10913  .data.RDPWM2:00000000 $d
C:\Users\huawei\AppData\Local\Temp\ccpVCJY0.s:10923  .data.WRPWM2:00000000 WRPWM2
C:\Users\huawei\AppData\Local\Temp\ccpVCJY0.s:10920  .data.WRPWM2:00000000 $d
C:\Users\huawei\AppData\Local\Temp\ccpVCJY0.s:10930  .data.RDPWM1:00000000 RDPWM1
C:\Users\huawei\AppData\Local\Temp\ccpVCJY0.s:10927  .data.RDPWM1:00000000 $d
C:\Users\huawei\AppData\Local\Temp\ccpVCJY0.s:10937  .data.WRPWM1:00000000 WRPWM1
C:\Users\huawei\AppData\Local\Temp\ccpVCJY0.s:10934  .data.WRPWM1:00000000 $d
C:\Users\huawei\AppData\Local\Temp\ccpVCJY0.s:10941  .data.RDSTATE:00000000 $d
C:\Users\huawei\AppData\Local\Temp\ccpVCJY0.s:10948  .data.RDSTATD:00000000 $d
C:\Users\huawei\AppData\Local\Temp\ccpVCJY0.s:10958  .data.RDSTATCERR:00000000 RDSTATCERR
C:\Users\huawei\AppData\Local\Temp\ccpVCJY0.s:10955  .data.RDSTATCERR:00000000 $d
C:\Users\huawei\AppData\Local\Temp\ccpVCJY0.s:10962  .data.RDSTATC:00000000 $d
C:\Users\huawei\AppData\Local\Temp\ccpVCJY0.s:10969  .data.RDSTATB:00000000 $d
C:\Users\huawei\AppData\Local\Temp\ccpVCJY0.s:10976  .data.RDSTATA:00000000 $d
C:\Users\huawei\AppData\Local\Temp\ccpVCJY0.s:10983  .data.RDRAXD:00000000 $d
C:\Users\huawei\AppData\Local\Temp\ccpVCJY0.s:10990  .data.RDRAXC:00000000 $d
C:\Users\huawei\AppData\Local\Temp\ccpVCJY0.s:10997  .data.RDRAXB:00000000 $d
C:\Users\huawei\AppData\Local\Temp\ccpVCJY0.s:11004  .data.RDRAXA:00000000 $d
C:\Users\huawei\AppData\Local\Temp\ccpVCJY0.s:11011  .data.RDAUXD:00000000 $d
C:\Users\huawei\AppData\Local\Temp\ccpVCJY0.s:11018  .data.RDAUXC:00000000 $d
C:\Users\huawei\AppData\Local\Temp\ccpVCJY0.s:11025  .data.RDAUXB:00000000 $d
C:\Users\huawei\AppData\Local\Temp\ccpVCJY0.s:11032  .data.RDAUXA:00000000 $d
C:\Users\huawei\AppData\Local\Temp\ccpVCJY0.s:11042  .data.RDFCALL:00000000 RDFCALL
C:\Users\huawei\AppData\Local\Temp\ccpVCJY0.s:11039  .data.RDFCALL:00000000 $d
C:\Users\huawei\AppData\Local\Temp\ccpVCJY0.s:11046  .data.RDFCF:00000000 $d
C:\Users\huawei\AppData\Local\Temp\ccpVCJY0.s:11053  .data.RDFCE:00000000 $d
C:\Users\huawei\AppData\Local\Temp\ccpVCJY0.s:11060  .data.RDFCD:00000000 $d
C:\Users\huawei\AppData\Local\Temp\ccpVCJY0.s:11067  .data.RDFCC:00000000 $d
C:\Users\huawei\AppData\Local\Temp\ccpVCJY0.s:11074  .data.RDFCB:00000000 $d
C:\Users\huawei\AppData\Local\Temp\ccpVCJY0.s:11081  .data.RDFCA:00000000 $d
C:\Users\huawei\AppData\Local\Temp\ccpVCJY0.s:11091  .data.RDASALL:00000000 RDASALL
C:\Users\huawei\AppData\Local\Temp\ccpVCJY0.s:11088  .data.RDASALL:00000000 $d
ARM GAS  C:\Users\huawei\AppData\Local\Temp\ccpVCJY0.s 			page 287


C:\Users\huawei\AppData\Local\Temp\ccpVCJY0.s:11098  .data.RDACSALL:00000000 RDACSALL
C:\Users\huawei\AppData\Local\Temp\ccpVCJY0.s:11095  .data.RDACSALL:00000000 $d
C:\Users\huawei\AppData\Local\Temp\ccpVCJY0.s:11105  .data.RDCSALL:00000000 RDCSALL
C:\Users\huawei\AppData\Local\Temp\ccpVCJY0.s:11102  .data.RDCSALL:00000000 $d
C:\Users\huawei\AppData\Local\Temp\ccpVCJY0.s:11112  .data.RDSALL:00000000 RDSALL
C:\Users\huawei\AppData\Local\Temp\ccpVCJY0.s:11109  .data.RDSALL:00000000 $d
C:\Users\huawei\AppData\Local\Temp\ccpVCJY0.s:11116  .data.RDSVF:00000000 $d
C:\Users\huawei\AppData\Local\Temp\ccpVCJY0.s:11123  .data.RDSVE:00000000 $d
C:\Users\huawei\AppData\Local\Temp\ccpVCJY0.s:11130  .data.RDSVD:00000000 $d
C:\Users\huawei\AppData\Local\Temp\ccpVCJY0.s:11137  .data.RDSVC:00000000 $d
C:\Users\huawei\AppData\Local\Temp\ccpVCJY0.s:11144  .data.RDSVB:00000000 $d
C:\Users\huawei\AppData\Local\Temp\ccpVCJY0.s:11151  .data.RDSVA:00000000 $d
C:\Users\huawei\AppData\Local\Temp\ccpVCJY0.s:11161  .data.RDACALL:00000000 RDACALL
C:\Users\huawei\AppData\Local\Temp\ccpVCJY0.s:11158  .data.RDACALL:00000000 $d
C:\Users\huawei\AppData\Local\Temp\ccpVCJY0.s:11165  .data.RDACF:00000000 $d
C:\Users\huawei\AppData\Local\Temp\ccpVCJY0.s:11172  .data.RDACE:00000000 $d
C:\Users\huawei\AppData\Local\Temp\ccpVCJY0.s:11179  .data.RDACD:00000000 $d
C:\Users\huawei\AppData\Local\Temp\ccpVCJY0.s:11186  .data.RDACC:00000000 $d
C:\Users\huawei\AppData\Local\Temp\ccpVCJY0.s:11193  .data.RDACB:00000000 $d
C:\Users\huawei\AppData\Local\Temp\ccpVCJY0.s:11200  .data.RDACA:00000000 $d
C:\Users\huawei\AppData\Local\Temp\ccpVCJY0.s:11210  .data.RDCVALL:00000000 RDCVALL
C:\Users\huawei\AppData\Local\Temp\ccpVCJY0.s:11207  .data.RDCVALL:00000000 $d
C:\Users\huawei\AppData\Local\Temp\ccpVCJY0.s:11214  .data.RDCVF:00000000 $d
C:\Users\huawei\AppData\Local\Temp\ccpVCJY0.s:11221  .data.RDCVE:00000000 $d
C:\Users\huawei\AppData\Local\Temp\ccpVCJY0.s:11228  .data.RDCVD:00000000 $d
C:\Users\huawei\AppData\Local\Temp\ccpVCJY0.s:11235  .data.RDCVC:00000000 $d
C:\Users\huawei\AppData\Local\Temp\ccpVCJY0.s:11242  .data.RDCVB:00000000 $d
C:\Users\huawei\AppData\Local\Temp\ccpVCJY0.s:11249  .data.RDCVA:00000000 $d
C:\Users\huawei\AppData\Local\Temp\ccpVCJY0.s:11256  .data.RDCFGB:00000000 $d
C:\Users\huawei\AppData\Local\Temp\ccpVCJY0.s:11263  .data.RDCFGA:00000000 $d
C:\Users\huawei\AppData\Local\Temp\ccpVCJY0.s:11270  .data.WRCFGB:00000000 $d
C:\Users\huawei\AppData\Local\Temp\ccpVCJY0.s:11277  .data.WRCFGA:00000000 $d
C:\Users\huawei\AppData\Local\Temp\ccpVCJY0.s:812    .text._Z13adBmsReadDatahP9cell_asicPh4TYPE3GRP:0000002d $d
C:\Users\huawei\AppData\Local\Temp\ccpVCJY0.s:812    .text._Z13adBmsReadDatahP9cell_asicPh4TYPE3GRP:0000002e $t

UNDEFINED SYMBOLS
HAL_GPIO_WritePin
__aeabi_unwind_cpp_pr1
HAL_Delay
__aeabi_unwind_cpp_pr0
calloc
HAL_SPI_Transmit
HAL_SPI_Receive
puts
exit
memcpy
free
_Z20adBms6830ParseConfighP9cell_asic3GRPPh
_Z18adBms6830ParseCellhP9cell_asic3GRPPh
_Z25adBms6830ParseAverageCellhP9cell_asic3GRPPh
_Z19adBms6830ParseSCellhP9cell_asic3GRPPh
_Z19adBms6830ParseFCellhP9cell_asic3GRPPh
_Z17adBms6830ParseAuxhP9cell_asic3GRPPh
_Z18adBms6830ParseRAuxhP9cell_asic3GRPPh
_Z20adBms6830ParseStatushP9cell_asic3GRPPh
_Z18adBms6830ParseCommhP9cell_asicPh
_Z17adBms6830ParsePwmhP9cell_asic3GRPPh
ARM GAS  C:\Users\huawei\AppData\Local\Temp\ccpVCJY0.s 			page 288


_Z17adBms6830ParseSIDhP9cell_asicPh
_Z22adBms6830CreateConfigahP9cell_asic
_Z22adBms6830CreateConfigbhP9cell_asic
_Z19adBms6830CreateCommhP9cell_asic
_Z19adBms6830CreatePwmbhP9cell_asic
_Z19adBms6830CreatePwmahP9cell_asic
_Z26adBms6830CreateClrflagDatahP9cell_asic
_Z10spiSendCmdPh
printf
__aeabi_i2d
__aeabi_ddiv
__aeabi_d2f
__aeabi_f2d
putchar
__aeabi_dmul
__aeabi_dsub
hspi2
