ARM GAS  C:\Users\huawei\AppData\Local\Temp\cc1TIrE4.s 			page 1


   1              		.cpu cortex-m4
   2              		.arch armv7e-m
   3              		.fpu fpv4-sp-d16
   4              		.eabi_attribute 27, 1
   5              		.eabi_attribute 28, 1
   6              		.eabi_attribute 20, 1
   7              		.eabi_attribute 21, 1
   8              		.eabi_attribute 23, 3
   9              		.eabi_attribute 24, 1
  10              		.eabi_attribute 25, 1
  11              		.eabi_attribute 26, 1
  12              		.eabi_attribute 30, 1
  13              		.eabi_attribute 34, 1
  14              		.eabi_attribute 18, 4
  15              		.file	"stm32f4xx_hal_adc_ex.cpp"
  16              		.text
  17              	.Ltext0:
  18              		.cfi_sections	.debug_frame
  19              		.file 1 "Drivers/STM32F4xx_HAL_Driver/Src/stm32f4xx_hal_adc_ex.cpp"
  20              		.section	.text._ZL21ADC_MultiModeDMAErrorP19__DMA_HandleTypeDef,"ax",%progbits
  21              		.align	1
  22              		.syntax unified
  23              		.thumb
  24              		.thumb_func
  26              	_ZL21ADC_MultiModeDMAErrorP19__DMA_HandleTypeDef:
  27              		.fnstart
  28              	.LVL0:
  29              	.LFB249:
   1:Drivers/STM32F4xx_HAL_Driver/Src/stm32f4xx_hal_adc_ex.cpp **** /**
   2:Drivers/STM32F4xx_HAL_Driver/Src/stm32f4xx_hal_adc_ex.cpp ****   ******************************************************************************
   3:Drivers/STM32F4xx_HAL_Driver/Src/stm32f4xx_hal_adc_ex.cpp ****   * @file    stm32f4xx_hal_adc_ex.c
   4:Drivers/STM32F4xx_HAL_Driver/Src/stm32f4xx_hal_adc_ex.cpp ****   * @author  MCD Application Team
   5:Drivers/STM32F4xx_HAL_Driver/Src/stm32f4xx_hal_adc_ex.cpp ****   * @brief   This file provides firmware functions to manage the following
   6:Drivers/STM32F4xx_HAL_Driver/Src/stm32f4xx_hal_adc_ex.cpp ****   *          functionalities of the ADC extension peripheral:
   7:Drivers/STM32F4xx_HAL_Driver/Src/stm32f4xx_hal_adc_ex.cpp ****   *           + Extended features functions
   8:Drivers/STM32F4xx_HAL_Driver/Src/stm32f4xx_hal_adc_ex.cpp ****   *
   9:Drivers/STM32F4xx_HAL_Driver/Src/stm32f4xx_hal_adc_ex.cpp ****   ******************************************************************************
  10:Drivers/STM32F4xx_HAL_Driver/Src/stm32f4xx_hal_adc_ex.cpp ****   * @attention
  11:Drivers/STM32F4xx_HAL_Driver/Src/stm32f4xx_hal_adc_ex.cpp ****   *
  12:Drivers/STM32F4xx_HAL_Driver/Src/stm32f4xx_hal_adc_ex.cpp ****   * Copyright (c) 2017 STMicroelectronics.
  13:Drivers/STM32F4xx_HAL_Driver/Src/stm32f4xx_hal_adc_ex.cpp ****   * All rights reserved.
  14:Drivers/STM32F4xx_HAL_Driver/Src/stm32f4xx_hal_adc_ex.cpp ****   *
  15:Drivers/STM32F4xx_HAL_Driver/Src/stm32f4xx_hal_adc_ex.cpp ****   * This software is licensed under terms that can be found in the LICENSE file
  16:Drivers/STM32F4xx_HAL_Driver/Src/stm32f4xx_hal_adc_ex.cpp ****   * in the root directory of this software component.
  17:Drivers/STM32F4xx_HAL_Driver/Src/stm32f4xx_hal_adc_ex.cpp ****   * If no LICENSE file comes with this software, it is provided AS-IS.
  18:Drivers/STM32F4xx_HAL_Driver/Src/stm32f4xx_hal_adc_ex.cpp ****   *
  19:Drivers/STM32F4xx_HAL_Driver/Src/stm32f4xx_hal_adc_ex.cpp ****   ******************************************************************************
  20:Drivers/STM32F4xx_HAL_Driver/Src/stm32f4xx_hal_adc_ex.cpp ****   @verbatim
  21:Drivers/STM32F4xx_HAL_Driver/Src/stm32f4xx_hal_adc_ex.cpp ****   ==============================================================================
  22:Drivers/STM32F4xx_HAL_Driver/Src/stm32f4xx_hal_adc_ex.cpp ****                     ##### How to use this driver #####
  23:Drivers/STM32F4xx_HAL_Driver/Src/stm32f4xx_hal_adc_ex.cpp ****   ==============================================================================
  24:Drivers/STM32F4xx_HAL_Driver/Src/stm32f4xx_hal_adc_ex.cpp ****     [..]
  25:Drivers/STM32F4xx_HAL_Driver/Src/stm32f4xx_hal_adc_ex.cpp ****     (#)Initialize the ADC low level resources by implementing the HAL_ADC_MspInit():
  26:Drivers/STM32F4xx_HAL_Driver/Src/stm32f4xx_hal_adc_ex.cpp ****        (##) Enable the ADC interface clock using __HAL_RCC_ADC_CLK_ENABLE()
  27:Drivers/STM32F4xx_HAL_Driver/Src/stm32f4xx_hal_adc_ex.cpp ****        (##) ADC pins configuration
  28:Drivers/STM32F4xx_HAL_Driver/Src/stm32f4xx_hal_adc_ex.cpp ****              (+++) Enable the clock for the ADC GPIOs using the following function:
  29:Drivers/STM32F4xx_HAL_Driver/Src/stm32f4xx_hal_adc_ex.cpp ****                    __HAL_RCC_GPIOx_CLK_ENABLE()
ARM GAS  C:\Users\huawei\AppData\Local\Temp\cc1TIrE4.s 			page 2


  30:Drivers/STM32F4xx_HAL_Driver/Src/stm32f4xx_hal_adc_ex.cpp ****              (+++) Configure these ADC pins in analog mode using HAL_GPIO_Init()
  31:Drivers/STM32F4xx_HAL_Driver/Src/stm32f4xx_hal_adc_ex.cpp ****        (##) In case of using interrupts (e.g. HAL_ADC_Start_IT())
  32:Drivers/STM32F4xx_HAL_Driver/Src/stm32f4xx_hal_adc_ex.cpp ****              (+++) Configure the ADC interrupt priority using HAL_NVIC_SetPriority()
  33:Drivers/STM32F4xx_HAL_Driver/Src/stm32f4xx_hal_adc_ex.cpp ****              (+++) Enable the ADC IRQ handler using HAL_NVIC_EnableIRQ()
  34:Drivers/STM32F4xx_HAL_Driver/Src/stm32f4xx_hal_adc_ex.cpp ****              (+++) In ADC IRQ handler, call HAL_ADC_IRQHandler()
  35:Drivers/STM32F4xx_HAL_Driver/Src/stm32f4xx_hal_adc_ex.cpp ****       (##) In case of using DMA to control data transfer (e.g. HAL_ADC_Start_DMA())
  36:Drivers/STM32F4xx_HAL_Driver/Src/stm32f4xx_hal_adc_ex.cpp ****              (+++) Enable the DMAx interface clock using __HAL_RCC_DMAx_CLK_ENABLE()
  37:Drivers/STM32F4xx_HAL_Driver/Src/stm32f4xx_hal_adc_ex.cpp ****              (+++) Configure and enable two DMA streams stream for managing data
  38:Drivers/STM32F4xx_HAL_Driver/Src/stm32f4xx_hal_adc_ex.cpp ****                  transfer from peripheral to memory (output stream)
  39:Drivers/STM32F4xx_HAL_Driver/Src/stm32f4xx_hal_adc_ex.cpp ****              (+++) Associate the initialized DMA handle to the ADC DMA handle
  40:Drivers/STM32F4xx_HAL_Driver/Src/stm32f4xx_hal_adc_ex.cpp ****                  using  __HAL_LINKDMA()
  41:Drivers/STM32F4xx_HAL_Driver/Src/stm32f4xx_hal_adc_ex.cpp ****              (+++) Configure the priority and enable the NVIC for the transfer complete
  42:Drivers/STM32F4xx_HAL_Driver/Src/stm32f4xx_hal_adc_ex.cpp ****                  interrupt on the two DMA Streams. The output stream should have higher
  43:Drivers/STM32F4xx_HAL_Driver/Src/stm32f4xx_hal_adc_ex.cpp ****                  priority than the input stream.
  44:Drivers/STM32F4xx_HAL_Driver/Src/stm32f4xx_hal_adc_ex.cpp ****      (#) Configure the ADC Prescaler, conversion resolution and data alignment
  45:Drivers/STM32F4xx_HAL_Driver/Src/stm32f4xx_hal_adc_ex.cpp ****          using the HAL_ADC_Init() function.
  46:Drivers/STM32F4xx_HAL_Driver/Src/stm32f4xx_hal_adc_ex.cpp **** 
  47:Drivers/STM32F4xx_HAL_Driver/Src/stm32f4xx_hal_adc_ex.cpp ****      (#) Configure the ADC Injected channels group features, use HAL_ADC_Init()
  48:Drivers/STM32F4xx_HAL_Driver/Src/stm32f4xx_hal_adc_ex.cpp ****          and HAL_ADC_ConfigChannel() functions.
  49:Drivers/STM32F4xx_HAL_Driver/Src/stm32f4xx_hal_adc_ex.cpp **** 
  50:Drivers/STM32F4xx_HAL_Driver/Src/stm32f4xx_hal_adc_ex.cpp ****      (#) Three operation modes are available within this driver:
  51:Drivers/STM32F4xx_HAL_Driver/Src/stm32f4xx_hal_adc_ex.cpp **** 
  52:Drivers/STM32F4xx_HAL_Driver/Src/stm32f4xx_hal_adc_ex.cpp ****      *** Polling mode IO operation ***
  53:Drivers/STM32F4xx_HAL_Driver/Src/stm32f4xx_hal_adc_ex.cpp ****      =================================
  54:Drivers/STM32F4xx_HAL_Driver/Src/stm32f4xx_hal_adc_ex.cpp ****      [..]
  55:Drivers/STM32F4xx_HAL_Driver/Src/stm32f4xx_hal_adc_ex.cpp ****        (+) Start the ADC peripheral using HAL_ADCEx_InjectedStart()
  56:Drivers/STM32F4xx_HAL_Driver/Src/stm32f4xx_hal_adc_ex.cpp ****        (+) Wait for end of conversion using HAL_ADC_PollForConversion(), at this stage
  57:Drivers/STM32F4xx_HAL_Driver/Src/stm32f4xx_hal_adc_ex.cpp ****            user can specify the value of timeout according to his end application
  58:Drivers/STM32F4xx_HAL_Driver/Src/stm32f4xx_hal_adc_ex.cpp ****        (+) To read the ADC converted values, use the HAL_ADCEx_InjectedGetValue() function.
  59:Drivers/STM32F4xx_HAL_Driver/Src/stm32f4xx_hal_adc_ex.cpp ****        (+) Stop the ADC peripheral using HAL_ADCEx_InjectedStop()
  60:Drivers/STM32F4xx_HAL_Driver/Src/stm32f4xx_hal_adc_ex.cpp **** 
  61:Drivers/STM32F4xx_HAL_Driver/Src/stm32f4xx_hal_adc_ex.cpp ****      *** Interrupt mode IO operation ***
  62:Drivers/STM32F4xx_HAL_Driver/Src/stm32f4xx_hal_adc_ex.cpp ****      ===================================
  63:Drivers/STM32F4xx_HAL_Driver/Src/stm32f4xx_hal_adc_ex.cpp ****      [..]
  64:Drivers/STM32F4xx_HAL_Driver/Src/stm32f4xx_hal_adc_ex.cpp ****        (+) Start the ADC peripheral using HAL_ADCEx_InjectedStart_IT()
  65:Drivers/STM32F4xx_HAL_Driver/Src/stm32f4xx_hal_adc_ex.cpp ****        (+) Use HAL_ADC_IRQHandler() called under ADC_IRQHandler() Interrupt subroutine
  66:Drivers/STM32F4xx_HAL_Driver/Src/stm32f4xx_hal_adc_ex.cpp ****        (+) At ADC end of conversion HAL_ADCEx_InjectedConvCpltCallback() function is executed and u
  67:Drivers/STM32F4xx_HAL_Driver/Src/stm32f4xx_hal_adc_ex.cpp ****             add his own code by customization of function pointer HAL_ADCEx_InjectedConvCpltCallbac
  68:Drivers/STM32F4xx_HAL_Driver/Src/stm32f4xx_hal_adc_ex.cpp ****        (+) In case of ADC Error, HAL_ADCEx_InjectedErrorCallback() function is executed and user ca
  69:Drivers/STM32F4xx_HAL_Driver/Src/stm32f4xx_hal_adc_ex.cpp ****             add his own code by customization of function pointer HAL_ADCEx_InjectedErrorCallback
  70:Drivers/STM32F4xx_HAL_Driver/Src/stm32f4xx_hal_adc_ex.cpp ****        (+) Stop the ADC peripheral using HAL_ADCEx_InjectedStop_IT()
  71:Drivers/STM32F4xx_HAL_Driver/Src/stm32f4xx_hal_adc_ex.cpp **** 
  72:Drivers/STM32F4xx_HAL_Driver/Src/stm32f4xx_hal_adc_ex.cpp ****      *** Multi mode ADCs Regular channels configuration ***
  73:Drivers/STM32F4xx_HAL_Driver/Src/stm32f4xx_hal_adc_ex.cpp ****      ======================================================
  74:Drivers/STM32F4xx_HAL_Driver/Src/stm32f4xx_hal_adc_ex.cpp ****      [..]
  75:Drivers/STM32F4xx_HAL_Driver/Src/stm32f4xx_hal_adc_ex.cpp ****        (+) Select the Multi mode ADC regular channels features (dual or triple mode)
  76:Drivers/STM32F4xx_HAL_Driver/Src/stm32f4xx_hal_adc_ex.cpp ****           and configure the DMA mode using HAL_ADCEx_MultiModeConfigChannel() functions.
  77:Drivers/STM32F4xx_HAL_Driver/Src/stm32f4xx_hal_adc_ex.cpp ****        (+) Start the ADC peripheral using HAL_ADCEx_MultiModeStart_DMA(), at this stage the user sp
  78:Drivers/STM32F4xx_HAL_Driver/Src/stm32f4xx_hal_adc_ex.cpp ****            of data to be transferred at each end of conversion
  79:Drivers/STM32F4xx_HAL_Driver/Src/stm32f4xx_hal_adc_ex.cpp ****        (+) Read the ADCs converted values using the HAL_ADCEx_MultiModeGetValue() function.
  80:Drivers/STM32F4xx_HAL_Driver/Src/stm32f4xx_hal_adc_ex.cpp **** 
  81:Drivers/STM32F4xx_HAL_Driver/Src/stm32f4xx_hal_adc_ex.cpp **** 
  82:Drivers/STM32F4xx_HAL_Driver/Src/stm32f4xx_hal_adc_ex.cpp ****     @endverbatim
  83:Drivers/STM32F4xx_HAL_Driver/Src/stm32f4xx_hal_adc_ex.cpp ****   */
  84:Drivers/STM32F4xx_HAL_Driver/Src/stm32f4xx_hal_adc_ex.cpp **** 
  85:Drivers/STM32F4xx_HAL_Driver/Src/stm32f4xx_hal_adc_ex.cpp **** /* Includes ------------------------------------------------------------------*/
  86:Drivers/STM32F4xx_HAL_Driver/Src/stm32f4xx_hal_adc_ex.cpp **** #include "stm32f4xx_hal.h"
ARM GAS  C:\Users\huawei\AppData\Local\Temp\cc1TIrE4.s 			page 3


  87:Drivers/STM32F4xx_HAL_Driver/Src/stm32f4xx_hal_adc_ex.cpp **** 
  88:Drivers/STM32F4xx_HAL_Driver/Src/stm32f4xx_hal_adc_ex.cpp **** /** @addtogroup STM32F4xx_HAL_Driver
  89:Drivers/STM32F4xx_HAL_Driver/Src/stm32f4xx_hal_adc_ex.cpp ****   * @{
  90:Drivers/STM32F4xx_HAL_Driver/Src/stm32f4xx_hal_adc_ex.cpp ****   */
  91:Drivers/STM32F4xx_HAL_Driver/Src/stm32f4xx_hal_adc_ex.cpp **** 
  92:Drivers/STM32F4xx_HAL_Driver/Src/stm32f4xx_hal_adc_ex.cpp **** /** @defgroup ADCEx ADCEx
  93:Drivers/STM32F4xx_HAL_Driver/Src/stm32f4xx_hal_adc_ex.cpp ****   * @brief ADC Extended driver modules
  94:Drivers/STM32F4xx_HAL_Driver/Src/stm32f4xx_hal_adc_ex.cpp ****   * @{
  95:Drivers/STM32F4xx_HAL_Driver/Src/stm32f4xx_hal_adc_ex.cpp ****   */ 
  96:Drivers/STM32F4xx_HAL_Driver/Src/stm32f4xx_hal_adc_ex.cpp **** 
  97:Drivers/STM32F4xx_HAL_Driver/Src/stm32f4xx_hal_adc_ex.cpp **** #ifdef HAL_ADC_MODULE_ENABLED
  98:Drivers/STM32F4xx_HAL_Driver/Src/stm32f4xx_hal_adc_ex.cpp ****     
  99:Drivers/STM32F4xx_HAL_Driver/Src/stm32f4xx_hal_adc_ex.cpp **** /* Private typedef -----------------------------------------------------------*/
 100:Drivers/STM32F4xx_HAL_Driver/Src/stm32f4xx_hal_adc_ex.cpp **** /* Private define ------------------------------------------------------------*/ 
 101:Drivers/STM32F4xx_HAL_Driver/Src/stm32f4xx_hal_adc_ex.cpp **** /* Private macro -------------------------------------------------------------*/
 102:Drivers/STM32F4xx_HAL_Driver/Src/stm32f4xx_hal_adc_ex.cpp **** /* Private variables ---------------------------------------------------------*/
 103:Drivers/STM32F4xx_HAL_Driver/Src/stm32f4xx_hal_adc_ex.cpp **** /** @addtogroup ADCEx_Private_Functions
 104:Drivers/STM32F4xx_HAL_Driver/Src/stm32f4xx_hal_adc_ex.cpp ****   * @{
 105:Drivers/STM32F4xx_HAL_Driver/Src/stm32f4xx_hal_adc_ex.cpp ****   */
 106:Drivers/STM32F4xx_HAL_Driver/Src/stm32f4xx_hal_adc_ex.cpp **** /* Private function prototypes -----------------------------------------------*/
 107:Drivers/STM32F4xx_HAL_Driver/Src/stm32f4xx_hal_adc_ex.cpp **** static void ADC_MultiModeDMAConvCplt(DMA_HandleTypeDef *hdma);
 108:Drivers/STM32F4xx_HAL_Driver/Src/stm32f4xx_hal_adc_ex.cpp **** static void ADC_MultiModeDMAError(DMA_HandleTypeDef *hdma);
 109:Drivers/STM32F4xx_HAL_Driver/Src/stm32f4xx_hal_adc_ex.cpp **** static void ADC_MultiModeDMAHalfConvCplt(DMA_HandleTypeDef *hdma); 
 110:Drivers/STM32F4xx_HAL_Driver/Src/stm32f4xx_hal_adc_ex.cpp **** /**
 111:Drivers/STM32F4xx_HAL_Driver/Src/stm32f4xx_hal_adc_ex.cpp ****   * @}
 112:Drivers/STM32F4xx_HAL_Driver/Src/stm32f4xx_hal_adc_ex.cpp ****   */
 113:Drivers/STM32F4xx_HAL_Driver/Src/stm32f4xx_hal_adc_ex.cpp **** 
 114:Drivers/STM32F4xx_HAL_Driver/Src/stm32f4xx_hal_adc_ex.cpp **** /* Exported functions --------------------------------------------------------*/
 115:Drivers/STM32F4xx_HAL_Driver/Src/stm32f4xx_hal_adc_ex.cpp **** /** @defgroup ADCEx_Exported_Functions ADC Exported Functions
 116:Drivers/STM32F4xx_HAL_Driver/Src/stm32f4xx_hal_adc_ex.cpp ****   * @{
 117:Drivers/STM32F4xx_HAL_Driver/Src/stm32f4xx_hal_adc_ex.cpp ****   */
 118:Drivers/STM32F4xx_HAL_Driver/Src/stm32f4xx_hal_adc_ex.cpp **** 
 119:Drivers/STM32F4xx_HAL_Driver/Src/stm32f4xx_hal_adc_ex.cpp **** /** @defgroup ADCEx_Exported_Functions_Group1  Extended features functions 
 120:Drivers/STM32F4xx_HAL_Driver/Src/stm32f4xx_hal_adc_ex.cpp ****   *  @brief    Extended features functions  
 121:Drivers/STM32F4xx_HAL_Driver/Src/stm32f4xx_hal_adc_ex.cpp ****   *
 122:Drivers/STM32F4xx_HAL_Driver/Src/stm32f4xx_hal_adc_ex.cpp **** @verbatim   
 123:Drivers/STM32F4xx_HAL_Driver/Src/stm32f4xx_hal_adc_ex.cpp ****  ===============================================================================
 124:Drivers/STM32F4xx_HAL_Driver/Src/stm32f4xx_hal_adc_ex.cpp ****                  ##### Extended features functions #####
 125:Drivers/STM32F4xx_HAL_Driver/Src/stm32f4xx_hal_adc_ex.cpp ****  ===============================================================================  
 126:Drivers/STM32F4xx_HAL_Driver/Src/stm32f4xx_hal_adc_ex.cpp ****     [..]  This section provides functions allowing to:
 127:Drivers/STM32F4xx_HAL_Driver/Src/stm32f4xx_hal_adc_ex.cpp ****       (+) Start conversion of injected channel.
 128:Drivers/STM32F4xx_HAL_Driver/Src/stm32f4xx_hal_adc_ex.cpp ****       (+) Stop conversion of injected channel.
 129:Drivers/STM32F4xx_HAL_Driver/Src/stm32f4xx_hal_adc_ex.cpp ****       (+) Start multimode and enable DMA transfer.
 130:Drivers/STM32F4xx_HAL_Driver/Src/stm32f4xx_hal_adc_ex.cpp ****       (+) Stop multimode and disable DMA transfer.
 131:Drivers/STM32F4xx_HAL_Driver/Src/stm32f4xx_hal_adc_ex.cpp ****       (+) Get result of injected channel conversion.
 132:Drivers/STM32F4xx_HAL_Driver/Src/stm32f4xx_hal_adc_ex.cpp ****       (+) Get result of multimode conversion.
 133:Drivers/STM32F4xx_HAL_Driver/Src/stm32f4xx_hal_adc_ex.cpp ****       (+) Configure injected channels.
 134:Drivers/STM32F4xx_HAL_Driver/Src/stm32f4xx_hal_adc_ex.cpp ****       (+) Configure multimode.
 135:Drivers/STM32F4xx_HAL_Driver/Src/stm32f4xx_hal_adc_ex.cpp ****                
 136:Drivers/STM32F4xx_HAL_Driver/Src/stm32f4xx_hal_adc_ex.cpp **** @endverbatim
 137:Drivers/STM32F4xx_HAL_Driver/Src/stm32f4xx_hal_adc_ex.cpp ****   * @{
 138:Drivers/STM32F4xx_HAL_Driver/Src/stm32f4xx_hal_adc_ex.cpp ****   */
 139:Drivers/STM32F4xx_HAL_Driver/Src/stm32f4xx_hal_adc_ex.cpp **** 
 140:Drivers/STM32F4xx_HAL_Driver/Src/stm32f4xx_hal_adc_ex.cpp **** /**
 141:Drivers/STM32F4xx_HAL_Driver/Src/stm32f4xx_hal_adc_ex.cpp ****   * @brief  Enables the selected ADC software start conversion of the injected channels.
 142:Drivers/STM32F4xx_HAL_Driver/Src/stm32f4xx_hal_adc_ex.cpp ****   * @param  hadc pointer to a ADC_HandleTypeDef structure that contains
 143:Drivers/STM32F4xx_HAL_Driver/Src/stm32f4xx_hal_adc_ex.cpp ****   *         the configuration information for the specified ADC.
ARM GAS  C:\Users\huawei\AppData\Local\Temp\cc1TIrE4.s 			page 4


 144:Drivers/STM32F4xx_HAL_Driver/Src/stm32f4xx_hal_adc_ex.cpp ****   * @retval HAL status
 145:Drivers/STM32F4xx_HAL_Driver/Src/stm32f4xx_hal_adc_ex.cpp ****   */
 146:Drivers/STM32F4xx_HAL_Driver/Src/stm32f4xx_hal_adc_ex.cpp **** HAL_StatusTypeDef HAL_ADCEx_InjectedStart(ADC_HandleTypeDef* hadc)
 147:Drivers/STM32F4xx_HAL_Driver/Src/stm32f4xx_hal_adc_ex.cpp **** {
 148:Drivers/STM32F4xx_HAL_Driver/Src/stm32f4xx_hal_adc_ex.cpp ****   __IO uint32_t counter = 0U;
 149:Drivers/STM32F4xx_HAL_Driver/Src/stm32f4xx_hal_adc_ex.cpp ****   uint32_t tmp1 = 0U, tmp2 = 0U;
 150:Drivers/STM32F4xx_HAL_Driver/Src/stm32f4xx_hal_adc_ex.cpp ****   ADC_Common_TypeDef *tmpADC_Common;
 151:Drivers/STM32F4xx_HAL_Driver/Src/stm32f4xx_hal_adc_ex.cpp ****   
 152:Drivers/STM32F4xx_HAL_Driver/Src/stm32f4xx_hal_adc_ex.cpp ****   /* Process locked */
 153:Drivers/STM32F4xx_HAL_Driver/Src/stm32f4xx_hal_adc_ex.cpp ****   __HAL_LOCK(hadc);
 154:Drivers/STM32F4xx_HAL_Driver/Src/stm32f4xx_hal_adc_ex.cpp ****   
 155:Drivers/STM32F4xx_HAL_Driver/Src/stm32f4xx_hal_adc_ex.cpp ****   /* Enable the ADC peripheral */
 156:Drivers/STM32F4xx_HAL_Driver/Src/stm32f4xx_hal_adc_ex.cpp ****   
 157:Drivers/STM32F4xx_HAL_Driver/Src/stm32f4xx_hal_adc_ex.cpp ****   /* Check if ADC peripheral is disabled in order to enable it and wait during 
 158:Drivers/STM32F4xx_HAL_Driver/Src/stm32f4xx_hal_adc_ex.cpp ****      Tstab time the ADC's stabilization */
 159:Drivers/STM32F4xx_HAL_Driver/Src/stm32f4xx_hal_adc_ex.cpp ****   if((hadc->Instance->CR2 & ADC_CR2_ADON) != ADC_CR2_ADON)
 160:Drivers/STM32F4xx_HAL_Driver/Src/stm32f4xx_hal_adc_ex.cpp ****   {  
 161:Drivers/STM32F4xx_HAL_Driver/Src/stm32f4xx_hal_adc_ex.cpp ****     /* Enable the Peripheral */
 162:Drivers/STM32F4xx_HAL_Driver/Src/stm32f4xx_hal_adc_ex.cpp ****     __HAL_ADC_ENABLE(hadc);
 163:Drivers/STM32F4xx_HAL_Driver/Src/stm32f4xx_hal_adc_ex.cpp ****     
 164:Drivers/STM32F4xx_HAL_Driver/Src/stm32f4xx_hal_adc_ex.cpp ****     /* Delay for ADC stabilization time */
 165:Drivers/STM32F4xx_HAL_Driver/Src/stm32f4xx_hal_adc_ex.cpp ****     /* Compute number of CPU cycles to wait for */
 166:Drivers/STM32F4xx_HAL_Driver/Src/stm32f4xx_hal_adc_ex.cpp ****     counter = (ADC_STAB_DELAY_US * (SystemCoreClock / 1000000U));
 167:Drivers/STM32F4xx_HAL_Driver/Src/stm32f4xx_hal_adc_ex.cpp ****     while(counter != 0U)
 168:Drivers/STM32F4xx_HAL_Driver/Src/stm32f4xx_hal_adc_ex.cpp ****     {
 169:Drivers/STM32F4xx_HAL_Driver/Src/stm32f4xx_hal_adc_ex.cpp ****       counter--;
 170:Drivers/STM32F4xx_HAL_Driver/Src/stm32f4xx_hal_adc_ex.cpp ****     }
 171:Drivers/STM32F4xx_HAL_Driver/Src/stm32f4xx_hal_adc_ex.cpp ****   }
 172:Drivers/STM32F4xx_HAL_Driver/Src/stm32f4xx_hal_adc_ex.cpp ****   
 173:Drivers/STM32F4xx_HAL_Driver/Src/stm32f4xx_hal_adc_ex.cpp ****   /* Start conversion if ADC is effectively enabled */
 174:Drivers/STM32F4xx_HAL_Driver/Src/stm32f4xx_hal_adc_ex.cpp ****   if(HAL_IS_BIT_SET(hadc->Instance->CR2, ADC_CR2_ADON))
 175:Drivers/STM32F4xx_HAL_Driver/Src/stm32f4xx_hal_adc_ex.cpp ****   {
 176:Drivers/STM32F4xx_HAL_Driver/Src/stm32f4xx_hal_adc_ex.cpp ****     /* Set ADC state                                                          */
 177:Drivers/STM32F4xx_HAL_Driver/Src/stm32f4xx_hal_adc_ex.cpp ****     /* - Clear state bitfield related to injected group conversion results    */
 178:Drivers/STM32F4xx_HAL_Driver/Src/stm32f4xx_hal_adc_ex.cpp ****     /* - Set state bitfield related to injected operation                     */
 179:Drivers/STM32F4xx_HAL_Driver/Src/stm32f4xx_hal_adc_ex.cpp ****     ADC_STATE_CLR_SET(hadc->State,
 180:Drivers/STM32F4xx_HAL_Driver/Src/stm32f4xx_hal_adc_ex.cpp ****                       HAL_ADC_STATE_READY | HAL_ADC_STATE_INJ_EOC,
 181:Drivers/STM32F4xx_HAL_Driver/Src/stm32f4xx_hal_adc_ex.cpp ****                       HAL_ADC_STATE_INJ_BUSY);
 182:Drivers/STM32F4xx_HAL_Driver/Src/stm32f4xx_hal_adc_ex.cpp ****     
 183:Drivers/STM32F4xx_HAL_Driver/Src/stm32f4xx_hal_adc_ex.cpp ****     /* Check if a regular conversion is ongoing */
 184:Drivers/STM32F4xx_HAL_Driver/Src/stm32f4xx_hal_adc_ex.cpp ****     /* Note: On this device, there is no ADC error code fields related to     */
 185:Drivers/STM32F4xx_HAL_Driver/Src/stm32f4xx_hal_adc_ex.cpp ****     /*       conversions on group injected only. In case of conversion on     */
 186:Drivers/STM32F4xx_HAL_Driver/Src/stm32f4xx_hal_adc_ex.cpp ****     /*       going on group regular, no error code is reset.                  */
 187:Drivers/STM32F4xx_HAL_Driver/Src/stm32f4xx_hal_adc_ex.cpp ****     if (HAL_IS_BIT_CLR(hadc->State, HAL_ADC_STATE_REG_BUSY))
 188:Drivers/STM32F4xx_HAL_Driver/Src/stm32f4xx_hal_adc_ex.cpp ****     {
 189:Drivers/STM32F4xx_HAL_Driver/Src/stm32f4xx_hal_adc_ex.cpp ****       /* Reset ADC all error code fields */
 190:Drivers/STM32F4xx_HAL_Driver/Src/stm32f4xx_hal_adc_ex.cpp ****       ADC_CLEAR_ERRORCODE(hadc);
 191:Drivers/STM32F4xx_HAL_Driver/Src/stm32f4xx_hal_adc_ex.cpp ****     }
 192:Drivers/STM32F4xx_HAL_Driver/Src/stm32f4xx_hal_adc_ex.cpp ****     
 193:Drivers/STM32F4xx_HAL_Driver/Src/stm32f4xx_hal_adc_ex.cpp ****     /* Process unlocked */
 194:Drivers/STM32F4xx_HAL_Driver/Src/stm32f4xx_hal_adc_ex.cpp ****     /* Unlock before starting ADC conversions: in case of potential           */
 195:Drivers/STM32F4xx_HAL_Driver/Src/stm32f4xx_hal_adc_ex.cpp ****     /* interruption, to let the process to ADC IRQ Handler.                   */
 196:Drivers/STM32F4xx_HAL_Driver/Src/stm32f4xx_hal_adc_ex.cpp ****     __HAL_UNLOCK(hadc);
 197:Drivers/STM32F4xx_HAL_Driver/Src/stm32f4xx_hal_adc_ex.cpp ****     
 198:Drivers/STM32F4xx_HAL_Driver/Src/stm32f4xx_hal_adc_ex.cpp ****     /* Clear injected group conversion flag */
 199:Drivers/STM32F4xx_HAL_Driver/Src/stm32f4xx_hal_adc_ex.cpp ****     /* (To ensure of no unknown state from potential previous ADC operations) */
 200:Drivers/STM32F4xx_HAL_Driver/Src/stm32f4xx_hal_adc_ex.cpp ****     __HAL_ADC_CLEAR_FLAG(hadc, ADC_FLAG_JEOC);
ARM GAS  C:\Users\huawei\AppData\Local\Temp\cc1TIrE4.s 			page 5


 201:Drivers/STM32F4xx_HAL_Driver/Src/stm32f4xx_hal_adc_ex.cpp **** 
 202:Drivers/STM32F4xx_HAL_Driver/Src/stm32f4xx_hal_adc_ex.cpp ****     /* Pointer to the common control register to which is belonging hadc    */
 203:Drivers/STM32F4xx_HAL_Driver/Src/stm32f4xx_hal_adc_ex.cpp ****     /* (Depending on STM32F4 product, there may be up to 3 ADC and 1 common */
 204:Drivers/STM32F4xx_HAL_Driver/Src/stm32f4xx_hal_adc_ex.cpp ****     /* control register)                                                    */
 205:Drivers/STM32F4xx_HAL_Driver/Src/stm32f4xx_hal_adc_ex.cpp ****     tmpADC_Common = ADC_COMMON_REGISTER(hadc);
 206:Drivers/STM32F4xx_HAL_Driver/Src/stm32f4xx_hal_adc_ex.cpp **** 
 207:Drivers/STM32F4xx_HAL_Driver/Src/stm32f4xx_hal_adc_ex.cpp ****     /* Check if Multimode enabled */
 208:Drivers/STM32F4xx_HAL_Driver/Src/stm32f4xx_hal_adc_ex.cpp ****     if(HAL_IS_BIT_CLR(tmpADC_Common->CCR, ADC_CCR_MULTI))
 209:Drivers/STM32F4xx_HAL_Driver/Src/stm32f4xx_hal_adc_ex.cpp ****     {
 210:Drivers/STM32F4xx_HAL_Driver/Src/stm32f4xx_hal_adc_ex.cpp ****       tmp1 = HAL_IS_BIT_CLR(hadc->Instance->CR2, ADC_CR2_JEXTEN);
 211:Drivers/STM32F4xx_HAL_Driver/Src/stm32f4xx_hal_adc_ex.cpp ****       tmp2 = HAL_IS_BIT_CLR(hadc->Instance->CR1, ADC_CR1_JAUTO);
 212:Drivers/STM32F4xx_HAL_Driver/Src/stm32f4xx_hal_adc_ex.cpp ****       if(tmp1 && tmp2)
 213:Drivers/STM32F4xx_HAL_Driver/Src/stm32f4xx_hal_adc_ex.cpp ****       {
 214:Drivers/STM32F4xx_HAL_Driver/Src/stm32f4xx_hal_adc_ex.cpp ****         /* Enable the selected ADC software conversion for injected group */
 215:Drivers/STM32F4xx_HAL_Driver/Src/stm32f4xx_hal_adc_ex.cpp ****         hadc->Instance->CR2 |= ADC_CR2_JSWSTART;
 216:Drivers/STM32F4xx_HAL_Driver/Src/stm32f4xx_hal_adc_ex.cpp ****       }
 217:Drivers/STM32F4xx_HAL_Driver/Src/stm32f4xx_hal_adc_ex.cpp ****     }
 218:Drivers/STM32F4xx_HAL_Driver/Src/stm32f4xx_hal_adc_ex.cpp ****     else
 219:Drivers/STM32F4xx_HAL_Driver/Src/stm32f4xx_hal_adc_ex.cpp ****     {
 220:Drivers/STM32F4xx_HAL_Driver/Src/stm32f4xx_hal_adc_ex.cpp ****       tmp1 = HAL_IS_BIT_CLR(hadc->Instance->CR2, ADC_CR2_JEXTEN);
 221:Drivers/STM32F4xx_HAL_Driver/Src/stm32f4xx_hal_adc_ex.cpp ****       tmp2 = HAL_IS_BIT_CLR(hadc->Instance->CR1, ADC_CR1_JAUTO);
 222:Drivers/STM32F4xx_HAL_Driver/Src/stm32f4xx_hal_adc_ex.cpp ****       if((hadc->Instance == ADC1) && tmp1 && tmp2)  
 223:Drivers/STM32F4xx_HAL_Driver/Src/stm32f4xx_hal_adc_ex.cpp ****       {
 224:Drivers/STM32F4xx_HAL_Driver/Src/stm32f4xx_hal_adc_ex.cpp ****         /* Enable the selected ADC software conversion for injected group */
 225:Drivers/STM32F4xx_HAL_Driver/Src/stm32f4xx_hal_adc_ex.cpp ****         hadc->Instance->CR2 |= ADC_CR2_JSWSTART;
 226:Drivers/STM32F4xx_HAL_Driver/Src/stm32f4xx_hal_adc_ex.cpp ****       }
 227:Drivers/STM32F4xx_HAL_Driver/Src/stm32f4xx_hal_adc_ex.cpp ****     }
 228:Drivers/STM32F4xx_HAL_Driver/Src/stm32f4xx_hal_adc_ex.cpp ****   }
 229:Drivers/STM32F4xx_HAL_Driver/Src/stm32f4xx_hal_adc_ex.cpp ****   else
 230:Drivers/STM32F4xx_HAL_Driver/Src/stm32f4xx_hal_adc_ex.cpp ****   {
 231:Drivers/STM32F4xx_HAL_Driver/Src/stm32f4xx_hal_adc_ex.cpp ****     /* Update ADC state machine to error */
 232:Drivers/STM32F4xx_HAL_Driver/Src/stm32f4xx_hal_adc_ex.cpp ****     SET_BIT(hadc->State, HAL_ADC_STATE_ERROR_INTERNAL);
 233:Drivers/STM32F4xx_HAL_Driver/Src/stm32f4xx_hal_adc_ex.cpp **** 
 234:Drivers/STM32F4xx_HAL_Driver/Src/stm32f4xx_hal_adc_ex.cpp ****     /* Set ADC error code to ADC IP internal error */
 235:Drivers/STM32F4xx_HAL_Driver/Src/stm32f4xx_hal_adc_ex.cpp ****     SET_BIT(hadc->ErrorCode, HAL_ADC_ERROR_INTERNAL);
 236:Drivers/STM32F4xx_HAL_Driver/Src/stm32f4xx_hal_adc_ex.cpp ****   }
 237:Drivers/STM32F4xx_HAL_Driver/Src/stm32f4xx_hal_adc_ex.cpp ****   
 238:Drivers/STM32F4xx_HAL_Driver/Src/stm32f4xx_hal_adc_ex.cpp ****   /* Return function status */
 239:Drivers/STM32F4xx_HAL_Driver/Src/stm32f4xx_hal_adc_ex.cpp ****   return HAL_OK;
 240:Drivers/STM32F4xx_HAL_Driver/Src/stm32f4xx_hal_adc_ex.cpp **** }
 241:Drivers/STM32F4xx_HAL_Driver/Src/stm32f4xx_hal_adc_ex.cpp **** 
 242:Drivers/STM32F4xx_HAL_Driver/Src/stm32f4xx_hal_adc_ex.cpp **** /**
 243:Drivers/STM32F4xx_HAL_Driver/Src/stm32f4xx_hal_adc_ex.cpp ****   * @brief  Enables the interrupt and starts ADC conversion of injected channels.
 244:Drivers/STM32F4xx_HAL_Driver/Src/stm32f4xx_hal_adc_ex.cpp ****   * @param  hadc pointer to a ADC_HandleTypeDef structure that contains
 245:Drivers/STM32F4xx_HAL_Driver/Src/stm32f4xx_hal_adc_ex.cpp ****   *         the configuration information for the specified ADC.
 246:Drivers/STM32F4xx_HAL_Driver/Src/stm32f4xx_hal_adc_ex.cpp ****   *
 247:Drivers/STM32F4xx_HAL_Driver/Src/stm32f4xx_hal_adc_ex.cpp ****   * @retval HAL status.
 248:Drivers/STM32F4xx_HAL_Driver/Src/stm32f4xx_hal_adc_ex.cpp ****   */
 249:Drivers/STM32F4xx_HAL_Driver/Src/stm32f4xx_hal_adc_ex.cpp **** HAL_StatusTypeDef HAL_ADCEx_InjectedStart_IT(ADC_HandleTypeDef* hadc)
 250:Drivers/STM32F4xx_HAL_Driver/Src/stm32f4xx_hal_adc_ex.cpp **** {
 251:Drivers/STM32F4xx_HAL_Driver/Src/stm32f4xx_hal_adc_ex.cpp ****   __IO uint32_t counter = 0U;
 252:Drivers/STM32F4xx_HAL_Driver/Src/stm32f4xx_hal_adc_ex.cpp ****   uint32_t tmp1 = 0U, tmp2 = 0U;
 253:Drivers/STM32F4xx_HAL_Driver/Src/stm32f4xx_hal_adc_ex.cpp ****   ADC_Common_TypeDef *tmpADC_Common;
 254:Drivers/STM32F4xx_HAL_Driver/Src/stm32f4xx_hal_adc_ex.cpp ****   
 255:Drivers/STM32F4xx_HAL_Driver/Src/stm32f4xx_hal_adc_ex.cpp ****   /* Process locked */
 256:Drivers/STM32F4xx_HAL_Driver/Src/stm32f4xx_hal_adc_ex.cpp ****   __HAL_LOCK(hadc);
 257:Drivers/STM32F4xx_HAL_Driver/Src/stm32f4xx_hal_adc_ex.cpp ****   
ARM GAS  C:\Users\huawei\AppData\Local\Temp\cc1TIrE4.s 			page 6


 258:Drivers/STM32F4xx_HAL_Driver/Src/stm32f4xx_hal_adc_ex.cpp ****   /* Enable the ADC peripheral */
 259:Drivers/STM32F4xx_HAL_Driver/Src/stm32f4xx_hal_adc_ex.cpp ****   
 260:Drivers/STM32F4xx_HAL_Driver/Src/stm32f4xx_hal_adc_ex.cpp ****   /* Check if ADC peripheral is disabled in order to enable it and wait during 
 261:Drivers/STM32F4xx_HAL_Driver/Src/stm32f4xx_hal_adc_ex.cpp ****      Tstab time the ADC's stabilization */
 262:Drivers/STM32F4xx_HAL_Driver/Src/stm32f4xx_hal_adc_ex.cpp ****   if((hadc->Instance->CR2 & ADC_CR2_ADON) != ADC_CR2_ADON)
 263:Drivers/STM32F4xx_HAL_Driver/Src/stm32f4xx_hal_adc_ex.cpp ****   {  
 264:Drivers/STM32F4xx_HAL_Driver/Src/stm32f4xx_hal_adc_ex.cpp ****     /* Enable the Peripheral */
 265:Drivers/STM32F4xx_HAL_Driver/Src/stm32f4xx_hal_adc_ex.cpp ****     __HAL_ADC_ENABLE(hadc);
 266:Drivers/STM32F4xx_HAL_Driver/Src/stm32f4xx_hal_adc_ex.cpp ****     
 267:Drivers/STM32F4xx_HAL_Driver/Src/stm32f4xx_hal_adc_ex.cpp ****     /* Delay for ADC stabilization time */
 268:Drivers/STM32F4xx_HAL_Driver/Src/stm32f4xx_hal_adc_ex.cpp ****     /* Compute number of CPU cycles to wait for */
 269:Drivers/STM32F4xx_HAL_Driver/Src/stm32f4xx_hal_adc_ex.cpp ****     counter = (ADC_STAB_DELAY_US * (SystemCoreClock / 1000000U));
 270:Drivers/STM32F4xx_HAL_Driver/Src/stm32f4xx_hal_adc_ex.cpp ****     while(counter != 0U)
 271:Drivers/STM32F4xx_HAL_Driver/Src/stm32f4xx_hal_adc_ex.cpp ****     {
 272:Drivers/STM32F4xx_HAL_Driver/Src/stm32f4xx_hal_adc_ex.cpp ****       counter--;
 273:Drivers/STM32F4xx_HAL_Driver/Src/stm32f4xx_hal_adc_ex.cpp ****     }
 274:Drivers/STM32F4xx_HAL_Driver/Src/stm32f4xx_hal_adc_ex.cpp ****   }
 275:Drivers/STM32F4xx_HAL_Driver/Src/stm32f4xx_hal_adc_ex.cpp ****   
 276:Drivers/STM32F4xx_HAL_Driver/Src/stm32f4xx_hal_adc_ex.cpp ****   /* Start conversion if ADC is effectively enabled */
 277:Drivers/STM32F4xx_HAL_Driver/Src/stm32f4xx_hal_adc_ex.cpp ****   if(HAL_IS_BIT_SET(hadc->Instance->CR2, ADC_CR2_ADON))
 278:Drivers/STM32F4xx_HAL_Driver/Src/stm32f4xx_hal_adc_ex.cpp ****   {
 279:Drivers/STM32F4xx_HAL_Driver/Src/stm32f4xx_hal_adc_ex.cpp ****     /* Set ADC state                                                          */
 280:Drivers/STM32F4xx_HAL_Driver/Src/stm32f4xx_hal_adc_ex.cpp ****     /* - Clear state bitfield related to injected group conversion results    */
 281:Drivers/STM32F4xx_HAL_Driver/Src/stm32f4xx_hal_adc_ex.cpp ****     /* - Set state bitfield related to injected operation                     */
 282:Drivers/STM32F4xx_HAL_Driver/Src/stm32f4xx_hal_adc_ex.cpp ****     ADC_STATE_CLR_SET(hadc->State,
 283:Drivers/STM32F4xx_HAL_Driver/Src/stm32f4xx_hal_adc_ex.cpp ****                       HAL_ADC_STATE_READY | HAL_ADC_STATE_INJ_EOC,
 284:Drivers/STM32F4xx_HAL_Driver/Src/stm32f4xx_hal_adc_ex.cpp ****                       HAL_ADC_STATE_INJ_BUSY);
 285:Drivers/STM32F4xx_HAL_Driver/Src/stm32f4xx_hal_adc_ex.cpp ****     
 286:Drivers/STM32F4xx_HAL_Driver/Src/stm32f4xx_hal_adc_ex.cpp ****     /* Check if a regular conversion is ongoing */
 287:Drivers/STM32F4xx_HAL_Driver/Src/stm32f4xx_hal_adc_ex.cpp ****     /* Note: On this device, there is no ADC error code fields related to     */
 288:Drivers/STM32F4xx_HAL_Driver/Src/stm32f4xx_hal_adc_ex.cpp ****     /*       conversions on group injected only. In case of conversion on     */
 289:Drivers/STM32F4xx_HAL_Driver/Src/stm32f4xx_hal_adc_ex.cpp ****     /*       going on group regular, no error code is reset.                  */
 290:Drivers/STM32F4xx_HAL_Driver/Src/stm32f4xx_hal_adc_ex.cpp ****     if (HAL_IS_BIT_CLR(hadc->State, HAL_ADC_STATE_REG_BUSY))
 291:Drivers/STM32F4xx_HAL_Driver/Src/stm32f4xx_hal_adc_ex.cpp ****     {
 292:Drivers/STM32F4xx_HAL_Driver/Src/stm32f4xx_hal_adc_ex.cpp ****       /* Reset ADC all error code fields */
 293:Drivers/STM32F4xx_HAL_Driver/Src/stm32f4xx_hal_adc_ex.cpp ****       ADC_CLEAR_ERRORCODE(hadc);
 294:Drivers/STM32F4xx_HAL_Driver/Src/stm32f4xx_hal_adc_ex.cpp ****     }
 295:Drivers/STM32F4xx_HAL_Driver/Src/stm32f4xx_hal_adc_ex.cpp ****     
 296:Drivers/STM32F4xx_HAL_Driver/Src/stm32f4xx_hal_adc_ex.cpp ****     /* Process unlocked */
 297:Drivers/STM32F4xx_HAL_Driver/Src/stm32f4xx_hal_adc_ex.cpp ****     /* Unlock before starting ADC conversions: in case of potential           */
 298:Drivers/STM32F4xx_HAL_Driver/Src/stm32f4xx_hal_adc_ex.cpp ****     /* interruption, to let the process to ADC IRQ Handler.                   */
 299:Drivers/STM32F4xx_HAL_Driver/Src/stm32f4xx_hal_adc_ex.cpp ****     __HAL_UNLOCK(hadc);
 300:Drivers/STM32F4xx_HAL_Driver/Src/stm32f4xx_hal_adc_ex.cpp ****     
 301:Drivers/STM32F4xx_HAL_Driver/Src/stm32f4xx_hal_adc_ex.cpp ****     /* Clear injected group conversion flag */
 302:Drivers/STM32F4xx_HAL_Driver/Src/stm32f4xx_hal_adc_ex.cpp ****     /* (To ensure of no unknown state from potential previous ADC operations) */
 303:Drivers/STM32F4xx_HAL_Driver/Src/stm32f4xx_hal_adc_ex.cpp ****     __HAL_ADC_CLEAR_FLAG(hadc, ADC_FLAG_JEOC);
 304:Drivers/STM32F4xx_HAL_Driver/Src/stm32f4xx_hal_adc_ex.cpp ****     
 305:Drivers/STM32F4xx_HAL_Driver/Src/stm32f4xx_hal_adc_ex.cpp ****     /* Enable end of conversion interrupt for injected channels */
 306:Drivers/STM32F4xx_HAL_Driver/Src/stm32f4xx_hal_adc_ex.cpp ****     __HAL_ADC_ENABLE_IT(hadc, ADC_IT_JEOC);
 307:Drivers/STM32F4xx_HAL_Driver/Src/stm32f4xx_hal_adc_ex.cpp **** 
 308:Drivers/STM32F4xx_HAL_Driver/Src/stm32f4xx_hal_adc_ex.cpp ****     /* Pointer to the common control register to which is belonging hadc    */
 309:Drivers/STM32F4xx_HAL_Driver/Src/stm32f4xx_hal_adc_ex.cpp ****     /* (Depending on STM32F4 product, there may be up to 3 ADC and 1 common */
 310:Drivers/STM32F4xx_HAL_Driver/Src/stm32f4xx_hal_adc_ex.cpp ****     /* control register)                                                    */
 311:Drivers/STM32F4xx_HAL_Driver/Src/stm32f4xx_hal_adc_ex.cpp ****     tmpADC_Common = ADC_COMMON_REGISTER(hadc);
 312:Drivers/STM32F4xx_HAL_Driver/Src/stm32f4xx_hal_adc_ex.cpp ****     
 313:Drivers/STM32F4xx_HAL_Driver/Src/stm32f4xx_hal_adc_ex.cpp ****     /* Check if Multimode enabled */
 314:Drivers/STM32F4xx_HAL_Driver/Src/stm32f4xx_hal_adc_ex.cpp ****     if(HAL_IS_BIT_CLR(tmpADC_Common->CCR, ADC_CCR_MULTI))
ARM GAS  C:\Users\huawei\AppData\Local\Temp\cc1TIrE4.s 			page 7


 315:Drivers/STM32F4xx_HAL_Driver/Src/stm32f4xx_hal_adc_ex.cpp ****     {
 316:Drivers/STM32F4xx_HAL_Driver/Src/stm32f4xx_hal_adc_ex.cpp ****       tmp1 = HAL_IS_BIT_CLR(hadc->Instance->CR2, ADC_CR2_JEXTEN);
 317:Drivers/STM32F4xx_HAL_Driver/Src/stm32f4xx_hal_adc_ex.cpp ****       tmp2 = HAL_IS_BIT_CLR(hadc->Instance->CR1, ADC_CR1_JAUTO);
 318:Drivers/STM32F4xx_HAL_Driver/Src/stm32f4xx_hal_adc_ex.cpp ****       if(tmp1 && tmp2)
 319:Drivers/STM32F4xx_HAL_Driver/Src/stm32f4xx_hal_adc_ex.cpp ****       {
 320:Drivers/STM32F4xx_HAL_Driver/Src/stm32f4xx_hal_adc_ex.cpp ****         /* Enable the selected ADC software conversion for injected group */
 321:Drivers/STM32F4xx_HAL_Driver/Src/stm32f4xx_hal_adc_ex.cpp ****         hadc->Instance->CR2 |= ADC_CR2_JSWSTART;
 322:Drivers/STM32F4xx_HAL_Driver/Src/stm32f4xx_hal_adc_ex.cpp ****       }
 323:Drivers/STM32F4xx_HAL_Driver/Src/stm32f4xx_hal_adc_ex.cpp ****     }
 324:Drivers/STM32F4xx_HAL_Driver/Src/stm32f4xx_hal_adc_ex.cpp ****     else
 325:Drivers/STM32F4xx_HAL_Driver/Src/stm32f4xx_hal_adc_ex.cpp ****     {
 326:Drivers/STM32F4xx_HAL_Driver/Src/stm32f4xx_hal_adc_ex.cpp ****       tmp1 = HAL_IS_BIT_CLR(hadc->Instance->CR2, ADC_CR2_JEXTEN);
 327:Drivers/STM32F4xx_HAL_Driver/Src/stm32f4xx_hal_adc_ex.cpp ****       tmp2 = HAL_IS_BIT_CLR(hadc->Instance->CR1, ADC_CR1_JAUTO);
 328:Drivers/STM32F4xx_HAL_Driver/Src/stm32f4xx_hal_adc_ex.cpp ****       if((hadc->Instance == ADC1) && tmp1 && tmp2)  
 329:Drivers/STM32F4xx_HAL_Driver/Src/stm32f4xx_hal_adc_ex.cpp ****       {
 330:Drivers/STM32F4xx_HAL_Driver/Src/stm32f4xx_hal_adc_ex.cpp ****         /* Enable the selected ADC software conversion for injected group */
 331:Drivers/STM32F4xx_HAL_Driver/Src/stm32f4xx_hal_adc_ex.cpp ****         hadc->Instance->CR2 |= ADC_CR2_JSWSTART;
 332:Drivers/STM32F4xx_HAL_Driver/Src/stm32f4xx_hal_adc_ex.cpp ****       }
 333:Drivers/STM32F4xx_HAL_Driver/Src/stm32f4xx_hal_adc_ex.cpp ****     }
 334:Drivers/STM32F4xx_HAL_Driver/Src/stm32f4xx_hal_adc_ex.cpp ****   }
 335:Drivers/STM32F4xx_HAL_Driver/Src/stm32f4xx_hal_adc_ex.cpp ****   else
 336:Drivers/STM32F4xx_HAL_Driver/Src/stm32f4xx_hal_adc_ex.cpp ****   {
 337:Drivers/STM32F4xx_HAL_Driver/Src/stm32f4xx_hal_adc_ex.cpp ****     /* Update ADC state machine to error */
 338:Drivers/STM32F4xx_HAL_Driver/Src/stm32f4xx_hal_adc_ex.cpp ****     SET_BIT(hadc->State, HAL_ADC_STATE_ERROR_INTERNAL);
 339:Drivers/STM32F4xx_HAL_Driver/Src/stm32f4xx_hal_adc_ex.cpp **** 
 340:Drivers/STM32F4xx_HAL_Driver/Src/stm32f4xx_hal_adc_ex.cpp ****     /* Set ADC error code to ADC IP internal error */
 341:Drivers/STM32F4xx_HAL_Driver/Src/stm32f4xx_hal_adc_ex.cpp ****     SET_BIT(hadc->ErrorCode, HAL_ADC_ERROR_INTERNAL);
 342:Drivers/STM32F4xx_HAL_Driver/Src/stm32f4xx_hal_adc_ex.cpp ****   }
 343:Drivers/STM32F4xx_HAL_Driver/Src/stm32f4xx_hal_adc_ex.cpp ****   
 344:Drivers/STM32F4xx_HAL_Driver/Src/stm32f4xx_hal_adc_ex.cpp ****   /* Return function status */
 345:Drivers/STM32F4xx_HAL_Driver/Src/stm32f4xx_hal_adc_ex.cpp ****   return HAL_OK;
 346:Drivers/STM32F4xx_HAL_Driver/Src/stm32f4xx_hal_adc_ex.cpp **** }
 347:Drivers/STM32F4xx_HAL_Driver/Src/stm32f4xx_hal_adc_ex.cpp **** 
 348:Drivers/STM32F4xx_HAL_Driver/Src/stm32f4xx_hal_adc_ex.cpp **** /**
 349:Drivers/STM32F4xx_HAL_Driver/Src/stm32f4xx_hal_adc_ex.cpp ****   * @brief  Stop conversion of injected channels. Disable ADC peripheral if
 350:Drivers/STM32F4xx_HAL_Driver/Src/stm32f4xx_hal_adc_ex.cpp ****   *         no regular conversion is on going.
 351:Drivers/STM32F4xx_HAL_Driver/Src/stm32f4xx_hal_adc_ex.cpp ****   * @note   If ADC must be disabled and if conversion is on going on 
 352:Drivers/STM32F4xx_HAL_Driver/Src/stm32f4xx_hal_adc_ex.cpp ****   *         regular group, function HAL_ADC_Stop must be used to stop both
 353:Drivers/STM32F4xx_HAL_Driver/Src/stm32f4xx_hal_adc_ex.cpp ****   *         injected and regular groups, and disable the ADC.
 354:Drivers/STM32F4xx_HAL_Driver/Src/stm32f4xx_hal_adc_ex.cpp ****   * @note   If injected group mode auto-injection is enabled,
 355:Drivers/STM32F4xx_HAL_Driver/Src/stm32f4xx_hal_adc_ex.cpp ****   *         function HAL_ADC_Stop must be used.
 356:Drivers/STM32F4xx_HAL_Driver/Src/stm32f4xx_hal_adc_ex.cpp ****   * @note   In case of auto-injection mode, HAL_ADC_Stop must be used.
 357:Drivers/STM32F4xx_HAL_Driver/Src/stm32f4xx_hal_adc_ex.cpp ****   * @param  hadc ADC handle
 358:Drivers/STM32F4xx_HAL_Driver/Src/stm32f4xx_hal_adc_ex.cpp ****   * @retval None
 359:Drivers/STM32F4xx_HAL_Driver/Src/stm32f4xx_hal_adc_ex.cpp ****   */
 360:Drivers/STM32F4xx_HAL_Driver/Src/stm32f4xx_hal_adc_ex.cpp **** HAL_StatusTypeDef HAL_ADCEx_InjectedStop(ADC_HandleTypeDef* hadc)
 361:Drivers/STM32F4xx_HAL_Driver/Src/stm32f4xx_hal_adc_ex.cpp **** {
 362:Drivers/STM32F4xx_HAL_Driver/Src/stm32f4xx_hal_adc_ex.cpp ****   HAL_StatusTypeDef tmp_hal_status = HAL_OK;
 363:Drivers/STM32F4xx_HAL_Driver/Src/stm32f4xx_hal_adc_ex.cpp ****   
 364:Drivers/STM32F4xx_HAL_Driver/Src/stm32f4xx_hal_adc_ex.cpp ****   /* Check the parameters */
 365:Drivers/STM32F4xx_HAL_Driver/Src/stm32f4xx_hal_adc_ex.cpp ****   assert_param(IS_ADC_ALL_INSTANCE(hadc->Instance));
 366:Drivers/STM32F4xx_HAL_Driver/Src/stm32f4xx_hal_adc_ex.cpp **** 
 367:Drivers/STM32F4xx_HAL_Driver/Src/stm32f4xx_hal_adc_ex.cpp ****   /* Process locked */
 368:Drivers/STM32F4xx_HAL_Driver/Src/stm32f4xx_hal_adc_ex.cpp ****   __HAL_LOCK(hadc);
 369:Drivers/STM32F4xx_HAL_Driver/Src/stm32f4xx_hal_adc_ex.cpp ****     
 370:Drivers/STM32F4xx_HAL_Driver/Src/stm32f4xx_hal_adc_ex.cpp ****   /* Stop potential conversion and disable ADC peripheral                     */
 371:Drivers/STM32F4xx_HAL_Driver/Src/stm32f4xx_hal_adc_ex.cpp ****   /* Conditioned to:                                                          */
ARM GAS  C:\Users\huawei\AppData\Local\Temp\cc1TIrE4.s 			page 8


 372:Drivers/STM32F4xx_HAL_Driver/Src/stm32f4xx_hal_adc_ex.cpp ****   /* - No conversion on the other group (regular group) is intended to        */
 373:Drivers/STM32F4xx_HAL_Driver/Src/stm32f4xx_hal_adc_ex.cpp ****   /*   continue (injected and regular groups stop conversion and ADC disable  */
 374:Drivers/STM32F4xx_HAL_Driver/Src/stm32f4xx_hal_adc_ex.cpp ****   /*   are common)                                                            */
 375:Drivers/STM32F4xx_HAL_Driver/Src/stm32f4xx_hal_adc_ex.cpp ****   /* - In case of auto-injection mode, HAL_ADC_Stop must be used.             */
 376:Drivers/STM32F4xx_HAL_Driver/Src/stm32f4xx_hal_adc_ex.cpp ****   if(((hadc->State & HAL_ADC_STATE_REG_BUSY) == RESET)  &&
 377:Drivers/STM32F4xx_HAL_Driver/Src/stm32f4xx_hal_adc_ex.cpp ****      HAL_IS_BIT_CLR(hadc->Instance->CR1, ADC_CR1_JAUTO)   )
 378:Drivers/STM32F4xx_HAL_Driver/Src/stm32f4xx_hal_adc_ex.cpp ****   {
 379:Drivers/STM32F4xx_HAL_Driver/Src/stm32f4xx_hal_adc_ex.cpp ****     /* Stop potential conversion on going, on regular and injected groups */
 380:Drivers/STM32F4xx_HAL_Driver/Src/stm32f4xx_hal_adc_ex.cpp ****     /* Disable ADC peripheral */
 381:Drivers/STM32F4xx_HAL_Driver/Src/stm32f4xx_hal_adc_ex.cpp ****     __HAL_ADC_DISABLE(hadc);
 382:Drivers/STM32F4xx_HAL_Driver/Src/stm32f4xx_hal_adc_ex.cpp ****     
 383:Drivers/STM32F4xx_HAL_Driver/Src/stm32f4xx_hal_adc_ex.cpp ****     /* Check if ADC is effectively disabled */
 384:Drivers/STM32F4xx_HAL_Driver/Src/stm32f4xx_hal_adc_ex.cpp ****     if(HAL_IS_BIT_CLR(hadc->Instance->CR2, ADC_CR2_ADON))
 385:Drivers/STM32F4xx_HAL_Driver/Src/stm32f4xx_hal_adc_ex.cpp ****     {
 386:Drivers/STM32F4xx_HAL_Driver/Src/stm32f4xx_hal_adc_ex.cpp ****       /* Set ADC state */
 387:Drivers/STM32F4xx_HAL_Driver/Src/stm32f4xx_hal_adc_ex.cpp ****       ADC_STATE_CLR_SET(hadc->State,
 388:Drivers/STM32F4xx_HAL_Driver/Src/stm32f4xx_hal_adc_ex.cpp ****                         HAL_ADC_STATE_REG_BUSY | HAL_ADC_STATE_INJ_BUSY,
 389:Drivers/STM32F4xx_HAL_Driver/Src/stm32f4xx_hal_adc_ex.cpp ****                         HAL_ADC_STATE_READY);
 390:Drivers/STM32F4xx_HAL_Driver/Src/stm32f4xx_hal_adc_ex.cpp ****     }
 391:Drivers/STM32F4xx_HAL_Driver/Src/stm32f4xx_hal_adc_ex.cpp ****   }
 392:Drivers/STM32F4xx_HAL_Driver/Src/stm32f4xx_hal_adc_ex.cpp ****   else
 393:Drivers/STM32F4xx_HAL_Driver/Src/stm32f4xx_hal_adc_ex.cpp ****   {
 394:Drivers/STM32F4xx_HAL_Driver/Src/stm32f4xx_hal_adc_ex.cpp ****     /* Update ADC state machine to error */
 395:Drivers/STM32F4xx_HAL_Driver/Src/stm32f4xx_hal_adc_ex.cpp ****     SET_BIT(hadc->State, HAL_ADC_STATE_ERROR_CONFIG);
 396:Drivers/STM32F4xx_HAL_Driver/Src/stm32f4xx_hal_adc_ex.cpp ****       
 397:Drivers/STM32F4xx_HAL_Driver/Src/stm32f4xx_hal_adc_ex.cpp ****     tmp_hal_status = HAL_ERROR;
 398:Drivers/STM32F4xx_HAL_Driver/Src/stm32f4xx_hal_adc_ex.cpp ****   }
 399:Drivers/STM32F4xx_HAL_Driver/Src/stm32f4xx_hal_adc_ex.cpp ****   
 400:Drivers/STM32F4xx_HAL_Driver/Src/stm32f4xx_hal_adc_ex.cpp ****   /* Process unlocked */
 401:Drivers/STM32F4xx_HAL_Driver/Src/stm32f4xx_hal_adc_ex.cpp ****   __HAL_UNLOCK(hadc);
 402:Drivers/STM32F4xx_HAL_Driver/Src/stm32f4xx_hal_adc_ex.cpp ****   
 403:Drivers/STM32F4xx_HAL_Driver/Src/stm32f4xx_hal_adc_ex.cpp ****   /* Return function status */
 404:Drivers/STM32F4xx_HAL_Driver/Src/stm32f4xx_hal_adc_ex.cpp ****   return tmp_hal_status;
 405:Drivers/STM32F4xx_HAL_Driver/Src/stm32f4xx_hal_adc_ex.cpp **** }
 406:Drivers/STM32F4xx_HAL_Driver/Src/stm32f4xx_hal_adc_ex.cpp **** 
 407:Drivers/STM32F4xx_HAL_Driver/Src/stm32f4xx_hal_adc_ex.cpp **** /**
 408:Drivers/STM32F4xx_HAL_Driver/Src/stm32f4xx_hal_adc_ex.cpp ****   * @brief  Poll for injected conversion complete
 409:Drivers/STM32F4xx_HAL_Driver/Src/stm32f4xx_hal_adc_ex.cpp ****   * @param  hadc pointer to a ADC_HandleTypeDef structure that contains
 410:Drivers/STM32F4xx_HAL_Driver/Src/stm32f4xx_hal_adc_ex.cpp ****   *         the configuration information for the specified ADC.
 411:Drivers/STM32F4xx_HAL_Driver/Src/stm32f4xx_hal_adc_ex.cpp ****   * @param  Timeout Timeout value in millisecond.  
 412:Drivers/STM32F4xx_HAL_Driver/Src/stm32f4xx_hal_adc_ex.cpp ****   * @retval HAL status
 413:Drivers/STM32F4xx_HAL_Driver/Src/stm32f4xx_hal_adc_ex.cpp ****   */
 414:Drivers/STM32F4xx_HAL_Driver/Src/stm32f4xx_hal_adc_ex.cpp **** HAL_StatusTypeDef HAL_ADCEx_InjectedPollForConversion(ADC_HandleTypeDef* hadc, uint32_t Timeout)
 415:Drivers/STM32F4xx_HAL_Driver/Src/stm32f4xx_hal_adc_ex.cpp **** {
 416:Drivers/STM32F4xx_HAL_Driver/Src/stm32f4xx_hal_adc_ex.cpp ****   uint32_t tickstart = 0U;
 417:Drivers/STM32F4xx_HAL_Driver/Src/stm32f4xx_hal_adc_ex.cpp **** 
 418:Drivers/STM32F4xx_HAL_Driver/Src/stm32f4xx_hal_adc_ex.cpp ****   /* Get tick */ 
 419:Drivers/STM32F4xx_HAL_Driver/Src/stm32f4xx_hal_adc_ex.cpp ****   tickstart = HAL_GetTick();
 420:Drivers/STM32F4xx_HAL_Driver/Src/stm32f4xx_hal_adc_ex.cpp **** 
 421:Drivers/STM32F4xx_HAL_Driver/Src/stm32f4xx_hal_adc_ex.cpp ****   /* Check End of conversion flag */
 422:Drivers/STM32F4xx_HAL_Driver/Src/stm32f4xx_hal_adc_ex.cpp ****   while(!(__HAL_ADC_GET_FLAG(hadc, ADC_FLAG_JEOC)))
 423:Drivers/STM32F4xx_HAL_Driver/Src/stm32f4xx_hal_adc_ex.cpp ****   {
 424:Drivers/STM32F4xx_HAL_Driver/Src/stm32f4xx_hal_adc_ex.cpp ****     /* Check for the Timeout */
 425:Drivers/STM32F4xx_HAL_Driver/Src/stm32f4xx_hal_adc_ex.cpp ****     if(Timeout != HAL_MAX_DELAY)
 426:Drivers/STM32F4xx_HAL_Driver/Src/stm32f4xx_hal_adc_ex.cpp ****     {
 427:Drivers/STM32F4xx_HAL_Driver/Src/stm32f4xx_hal_adc_ex.cpp ****       if((Timeout == 0U)||((HAL_GetTick() - tickstart ) > Timeout))
 428:Drivers/STM32F4xx_HAL_Driver/Src/stm32f4xx_hal_adc_ex.cpp ****       {
ARM GAS  C:\Users\huawei\AppData\Local\Temp\cc1TIrE4.s 			page 9


 429:Drivers/STM32F4xx_HAL_Driver/Src/stm32f4xx_hal_adc_ex.cpp ****         /* New check to avoid false timeout detection in case of preemption */
 430:Drivers/STM32F4xx_HAL_Driver/Src/stm32f4xx_hal_adc_ex.cpp ****         if(!(__HAL_ADC_GET_FLAG(hadc, ADC_FLAG_JEOC)))
 431:Drivers/STM32F4xx_HAL_Driver/Src/stm32f4xx_hal_adc_ex.cpp ****         {
 432:Drivers/STM32F4xx_HAL_Driver/Src/stm32f4xx_hal_adc_ex.cpp ****           hadc->State= HAL_ADC_STATE_TIMEOUT;
 433:Drivers/STM32F4xx_HAL_Driver/Src/stm32f4xx_hal_adc_ex.cpp ****           /* Process unlocked */
 434:Drivers/STM32F4xx_HAL_Driver/Src/stm32f4xx_hal_adc_ex.cpp ****           __HAL_UNLOCK(hadc);
 435:Drivers/STM32F4xx_HAL_Driver/Src/stm32f4xx_hal_adc_ex.cpp ****           return HAL_TIMEOUT;
 436:Drivers/STM32F4xx_HAL_Driver/Src/stm32f4xx_hal_adc_ex.cpp ****         }
 437:Drivers/STM32F4xx_HAL_Driver/Src/stm32f4xx_hal_adc_ex.cpp ****       }
 438:Drivers/STM32F4xx_HAL_Driver/Src/stm32f4xx_hal_adc_ex.cpp ****     }
 439:Drivers/STM32F4xx_HAL_Driver/Src/stm32f4xx_hal_adc_ex.cpp ****   }
 440:Drivers/STM32F4xx_HAL_Driver/Src/stm32f4xx_hal_adc_ex.cpp ****   
 441:Drivers/STM32F4xx_HAL_Driver/Src/stm32f4xx_hal_adc_ex.cpp ****   /* Clear injected group conversion flag */
 442:Drivers/STM32F4xx_HAL_Driver/Src/stm32f4xx_hal_adc_ex.cpp ****   __HAL_ADC_CLEAR_FLAG(hadc, ADC_FLAG_JSTRT | ADC_FLAG_JEOC);
 443:Drivers/STM32F4xx_HAL_Driver/Src/stm32f4xx_hal_adc_ex.cpp ****     
 444:Drivers/STM32F4xx_HAL_Driver/Src/stm32f4xx_hal_adc_ex.cpp ****   /* Update ADC state machine */
 445:Drivers/STM32F4xx_HAL_Driver/Src/stm32f4xx_hal_adc_ex.cpp ****   SET_BIT(hadc->State, HAL_ADC_STATE_INJ_EOC);
 446:Drivers/STM32F4xx_HAL_Driver/Src/stm32f4xx_hal_adc_ex.cpp ****   
 447:Drivers/STM32F4xx_HAL_Driver/Src/stm32f4xx_hal_adc_ex.cpp ****   /* Determine whether any further conversion upcoming on group injected      */
 448:Drivers/STM32F4xx_HAL_Driver/Src/stm32f4xx_hal_adc_ex.cpp ****   /* by external trigger, continuous mode or scan sequence on going.          */
 449:Drivers/STM32F4xx_HAL_Driver/Src/stm32f4xx_hal_adc_ex.cpp ****   /* Note: On STM32F4, there is no independent flag of end of sequence.       */
 450:Drivers/STM32F4xx_HAL_Driver/Src/stm32f4xx_hal_adc_ex.cpp ****   /*       The test of scan sequence on going is done either with scan        */
 451:Drivers/STM32F4xx_HAL_Driver/Src/stm32f4xx_hal_adc_ex.cpp ****   /*       sequence disabled or with end of conversion flag set to            */
 452:Drivers/STM32F4xx_HAL_Driver/Src/stm32f4xx_hal_adc_ex.cpp ****   /*       of end of sequence.                                                */
 453:Drivers/STM32F4xx_HAL_Driver/Src/stm32f4xx_hal_adc_ex.cpp ****   if(ADC_IS_SOFTWARE_START_INJECTED(hadc)                    &&
 454:Drivers/STM32F4xx_HAL_Driver/Src/stm32f4xx_hal_adc_ex.cpp ****      (HAL_IS_BIT_CLR(hadc->Instance->JSQR, ADC_JSQR_JL)  ||
 455:Drivers/STM32F4xx_HAL_Driver/Src/stm32f4xx_hal_adc_ex.cpp ****       HAL_IS_BIT_CLR(hadc->Instance->CR2, ADC_CR2_EOCS)    ) &&
 456:Drivers/STM32F4xx_HAL_Driver/Src/stm32f4xx_hal_adc_ex.cpp ****      (HAL_IS_BIT_CLR(hadc->Instance->CR1, ADC_CR1_JAUTO) &&
 457:Drivers/STM32F4xx_HAL_Driver/Src/stm32f4xx_hal_adc_ex.cpp ****       (ADC_IS_SOFTWARE_START_REGULAR(hadc)       &&
 458:Drivers/STM32F4xx_HAL_Driver/Src/stm32f4xx_hal_adc_ex.cpp ****       (hadc->Init.ContinuousConvMode == DISABLE)   )       )   )
 459:Drivers/STM32F4xx_HAL_Driver/Src/stm32f4xx_hal_adc_ex.cpp ****   {
 460:Drivers/STM32F4xx_HAL_Driver/Src/stm32f4xx_hal_adc_ex.cpp ****     /* Set ADC state */
 461:Drivers/STM32F4xx_HAL_Driver/Src/stm32f4xx_hal_adc_ex.cpp ****     CLEAR_BIT(hadc->State, HAL_ADC_STATE_INJ_BUSY);
 462:Drivers/STM32F4xx_HAL_Driver/Src/stm32f4xx_hal_adc_ex.cpp ****     
 463:Drivers/STM32F4xx_HAL_Driver/Src/stm32f4xx_hal_adc_ex.cpp ****     if (HAL_IS_BIT_CLR(hadc->State, HAL_ADC_STATE_REG_BUSY))
 464:Drivers/STM32F4xx_HAL_Driver/Src/stm32f4xx_hal_adc_ex.cpp ****     { 
 465:Drivers/STM32F4xx_HAL_Driver/Src/stm32f4xx_hal_adc_ex.cpp ****       SET_BIT(hadc->State, HAL_ADC_STATE_READY);
 466:Drivers/STM32F4xx_HAL_Driver/Src/stm32f4xx_hal_adc_ex.cpp ****     }
 467:Drivers/STM32F4xx_HAL_Driver/Src/stm32f4xx_hal_adc_ex.cpp ****   }
 468:Drivers/STM32F4xx_HAL_Driver/Src/stm32f4xx_hal_adc_ex.cpp ****   
 469:Drivers/STM32F4xx_HAL_Driver/Src/stm32f4xx_hal_adc_ex.cpp ****   /* Return ADC state */
 470:Drivers/STM32F4xx_HAL_Driver/Src/stm32f4xx_hal_adc_ex.cpp ****   return HAL_OK;
 471:Drivers/STM32F4xx_HAL_Driver/Src/stm32f4xx_hal_adc_ex.cpp **** }      
 472:Drivers/STM32F4xx_HAL_Driver/Src/stm32f4xx_hal_adc_ex.cpp ****   
 473:Drivers/STM32F4xx_HAL_Driver/Src/stm32f4xx_hal_adc_ex.cpp **** /**
 474:Drivers/STM32F4xx_HAL_Driver/Src/stm32f4xx_hal_adc_ex.cpp ****   * @brief  Stop conversion of injected channels, disable interruption of 
 475:Drivers/STM32F4xx_HAL_Driver/Src/stm32f4xx_hal_adc_ex.cpp ****   *         end-of-conversion. Disable ADC peripheral if no regular conversion
 476:Drivers/STM32F4xx_HAL_Driver/Src/stm32f4xx_hal_adc_ex.cpp ****   *         is on going.
 477:Drivers/STM32F4xx_HAL_Driver/Src/stm32f4xx_hal_adc_ex.cpp ****   * @note   If ADC must be disabled and if conversion is on going on 
 478:Drivers/STM32F4xx_HAL_Driver/Src/stm32f4xx_hal_adc_ex.cpp ****   *         regular group, function HAL_ADC_Stop must be used to stop both
 479:Drivers/STM32F4xx_HAL_Driver/Src/stm32f4xx_hal_adc_ex.cpp ****   *         injected and regular groups, and disable the ADC.
 480:Drivers/STM32F4xx_HAL_Driver/Src/stm32f4xx_hal_adc_ex.cpp ****   * @note   If injected group mode auto-injection is enabled,
 481:Drivers/STM32F4xx_HAL_Driver/Src/stm32f4xx_hal_adc_ex.cpp ****   *         function HAL_ADC_Stop must be used.
 482:Drivers/STM32F4xx_HAL_Driver/Src/stm32f4xx_hal_adc_ex.cpp ****   * @param  hadc ADC handle
 483:Drivers/STM32F4xx_HAL_Driver/Src/stm32f4xx_hal_adc_ex.cpp ****   * @retval None
 484:Drivers/STM32F4xx_HAL_Driver/Src/stm32f4xx_hal_adc_ex.cpp ****   */
 485:Drivers/STM32F4xx_HAL_Driver/Src/stm32f4xx_hal_adc_ex.cpp **** HAL_StatusTypeDef HAL_ADCEx_InjectedStop_IT(ADC_HandleTypeDef* hadc)
ARM GAS  C:\Users\huawei\AppData\Local\Temp\cc1TIrE4.s 			page 10


 486:Drivers/STM32F4xx_HAL_Driver/Src/stm32f4xx_hal_adc_ex.cpp **** {
 487:Drivers/STM32F4xx_HAL_Driver/Src/stm32f4xx_hal_adc_ex.cpp ****   HAL_StatusTypeDef tmp_hal_status = HAL_OK;
 488:Drivers/STM32F4xx_HAL_Driver/Src/stm32f4xx_hal_adc_ex.cpp ****   
 489:Drivers/STM32F4xx_HAL_Driver/Src/stm32f4xx_hal_adc_ex.cpp ****   /* Check the parameters */
 490:Drivers/STM32F4xx_HAL_Driver/Src/stm32f4xx_hal_adc_ex.cpp ****   assert_param(IS_ADC_ALL_INSTANCE(hadc->Instance));
 491:Drivers/STM32F4xx_HAL_Driver/Src/stm32f4xx_hal_adc_ex.cpp **** 
 492:Drivers/STM32F4xx_HAL_Driver/Src/stm32f4xx_hal_adc_ex.cpp ****   /* Process locked */
 493:Drivers/STM32F4xx_HAL_Driver/Src/stm32f4xx_hal_adc_ex.cpp ****   __HAL_LOCK(hadc);
 494:Drivers/STM32F4xx_HAL_Driver/Src/stm32f4xx_hal_adc_ex.cpp ****     
 495:Drivers/STM32F4xx_HAL_Driver/Src/stm32f4xx_hal_adc_ex.cpp ****   /* Stop potential conversion and disable ADC peripheral                     */
 496:Drivers/STM32F4xx_HAL_Driver/Src/stm32f4xx_hal_adc_ex.cpp ****   /* Conditioned to:                                                          */
 497:Drivers/STM32F4xx_HAL_Driver/Src/stm32f4xx_hal_adc_ex.cpp ****   /* - No conversion on the other group (regular group) is intended to        */
 498:Drivers/STM32F4xx_HAL_Driver/Src/stm32f4xx_hal_adc_ex.cpp ****   /*   continue (injected and regular groups stop conversion and ADC disable  */
 499:Drivers/STM32F4xx_HAL_Driver/Src/stm32f4xx_hal_adc_ex.cpp ****   /*   are common)                                                            */
 500:Drivers/STM32F4xx_HAL_Driver/Src/stm32f4xx_hal_adc_ex.cpp ****   /* - In case of auto-injection mode, HAL_ADC_Stop must be used.             */ 
 501:Drivers/STM32F4xx_HAL_Driver/Src/stm32f4xx_hal_adc_ex.cpp ****   if(((hadc->State & HAL_ADC_STATE_REG_BUSY) == RESET)  &&
 502:Drivers/STM32F4xx_HAL_Driver/Src/stm32f4xx_hal_adc_ex.cpp ****      HAL_IS_BIT_CLR(hadc->Instance->CR1, ADC_CR1_JAUTO)   )
 503:Drivers/STM32F4xx_HAL_Driver/Src/stm32f4xx_hal_adc_ex.cpp ****   {
 504:Drivers/STM32F4xx_HAL_Driver/Src/stm32f4xx_hal_adc_ex.cpp ****     /* Stop potential conversion on going, on regular and injected groups */
 505:Drivers/STM32F4xx_HAL_Driver/Src/stm32f4xx_hal_adc_ex.cpp ****     /* Disable ADC peripheral */
 506:Drivers/STM32F4xx_HAL_Driver/Src/stm32f4xx_hal_adc_ex.cpp ****     __HAL_ADC_DISABLE(hadc);
 507:Drivers/STM32F4xx_HAL_Driver/Src/stm32f4xx_hal_adc_ex.cpp ****     
 508:Drivers/STM32F4xx_HAL_Driver/Src/stm32f4xx_hal_adc_ex.cpp ****     /* Check if ADC is effectively disabled */
 509:Drivers/STM32F4xx_HAL_Driver/Src/stm32f4xx_hal_adc_ex.cpp ****     if(HAL_IS_BIT_CLR(hadc->Instance->CR2, ADC_CR2_ADON))
 510:Drivers/STM32F4xx_HAL_Driver/Src/stm32f4xx_hal_adc_ex.cpp ****     {
 511:Drivers/STM32F4xx_HAL_Driver/Src/stm32f4xx_hal_adc_ex.cpp ****       /* Disable ADC end of conversion interrupt for injected channels */
 512:Drivers/STM32F4xx_HAL_Driver/Src/stm32f4xx_hal_adc_ex.cpp ****       __HAL_ADC_DISABLE_IT(hadc, ADC_IT_JEOC);
 513:Drivers/STM32F4xx_HAL_Driver/Src/stm32f4xx_hal_adc_ex.cpp ****       
 514:Drivers/STM32F4xx_HAL_Driver/Src/stm32f4xx_hal_adc_ex.cpp ****       /* Set ADC state */
 515:Drivers/STM32F4xx_HAL_Driver/Src/stm32f4xx_hal_adc_ex.cpp ****       ADC_STATE_CLR_SET(hadc->State,
 516:Drivers/STM32F4xx_HAL_Driver/Src/stm32f4xx_hal_adc_ex.cpp ****                         HAL_ADC_STATE_REG_BUSY | HAL_ADC_STATE_INJ_BUSY,
 517:Drivers/STM32F4xx_HAL_Driver/Src/stm32f4xx_hal_adc_ex.cpp ****                         HAL_ADC_STATE_READY);
 518:Drivers/STM32F4xx_HAL_Driver/Src/stm32f4xx_hal_adc_ex.cpp ****     }
 519:Drivers/STM32F4xx_HAL_Driver/Src/stm32f4xx_hal_adc_ex.cpp ****   }
 520:Drivers/STM32F4xx_HAL_Driver/Src/stm32f4xx_hal_adc_ex.cpp ****   else
 521:Drivers/STM32F4xx_HAL_Driver/Src/stm32f4xx_hal_adc_ex.cpp ****   {
 522:Drivers/STM32F4xx_HAL_Driver/Src/stm32f4xx_hal_adc_ex.cpp ****     /* Update ADC state machine to error */
 523:Drivers/STM32F4xx_HAL_Driver/Src/stm32f4xx_hal_adc_ex.cpp ****     SET_BIT(hadc->State, HAL_ADC_STATE_ERROR_CONFIG);
 524:Drivers/STM32F4xx_HAL_Driver/Src/stm32f4xx_hal_adc_ex.cpp ****       
 525:Drivers/STM32F4xx_HAL_Driver/Src/stm32f4xx_hal_adc_ex.cpp ****     tmp_hal_status = HAL_ERROR;
 526:Drivers/STM32F4xx_HAL_Driver/Src/stm32f4xx_hal_adc_ex.cpp ****   }
 527:Drivers/STM32F4xx_HAL_Driver/Src/stm32f4xx_hal_adc_ex.cpp ****   
 528:Drivers/STM32F4xx_HAL_Driver/Src/stm32f4xx_hal_adc_ex.cpp ****   /* Process unlocked */
 529:Drivers/STM32F4xx_HAL_Driver/Src/stm32f4xx_hal_adc_ex.cpp ****   __HAL_UNLOCK(hadc);
 530:Drivers/STM32F4xx_HAL_Driver/Src/stm32f4xx_hal_adc_ex.cpp ****   
 531:Drivers/STM32F4xx_HAL_Driver/Src/stm32f4xx_hal_adc_ex.cpp ****   /* Return function status */
 532:Drivers/STM32F4xx_HAL_Driver/Src/stm32f4xx_hal_adc_ex.cpp ****   return tmp_hal_status;
 533:Drivers/STM32F4xx_HAL_Driver/Src/stm32f4xx_hal_adc_ex.cpp **** }
 534:Drivers/STM32F4xx_HAL_Driver/Src/stm32f4xx_hal_adc_ex.cpp **** 
 535:Drivers/STM32F4xx_HAL_Driver/Src/stm32f4xx_hal_adc_ex.cpp **** /**
 536:Drivers/STM32F4xx_HAL_Driver/Src/stm32f4xx_hal_adc_ex.cpp ****   * @brief  Gets the converted value from data register of injected channel.
 537:Drivers/STM32F4xx_HAL_Driver/Src/stm32f4xx_hal_adc_ex.cpp ****   * @param  hadc pointer to a ADC_HandleTypeDef structure that contains
 538:Drivers/STM32F4xx_HAL_Driver/Src/stm32f4xx_hal_adc_ex.cpp ****   *         the configuration information for the specified ADC.
 539:Drivers/STM32F4xx_HAL_Driver/Src/stm32f4xx_hal_adc_ex.cpp ****   * @param  InjectedRank the ADC injected rank.
 540:Drivers/STM32F4xx_HAL_Driver/Src/stm32f4xx_hal_adc_ex.cpp ****   *          This parameter can be one of the following values:
 541:Drivers/STM32F4xx_HAL_Driver/Src/stm32f4xx_hal_adc_ex.cpp ****   *            @arg ADC_INJECTED_RANK_1: Injected Channel1 selected
 542:Drivers/STM32F4xx_HAL_Driver/Src/stm32f4xx_hal_adc_ex.cpp ****   *            @arg ADC_INJECTED_RANK_2: Injected Channel2 selected
ARM GAS  C:\Users\huawei\AppData\Local\Temp\cc1TIrE4.s 			page 11


 543:Drivers/STM32F4xx_HAL_Driver/Src/stm32f4xx_hal_adc_ex.cpp ****   *            @arg ADC_INJECTED_RANK_3: Injected Channel3 selected
 544:Drivers/STM32F4xx_HAL_Driver/Src/stm32f4xx_hal_adc_ex.cpp ****   *            @arg ADC_INJECTED_RANK_4: Injected Channel4 selected
 545:Drivers/STM32F4xx_HAL_Driver/Src/stm32f4xx_hal_adc_ex.cpp ****   * @retval None
 546:Drivers/STM32F4xx_HAL_Driver/Src/stm32f4xx_hal_adc_ex.cpp ****   */
 547:Drivers/STM32F4xx_HAL_Driver/Src/stm32f4xx_hal_adc_ex.cpp **** uint32_t HAL_ADCEx_InjectedGetValue(ADC_HandleTypeDef* hadc, uint32_t InjectedRank)
 548:Drivers/STM32F4xx_HAL_Driver/Src/stm32f4xx_hal_adc_ex.cpp **** {
 549:Drivers/STM32F4xx_HAL_Driver/Src/stm32f4xx_hal_adc_ex.cpp ****   __IO uint32_t tmp = 0U;
 550:Drivers/STM32F4xx_HAL_Driver/Src/stm32f4xx_hal_adc_ex.cpp ****   
 551:Drivers/STM32F4xx_HAL_Driver/Src/stm32f4xx_hal_adc_ex.cpp ****   /* Check the parameters */
 552:Drivers/STM32F4xx_HAL_Driver/Src/stm32f4xx_hal_adc_ex.cpp ****   assert_param(IS_ADC_INJECTED_RANK(InjectedRank));
 553:Drivers/STM32F4xx_HAL_Driver/Src/stm32f4xx_hal_adc_ex.cpp ****   
 554:Drivers/STM32F4xx_HAL_Driver/Src/stm32f4xx_hal_adc_ex.cpp ****   /* Clear injected group conversion flag to have similar behaviour as        */
 555:Drivers/STM32F4xx_HAL_Driver/Src/stm32f4xx_hal_adc_ex.cpp ****   /* regular group: reading data register also clears end of conversion flag. */
 556:Drivers/STM32F4xx_HAL_Driver/Src/stm32f4xx_hal_adc_ex.cpp ****   __HAL_ADC_CLEAR_FLAG(hadc, ADC_FLAG_JEOC);
 557:Drivers/STM32F4xx_HAL_Driver/Src/stm32f4xx_hal_adc_ex.cpp ****   
 558:Drivers/STM32F4xx_HAL_Driver/Src/stm32f4xx_hal_adc_ex.cpp ****   /* Return the selected ADC converted value */ 
 559:Drivers/STM32F4xx_HAL_Driver/Src/stm32f4xx_hal_adc_ex.cpp ****   switch(InjectedRank)
 560:Drivers/STM32F4xx_HAL_Driver/Src/stm32f4xx_hal_adc_ex.cpp ****   {  
 561:Drivers/STM32F4xx_HAL_Driver/Src/stm32f4xx_hal_adc_ex.cpp ****     case ADC_INJECTED_RANK_4:
 562:Drivers/STM32F4xx_HAL_Driver/Src/stm32f4xx_hal_adc_ex.cpp ****     {
 563:Drivers/STM32F4xx_HAL_Driver/Src/stm32f4xx_hal_adc_ex.cpp ****       tmp =  hadc->Instance->JDR4;
 564:Drivers/STM32F4xx_HAL_Driver/Src/stm32f4xx_hal_adc_ex.cpp ****     }  
 565:Drivers/STM32F4xx_HAL_Driver/Src/stm32f4xx_hal_adc_ex.cpp ****     break;
 566:Drivers/STM32F4xx_HAL_Driver/Src/stm32f4xx_hal_adc_ex.cpp ****     case ADC_INJECTED_RANK_3: 
 567:Drivers/STM32F4xx_HAL_Driver/Src/stm32f4xx_hal_adc_ex.cpp ****     {  
 568:Drivers/STM32F4xx_HAL_Driver/Src/stm32f4xx_hal_adc_ex.cpp ****       tmp =  hadc->Instance->JDR3;
 569:Drivers/STM32F4xx_HAL_Driver/Src/stm32f4xx_hal_adc_ex.cpp ****     }  
 570:Drivers/STM32F4xx_HAL_Driver/Src/stm32f4xx_hal_adc_ex.cpp ****     break;
 571:Drivers/STM32F4xx_HAL_Driver/Src/stm32f4xx_hal_adc_ex.cpp ****     case ADC_INJECTED_RANK_2: 
 572:Drivers/STM32F4xx_HAL_Driver/Src/stm32f4xx_hal_adc_ex.cpp ****     {  
 573:Drivers/STM32F4xx_HAL_Driver/Src/stm32f4xx_hal_adc_ex.cpp ****       tmp =  hadc->Instance->JDR2;
 574:Drivers/STM32F4xx_HAL_Driver/Src/stm32f4xx_hal_adc_ex.cpp ****     }
 575:Drivers/STM32F4xx_HAL_Driver/Src/stm32f4xx_hal_adc_ex.cpp ****     break;
 576:Drivers/STM32F4xx_HAL_Driver/Src/stm32f4xx_hal_adc_ex.cpp ****     case ADC_INJECTED_RANK_1:
 577:Drivers/STM32F4xx_HAL_Driver/Src/stm32f4xx_hal_adc_ex.cpp ****     {
 578:Drivers/STM32F4xx_HAL_Driver/Src/stm32f4xx_hal_adc_ex.cpp ****       tmp =  hadc->Instance->JDR1;
 579:Drivers/STM32F4xx_HAL_Driver/Src/stm32f4xx_hal_adc_ex.cpp ****     }
 580:Drivers/STM32F4xx_HAL_Driver/Src/stm32f4xx_hal_adc_ex.cpp ****     break;
 581:Drivers/STM32F4xx_HAL_Driver/Src/stm32f4xx_hal_adc_ex.cpp ****     default:
 582:Drivers/STM32F4xx_HAL_Driver/Src/stm32f4xx_hal_adc_ex.cpp ****     break;  
 583:Drivers/STM32F4xx_HAL_Driver/Src/stm32f4xx_hal_adc_ex.cpp ****   }
 584:Drivers/STM32F4xx_HAL_Driver/Src/stm32f4xx_hal_adc_ex.cpp ****   return tmp;
 585:Drivers/STM32F4xx_HAL_Driver/Src/stm32f4xx_hal_adc_ex.cpp **** }
 586:Drivers/STM32F4xx_HAL_Driver/Src/stm32f4xx_hal_adc_ex.cpp **** 
 587:Drivers/STM32F4xx_HAL_Driver/Src/stm32f4xx_hal_adc_ex.cpp **** /**
 588:Drivers/STM32F4xx_HAL_Driver/Src/stm32f4xx_hal_adc_ex.cpp ****   * @brief  Enables ADC DMA request after last transfer (Multi-ADC mode) and enables ADC peripheral
 589:Drivers/STM32F4xx_HAL_Driver/Src/stm32f4xx_hal_adc_ex.cpp ****   * 
 590:Drivers/STM32F4xx_HAL_Driver/Src/stm32f4xx_hal_adc_ex.cpp ****   * @note   Caution: This function must be used only with the ADC master.  
 591:Drivers/STM32F4xx_HAL_Driver/Src/stm32f4xx_hal_adc_ex.cpp ****   *
 592:Drivers/STM32F4xx_HAL_Driver/Src/stm32f4xx_hal_adc_ex.cpp ****   * @param  hadc pointer to a ADC_HandleTypeDef structure that contains
 593:Drivers/STM32F4xx_HAL_Driver/Src/stm32f4xx_hal_adc_ex.cpp ****   *         the configuration information for the specified ADC.
 594:Drivers/STM32F4xx_HAL_Driver/Src/stm32f4xx_hal_adc_ex.cpp ****   * @param  pData   Pointer to buffer in which transferred from ADC peripheral to memory will be st
 595:Drivers/STM32F4xx_HAL_Driver/Src/stm32f4xx_hal_adc_ex.cpp ****   * @param  Length  The length of data to be transferred from ADC peripheral to memory.  
 596:Drivers/STM32F4xx_HAL_Driver/Src/stm32f4xx_hal_adc_ex.cpp ****   * @retval HAL status
 597:Drivers/STM32F4xx_HAL_Driver/Src/stm32f4xx_hal_adc_ex.cpp ****   */
 598:Drivers/STM32F4xx_HAL_Driver/Src/stm32f4xx_hal_adc_ex.cpp **** HAL_StatusTypeDef HAL_ADCEx_MultiModeStart_DMA(ADC_HandleTypeDef* hadc, uint32_t* pData, uint32_t L
 599:Drivers/STM32F4xx_HAL_Driver/Src/stm32f4xx_hal_adc_ex.cpp **** {
ARM GAS  C:\Users\huawei\AppData\Local\Temp\cc1TIrE4.s 			page 12


 600:Drivers/STM32F4xx_HAL_Driver/Src/stm32f4xx_hal_adc_ex.cpp ****   __IO uint32_t counter = 0U;
 601:Drivers/STM32F4xx_HAL_Driver/Src/stm32f4xx_hal_adc_ex.cpp ****   ADC_Common_TypeDef *tmpADC_Common;
 602:Drivers/STM32F4xx_HAL_Driver/Src/stm32f4xx_hal_adc_ex.cpp ****   
 603:Drivers/STM32F4xx_HAL_Driver/Src/stm32f4xx_hal_adc_ex.cpp ****   /* Check the parameters */
 604:Drivers/STM32F4xx_HAL_Driver/Src/stm32f4xx_hal_adc_ex.cpp ****   assert_param(IS_FUNCTIONAL_STATE(hadc->Init.ContinuousConvMode));
 605:Drivers/STM32F4xx_HAL_Driver/Src/stm32f4xx_hal_adc_ex.cpp ****   assert_param(IS_ADC_EXT_TRIG_EDGE(hadc->Init.ExternalTrigConvEdge));
 606:Drivers/STM32F4xx_HAL_Driver/Src/stm32f4xx_hal_adc_ex.cpp ****   assert_param(IS_FUNCTIONAL_STATE(hadc->Init.DMAContinuousRequests));
 607:Drivers/STM32F4xx_HAL_Driver/Src/stm32f4xx_hal_adc_ex.cpp ****   
 608:Drivers/STM32F4xx_HAL_Driver/Src/stm32f4xx_hal_adc_ex.cpp ****   /* Process locked */
 609:Drivers/STM32F4xx_HAL_Driver/Src/stm32f4xx_hal_adc_ex.cpp ****   __HAL_LOCK(hadc);
 610:Drivers/STM32F4xx_HAL_Driver/Src/stm32f4xx_hal_adc_ex.cpp ****   
 611:Drivers/STM32F4xx_HAL_Driver/Src/stm32f4xx_hal_adc_ex.cpp ****   /* Check if ADC peripheral is disabled in order to enable it and wait during 
 612:Drivers/STM32F4xx_HAL_Driver/Src/stm32f4xx_hal_adc_ex.cpp ****      Tstab time the ADC's stabilization */
 613:Drivers/STM32F4xx_HAL_Driver/Src/stm32f4xx_hal_adc_ex.cpp ****   if((hadc->Instance->CR2 & ADC_CR2_ADON) != ADC_CR2_ADON)
 614:Drivers/STM32F4xx_HAL_Driver/Src/stm32f4xx_hal_adc_ex.cpp ****   {  
 615:Drivers/STM32F4xx_HAL_Driver/Src/stm32f4xx_hal_adc_ex.cpp ****     /* Enable the Peripheral */
 616:Drivers/STM32F4xx_HAL_Driver/Src/stm32f4xx_hal_adc_ex.cpp ****     __HAL_ADC_ENABLE(hadc);
 617:Drivers/STM32F4xx_HAL_Driver/Src/stm32f4xx_hal_adc_ex.cpp ****     
 618:Drivers/STM32F4xx_HAL_Driver/Src/stm32f4xx_hal_adc_ex.cpp ****     /* Delay for temperature sensor stabilization time */
 619:Drivers/STM32F4xx_HAL_Driver/Src/stm32f4xx_hal_adc_ex.cpp ****     /* Compute number of CPU cycles to wait for */
 620:Drivers/STM32F4xx_HAL_Driver/Src/stm32f4xx_hal_adc_ex.cpp ****     counter = (ADC_STAB_DELAY_US * (SystemCoreClock / 1000000U));
 621:Drivers/STM32F4xx_HAL_Driver/Src/stm32f4xx_hal_adc_ex.cpp ****     while(counter != 0U)
 622:Drivers/STM32F4xx_HAL_Driver/Src/stm32f4xx_hal_adc_ex.cpp ****     {
 623:Drivers/STM32F4xx_HAL_Driver/Src/stm32f4xx_hal_adc_ex.cpp ****       counter--;
 624:Drivers/STM32F4xx_HAL_Driver/Src/stm32f4xx_hal_adc_ex.cpp ****     }
 625:Drivers/STM32F4xx_HAL_Driver/Src/stm32f4xx_hal_adc_ex.cpp ****   }
 626:Drivers/STM32F4xx_HAL_Driver/Src/stm32f4xx_hal_adc_ex.cpp ****   
 627:Drivers/STM32F4xx_HAL_Driver/Src/stm32f4xx_hal_adc_ex.cpp ****   /* Start conversion if ADC is effectively enabled */
 628:Drivers/STM32F4xx_HAL_Driver/Src/stm32f4xx_hal_adc_ex.cpp ****   if(HAL_IS_BIT_SET(hadc->Instance->CR2, ADC_CR2_ADON))
 629:Drivers/STM32F4xx_HAL_Driver/Src/stm32f4xx_hal_adc_ex.cpp ****   {
 630:Drivers/STM32F4xx_HAL_Driver/Src/stm32f4xx_hal_adc_ex.cpp ****     /* Set ADC state                                                          */
 631:Drivers/STM32F4xx_HAL_Driver/Src/stm32f4xx_hal_adc_ex.cpp ****     /* - Clear state bitfield related to regular group conversion results     */
 632:Drivers/STM32F4xx_HAL_Driver/Src/stm32f4xx_hal_adc_ex.cpp ****     /* - Set state bitfield related to regular group operation                */
 633:Drivers/STM32F4xx_HAL_Driver/Src/stm32f4xx_hal_adc_ex.cpp ****     ADC_STATE_CLR_SET(hadc->State,
 634:Drivers/STM32F4xx_HAL_Driver/Src/stm32f4xx_hal_adc_ex.cpp ****                       HAL_ADC_STATE_READY | HAL_ADC_STATE_REG_EOC | HAL_ADC_STATE_REG_OVR,
 635:Drivers/STM32F4xx_HAL_Driver/Src/stm32f4xx_hal_adc_ex.cpp ****                       HAL_ADC_STATE_REG_BUSY);
 636:Drivers/STM32F4xx_HAL_Driver/Src/stm32f4xx_hal_adc_ex.cpp ****     
 637:Drivers/STM32F4xx_HAL_Driver/Src/stm32f4xx_hal_adc_ex.cpp ****     /* If conversions on group regular are also triggering group injected,    */
 638:Drivers/STM32F4xx_HAL_Driver/Src/stm32f4xx_hal_adc_ex.cpp ****     /* update ADC state.                                                      */
 639:Drivers/STM32F4xx_HAL_Driver/Src/stm32f4xx_hal_adc_ex.cpp ****     if (READ_BIT(hadc->Instance->CR1, ADC_CR1_JAUTO) != RESET)
 640:Drivers/STM32F4xx_HAL_Driver/Src/stm32f4xx_hal_adc_ex.cpp ****     {
 641:Drivers/STM32F4xx_HAL_Driver/Src/stm32f4xx_hal_adc_ex.cpp ****       ADC_STATE_CLR_SET(hadc->State, HAL_ADC_STATE_INJ_EOC, HAL_ADC_STATE_INJ_BUSY);  
 642:Drivers/STM32F4xx_HAL_Driver/Src/stm32f4xx_hal_adc_ex.cpp ****     }
 643:Drivers/STM32F4xx_HAL_Driver/Src/stm32f4xx_hal_adc_ex.cpp ****     
 644:Drivers/STM32F4xx_HAL_Driver/Src/stm32f4xx_hal_adc_ex.cpp ****     /* State machine update: Check if an injected conversion is ongoing */
 645:Drivers/STM32F4xx_HAL_Driver/Src/stm32f4xx_hal_adc_ex.cpp ****     if (HAL_IS_BIT_SET(hadc->State, HAL_ADC_STATE_INJ_BUSY))
 646:Drivers/STM32F4xx_HAL_Driver/Src/stm32f4xx_hal_adc_ex.cpp ****     {
 647:Drivers/STM32F4xx_HAL_Driver/Src/stm32f4xx_hal_adc_ex.cpp ****       /* Reset ADC error code fields related to conversions on group regular */
 648:Drivers/STM32F4xx_HAL_Driver/Src/stm32f4xx_hal_adc_ex.cpp ****       CLEAR_BIT(hadc->ErrorCode, (HAL_ADC_ERROR_OVR | HAL_ADC_ERROR_DMA));         
 649:Drivers/STM32F4xx_HAL_Driver/Src/stm32f4xx_hal_adc_ex.cpp ****     }
 650:Drivers/STM32F4xx_HAL_Driver/Src/stm32f4xx_hal_adc_ex.cpp ****     else
 651:Drivers/STM32F4xx_HAL_Driver/Src/stm32f4xx_hal_adc_ex.cpp ****     {
 652:Drivers/STM32F4xx_HAL_Driver/Src/stm32f4xx_hal_adc_ex.cpp ****       /* Reset ADC all error code fields */
 653:Drivers/STM32F4xx_HAL_Driver/Src/stm32f4xx_hal_adc_ex.cpp ****       ADC_CLEAR_ERRORCODE(hadc);
 654:Drivers/STM32F4xx_HAL_Driver/Src/stm32f4xx_hal_adc_ex.cpp ****     }
 655:Drivers/STM32F4xx_HAL_Driver/Src/stm32f4xx_hal_adc_ex.cpp ****     
 656:Drivers/STM32F4xx_HAL_Driver/Src/stm32f4xx_hal_adc_ex.cpp ****     /* Process unlocked */
ARM GAS  C:\Users\huawei\AppData\Local\Temp\cc1TIrE4.s 			page 13


 657:Drivers/STM32F4xx_HAL_Driver/Src/stm32f4xx_hal_adc_ex.cpp ****     /* Unlock before starting ADC conversions: in case of potential           */
 658:Drivers/STM32F4xx_HAL_Driver/Src/stm32f4xx_hal_adc_ex.cpp ****     /* interruption, to let the process to ADC IRQ Handler.                   */
 659:Drivers/STM32F4xx_HAL_Driver/Src/stm32f4xx_hal_adc_ex.cpp ****     __HAL_UNLOCK(hadc);
 660:Drivers/STM32F4xx_HAL_Driver/Src/stm32f4xx_hal_adc_ex.cpp ****     
 661:Drivers/STM32F4xx_HAL_Driver/Src/stm32f4xx_hal_adc_ex.cpp ****     /* Set the DMA transfer complete callback */
 662:Drivers/STM32F4xx_HAL_Driver/Src/stm32f4xx_hal_adc_ex.cpp ****     hadc->DMA_Handle->XferCpltCallback = ADC_MultiModeDMAConvCplt;
 663:Drivers/STM32F4xx_HAL_Driver/Src/stm32f4xx_hal_adc_ex.cpp ****     
 664:Drivers/STM32F4xx_HAL_Driver/Src/stm32f4xx_hal_adc_ex.cpp ****     /* Set the DMA half transfer complete callback */
 665:Drivers/STM32F4xx_HAL_Driver/Src/stm32f4xx_hal_adc_ex.cpp ****     hadc->DMA_Handle->XferHalfCpltCallback = ADC_MultiModeDMAHalfConvCplt;
 666:Drivers/STM32F4xx_HAL_Driver/Src/stm32f4xx_hal_adc_ex.cpp ****     
 667:Drivers/STM32F4xx_HAL_Driver/Src/stm32f4xx_hal_adc_ex.cpp ****     /* Set the DMA error callback */
 668:Drivers/STM32F4xx_HAL_Driver/Src/stm32f4xx_hal_adc_ex.cpp ****     hadc->DMA_Handle->XferErrorCallback = ADC_MultiModeDMAError ;
 669:Drivers/STM32F4xx_HAL_Driver/Src/stm32f4xx_hal_adc_ex.cpp ****     
 670:Drivers/STM32F4xx_HAL_Driver/Src/stm32f4xx_hal_adc_ex.cpp ****     /* Manage ADC and DMA start: ADC overrun interruption, DMA start, ADC     */
 671:Drivers/STM32F4xx_HAL_Driver/Src/stm32f4xx_hal_adc_ex.cpp ****     /* start (in case of SW start):                                           */
 672:Drivers/STM32F4xx_HAL_Driver/Src/stm32f4xx_hal_adc_ex.cpp ****     
 673:Drivers/STM32F4xx_HAL_Driver/Src/stm32f4xx_hal_adc_ex.cpp ****     /* Clear regular group conversion flag and overrun flag */
 674:Drivers/STM32F4xx_HAL_Driver/Src/stm32f4xx_hal_adc_ex.cpp ****     /* (To ensure of no unknown state from potential previous ADC operations) */
 675:Drivers/STM32F4xx_HAL_Driver/Src/stm32f4xx_hal_adc_ex.cpp ****     __HAL_ADC_CLEAR_FLAG(hadc, ADC_FLAG_EOC);
 676:Drivers/STM32F4xx_HAL_Driver/Src/stm32f4xx_hal_adc_ex.cpp **** 
 677:Drivers/STM32F4xx_HAL_Driver/Src/stm32f4xx_hal_adc_ex.cpp ****     /* Enable ADC overrun interrupt */
 678:Drivers/STM32F4xx_HAL_Driver/Src/stm32f4xx_hal_adc_ex.cpp ****     __HAL_ADC_ENABLE_IT(hadc, ADC_IT_OVR);
 679:Drivers/STM32F4xx_HAL_Driver/Src/stm32f4xx_hal_adc_ex.cpp **** 
 680:Drivers/STM32F4xx_HAL_Driver/Src/stm32f4xx_hal_adc_ex.cpp ****     /* Pointer to the common control register to which is belonging hadc    */
 681:Drivers/STM32F4xx_HAL_Driver/Src/stm32f4xx_hal_adc_ex.cpp ****     /* (Depending on STM32F4 product, there may be up to 3 ADC and 1 common */
 682:Drivers/STM32F4xx_HAL_Driver/Src/stm32f4xx_hal_adc_ex.cpp ****     /* control register)                                                    */
 683:Drivers/STM32F4xx_HAL_Driver/Src/stm32f4xx_hal_adc_ex.cpp ****     tmpADC_Common = ADC_COMMON_REGISTER(hadc);
 684:Drivers/STM32F4xx_HAL_Driver/Src/stm32f4xx_hal_adc_ex.cpp **** 
 685:Drivers/STM32F4xx_HAL_Driver/Src/stm32f4xx_hal_adc_ex.cpp ****     if (hadc->Init.DMAContinuousRequests != DISABLE)
 686:Drivers/STM32F4xx_HAL_Driver/Src/stm32f4xx_hal_adc_ex.cpp ****     {
 687:Drivers/STM32F4xx_HAL_Driver/Src/stm32f4xx_hal_adc_ex.cpp ****       /* Enable the selected ADC DMA request after last transfer */
 688:Drivers/STM32F4xx_HAL_Driver/Src/stm32f4xx_hal_adc_ex.cpp ****       tmpADC_Common->CCR |= ADC_CCR_DDS;
 689:Drivers/STM32F4xx_HAL_Driver/Src/stm32f4xx_hal_adc_ex.cpp ****     }
 690:Drivers/STM32F4xx_HAL_Driver/Src/stm32f4xx_hal_adc_ex.cpp ****     else
 691:Drivers/STM32F4xx_HAL_Driver/Src/stm32f4xx_hal_adc_ex.cpp ****     {
 692:Drivers/STM32F4xx_HAL_Driver/Src/stm32f4xx_hal_adc_ex.cpp ****       /* Disable the selected ADC EOC rising on each regular channel conversion */
 693:Drivers/STM32F4xx_HAL_Driver/Src/stm32f4xx_hal_adc_ex.cpp ****       tmpADC_Common->CCR &= ~ADC_CCR_DDS;
 694:Drivers/STM32F4xx_HAL_Driver/Src/stm32f4xx_hal_adc_ex.cpp ****     }
 695:Drivers/STM32F4xx_HAL_Driver/Src/stm32f4xx_hal_adc_ex.cpp ****     
 696:Drivers/STM32F4xx_HAL_Driver/Src/stm32f4xx_hal_adc_ex.cpp ****     /* Enable the DMA Stream */
 697:Drivers/STM32F4xx_HAL_Driver/Src/stm32f4xx_hal_adc_ex.cpp ****     HAL_DMA_Start_IT(hadc->DMA_Handle, (uint32_t)&tmpADC_Common->CDR, (uint32_t)pData, Length);
 698:Drivers/STM32F4xx_HAL_Driver/Src/stm32f4xx_hal_adc_ex.cpp ****     
 699:Drivers/STM32F4xx_HAL_Driver/Src/stm32f4xx_hal_adc_ex.cpp ****     /* if no external trigger present enable software conversion of regular channels */
 700:Drivers/STM32F4xx_HAL_Driver/Src/stm32f4xx_hal_adc_ex.cpp ****     if((hadc->Instance->CR2 & ADC_CR2_EXTEN) == RESET) 
 701:Drivers/STM32F4xx_HAL_Driver/Src/stm32f4xx_hal_adc_ex.cpp ****     {
 702:Drivers/STM32F4xx_HAL_Driver/Src/stm32f4xx_hal_adc_ex.cpp ****       /* Enable the selected ADC software conversion for regular group */
 703:Drivers/STM32F4xx_HAL_Driver/Src/stm32f4xx_hal_adc_ex.cpp ****       hadc->Instance->CR2 |= (uint32_t)ADC_CR2_SWSTART;
 704:Drivers/STM32F4xx_HAL_Driver/Src/stm32f4xx_hal_adc_ex.cpp ****     }
 705:Drivers/STM32F4xx_HAL_Driver/Src/stm32f4xx_hal_adc_ex.cpp ****   }
 706:Drivers/STM32F4xx_HAL_Driver/Src/stm32f4xx_hal_adc_ex.cpp ****   else
 707:Drivers/STM32F4xx_HAL_Driver/Src/stm32f4xx_hal_adc_ex.cpp ****   {
 708:Drivers/STM32F4xx_HAL_Driver/Src/stm32f4xx_hal_adc_ex.cpp ****     /* Update ADC state machine to error */
 709:Drivers/STM32F4xx_HAL_Driver/Src/stm32f4xx_hal_adc_ex.cpp ****     SET_BIT(hadc->State, HAL_ADC_STATE_ERROR_INTERNAL);
 710:Drivers/STM32F4xx_HAL_Driver/Src/stm32f4xx_hal_adc_ex.cpp **** 
 711:Drivers/STM32F4xx_HAL_Driver/Src/stm32f4xx_hal_adc_ex.cpp ****     /* Set ADC error code to ADC IP internal error */
 712:Drivers/STM32F4xx_HAL_Driver/Src/stm32f4xx_hal_adc_ex.cpp ****     SET_BIT(hadc->ErrorCode, HAL_ADC_ERROR_INTERNAL);
 713:Drivers/STM32F4xx_HAL_Driver/Src/stm32f4xx_hal_adc_ex.cpp ****   }
ARM GAS  C:\Users\huawei\AppData\Local\Temp\cc1TIrE4.s 			page 14


 714:Drivers/STM32F4xx_HAL_Driver/Src/stm32f4xx_hal_adc_ex.cpp ****   
 715:Drivers/STM32F4xx_HAL_Driver/Src/stm32f4xx_hal_adc_ex.cpp ****   /* Return function status */
 716:Drivers/STM32F4xx_HAL_Driver/Src/stm32f4xx_hal_adc_ex.cpp ****   return HAL_OK;
 717:Drivers/STM32F4xx_HAL_Driver/Src/stm32f4xx_hal_adc_ex.cpp **** }
 718:Drivers/STM32F4xx_HAL_Driver/Src/stm32f4xx_hal_adc_ex.cpp **** 
 719:Drivers/STM32F4xx_HAL_Driver/Src/stm32f4xx_hal_adc_ex.cpp **** /**
 720:Drivers/STM32F4xx_HAL_Driver/Src/stm32f4xx_hal_adc_ex.cpp ****   * @brief  Disables ADC DMA (multi-ADC mode) and disables ADC peripheral    
 721:Drivers/STM32F4xx_HAL_Driver/Src/stm32f4xx_hal_adc_ex.cpp ****   * @param  hadc pointer to a ADC_HandleTypeDef structure that contains
 722:Drivers/STM32F4xx_HAL_Driver/Src/stm32f4xx_hal_adc_ex.cpp ****   *         the configuration information for the specified ADC.
 723:Drivers/STM32F4xx_HAL_Driver/Src/stm32f4xx_hal_adc_ex.cpp ****   * @retval HAL status
 724:Drivers/STM32F4xx_HAL_Driver/Src/stm32f4xx_hal_adc_ex.cpp ****   */
 725:Drivers/STM32F4xx_HAL_Driver/Src/stm32f4xx_hal_adc_ex.cpp **** HAL_StatusTypeDef HAL_ADCEx_MultiModeStop_DMA(ADC_HandleTypeDef* hadc)
 726:Drivers/STM32F4xx_HAL_Driver/Src/stm32f4xx_hal_adc_ex.cpp **** {
 727:Drivers/STM32F4xx_HAL_Driver/Src/stm32f4xx_hal_adc_ex.cpp ****   HAL_StatusTypeDef tmp_hal_status = HAL_OK;
 728:Drivers/STM32F4xx_HAL_Driver/Src/stm32f4xx_hal_adc_ex.cpp ****   ADC_Common_TypeDef *tmpADC_Common;
 729:Drivers/STM32F4xx_HAL_Driver/Src/stm32f4xx_hal_adc_ex.cpp ****   
 730:Drivers/STM32F4xx_HAL_Driver/Src/stm32f4xx_hal_adc_ex.cpp ****   /* Check the parameters */
 731:Drivers/STM32F4xx_HAL_Driver/Src/stm32f4xx_hal_adc_ex.cpp ****   assert_param(IS_ADC_ALL_INSTANCE(hadc->Instance));
 732:Drivers/STM32F4xx_HAL_Driver/Src/stm32f4xx_hal_adc_ex.cpp ****   
 733:Drivers/STM32F4xx_HAL_Driver/Src/stm32f4xx_hal_adc_ex.cpp ****   /* Process locked */
 734:Drivers/STM32F4xx_HAL_Driver/Src/stm32f4xx_hal_adc_ex.cpp ****   __HAL_LOCK(hadc);
 735:Drivers/STM32F4xx_HAL_Driver/Src/stm32f4xx_hal_adc_ex.cpp ****   
 736:Drivers/STM32F4xx_HAL_Driver/Src/stm32f4xx_hal_adc_ex.cpp ****   /* Stop potential conversion on going, on regular and injected groups */
 737:Drivers/STM32F4xx_HAL_Driver/Src/stm32f4xx_hal_adc_ex.cpp ****   /* Disable ADC peripheral */
 738:Drivers/STM32F4xx_HAL_Driver/Src/stm32f4xx_hal_adc_ex.cpp ****   __HAL_ADC_DISABLE(hadc);
 739:Drivers/STM32F4xx_HAL_Driver/Src/stm32f4xx_hal_adc_ex.cpp **** 
 740:Drivers/STM32F4xx_HAL_Driver/Src/stm32f4xx_hal_adc_ex.cpp ****   /* Pointer to the common control register to which is belonging hadc    */
 741:Drivers/STM32F4xx_HAL_Driver/Src/stm32f4xx_hal_adc_ex.cpp ****   /* (Depending on STM32F4 product, there may be up to 3 ADC and 1 common */
 742:Drivers/STM32F4xx_HAL_Driver/Src/stm32f4xx_hal_adc_ex.cpp ****   /* control register)                                                    */
 743:Drivers/STM32F4xx_HAL_Driver/Src/stm32f4xx_hal_adc_ex.cpp ****   tmpADC_Common = ADC_COMMON_REGISTER(hadc);
 744:Drivers/STM32F4xx_HAL_Driver/Src/stm32f4xx_hal_adc_ex.cpp **** 
 745:Drivers/STM32F4xx_HAL_Driver/Src/stm32f4xx_hal_adc_ex.cpp ****   /* Check if ADC is effectively disabled */
 746:Drivers/STM32F4xx_HAL_Driver/Src/stm32f4xx_hal_adc_ex.cpp ****   if(HAL_IS_BIT_CLR(hadc->Instance->CR2, ADC_CR2_ADON))
 747:Drivers/STM32F4xx_HAL_Driver/Src/stm32f4xx_hal_adc_ex.cpp ****   {
 748:Drivers/STM32F4xx_HAL_Driver/Src/stm32f4xx_hal_adc_ex.cpp ****     /* Disable the selected ADC DMA mode for multimode */
 749:Drivers/STM32F4xx_HAL_Driver/Src/stm32f4xx_hal_adc_ex.cpp ****     tmpADC_Common->CCR &= ~ADC_CCR_DDS;
 750:Drivers/STM32F4xx_HAL_Driver/Src/stm32f4xx_hal_adc_ex.cpp ****     
 751:Drivers/STM32F4xx_HAL_Driver/Src/stm32f4xx_hal_adc_ex.cpp ****     /* Disable the DMA channel (in case of DMA in circular mode or stop while */
 752:Drivers/STM32F4xx_HAL_Driver/Src/stm32f4xx_hal_adc_ex.cpp ****     /* DMA transfer is on going)                                              */
 753:Drivers/STM32F4xx_HAL_Driver/Src/stm32f4xx_hal_adc_ex.cpp ****     tmp_hal_status = HAL_DMA_Abort(hadc->DMA_Handle);
 754:Drivers/STM32F4xx_HAL_Driver/Src/stm32f4xx_hal_adc_ex.cpp ****     
 755:Drivers/STM32F4xx_HAL_Driver/Src/stm32f4xx_hal_adc_ex.cpp ****     /* Disable ADC overrun interrupt */
 756:Drivers/STM32F4xx_HAL_Driver/Src/stm32f4xx_hal_adc_ex.cpp ****     __HAL_ADC_DISABLE_IT(hadc, ADC_IT_OVR);
 757:Drivers/STM32F4xx_HAL_Driver/Src/stm32f4xx_hal_adc_ex.cpp ****     
 758:Drivers/STM32F4xx_HAL_Driver/Src/stm32f4xx_hal_adc_ex.cpp ****     /* Set ADC state */
 759:Drivers/STM32F4xx_HAL_Driver/Src/stm32f4xx_hal_adc_ex.cpp ****     ADC_STATE_CLR_SET(hadc->State,
 760:Drivers/STM32F4xx_HAL_Driver/Src/stm32f4xx_hal_adc_ex.cpp ****                       HAL_ADC_STATE_REG_BUSY | HAL_ADC_STATE_INJ_BUSY,
 761:Drivers/STM32F4xx_HAL_Driver/Src/stm32f4xx_hal_adc_ex.cpp ****                       HAL_ADC_STATE_READY);
 762:Drivers/STM32F4xx_HAL_Driver/Src/stm32f4xx_hal_adc_ex.cpp ****   }
 763:Drivers/STM32F4xx_HAL_Driver/Src/stm32f4xx_hal_adc_ex.cpp ****   
 764:Drivers/STM32F4xx_HAL_Driver/Src/stm32f4xx_hal_adc_ex.cpp ****   /* Process unlocked */
 765:Drivers/STM32F4xx_HAL_Driver/Src/stm32f4xx_hal_adc_ex.cpp ****   __HAL_UNLOCK(hadc);
 766:Drivers/STM32F4xx_HAL_Driver/Src/stm32f4xx_hal_adc_ex.cpp ****   
 767:Drivers/STM32F4xx_HAL_Driver/Src/stm32f4xx_hal_adc_ex.cpp ****   /* Return function status */
 768:Drivers/STM32F4xx_HAL_Driver/Src/stm32f4xx_hal_adc_ex.cpp ****   return tmp_hal_status;
 769:Drivers/STM32F4xx_HAL_Driver/Src/stm32f4xx_hal_adc_ex.cpp **** }
 770:Drivers/STM32F4xx_HAL_Driver/Src/stm32f4xx_hal_adc_ex.cpp **** 
ARM GAS  C:\Users\huawei\AppData\Local\Temp\cc1TIrE4.s 			page 15


 771:Drivers/STM32F4xx_HAL_Driver/Src/stm32f4xx_hal_adc_ex.cpp **** /**
 772:Drivers/STM32F4xx_HAL_Driver/Src/stm32f4xx_hal_adc_ex.cpp ****   * @brief  Returns the last ADC1, ADC2 and ADC3 regular conversions results 
 773:Drivers/STM32F4xx_HAL_Driver/Src/stm32f4xx_hal_adc_ex.cpp ****   *         data in the selected multi mode.
 774:Drivers/STM32F4xx_HAL_Driver/Src/stm32f4xx_hal_adc_ex.cpp ****   * @param  hadc pointer to a ADC_HandleTypeDef structure that contains
 775:Drivers/STM32F4xx_HAL_Driver/Src/stm32f4xx_hal_adc_ex.cpp ****   *         the configuration information for the specified ADC.
 776:Drivers/STM32F4xx_HAL_Driver/Src/stm32f4xx_hal_adc_ex.cpp ****   * @retval The converted data value.
 777:Drivers/STM32F4xx_HAL_Driver/Src/stm32f4xx_hal_adc_ex.cpp ****   */
 778:Drivers/STM32F4xx_HAL_Driver/Src/stm32f4xx_hal_adc_ex.cpp **** uint32_t HAL_ADCEx_MultiModeGetValue(ADC_HandleTypeDef* hadc)
 779:Drivers/STM32F4xx_HAL_Driver/Src/stm32f4xx_hal_adc_ex.cpp **** {
 780:Drivers/STM32F4xx_HAL_Driver/Src/stm32f4xx_hal_adc_ex.cpp ****   ADC_Common_TypeDef *tmpADC_Common;
 781:Drivers/STM32F4xx_HAL_Driver/Src/stm32f4xx_hal_adc_ex.cpp **** 
 782:Drivers/STM32F4xx_HAL_Driver/Src/stm32f4xx_hal_adc_ex.cpp ****   /* Pointer to the common control register to which is belonging hadc    */
 783:Drivers/STM32F4xx_HAL_Driver/Src/stm32f4xx_hal_adc_ex.cpp ****   /* (Depending on STM32F4 product, there may be up to 3 ADC and 1 common */
 784:Drivers/STM32F4xx_HAL_Driver/Src/stm32f4xx_hal_adc_ex.cpp ****   /* control register)                                                    */
 785:Drivers/STM32F4xx_HAL_Driver/Src/stm32f4xx_hal_adc_ex.cpp ****   tmpADC_Common = ADC_COMMON_REGISTER(hadc);
 786:Drivers/STM32F4xx_HAL_Driver/Src/stm32f4xx_hal_adc_ex.cpp **** 
 787:Drivers/STM32F4xx_HAL_Driver/Src/stm32f4xx_hal_adc_ex.cpp ****   /* Return the multi mode conversion value */
 788:Drivers/STM32F4xx_HAL_Driver/Src/stm32f4xx_hal_adc_ex.cpp ****   return tmpADC_Common->CDR;
 789:Drivers/STM32F4xx_HAL_Driver/Src/stm32f4xx_hal_adc_ex.cpp **** }
 790:Drivers/STM32F4xx_HAL_Driver/Src/stm32f4xx_hal_adc_ex.cpp **** 
 791:Drivers/STM32F4xx_HAL_Driver/Src/stm32f4xx_hal_adc_ex.cpp **** /**
 792:Drivers/STM32F4xx_HAL_Driver/Src/stm32f4xx_hal_adc_ex.cpp ****   * @brief  Injected conversion complete callback in non blocking mode 
 793:Drivers/STM32F4xx_HAL_Driver/Src/stm32f4xx_hal_adc_ex.cpp ****   * @param  hadc pointer to a ADC_HandleTypeDef structure that contains
 794:Drivers/STM32F4xx_HAL_Driver/Src/stm32f4xx_hal_adc_ex.cpp ****   *         the configuration information for the specified ADC.
 795:Drivers/STM32F4xx_HAL_Driver/Src/stm32f4xx_hal_adc_ex.cpp ****   * @retval None
 796:Drivers/STM32F4xx_HAL_Driver/Src/stm32f4xx_hal_adc_ex.cpp ****   */
 797:Drivers/STM32F4xx_HAL_Driver/Src/stm32f4xx_hal_adc_ex.cpp **** __weak void HAL_ADCEx_InjectedConvCpltCallback(ADC_HandleTypeDef* hadc)
 798:Drivers/STM32F4xx_HAL_Driver/Src/stm32f4xx_hal_adc_ex.cpp **** {
 799:Drivers/STM32F4xx_HAL_Driver/Src/stm32f4xx_hal_adc_ex.cpp ****   /* Prevent unused argument(s) compilation warning */
 800:Drivers/STM32F4xx_HAL_Driver/Src/stm32f4xx_hal_adc_ex.cpp ****   UNUSED(hadc);
 801:Drivers/STM32F4xx_HAL_Driver/Src/stm32f4xx_hal_adc_ex.cpp ****   /* NOTE : This function Should not be modified, when the callback is needed,
 802:Drivers/STM32F4xx_HAL_Driver/Src/stm32f4xx_hal_adc_ex.cpp ****             the HAL_ADC_InjectedConvCpltCallback could be implemented in the user file
 803:Drivers/STM32F4xx_HAL_Driver/Src/stm32f4xx_hal_adc_ex.cpp ****    */
 804:Drivers/STM32F4xx_HAL_Driver/Src/stm32f4xx_hal_adc_ex.cpp **** }
 805:Drivers/STM32F4xx_HAL_Driver/Src/stm32f4xx_hal_adc_ex.cpp **** 
 806:Drivers/STM32F4xx_HAL_Driver/Src/stm32f4xx_hal_adc_ex.cpp **** /**
 807:Drivers/STM32F4xx_HAL_Driver/Src/stm32f4xx_hal_adc_ex.cpp ****   * @brief  Configures for the selected ADC injected channel its corresponding
 808:Drivers/STM32F4xx_HAL_Driver/Src/stm32f4xx_hal_adc_ex.cpp ****   *         rank in the sequencer and its sample time.
 809:Drivers/STM32F4xx_HAL_Driver/Src/stm32f4xx_hal_adc_ex.cpp ****   * @param  hadc pointer to a ADC_HandleTypeDef structure that contains
 810:Drivers/STM32F4xx_HAL_Driver/Src/stm32f4xx_hal_adc_ex.cpp ****   *         the configuration information for the specified ADC.
 811:Drivers/STM32F4xx_HAL_Driver/Src/stm32f4xx_hal_adc_ex.cpp ****   * @param  sConfigInjected ADC configuration structure for injected channel. 
 812:Drivers/STM32F4xx_HAL_Driver/Src/stm32f4xx_hal_adc_ex.cpp ****   * @retval None
 813:Drivers/STM32F4xx_HAL_Driver/Src/stm32f4xx_hal_adc_ex.cpp ****   */
 814:Drivers/STM32F4xx_HAL_Driver/Src/stm32f4xx_hal_adc_ex.cpp **** HAL_StatusTypeDef HAL_ADCEx_InjectedConfigChannel(ADC_HandleTypeDef* hadc, ADC_InjectionConfTypeDef
 815:Drivers/STM32F4xx_HAL_Driver/Src/stm32f4xx_hal_adc_ex.cpp **** {
 816:Drivers/STM32F4xx_HAL_Driver/Src/stm32f4xx_hal_adc_ex.cpp ****   
 817:Drivers/STM32F4xx_HAL_Driver/Src/stm32f4xx_hal_adc_ex.cpp **** #ifdef USE_FULL_ASSERT  
 818:Drivers/STM32F4xx_HAL_Driver/Src/stm32f4xx_hal_adc_ex.cpp ****   uint32_t tmp = 0U;
 819:Drivers/STM32F4xx_HAL_Driver/Src/stm32f4xx_hal_adc_ex.cpp ****   
 820:Drivers/STM32F4xx_HAL_Driver/Src/stm32f4xx_hal_adc_ex.cpp **** #endif /* USE_FULL_ASSERT  */
 821:Drivers/STM32F4xx_HAL_Driver/Src/stm32f4xx_hal_adc_ex.cpp **** 
 822:Drivers/STM32F4xx_HAL_Driver/Src/stm32f4xx_hal_adc_ex.cpp ****   ADC_Common_TypeDef *tmpADC_Common;
 823:Drivers/STM32F4xx_HAL_Driver/Src/stm32f4xx_hal_adc_ex.cpp **** 
 824:Drivers/STM32F4xx_HAL_Driver/Src/stm32f4xx_hal_adc_ex.cpp ****   /* Check the parameters */
 825:Drivers/STM32F4xx_HAL_Driver/Src/stm32f4xx_hal_adc_ex.cpp ****   assert_param(IS_ADC_CHANNEL(sConfigInjected->InjectedChannel));
 826:Drivers/STM32F4xx_HAL_Driver/Src/stm32f4xx_hal_adc_ex.cpp ****   assert_param(IS_ADC_INJECTED_RANK(sConfigInjected->InjectedRank));
 827:Drivers/STM32F4xx_HAL_Driver/Src/stm32f4xx_hal_adc_ex.cpp ****   assert_param(IS_ADC_SAMPLE_TIME(sConfigInjected->InjectedSamplingTime));
ARM GAS  C:\Users\huawei\AppData\Local\Temp\cc1TIrE4.s 			page 16


 828:Drivers/STM32F4xx_HAL_Driver/Src/stm32f4xx_hal_adc_ex.cpp ****   assert_param(IS_ADC_EXT_INJEC_TRIG(sConfigInjected->ExternalTrigInjecConv));
 829:Drivers/STM32F4xx_HAL_Driver/Src/stm32f4xx_hal_adc_ex.cpp ****   assert_param(IS_ADC_INJECTED_LENGTH(sConfigInjected->InjectedNbrOfConversion));
 830:Drivers/STM32F4xx_HAL_Driver/Src/stm32f4xx_hal_adc_ex.cpp ****   assert_param(IS_FUNCTIONAL_STATE(sConfigInjected->AutoInjectedConv));
 831:Drivers/STM32F4xx_HAL_Driver/Src/stm32f4xx_hal_adc_ex.cpp ****   assert_param(IS_FUNCTIONAL_STATE(sConfigInjected->InjectedDiscontinuousConvMode));
 832:Drivers/STM32F4xx_HAL_Driver/Src/stm32f4xx_hal_adc_ex.cpp **** 
 833:Drivers/STM32F4xx_HAL_Driver/Src/stm32f4xx_hal_adc_ex.cpp **** #ifdef USE_FULL_ASSERT
 834:Drivers/STM32F4xx_HAL_Driver/Src/stm32f4xx_hal_adc_ex.cpp ****   tmp = ADC_GET_RESOLUTION(hadc);
 835:Drivers/STM32F4xx_HAL_Driver/Src/stm32f4xx_hal_adc_ex.cpp ****   assert_param(IS_ADC_RANGE(tmp, sConfigInjected->InjectedOffset));
 836:Drivers/STM32F4xx_HAL_Driver/Src/stm32f4xx_hal_adc_ex.cpp **** #endif /* USE_FULL_ASSERT  */
 837:Drivers/STM32F4xx_HAL_Driver/Src/stm32f4xx_hal_adc_ex.cpp **** 
 838:Drivers/STM32F4xx_HAL_Driver/Src/stm32f4xx_hal_adc_ex.cpp ****   if(sConfigInjected->ExternalTrigInjecConv != ADC_INJECTED_SOFTWARE_START)
 839:Drivers/STM32F4xx_HAL_Driver/Src/stm32f4xx_hal_adc_ex.cpp ****   {
 840:Drivers/STM32F4xx_HAL_Driver/Src/stm32f4xx_hal_adc_ex.cpp ****     assert_param(IS_ADC_EXT_INJEC_TRIG_EDGE(sConfigInjected->ExternalTrigInjecConvEdge));
 841:Drivers/STM32F4xx_HAL_Driver/Src/stm32f4xx_hal_adc_ex.cpp ****   }
 842:Drivers/STM32F4xx_HAL_Driver/Src/stm32f4xx_hal_adc_ex.cpp **** 
 843:Drivers/STM32F4xx_HAL_Driver/Src/stm32f4xx_hal_adc_ex.cpp ****   /* Process locked */
 844:Drivers/STM32F4xx_HAL_Driver/Src/stm32f4xx_hal_adc_ex.cpp ****   __HAL_LOCK(hadc);
 845:Drivers/STM32F4xx_HAL_Driver/Src/stm32f4xx_hal_adc_ex.cpp ****   
 846:Drivers/STM32F4xx_HAL_Driver/Src/stm32f4xx_hal_adc_ex.cpp ****   /* if ADC_Channel_10 ... ADC_Channel_18 is selected */
 847:Drivers/STM32F4xx_HAL_Driver/Src/stm32f4xx_hal_adc_ex.cpp ****   if (sConfigInjected->InjectedChannel > ADC_CHANNEL_9)
 848:Drivers/STM32F4xx_HAL_Driver/Src/stm32f4xx_hal_adc_ex.cpp ****   {
 849:Drivers/STM32F4xx_HAL_Driver/Src/stm32f4xx_hal_adc_ex.cpp ****     /* Clear the old sample time */
 850:Drivers/STM32F4xx_HAL_Driver/Src/stm32f4xx_hal_adc_ex.cpp ****     hadc->Instance->SMPR1 &= ~ADC_SMPR1(ADC_SMPR1_SMP10, sConfigInjected->InjectedChannel);
 851:Drivers/STM32F4xx_HAL_Driver/Src/stm32f4xx_hal_adc_ex.cpp ****     
 852:Drivers/STM32F4xx_HAL_Driver/Src/stm32f4xx_hal_adc_ex.cpp ****     /* Set the new sample time */
 853:Drivers/STM32F4xx_HAL_Driver/Src/stm32f4xx_hal_adc_ex.cpp ****     hadc->Instance->SMPR1 |= ADC_SMPR1(sConfigInjected->InjectedSamplingTime, sConfigInjected->Inje
 854:Drivers/STM32F4xx_HAL_Driver/Src/stm32f4xx_hal_adc_ex.cpp ****   }
 855:Drivers/STM32F4xx_HAL_Driver/Src/stm32f4xx_hal_adc_ex.cpp ****   else /* ADC_Channel include in ADC_Channel_[0..9] */
 856:Drivers/STM32F4xx_HAL_Driver/Src/stm32f4xx_hal_adc_ex.cpp ****   {
 857:Drivers/STM32F4xx_HAL_Driver/Src/stm32f4xx_hal_adc_ex.cpp ****     /* Clear the old sample time */
 858:Drivers/STM32F4xx_HAL_Driver/Src/stm32f4xx_hal_adc_ex.cpp ****     hadc->Instance->SMPR2 &= ~ADC_SMPR2(ADC_SMPR2_SMP0, sConfigInjected->InjectedChannel);
 859:Drivers/STM32F4xx_HAL_Driver/Src/stm32f4xx_hal_adc_ex.cpp ****     
 860:Drivers/STM32F4xx_HAL_Driver/Src/stm32f4xx_hal_adc_ex.cpp ****     /* Set the new sample time */
 861:Drivers/STM32F4xx_HAL_Driver/Src/stm32f4xx_hal_adc_ex.cpp ****     hadc->Instance->SMPR2 |= ADC_SMPR2(sConfigInjected->InjectedSamplingTime, sConfigInjected->Inje
 862:Drivers/STM32F4xx_HAL_Driver/Src/stm32f4xx_hal_adc_ex.cpp ****   }
 863:Drivers/STM32F4xx_HAL_Driver/Src/stm32f4xx_hal_adc_ex.cpp ****   
 864:Drivers/STM32F4xx_HAL_Driver/Src/stm32f4xx_hal_adc_ex.cpp ****   /*---------------------------- ADCx JSQR Configuration -----------------*/
 865:Drivers/STM32F4xx_HAL_Driver/Src/stm32f4xx_hal_adc_ex.cpp ****   hadc->Instance->JSQR &= ~(ADC_JSQR_JL);
 866:Drivers/STM32F4xx_HAL_Driver/Src/stm32f4xx_hal_adc_ex.cpp ****   hadc->Instance->JSQR |=  ADC_SQR1(sConfigInjected->InjectedNbrOfConversion);
 867:Drivers/STM32F4xx_HAL_Driver/Src/stm32f4xx_hal_adc_ex.cpp ****   
 868:Drivers/STM32F4xx_HAL_Driver/Src/stm32f4xx_hal_adc_ex.cpp ****   /* Rank configuration */
 869:Drivers/STM32F4xx_HAL_Driver/Src/stm32f4xx_hal_adc_ex.cpp ****   
 870:Drivers/STM32F4xx_HAL_Driver/Src/stm32f4xx_hal_adc_ex.cpp ****   /* Clear the old SQx bits for the selected rank */
 871:Drivers/STM32F4xx_HAL_Driver/Src/stm32f4xx_hal_adc_ex.cpp ****   hadc->Instance->JSQR &= ~ADC_JSQR(ADC_JSQR_JSQ1, sConfigInjected->InjectedRank,sConfigInjected->I
 872:Drivers/STM32F4xx_HAL_Driver/Src/stm32f4xx_hal_adc_ex.cpp ****    
 873:Drivers/STM32F4xx_HAL_Driver/Src/stm32f4xx_hal_adc_ex.cpp ****   /* Set the SQx bits for the selected rank */
 874:Drivers/STM32F4xx_HAL_Driver/Src/stm32f4xx_hal_adc_ex.cpp ****   hadc->Instance->JSQR |= ADC_JSQR(sConfigInjected->InjectedChannel, sConfigInjected->InjectedRank,
 875:Drivers/STM32F4xx_HAL_Driver/Src/stm32f4xx_hal_adc_ex.cpp **** 
 876:Drivers/STM32F4xx_HAL_Driver/Src/stm32f4xx_hal_adc_ex.cpp ****   /* Enable external trigger if trigger selection is different of software  */
 877:Drivers/STM32F4xx_HAL_Driver/Src/stm32f4xx_hal_adc_ex.cpp ****   /* start.                                                                 */
 878:Drivers/STM32F4xx_HAL_Driver/Src/stm32f4xx_hal_adc_ex.cpp ****   /* Note: This configuration keeps the hardware feature of parameter       */
 879:Drivers/STM32F4xx_HAL_Driver/Src/stm32f4xx_hal_adc_ex.cpp ****   /*       ExternalTrigConvEdge "trigger edge none" equivalent to           */
 880:Drivers/STM32F4xx_HAL_Driver/Src/stm32f4xx_hal_adc_ex.cpp ****   /*       software start.                                                  */ 
 881:Drivers/STM32F4xx_HAL_Driver/Src/stm32f4xx_hal_adc_ex.cpp ****   if(sConfigInjected->ExternalTrigInjecConv != ADC_INJECTED_SOFTWARE_START)
 882:Drivers/STM32F4xx_HAL_Driver/Src/stm32f4xx_hal_adc_ex.cpp ****   {  
 883:Drivers/STM32F4xx_HAL_Driver/Src/stm32f4xx_hal_adc_ex.cpp ****     /* Select external trigger to start conversion */
 884:Drivers/STM32F4xx_HAL_Driver/Src/stm32f4xx_hal_adc_ex.cpp ****     hadc->Instance->CR2 &= ~(ADC_CR2_JEXTSEL);
ARM GAS  C:\Users\huawei\AppData\Local\Temp\cc1TIrE4.s 			page 17


 885:Drivers/STM32F4xx_HAL_Driver/Src/stm32f4xx_hal_adc_ex.cpp ****     hadc->Instance->CR2 |=  sConfigInjected->ExternalTrigInjecConv;
 886:Drivers/STM32F4xx_HAL_Driver/Src/stm32f4xx_hal_adc_ex.cpp ****     
 887:Drivers/STM32F4xx_HAL_Driver/Src/stm32f4xx_hal_adc_ex.cpp ****     /* Select external trigger polarity */
 888:Drivers/STM32F4xx_HAL_Driver/Src/stm32f4xx_hal_adc_ex.cpp ****     hadc->Instance->CR2 &= ~(ADC_CR2_JEXTEN);
 889:Drivers/STM32F4xx_HAL_Driver/Src/stm32f4xx_hal_adc_ex.cpp ****     hadc->Instance->CR2 |= sConfigInjected->ExternalTrigInjecConvEdge;
 890:Drivers/STM32F4xx_HAL_Driver/Src/stm32f4xx_hal_adc_ex.cpp ****   }
 891:Drivers/STM32F4xx_HAL_Driver/Src/stm32f4xx_hal_adc_ex.cpp ****   else
 892:Drivers/STM32F4xx_HAL_Driver/Src/stm32f4xx_hal_adc_ex.cpp ****   {
 893:Drivers/STM32F4xx_HAL_Driver/Src/stm32f4xx_hal_adc_ex.cpp ****     /* Reset the external trigger */
 894:Drivers/STM32F4xx_HAL_Driver/Src/stm32f4xx_hal_adc_ex.cpp ****     hadc->Instance->CR2 &= ~(ADC_CR2_JEXTSEL);
 895:Drivers/STM32F4xx_HAL_Driver/Src/stm32f4xx_hal_adc_ex.cpp ****     hadc->Instance->CR2 &= ~(ADC_CR2_JEXTEN);  
 896:Drivers/STM32F4xx_HAL_Driver/Src/stm32f4xx_hal_adc_ex.cpp ****   }
 897:Drivers/STM32F4xx_HAL_Driver/Src/stm32f4xx_hal_adc_ex.cpp ****   
 898:Drivers/STM32F4xx_HAL_Driver/Src/stm32f4xx_hal_adc_ex.cpp ****   if (sConfigInjected->AutoInjectedConv != DISABLE)
 899:Drivers/STM32F4xx_HAL_Driver/Src/stm32f4xx_hal_adc_ex.cpp ****   {
 900:Drivers/STM32F4xx_HAL_Driver/Src/stm32f4xx_hal_adc_ex.cpp ****     /* Enable the selected ADC automatic injected group conversion */
 901:Drivers/STM32F4xx_HAL_Driver/Src/stm32f4xx_hal_adc_ex.cpp ****     hadc->Instance->CR1 |= ADC_CR1_JAUTO;
 902:Drivers/STM32F4xx_HAL_Driver/Src/stm32f4xx_hal_adc_ex.cpp ****   }
 903:Drivers/STM32F4xx_HAL_Driver/Src/stm32f4xx_hal_adc_ex.cpp ****   else
 904:Drivers/STM32F4xx_HAL_Driver/Src/stm32f4xx_hal_adc_ex.cpp ****   {
 905:Drivers/STM32F4xx_HAL_Driver/Src/stm32f4xx_hal_adc_ex.cpp ****     /* Disable the selected ADC automatic injected group conversion */
 906:Drivers/STM32F4xx_HAL_Driver/Src/stm32f4xx_hal_adc_ex.cpp ****     hadc->Instance->CR1 &= ~(ADC_CR1_JAUTO);
 907:Drivers/STM32F4xx_HAL_Driver/Src/stm32f4xx_hal_adc_ex.cpp ****   }
 908:Drivers/STM32F4xx_HAL_Driver/Src/stm32f4xx_hal_adc_ex.cpp ****   
 909:Drivers/STM32F4xx_HAL_Driver/Src/stm32f4xx_hal_adc_ex.cpp ****   if (sConfigInjected->InjectedDiscontinuousConvMode != DISABLE)
 910:Drivers/STM32F4xx_HAL_Driver/Src/stm32f4xx_hal_adc_ex.cpp ****   {
 911:Drivers/STM32F4xx_HAL_Driver/Src/stm32f4xx_hal_adc_ex.cpp ****     /* Enable the selected ADC injected discontinuous mode */
 912:Drivers/STM32F4xx_HAL_Driver/Src/stm32f4xx_hal_adc_ex.cpp ****     hadc->Instance->CR1 |= ADC_CR1_JDISCEN;
 913:Drivers/STM32F4xx_HAL_Driver/Src/stm32f4xx_hal_adc_ex.cpp ****   }
 914:Drivers/STM32F4xx_HAL_Driver/Src/stm32f4xx_hal_adc_ex.cpp ****   else
 915:Drivers/STM32F4xx_HAL_Driver/Src/stm32f4xx_hal_adc_ex.cpp ****   {
 916:Drivers/STM32F4xx_HAL_Driver/Src/stm32f4xx_hal_adc_ex.cpp ****     /* Disable the selected ADC injected discontinuous mode */
 917:Drivers/STM32F4xx_HAL_Driver/Src/stm32f4xx_hal_adc_ex.cpp ****     hadc->Instance->CR1 &= ~(ADC_CR1_JDISCEN);
 918:Drivers/STM32F4xx_HAL_Driver/Src/stm32f4xx_hal_adc_ex.cpp ****   }
 919:Drivers/STM32F4xx_HAL_Driver/Src/stm32f4xx_hal_adc_ex.cpp ****   
 920:Drivers/STM32F4xx_HAL_Driver/Src/stm32f4xx_hal_adc_ex.cpp ****   switch(sConfigInjected->InjectedRank)
 921:Drivers/STM32F4xx_HAL_Driver/Src/stm32f4xx_hal_adc_ex.cpp ****   {
 922:Drivers/STM32F4xx_HAL_Driver/Src/stm32f4xx_hal_adc_ex.cpp ****     case 1U:
 923:Drivers/STM32F4xx_HAL_Driver/Src/stm32f4xx_hal_adc_ex.cpp ****       /* Set injected channel 1 offset */
 924:Drivers/STM32F4xx_HAL_Driver/Src/stm32f4xx_hal_adc_ex.cpp ****       hadc->Instance->JOFR1 &= ~(ADC_JOFR1_JOFFSET1);
 925:Drivers/STM32F4xx_HAL_Driver/Src/stm32f4xx_hal_adc_ex.cpp ****       hadc->Instance->JOFR1 |= sConfigInjected->InjectedOffset;
 926:Drivers/STM32F4xx_HAL_Driver/Src/stm32f4xx_hal_adc_ex.cpp ****       break;
 927:Drivers/STM32F4xx_HAL_Driver/Src/stm32f4xx_hal_adc_ex.cpp ****     case 2U:
 928:Drivers/STM32F4xx_HAL_Driver/Src/stm32f4xx_hal_adc_ex.cpp ****       /* Set injected channel 2 offset */
 929:Drivers/STM32F4xx_HAL_Driver/Src/stm32f4xx_hal_adc_ex.cpp ****       hadc->Instance->JOFR2 &= ~(ADC_JOFR2_JOFFSET2);
 930:Drivers/STM32F4xx_HAL_Driver/Src/stm32f4xx_hal_adc_ex.cpp ****       hadc->Instance->JOFR2 |= sConfigInjected->InjectedOffset;
 931:Drivers/STM32F4xx_HAL_Driver/Src/stm32f4xx_hal_adc_ex.cpp ****       break;
 932:Drivers/STM32F4xx_HAL_Driver/Src/stm32f4xx_hal_adc_ex.cpp ****     case 3U:
 933:Drivers/STM32F4xx_HAL_Driver/Src/stm32f4xx_hal_adc_ex.cpp ****       /* Set injected channel 3 offset */
 934:Drivers/STM32F4xx_HAL_Driver/Src/stm32f4xx_hal_adc_ex.cpp ****       hadc->Instance->JOFR3 &= ~(ADC_JOFR3_JOFFSET3);
 935:Drivers/STM32F4xx_HAL_Driver/Src/stm32f4xx_hal_adc_ex.cpp ****       hadc->Instance->JOFR3 |= sConfigInjected->InjectedOffset;
 936:Drivers/STM32F4xx_HAL_Driver/Src/stm32f4xx_hal_adc_ex.cpp ****       break;
 937:Drivers/STM32F4xx_HAL_Driver/Src/stm32f4xx_hal_adc_ex.cpp ****     default:
 938:Drivers/STM32F4xx_HAL_Driver/Src/stm32f4xx_hal_adc_ex.cpp ****       /* Set injected channel 4 offset */
 939:Drivers/STM32F4xx_HAL_Driver/Src/stm32f4xx_hal_adc_ex.cpp ****       hadc->Instance->JOFR4 &= ~(ADC_JOFR4_JOFFSET4);
 940:Drivers/STM32F4xx_HAL_Driver/Src/stm32f4xx_hal_adc_ex.cpp ****       hadc->Instance->JOFR4 |= sConfigInjected->InjectedOffset;
 941:Drivers/STM32F4xx_HAL_Driver/Src/stm32f4xx_hal_adc_ex.cpp ****       break;
ARM GAS  C:\Users\huawei\AppData\Local\Temp\cc1TIrE4.s 			page 18


 942:Drivers/STM32F4xx_HAL_Driver/Src/stm32f4xx_hal_adc_ex.cpp ****   }
 943:Drivers/STM32F4xx_HAL_Driver/Src/stm32f4xx_hal_adc_ex.cpp **** 
 944:Drivers/STM32F4xx_HAL_Driver/Src/stm32f4xx_hal_adc_ex.cpp ****   /* Pointer to the common control register to which is belonging hadc    */
 945:Drivers/STM32F4xx_HAL_Driver/Src/stm32f4xx_hal_adc_ex.cpp ****   /* (Depending on STM32F4 product, there may be up to 3 ADC and 1 common */
 946:Drivers/STM32F4xx_HAL_Driver/Src/stm32f4xx_hal_adc_ex.cpp ****   /* control register)                                                    */
 947:Drivers/STM32F4xx_HAL_Driver/Src/stm32f4xx_hal_adc_ex.cpp ****     tmpADC_Common = ADC_COMMON_REGISTER(hadc);
 948:Drivers/STM32F4xx_HAL_Driver/Src/stm32f4xx_hal_adc_ex.cpp **** 
 949:Drivers/STM32F4xx_HAL_Driver/Src/stm32f4xx_hal_adc_ex.cpp ****   /* if ADC1 Channel_18 is selected enable VBAT Channel */
 950:Drivers/STM32F4xx_HAL_Driver/Src/stm32f4xx_hal_adc_ex.cpp ****   if ((hadc->Instance == ADC1) && (sConfigInjected->InjectedChannel == ADC_CHANNEL_VBAT))
 951:Drivers/STM32F4xx_HAL_Driver/Src/stm32f4xx_hal_adc_ex.cpp ****   {
 952:Drivers/STM32F4xx_HAL_Driver/Src/stm32f4xx_hal_adc_ex.cpp ****     /* Enable the VBAT channel*/
 953:Drivers/STM32F4xx_HAL_Driver/Src/stm32f4xx_hal_adc_ex.cpp ****     tmpADC_Common->CCR |= ADC_CCR_VBATE;
 954:Drivers/STM32F4xx_HAL_Driver/Src/stm32f4xx_hal_adc_ex.cpp ****   }
 955:Drivers/STM32F4xx_HAL_Driver/Src/stm32f4xx_hal_adc_ex.cpp ****   
 956:Drivers/STM32F4xx_HAL_Driver/Src/stm32f4xx_hal_adc_ex.cpp ****   /* if ADC1 Channel_16 or Channel_17 is selected enable TSVREFE Channel(Temperature sensor and VRE
 957:Drivers/STM32F4xx_HAL_Driver/Src/stm32f4xx_hal_adc_ex.cpp ****   if ((hadc->Instance == ADC1) && ((sConfigInjected->InjectedChannel == ADC_CHANNEL_TEMPSENSOR) || 
 958:Drivers/STM32F4xx_HAL_Driver/Src/stm32f4xx_hal_adc_ex.cpp ****   {
 959:Drivers/STM32F4xx_HAL_Driver/Src/stm32f4xx_hal_adc_ex.cpp ****     /* Enable the TSVREFE channel*/
 960:Drivers/STM32F4xx_HAL_Driver/Src/stm32f4xx_hal_adc_ex.cpp ****     tmpADC_Common->CCR |= ADC_CCR_TSVREFE;
 961:Drivers/STM32F4xx_HAL_Driver/Src/stm32f4xx_hal_adc_ex.cpp ****   }
 962:Drivers/STM32F4xx_HAL_Driver/Src/stm32f4xx_hal_adc_ex.cpp ****   
 963:Drivers/STM32F4xx_HAL_Driver/Src/stm32f4xx_hal_adc_ex.cpp ****   /* Process unlocked */
 964:Drivers/STM32F4xx_HAL_Driver/Src/stm32f4xx_hal_adc_ex.cpp ****   __HAL_UNLOCK(hadc);
 965:Drivers/STM32F4xx_HAL_Driver/Src/stm32f4xx_hal_adc_ex.cpp ****   
 966:Drivers/STM32F4xx_HAL_Driver/Src/stm32f4xx_hal_adc_ex.cpp ****   /* Return function status */
 967:Drivers/STM32F4xx_HAL_Driver/Src/stm32f4xx_hal_adc_ex.cpp ****   return HAL_OK;
 968:Drivers/STM32F4xx_HAL_Driver/Src/stm32f4xx_hal_adc_ex.cpp **** }
 969:Drivers/STM32F4xx_HAL_Driver/Src/stm32f4xx_hal_adc_ex.cpp **** 
 970:Drivers/STM32F4xx_HAL_Driver/Src/stm32f4xx_hal_adc_ex.cpp **** /**
 971:Drivers/STM32F4xx_HAL_Driver/Src/stm32f4xx_hal_adc_ex.cpp ****   * @brief  Configures the ADC multi-mode 
 972:Drivers/STM32F4xx_HAL_Driver/Src/stm32f4xx_hal_adc_ex.cpp ****   * @param  hadc       pointer to a ADC_HandleTypeDef structure that contains
 973:Drivers/STM32F4xx_HAL_Driver/Src/stm32f4xx_hal_adc_ex.cpp ****   *                     the configuration information for the specified ADC.  
 974:Drivers/STM32F4xx_HAL_Driver/Src/stm32f4xx_hal_adc_ex.cpp ****   * @param  multimode  pointer to an ADC_MultiModeTypeDef structure that contains 
 975:Drivers/STM32F4xx_HAL_Driver/Src/stm32f4xx_hal_adc_ex.cpp ****   *                     the configuration information for  multimode.
 976:Drivers/STM32F4xx_HAL_Driver/Src/stm32f4xx_hal_adc_ex.cpp ****   * @retval HAL status
 977:Drivers/STM32F4xx_HAL_Driver/Src/stm32f4xx_hal_adc_ex.cpp ****   */
 978:Drivers/STM32F4xx_HAL_Driver/Src/stm32f4xx_hal_adc_ex.cpp **** HAL_StatusTypeDef HAL_ADCEx_MultiModeConfigChannel(ADC_HandleTypeDef* hadc, ADC_MultiModeTypeDef* m
 979:Drivers/STM32F4xx_HAL_Driver/Src/stm32f4xx_hal_adc_ex.cpp **** {
 980:Drivers/STM32F4xx_HAL_Driver/Src/stm32f4xx_hal_adc_ex.cpp **** 
 981:Drivers/STM32F4xx_HAL_Driver/Src/stm32f4xx_hal_adc_ex.cpp ****   ADC_Common_TypeDef *tmpADC_Common;
 982:Drivers/STM32F4xx_HAL_Driver/Src/stm32f4xx_hal_adc_ex.cpp **** 
 983:Drivers/STM32F4xx_HAL_Driver/Src/stm32f4xx_hal_adc_ex.cpp ****   /* Check the parameters */
 984:Drivers/STM32F4xx_HAL_Driver/Src/stm32f4xx_hal_adc_ex.cpp ****   assert_param(IS_ADC_MODE(multimode->Mode));
 985:Drivers/STM32F4xx_HAL_Driver/Src/stm32f4xx_hal_adc_ex.cpp ****   assert_param(IS_ADC_DMA_ACCESS_MODE(multimode->DMAAccessMode));
 986:Drivers/STM32F4xx_HAL_Driver/Src/stm32f4xx_hal_adc_ex.cpp ****   assert_param(IS_ADC_SAMPLING_DELAY(multimode->TwoSamplingDelay));
 987:Drivers/STM32F4xx_HAL_Driver/Src/stm32f4xx_hal_adc_ex.cpp ****   
 988:Drivers/STM32F4xx_HAL_Driver/Src/stm32f4xx_hal_adc_ex.cpp ****   /* Process locked */
 989:Drivers/STM32F4xx_HAL_Driver/Src/stm32f4xx_hal_adc_ex.cpp ****   __HAL_LOCK(hadc);
 990:Drivers/STM32F4xx_HAL_Driver/Src/stm32f4xx_hal_adc_ex.cpp **** 
 991:Drivers/STM32F4xx_HAL_Driver/Src/stm32f4xx_hal_adc_ex.cpp ****   /* Pointer to the common control register to which is belonging hadc    */
 992:Drivers/STM32F4xx_HAL_Driver/Src/stm32f4xx_hal_adc_ex.cpp ****   /* (Depending on STM32F4 product, there may be up to 3 ADC and 1 common */
 993:Drivers/STM32F4xx_HAL_Driver/Src/stm32f4xx_hal_adc_ex.cpp ****   /* control register)                                                    */
 994:Drivers/STM32F4xx_HAL_Driver/Src/stm32f4xx_hal_adc_ex.cpp ****   tmpADC_Common = ADC_COMMON_REGISTER(hadc);
 995:Drivers/STM32F4xx_HAL_Driver/Src/stm32f4xx_hal_adc_ex.cpp **** 
 996:Drivers/STM32F4xx_HAL_Driver/Src/stm32f4xx_hal_adc_ex.cpp ****   /* Set ADC mode */
 997:Drivers/STM32F4xx_HAL_Driver/Src/stm32f4xx_hal_adc_ex.cpp ****   tmpADC_Common->CCR &= ~(ADC_CCR_MULTI);
 998:Drivers/STM32F4xx_HAL_Driver/Src/stm32f4xx_hal_adc_ex.cpp ****   tmpADC_Common->CCR |= multimode->Mode;
ARM GAS  C:\Users\huawei\AppData\Local\Temp\cc1TIrE4.s 			page 19


 999:Drivers/STM32F4xx_HAL_Driver/Src/stm32f4xx_hal_adc_ex.cpp ****   
1000:Drivers/STM32F4xx_HAL_Driver/Src/stm32f4xx_hal_adc_ex.cpp ****   /* Set the ADC DMA access mode */
1001:Drivers/STM32F4xx_HAL_Driver/Src/stm32f4xx_hal_adc_ex.cpp ****   tmpADC_Common->CCR &= ~(ADC_CCR_DMA);
1002:Drivers/STM32F4xx_HAL_Driver/Src/stm32f4xx_hal_adc_ex.cpp ****   tmpADC_Common->CCR |= multimode->DMAAccessMode;
1003:Drivers/STM32F4xx_HAL_Driver/Src/stm32f4xx_hal_adc_ex.cpp ****   
1004:Drivers/STM32F4xx_HAL_Driver/Src/stm32f4xx_hal_adc_ex.cpp ****   /* Set delay between two sampling phases */
1005:Drivers/STM32F4xx_HAL_Driver/Src/stm32f4xx_hal_adc_ex.cpp ****   tmpADC_Common->CCR &= ~(ADC_CCR_DELAY);
1006:Drivers/STM32F4xx_HAL_Driver/Src/stm32f4xx_hal_adc_ex.cpp ****   tmpADC_Common->CCR |= multimode->TwoSamplingDelay;
1007:Drivers/STM32F4xx_HAL_Driver/Src/stm32f4xx_hal_adc_ex.cpp ****   
1008:Drivers/STM32F4xx_HAL_Driver/Src/stm32f4xx_hal_adc_ex.cpp ****   /* Process unlocked */
1009:Drivers/STM32F4xx_HAL_Driver/Src/stm32f4xx_hal_adc_ex.cpp ****   __HAL_UNLOCK(hadc);
1010:Drivers/STM32F4xx_HAL_Driver/Src/stm32f4xx_hal_adc_ex.cpp ****   
1011:Drivers/STM32F4xx_HAL_Driver/Src/stm32f4xx_hal_adc_ex.cpp ****   /* Return function status */
1012:Drivers/STM32F4xx_HAL_Driver/Src/stm32f4xx_hal_adc_ex.cpp ****   return HAL_OK;
1013:Drivers/STM32F4xx_HAL_Driver/Src/stm32f4xx_hal_adc_ex.cpp **** }
1014:Drivers/STM32F4xx_HAL_Driver/Src/stm32f4xx_hal_adc_ex.cpp **** 
1015:Drivers/STM32F4xx_HAL_Driver/Src/stm32f4xx_hal_adc_ex.cpp **** /**
1016:Drivers/STM32F4xx_HAL_Driver/Src/stm32f4xx_hal_adc_ex.cpp ****   * @}
1017:Drivers/STM32F4xx_HAL_Driver/Src/stm32f4xx_hal_adc_ex.cpp ****   */
1018:Drivers/STM32F4xx_HAL_Driver/Src/stm32f4xx_hal_adc_ex.cpp **** 
1019:Drivers/STM32F4xx_HAL_Driver/Src/stm32f4xx_hal_adc_ex.cpp **** /**
1020:Drivers/STM32F4xx_HAL_Driver/Src/stm32f4xx_hal_adc_ex.cpp ****   * @brief  DMA transfer complete callback. 
1021:Drivers/STM32F4xx_HAL_Driver/Src/stm32f4xx_hal_adc_ex.cpp ****   * @param  hdma pointer to a DMA_HandleTypeDef structure that contains
1022:Drivers/STM32F4xx_HAL_Driver/Src/stm32f4xx_hal_adc_ex.cpp ****   *                the configuration information for the specified DMA module.
1023:Drivers/STM32F4xx_HAL_Driver/Src/stm32f4xx_hal_adc_ex.cpp ****   * @retval None
1024:Drivers/STM32F4xx_HAL_Driver/Src/stm32f4xx_hal_adc_ex.cpp ****   */
1025:Drivers/STM32F4xx_HAL_Driver/Src/stm32f4xx_hal_adc_ex.cpp **** static void ADC_MultiModeDMAConvCplt(DMA_HandleTypeDef *hdma)   
1026:Drivers/STM32F4xx_HAL_Driver/Src/stm32f4xx_hal_adc_ex.cpp **** {
1027:Drivers/STM32F4xx_HAL_Driver/Src/stm32f4xx_hal_adc_ex.cpp ****   /* Retrieve ADC handle corresponding to current DMA handle */
1028:Drivers/STM32F4xx_HAL_Driver/Src/stm32f4xx_hal_adc_ex.cpp ****   ADC_HandleTypeDef* hadc = ( ADC_HandleTypeDef* )((DMA_HandleTypeDef* )hdma)->Parent;
1029:Drivers/STM32F4xx_HAL_Driver/Src/stm32f4xx_hal_adc_ex.cpp ****   
1030:Drivers/STM32F4xx_HAL_Driver/Src/stm32f4xx_hal_adc_ex.cpp ****   /* Update state machine on conversion status if not in error state */
1031:Drivers/STM32F4xx_HAL_Driver/Src/stm32f4xx_hal_adc_ex.cpp ****   if (HAL_IS_BIT_CLR(hadc->State, HAL_ADC_STATE_ERROR_INTERNAL | HAL_ADC_STATE_ERROR_DMA))
1032:Drivers/STM32F4xx_HAL_Driver/Src/stm32f4xx_hal_adc_ex.cpp ****   {
1033:Drivers/STM32F4xx_HAL_Driver/Src/stm32f4xx_hal_adc_ex.cpp ****     /* Update ADC state machine */
1034:Drivers/STM32F4xx_HAL_Driver/Src/stm32f4xx_hal_adc_ex.cpp ****     SET_BIT(hadc->State, HAL_ADC_STATE_REG_EOC);
1035:Drivers/STM32F4xx_HAL_Driver/Src/stm32f4xx_hal_adc_ex.cpp ****     
1036:Drivers/STM32F4xx_HAL_Driver/Src/stm32f4xx_hal_adc_ex.cpp ****     /* Determine whether any further conversion upcoming on group regular   */
1037:Drivers/STM32F4xx_HAL_Driver/Src/stm32f4xx_hal_adc_ex.cpp ****     /* by external trigger, continuous mode or scan sequence on going.      */
1038:Drivers/STM32F4xx_HAL_Driver/Src/stm32f4xx_hal_adc_ex.cpp ****     /* Note: On STM32F4, there is no independent flag of end of sequence.   */
1039:Drivers/STM32F4xx_HAL_Driver/Src/stm32f4xx_hal_adc_ex.cpp ****     /*       The test of scan sequence on going is done either with scan    */
1040:Drivers/STM32F4xx_HAL_Driver/Src/stm32f4xx_hal_adc_ex.cpp ****     /*       sequence disabled or with end of conversion flag set to        */
1041:Drivers/STM32F4xx_HAL_Driver/Src/stm32f4xx_hal_adc_ex.cpp ****     /*       of end of sequence.                                            */
1042:Drivers/STM32F4xx_HAL_Driver/Src/stm32f4xx_hal_adc_ex.cpp ****     if(ADC_IS_SOFTWARE_START_REGULAR(hadc)                   &&
1043:Drivers/STM32F4xx_HAL_Driver/Src/stm32f4xx_hal_adc_ex.cpp ****        (hadc->Init.ContinuousConvMode == DISABLE)            &&
1044:Drivers/STM32F4xx_HAL_Driver/Src/stm32f4xx_hal_adc_ex.cpp ****        (HAL_IS_BIT_CLR(hadc->Instance->SQR1, ADC_SQR1_L) || 
1045:Drivers/STM32F4xx_HAL_Driver/Src/stm32f4xx_hal_adc_ex.cpp ****         HAL_IS_BIT_CLR(hadc->Instance->CR2, ADC_CR2_EOCS)  )   )
1046:Drivers/STM32F4xx_HAL_Driver/Src/stm32f4xx_hal_adc_ex.cpp ****     {
1047:Drivers/STM32F4xx_HAL_Driver/Src/stm32f4xx_hal_adc_ex.cpp ****       /* Disable ADC end of single conversion interrupt on group regular */
1048:Drivers/STM32F4xx_HAL_Driver/Src/stm32f4xx_hal_adc_ex.cpp ****       /* Note: Overrun interrupt was enabled with EOC interrupt in          */
1049:Drivers/STM32F4xx_HAL_Driver/Src/stm32f4xx_hal_adc_ex.cpp ****       /* HAL_ADC_Start_IT(), but is not disabled here because can be used   */
1050:Drivers/STM32F4xx_HAL_Driver/Src/stm32f4xx_hal_adc_ex.cpp ****       /* by overrun IRQ process below.                                      */
1051:Drivers/STM32F4xx_HAL_Driver/Src/stm32f4xx_hal_adc_ex.cpp ****       __HAL_ADC_DISABLE_IT(hadc, ADC_IT_EOC);
1052:Drivers/STM32F4xx_HAL_Driver/Src/stm32f4xx_hal_adc_ex.cpp ****       
1053:Drivers/STM32F4xx_HAL_Driver/Src/stm32f4xx_hal_adc_ex.cpp ****       /* Set ADC state */
1054:Drivers/STM32F4xx_HAL_Driver/Src/stm32f4xx_hal_adc_ex.cpp ****       CLEAR_BIT(hadc->State, HAL_ADC_STATE_REG_BUSY);   
1055:Drivers/STM32F4xx_HAL_Driver/Src/stm32f4xx_hal_adc_ex.cpp ****       
ARM GAS  C:\Users\huawei\AppData\Local\Temp\cc1TIrE4.s 			page 20


1056:Drivers/STM32F4xx_HAL_Driver/Src/stm32f4xx_hal_adc_ex.cpp ****       if (HAL_IS_BIT_CLR(hadc->State, HAL_ADC_STATE_INJ_BUSY))
1057:Drivers/STM32F4xx_HAL_Driver/Src/stm32f4xx_hal_adc_ex.cpp ****       {
1058:Drivers/STM32F4xx_HAL_Driver/Src/stm32f4xx_hal_adc_ex.cpp ****         SET_BIT(hadc->State, HAL_ADC_STATE_READY);
1059:Drivers/STM32F4xx_HAL_Driver/Src/stm32f4xx_hal_adc_ex.cpp ****       }
1060:Drivers/STM32F4xx_HAL_Driver/Src/stm32f4xx_hal_adc_ex.cpp ****     }
1061:Drivers/STM32F4xx_HAL_Driver/Src/stm32f4xx_hal_adc_ex.cpp ****     
1062:Drivers/STM32F4xx_HAL_Driver/Src/stm32f4xx_hal_adc_ex.cpp ****     /* Conversion complete callback */
1063:Drivers/STM32F4xx_HAL_Driver/Src/stm32f4xx_hal_adc_ex.cpp ****     HAL_ADC_ConvCpltCallback(hadc);
1064:Drivers/STM32F4xx_HAL_Driver/Src/stm32f4xx_hal_adc_ex.cpp ****   }
1065:Drivers/STM32F4xx_HAL_Driver/Src/stm32f4xx_hal_adc_ex.cpp ****   else
1066:Drivers/STM32F4xx_HAL_Driver/Src/stm32f4xx_hal_adc_ex.cpp ****   {
1067:Drivers/STM32F4xx_HAL_Driver/Src/stm32f4xx_hal_adc_ex.cpp ****     /* Call DMA error callback */
1068:Drivers/STM32F4xx_HAL_Driver/Src/stm32f4xx_hal_adc_ex.cpp ****     hadc->DMA_Handle->XferErrorCallback(hdma);
1069:Drivers/STM32F4xx_HAL_Driver/Src/stm32f4xx_hal_adc_ex.cpp ****   }
1070:Drivers/STM32F4xx_HAL_Driver/Src/stm32f4xx_hal_adc_ex.cpp **** }
1071:Drivers/STM32F4xx_HAL_Driver/Src/stm32f4xx_hal_adc_ex.cpp **** 
1072:Drivers/STM32F4xx_HAL_Driver/Src/stm32f4xx_hal_adc_ex.cpp **** /**
1073:Drivers/STM32F4xx_HAL_Driver/Src/stm32f4xx_hal_adc_ex.cpp ****   * @brief  DMA half transfer complete callback. 
1074:Drivers/STM32F4xx_HAL_Driver/Src/stm32f4xx_hal_adc_ex.cpp ****   * @param  hdma pointer to a DMA_HandleTypeDef structure that contains
1075:Drivers/STM32F4xx_HAL_Driver/Src/stm32f4xx_hal_adc_ex.cpp ****   *                the configuration information for the specified DMA module.
1076:Drivers/STM32F4xx_HAL_Driver/Src/stm32f4xx_hal_adc_ex.cpp ****   * @retval None
1077:Drivers/STM32F4xx_HAL_Driver/Src/stm32f4xx_hal_adc_ex.cpp ****   */
1078:Drivers/STM32F4xx_HAL_Driver/Src/stm32f4xx_hal_adc_ex.cpp **** static void ADC_MultiModeDMAHalfConvCplt(DMA_HandleTypeDef *hdma)   
1079:Drivers/STM32F4xx_HAL_Driver/Src/stm32f4xx_hal_adc_ex.cpp **** {
1080:Drivers/STM32F4xx_HAL_Driver/Src/stm32f4xx_hal_adc_ex.cpp ****     ADC_HandleTypeDef* hadc = ( ADC_HandleTypeDef* )((DMA_HandleTypeDef* )hdma)->Parent;
1081:Drivers/STM32F4xx_HAL_Driver/Src/stm32f4xx_hal_adc_ex.cpp ****     /* Conversion complete callback */
1082:Drivers/STM32F4xx_HAL_Driver/Src/stm32f4xx_hal_adc_ex.cpp ****     HAL_ADC_ConvHalfCpltCallback(hadc); 
1083:Drivers/STM32F4xx_HAL_Driver/Src/stm32f4xx_hal_adc_ex.cpp **** }
1084:Drivers/STM32F4xx_HAL_Driver/Src/stm32f4xx_hal_adc_ex.cpp **** 
1085:Drivers/STM32F4xx_HAL_Driver/Src/stm32f4xx_hal_adc_ex.cpp **** /**
1086:Drivers/STM32F4xx_HAL_Driver/Src/stm32f4xx_hal_adc_ex.cpp ****   * @brief  DMA error callback 
1087:Drivers/STM32F4xx_HAL_Driver/Src/stm32f4xx_hal_adc_ex.cpp ****   * @param  hdma pointer to a DMA_HandleTypeDef structure that contains
1088:Drivers/STM32F4xx_HAL_Driver/Src/stm32f4xx_hal_adc_ex.cpp ****   *                the configuration information for the specified DMA module.
1089:Drivers/STM32F4xx_HAL_Driver/Src/stm32f4xx_hal_adc_ex.cpp ****   * @retval None
1090:Drivers/STM32F4xx_HAL_Driver/Src/stm32f4xx_hal_adc_ex.cpp ****   */
1091:Drivers/STM32F4xx_HAL_Driver/Src/stm32f4xx_hal_adc_ex.cpp **** static void ADC_MultiModeDMAError(DMA_HandleTypeDef *hdma)   
1092:Drivers/STM32F4xx_HAL_Driver/Src/stm32f4xx_hal_adc_ex.cpp **** {
  30              		.loc 1 1092 1 view -0
  31              		.cfi_startproc
  32              		@ args = 0, pretend = 0, frame = 0
  33              		@ frame_needed = 0, uses_anonymous_args = 0
  34              		.loc 1 1092 1 is_stmt 0 view .LVU1
  35 0000 08B5     		push	{r3, lr}
  36              		.save {r3, lr}
  37              	.LCFI0:
  38              		.cfi_def_cfa_offset 8
  39              		.cfi_offset 3, -8
  40              		.cfi_offset 14, -4
1093:Drivers/STM32F4xx_HAL_Driver/Src/stm32f4xx_hal_adc_ex.cpp ****     ADC_HandleTypeDef* hadc = ( ADC_HandleTypeDef* )((DMA_HandleTypeDef* )hdma)->Parent;
  41              		.loc 1 1093 5 is_stmt 1 view .LVU2
  42              		.loc 1 1093 24 is_stmt 0 view .LVU3
  43 0002 806B     		ldr	r0, [r0, #56]
  44              	.LVL1:
1094:Drivers/STM32F4xx_HAL_Driver/Src/stm32f4xx_hal_adc_ex.cpp ****     hadc->State= HAL_ADC_STATE_ERROR_DMA;
  45              		.loc 1 1094 5 is_stmt 1 view .LVU4
  46              		.loc 1 1094 16 is_stmt 0 view .LVU5
  47 0004 4023     		movs	r3, #64
ARM GAS  C:\Users\huawei\AppData\Local\Temp\cc1TIrE4.s 			page 21


  48 0006 0364     		str	r3, [r0, #64]
1095:Drivers/STM32F4xx_HAL_Driver/Src/stm32f4xx_hal_adc_ex.cpp ****     /* Set ADC error code to DMA error */
1096:Drivers/STM32F4xx_HAL_Driver/Src/stm32f4xx_hal_adc_ex.cpp ****     hadc->ErrorCode |= HAL_ADC_ERROR_DMA;
  49              		.loc 1 1096 5 is_stmt 1 view .LVU6
  50              		.loc 1 1096 11 is_stmt 0 view .LVU7
  51 0008 436C     		ldr	r3, [r0, #68]
  52              		.loc 1 1096 21 view .LVU8
  53 000a 43F00403 		orr	r3, r3, #4
  54 000e 4364     		str	r3, [r0, #68]
1097:Drivers/STM32F4xx_HAL_Driver/Src/stm32f4xx_hal_adc_ex.cpp ****     HAL_ADC_ErrorCallback(hadc); 
  55              		.loc 1 1097 5 is_stmt 1 view .LVU9
  56              		.loc 1 1097 26 is_stmt 0 view .LVU10
  57 0010 FFF7FEFF 		bl	HAL_ADC_ErrorCallback
  58              	.LVL2:
1098:Drivers/STM32F4xx_HAL_Driver/Src/stm32f4xx_hal_adc_ex.cpp **** }
  59              		.loc 1 1098 1 view .LVU11
  60 0014 08BD     		pop	{r3, pc}
  61              		.cfi_endproc
  62              	.LFE249:
  63              		.fnend
  65              		.section	.text._ZL28ADC_MultiModeDMAHalfConvCpltP19__DMA_HandleTypeDef,"ax",%progbits
  66              		.align	1
  67              		.syntax unified
  68              		.thumb
  69              		.thumb_func
  71              	_ZL28ADC_MultiModeDMAHalfConvCpltP19__DMA_HandleTypeDef:
  72              		.fnstart
  73              	.LVL3:
  74              	.LFB248:
1079:Drivers/STM32F4xx_HAL_Driver/Src/stm32f4xx_hal_adc_ex.cpp ****     ADC_HandleTypeDef* hadc = ( ADC_HandleTypeDef* )((DMA_HandleTypeDef* )hdma)->Parent;
  75              		.loc 1 1079 1 is_stmt 1 view -0
  76              		.cfi_startproc
  77              		@ args = 0, pretend = 0, frame = 0
  78              		@ frame_needed = 0, uses_anonymous_args = 0
1079:Drivers/STM32F4xx_HAL_Driver/Src/stm32f4xx_hal_adc_ex.cpp ****     ADC_HandleTypeDef* hadc = ( ADC_HandleTypeDef* )((DMA_HandleTypeDef* )hdma)->Parent;
  79              		.loc 1 1079 1 is_stmt 0 view .LVU13
  80 0000 08B5     		push	{r3, lr}
  81              		.save {r3, lr}
  82              	.LCFI1:
  83              		.cfi_def_cfa_offset 8
  84              		.cfi_offset 3, -8
  85              		.cfi_offset 14, -4
1080:Drivers/STM32F4xx_HAL_Driver/Src/stm32f4xx_hal_adc_ex.cpp ****     /* Conversion complete callback */
  86              		.loc 1 1080 5 is_stmt 1 view .LVU14
  87              	.LVL4:
1082:Drivers/STM32F4xx_HAL_Driver/Src/stm32f4xx_hal_adc_ex.cpp **** }
  88              		.loc 1 1082 5 view .LVU15
1082:Drivers/STM32F4xx_HAL_Driver/Src/stm32f4xx_hal_adc_ex.cpp **** }
  89              		.loc 1 1082 33 is_stmt 0 view .LVU16
  90 0002 806B     		ldr	r0, [r0, #56]
  91              	.LVL5:
1082:Drivers/STM32F4xx_HAL_Driver/Src/stm32f4xx_hal_adc_ex.cpp **** }
  92              		.loc 1 1082 33 view .LVU17
  93 0004 FFF7FEFF 		bl	HAL_ADC_ConvHalfCpltCallback
  94              	.LVL6:
1083:Drivers/STM32F4xx_HAL_Driver/Src/stm32f4xx_hal_adc_ex.cpp **** 
  95              		.loc 1 1083 1 view .LVU18
ARM GAS  C:\Users\huawei\AppData\Local\Temp\cc1TIrE4.s 			page 22


  96 0008 08BD     		pop	{r3, pc}
  97              		.cfi_endproc
  98              	.LFE248:
  99              		.fnend
 101              		.section	.text._ZL24ADC_MultiModeDMAConvCpltP19__DMA_HandleTypeDef,"ax",%progbits
 102              		.align	1
 103              		.syntax unified
 104              		.thumb
 105              		.thumb_func
 107              	_ZL24ADC_MultiModeDMAConvCpltP19__DMA_HandleTypeDef:
 108              		.fnstart
 109              	.LVL7:
 110              	.LFB247:
1026:Drivers/STM32F4xx_HAL_Driver/Src/stm32f4xx_hal_adc_ex.cpp ****   /* Retrieve ADC handle corresponding to current DMA handle */
 111              		.loc 1 1026 1 is_stmt 1 view -0
 112              		.cfi_startproc
 113              		@ args = 0, pretend = 0, frame = 0
 114              		@ frame_needed = 0, uses_anonymous_args = 0
1026:Drivers/STM32F4xx_HAL_Driver/Src/stm32f4xx_hal_adc_ex.cpp ****   /* Retrieve ADC handle corresponding to current DMA handle */
 115              		.loc 1 1026 1 is_stmt 0 view .LVU20
 116 0000 08B5     		push	{r3, lr}
 117              		.save {r3, lr}
 118              	.LCFI2:
 119              		.cfi_def_cfa_offset 8
 120              		.cfi_offset 3, -8
 121              		.cfi_offset 14, -4
1028:Drivers/STM32F4xx_HAL_Driver/Src/stm32f4xx_hal_adc_ex.cpp ****   
 122              		.loc 1 1028 3 is_stmt 1 view .LVU21
1028:Drivers/STM32F4xx_HAL_Driver/Src/stm32f4xx_hal_adc_ex.cpp ****   
 123              		.loc 1 1028 22 is_stmt 0 view .LVU22
 124 0002 836B     		ldr	r3, [r0, #56]
 125              	.LVL8:
1031:Drivers/STM32F4xx_HAL_Driver/Src/stm32f4xx_hal_adc_ex.cpp ****   {
 126              		.loc 1 1031 3 is_stmt 1 view .LVU23
1031:Drivers/STM32F4xx_HAL_Driver/Src/stm32f4xx_hal_adc_ex.cpp ****   {
 127              		.loc 1 1031 7 is_stmt 0 view .LVU24
 128 0004 1A6C     		ldr	r2, [r3, #64]
1031:Drivers/STM32F4xx_HAL_Driver/Src/stm32f4xx_hal_adc_ex.cpp ****   {
 129              		.loc 1 1031 3 view .LVU25
 130 0006 12F0500F 		tst	r2, #80
 131 000a 26D1     		bne	.L6
1034:Drivers/STM32F4xx_HAL_Driver/Src/stm32f4xx_hal_adc_ex.cpp ****     
 132              		.loc 1 1034 5 is_stmt 1 view .LVU26
 133 000c 1A6C     		ldr	r2, [r3, #64]
 134 000e 42F40072 		orr	r2, r2, #512
 135 0012 1A64     		str	r2, [r3, #64]
1042:Drivers/STM32F4xx_HAL_Driver/Src/stm32f4xx_hal_adc_ex.cpp ****        (hadc->Init.ContinuousConvMode == DISABLE)            &&
 136              		.loc 1 1042 5 view .LVU27
1042:Drivers/STM32F4xx_HAL_Driver/Src/stm32f4xx_hal_adc_ex.cpp ****        (hadc->Init.ContinuousConvMode == DISABLE)            &&
 137              		.loc 1 1042 8 is_stmt 0 view .LVU28
 138 0014 1A68     		ldr	r2, [r3]
 139 0016 9168     		ldr	r1, [r2, #8]
1043:Drivers/STM32F4xx_HAL_Driver/Src/stm32f4xx_hal_adc_ex.cpp ****        (HAL_IS_BIT_CLR(hadc->Instance->SQR1, ADC_SQR1_L) || 
 140              		.loc 1 1043 62 view .LVU29
 141 0018 11F0405F 		tst	r1, #805306368
 142 001c 19D1     		bne	.L7
1043:Drivers/STM32F4xx_HAL_Driver/Src/stm32f4xx_hal_adc_ex.cpp ****        (HAL_IS_BIT_CLR(hadc->Instance->SQR1, ADC_SQR1_L) || 
ARM GAS  C:\Users\huawei\AppData\Local\Temp\cc1TIrE4.s 			page 23


 143              		.loc 1 1043 20 discriminator 1 view .LVU30
 144 001e 197E     		ldrb	r1, [r3, #24]	@ zero_extendqisi2
1042:Drivers/STM32F4xx_HAL_Driver/Src/stm32f4xx_hal_adc_ex.cpp ****        (hadc->Init.ContinuousConvMode == DISABLE)            &&
 145              		.loc 1 1042 62 discriminator 1 view .LVU31
 146 0020 B9B9     		cbnz	r1, .L7
1044:Drivers/STM32F4xx_HAL_Driver/Src/stm32f4xx_hal_adc_ex.cpp ****         HAL_IS_BIT_CLR(hadc->Instance->CR2, ADC_CR2_EOCS)  )   )
 147              		.loc 1 1044 9 view .LVU32
 148 0022 D16A     		ldr	r1, [r2, #44]
1043:Drivers/STM32F4xx_HAL_Driver/Src/stm32f4xx_hal_adc_ex.cpp ****        (HAL_IS_BIT_CLR(hadc->Instance->SQR1, ADC_SQR1_L) || 
 149              		.loc 1 1043 62 view .LVU33
 150 0024 11F4700F 		tst	r1, #15728640
 151 0028 03D0     		beq	.L8
1045:Drivers/STM32F4xx_HAL_Driver/Src/stm32f4xx_hal_adc_ex.cpp ****     {
 152              		.loc 1 1045 9 view .LVU34
 153 002a 9168     		ldr	r1, [r2, #8]
1044:Drivers/STM32F4xx_HAL_Driver/Src/stm32f4xx_hal_adc_ex.cpp ****         HAL_IS_BIT_CLR(hadc->Instance->CR2, ADC_CR2_EOCS)  )   )
 154              		.loc 1 1044 58 view .LVU35
 155 002c 11F4806F 		tst	r1, #1024
 156 0030 0FD1     		bne	.L7
 157              	.L8:
1051:Drivers/STM32F4xx_HAL_Driver/Src/stm32f4xx_hal_adc_ex.cpp ****       
 158              		.loc 1 1051 7 is_stmt 1 view .LVU36
 159 0032 5168     		ldr	r1, [r2, #4]
 160 0034 21F02001 		bic	r1, r1, #32
 161 0038 5160     		str	r1, [r2, #4]
1054:Drivers/STM32F4xx_HAL_Driver/Src/stm32f4xx_hal_adc_ex.cpp ****       
 162              		.loc 1 1054 7 view .LVU37
 163 003a 1A6C     		ldr	r2, [r3, #64]
 164 003c 22F48072 		bic	r2, r2, #256
 165 0040 1A64     		str	r2, [r3, #64]
1056:Drivers/STM32F4xx_HAL_Driver/Src/stm32f4xx_hal_adc_ex.cpp ****       {
 166              		.loc 1 1056 7 view .LVU38
1056:Drivers/STM32F4xx_HAL_Driver/Src/stm32f4xx_hal_adc_ex.cpp ****       {
 167              		.loc 1 1056 11 is_stmt 0 view .LVU39
 168 0042 1A6C     		ldr	r2, [r3, #64]
1056:Drivers/STM32F4xx_HAL_Driver/Src/stm32f4xx_hal_adc_ex.cpp ****       {
 169              		.loc 1 1056 7 view .LVU40
 170 0044 12F4805F 		tst	r2, #4096
 171 0048 03D1     		bne	.L7
1058:Drivers/STM32F4xx_HAL_Driver/Src/stm32f4xx_hal_adc_ex.cpp ****       }
 172              		.loc 1 1058 9 is_stmt 1 view .LVU41
 173 004a 1A6C     		ldr	r2, [r3, #64]
 174 004c 42F00102 		orr	r2, r2, #1
 175 0050 1A64     		str	r2, [r3, #64]
 176              	.L7:
1063:Drivers/STM32F4xx_HAL_Driver/Src/stm32f4xx_hal_adc_ex.cpp ****   }
 177              		.loc 1 1063 5 view .LVU42
1063:Drivers/STM32F4xx_HAL_Driver/Src/stm32f4xx_hal_adc_ex.cpp ****   }
 178              		.loc 1 1063 29 is_stmt 0 view .LVU43
 179 0052 1846     		mov	r0, r3
 180              	.LVL9:
1063:Drivers/STM32F4xx_HAL_Driver/Src/stm32f4xx_hal_adc_ex.cpp ****   }
 181              		.loc 1 1063 29 view .LVU44
 182 0054 FFF7FEFF 		bl	HAL_ADC_ConvCpltCallback
 183              	.LVL10:
 184              	.L5:
1070:Drivers/STM32F4xx_HAL_Driver/Src/stm32f4xx_hal_adc_ex.cpp **** 
ARM GAS  C:\Users\huawei\AppData\Local\Temp\cc1TIrE4.s 			page 24


 185              		.loc 1 1070 1 view .LVU45
 186 0058 08BD     		pop	{r3, pc}
 187              	.LVL11:
 188              	.L6:
1068:Drivers/STM32F4xx_HAL_Driver/Src/stm32f4xx_hal_adc_ex.cpp ****   }
 189              		.loc 1 1068 5 is_stmt 1 view .LVU46
1068:Drivers/STM32F4xx_HAL_Driver/Src/stm32f4xx_hal_adc_ex.cpp ****   }
 190              		.loc 1 1068 11 is_stmt 0 view .LVU47
 191 005a 9B6B     		ldr	r3, [r3, #56]
 192              	.LVL12:
1068:Drivers/STM32F4xx_HAL_Driver/Src/stm32f4xx_hal_adc_ex.cpp ****   }
 193              		.loc 1 1068 23 view .LVU48
 194 005c DB6C     		ldr	r3, [r3, #76]
1068:Drivers/STM32F4xx_HAL_Driver/Src/stm32f4xx_hal_adc_ex.cpp ****   }
 195              		.loc 1 1068 40 view .LVU49
 196 005e 9847     		blx	r3
 197              	.LVL13:
1070:Drivers/STM32F4xx_HAL_Driver/Src/stm32f4xx_hal_adc_ex.cpp **** 
 198              		.loc 1 1070 1 view .LVU50
 199 0060 FAE7     		b	.L5
 200              		.cfi_endproc
 201              	.LFE247:
 202              		.fnend
 204              		.section	.text.HAL_ADCEx_InjectedStart,"ax",%progbits
 205              		.align	1
 206              		.global	HAL_ADCEx_InjectedStart
 207              		.syntax unified
 208              		.thumb
 209              		.thumb_func
 211              	HAL_ADCEx_InjectedStart:
 212              		.fnstart
 213              	.LVL14:
 214              	.LFB235:
 147:Drivers/STM32F4xx_HAL_Driver/Src/stm32f4xx_hal_adc_ex.cpp ****   __IO uint32_t counter = 0U;
 215              		.loc 1 147 1 is_stmt 1 view -0
 216              		.cfi_startproc
 217              		@ args = 0, pretend = 0, frame = 8
 218              		@ frame_needed = 0, uses_anonymous_args = 0
 219              		@ link register save eliminated.
 147:Drivers/STM32F4xx_HAL_Driver/Src/stm32f4xx_hal_adc_ex.cpp ****   __IO uint32_t counter = 0U;
 220              		.loc 1 147 1 is_stmt 0 view .LVU52
 221 0000 82B0     		sub	sp, sp, #8
 222              	.LCFI3:
 223              		.cfi_def_cfa_offset 8
 148:Drivers/STM32F4xx_HAL_Driver/Src/stm32f4xx_hal_adc_ex.cpp ****   uint32_t tmp1 = 0U, tmp2 = 0U;
 224              		.loc 1 148 3 is_stmt 1 view .LVU53
 148:Drivers/STM32F4xx_HAL_Driver/Src/stm32f4xx_hal_adc_ex.cpp ****   uint32_t tmp1 = 0U, tmp2 = 0U;
 225              		.loc 1 148 17 is_stmt 0 view .LVU54
 226 0002 0023     		movs	r3, #0
 227 0004 0193     		str	r3, [sp, #4]
 149:Drivers/STM32F4xx_HAL_Driver/Src/stm32f4xx_hal_adc_ex.cpp ****   ADC_Common_TypeDef *tmpADC_Common;
 228              		.loc 1 149 3 is_stmt 1 view .LVU55
 229              	.LVL15:
 150:Drivers/STM32F4xx_HAL_Driver/Src/stm32f4xx_hal_adc_ex.cpp ****   
 230              		.loc 1 150 3 view .LVU56
 153:Drivers/STM32F4xx_HAL_Driver/Src/stm32f4xx_hal_adc_ex.cpp ****   
 231              		.loc 1 153 3 view .LVU57
ARM GAS  C:\Users\huawei\AppData\Local\Temp\cc1TIrE4.s 			page 25


 153:Drivers/STM32F4xx_HAL_Driver/Src/stm32f4xx_hal_adc_ex.cpp ****   
 232              		.loc 1 153 3 view .LVU58
 233 0006 90F83C30 		ldrb	r3, [r0, #60]	@ zero_extendqisi2
 234 000a 012B     		cmp	r3, #1
 235 000c 67D0     		beq	.L19
 153:Drivers/STM32F4xx_HAL_Driver/Src/stm32f4xx_hal_adc_ex.cpp ****   
 236              		.loc 1 153 3 discriminator 2 view .LVU59
 237 000e 0123     		movs	r3, #1
 238 0010 80F83C30 		strb	r3, [r0, #60]
 153:Drivers/STM32F4xx_HAL_Driver/Src/stm32f4xx_hal_adc_ex.cpp ****   
 239              		.loc 1 153 3 discriminator 2 view .LVU60
 159:Drivers/STM32F4xx_HAL_Driver/Src/stm32f4xx_hal_adc_ex.cpp ****   {  
 240              		.loc 1 159 3 discriminator 2 view .LVU61
 159:Drivers/STM32F4xx_HAL_Driver/Src/stm32f4xx_hal_adc_ex.cpp ****   {  
 241              		.loc 1 159 13 is_stmt 0 discriminator 2 view .LVU62
 242 0014 0368     		ldr	r3, [r0]
 159:Drivers/STM32F4xx_HAL_Driver/Src/stm32f4xx_hal_adc_ex.cpp ****   {  
 243              		.loc 1 159 23 discriminator 2 view .LVU63
 244 0016 9A68     		ldr	r2, [r3, #8]
 159:Drivers/STM32F4xx_HAL_Driver/Src/stm32f4xx_hal_adc_ex.cpp ****   {  
 245              		.loc 1 159 3 discriminator 2 view .LVU64
 246 0018 12F0010F 		tst	r2, #1
 247 001c 13D1     		bne	.L13
 162:Drivers/STM32F4xx_HAL_Driver/Src/stm32f4xx_hal_adc_ex.cpp ****     
 248              		.loc 1 162 5 is_stmt 1 view .LVU65
 249 001e 9A68     		ldr	r2, [r3, #8]
 250 0020 42F00102 		orr	r2, r2, #1
 251 0024 9A60     		str	r2, [r3, #8]
 166:Drivers/STM32F4xx_HAL_Driver/Src/stm32f4xx_hal_adc_ex.cpp ****     while(counter != 0U)
 252              		.loc 1 166 5 view .LVU66
 166:Drivers/STM32F4xx_HAL_Driver/Src/stm32f4xx_hal_adc_ex.cpp ****     while(counter != 0U)
 253              		.loc 1 166 53 is_stmt 0 view .LVU67
 254 0026 334B     		ldr	r3, .L27
 255 0028 1B68     		ldr	r3, [r3]
 256 002a 334A     		ldr	r2, .L27+4
 257 002c A2FB0323 		umull	r2, r3, r2, r3
 258 0030 9B0C     		lsrs	r3, r3, #18
 166:Drivers/STM32F4xx_HAL_Driver/Src/stm32f4xx_hal_adc_ex.cpp ****     while(counter != 0U)
 259              		.loc 1 166 34 view .LVU68
 260 0032 03EB4303 		add	r3, r3, r3, lsl #1
 166:Drivers/STM32F4xx_HAL_Driver/Src/stm32f4xx_hal_adc_ex.cpp ****     while(counter != 0U)
 261              		.loc 1 166 13 view .LVU69
 262 0036 0193     		str	r3, [sp, #4]
 167:Drivers/STM32F4xx_HAL_Driver/Src/stm32f4xx_hal_adc_ex.cpp ****     {
 263              		.loc 1 167 5 is_stmt 1 view .LVU70
 264 0038 02E0     		b	.L14
 265              	.L15:
 169:Drivers/STM32F4xx_HAL_Driver/Src/stm32f4xx_hal_adc_ex.cpp ****     }
 266              		.loc 1 169 7 view .LVU71
 169:Drivers/STM32F4xx_HAL_Driver/Src/stm32f4xx_hal_adc_ex.cpp ****     }
 267              		.loc 1 169 14 is_stmt 0 view .LVU72
 268 003a 019B     		ldr	r3, [sp, #4]
 269 003c 013B     		subs	r3, r3, #1
 270 003e 0193     		str	r3, [sp, #4]
 271              	.L14:
 167:Drivers/STM32F4xx_HAL_Driver/Src/stm32f4xx_hal_adc_ex.cpp ****     {
 272              		.loc 1 167 19 is_stmt 1 view .LVU73
ARM GAS  C:\Users\huawei\AppData\Local\Temp\cc1TIrE4.s 			page 26


 273 0040 019B     		ldr	r3, [sp, #4]
 274 0042 002B     		cmp	r3, #0
 275 0044 F9D1     		bne	.L15
 276              	.L13:
 174:Drivers/STM32F4xx_HAL_Driver/Src/stm32f4xx_hal_adc_ex.cpp ****   {
 277              		.loc 1 174 3 view .LVU74
 174:Drivers/STM32F4xx_HAL_Driver/Src/stm32f4xx_hal_adc_ex.cpp ****   {
 278              		.loc 1 174 6 is_stmt 0 view .LVU75
 279 0046 0268     		ldr	r2, [r0]
 280 0048 9368     		ldr	r3, [r2, #8]
 174:Drivers/STM32F4xx_HAL_Driver/Src/stm32f4xx_hal_adc_ex.cpp ****   {
 281              		.loc 1 174 3 view .LVU76
 282 004a 13F0010F 		tst	r3, #1
 283 004e 3BD0     		beq	.L16
 179:Drivers/STM32F4xx_HAL_Driver/Src/stm32f4xx_hal_adc_ex.cpp ****                       HAL_ADC_STATE_READY | HAL_ADC_STATE_INJ_EOC,
 284              		.loc 1 179 5 is_stmt 1 view .LVU77
 285 0050 036C     		ldr	r3, [r0, #64]
 286 0052 23F44053 		bic	r3, r3, #12288
 287 0056 23F00103 		bic	r3, r3, #1
 288 005a 43F48053 		orr	r3, r3, #4096
 289 005e 0364     		str	r3, [r0, #64]
 187:Drivers/STM32F4xx_HAL_Driver/Src/stm32f4xx_hal_adc_ex.cpp ****     {
 290              		.loc 1 187 5 view .LVU78
 187:Drivers/STM32F4xx_HAL_Driver/Src/stm32f4xx_hal_adc_ex.cpp ****     {
 291              		.loc 1 187 9 is_stmt 0 view .LVU79
 292 0060 036C     		ldr	r3, [r0, #64]
 187:Drivers/STM32F4xx_HAL_Driver/Src/stm32f4xx_hal_adc_ex.cpp ****     {
 293              		.loc 1 187 5 view .LVU80
 294 0062 13F4807F 		tst	r3, #256
 295 0066 01D1     		bne	.L17
 190:Drivers/STM32F4xx_HAL_Driver/Src/stm32f4xx_hal_adc_ex.cpp ****     }
 296              		.loc 1 190 7 is_stmt 1 view .LVU81
 297 0068 0023     		movs	r3, #0
 298 006a 4364     		str	r3, [r0, #68]
 299              	.L17:
 196:Drivers/STM32F4xx_HAL_Driver/Src/stm32f4xx_hal_adc_ex.cpp ****     
 300              		.loc 1 196 5 view .LVU82
 196:Drivers/STM32F4xx_HAL_Driver/Src/stm32f4xx_hal_adc_ex.cpp ****     
 301              		.loc 1 196 5 view .LVU83
 302 006c 0023     		movs	r3, #0
 303 006e 80F83C30 		strb	r3, [r0, #60]
 196:Drivers/STM32F4xx_HAL_Driver/Src/stm32f4xx_hal_adc_ex.cpp ****     
 304              		.loc 1 196 5 view .LVU84
 200:Drivers/STM32F4xx_HAL_Driver/Src/stm32f4xx_hal_adc_ex.cpp **** 
 305              		.loc 1 200 5 view .LVU85
 306 0072 6FF00403 		mvn	r3, #4
 307 0076 1360     		str	r3, [r2]
 205:Drivers/STM32F4xx_HAL_Driver/Src/stm32f4xx_hal_adc_ex.cpp **** 
 308              		.loc 1 205 5 view .LVU86
 309              	.LVL16:
 208:Drivers/STM32F4xx_HAL_Driver/Src/stm32f4xx_hal_adc_ex.cpp ****     {
 310              		.loc 1 208 5 view .LVU87
 208:Drivers/STM32F4xx_HAL_Driver/Src/stm32f4xx_hal_adc_ex.cpp ****     {
 311              		.loc 1 208 8 is_stmt 0 view .LVU88
 312 0078 204B     		ldr	r3, .L27+8
 313 007a 5B68     		ldr	r3, [r3, #4]
 208:Drivers/STM32F4xx_HAL_Driver/Src/stm32f4xx_hal_adc_ex.cpp ****     {
ARM GAS  C:\Users\huawei\AppData\Local\Temp\cc1TIrE4.s 			page 27


 314              		.loc 1 208 5 view .LVU89
 315 007c 13F01F0F 		tst	r3, #31
 316 0080 0ED1     		bne	.L18
 210:Drivers/STM32F4xx_HAL_Driver/Src/stm32f4xx_hal_adc_ex.cpp ****       tmp2 = HAL_IS_BIT_CLR(hadc->Instance->CR1, ADC_CR1_JAUTO);
 317              		.loc 1 210 7 is_stmt 1 view .LVU90
 210:Drivers/STM32F4xx_HAL_Driver/Src/stm32f4xx_hal_adc_ex.cpp ****       tmp2 = HAL_IS_BIT_CLR(hadc->Instance->CR1, ADC_CR1_JAUTO);
 318              		.loc 1 210 14 is_stmt 0 view .LVU91
 319 0082 0268     		ldr	r2, [r0]
 320 0084 9168     		ldr	r1, [r2, #8]
 321              	.LVL17:
 211:Drivers/STM32F4xx_HAL_Driver/Src/stm32f4xx_hal_adc_ex.cpp ****       if(tmp1 && tmp2)
 322              		.loc 1 211 7 is_stmt 1 view .LVU92
 211:Drivers/STM32F4xx_HAL_Driver/Src/stm32f4xx_hal_adc_ex.cpp ****       if(tmp1 && tmp2)
 323              		.loc 1 211 14 is_stmt 0 view .LVU93
 324 0086 5368     		ldr	r3, [r2, #4]
 325 0088 03F48063 		and	r3, r3, #1024
 326              	.LVL18:
 212:Drivers/STM32F4xx_HAL_Driver/Src/stm32f4xx_hal_adc_ex.cpp ****       {
 327              		.loc 1 212 7 is_stmt 1 view .LVU94
 328 008c 11F4401F 		tst	r1, #3145728
 329 0090 27D1     		bne	.L20
 212:Drivers/STM32F4xx_HAL_Driver/Src/stm32f4xx_hal_adc_ex.cpp ****       {
 330              		.loc 1 212 15 is_stmt 0 discriminator 1 view .LVU95
 331 0092 43BB     		cbnz	r3, .L21
 215:Drivers/STM32F4xx_HAL_Driver/Src/stm32f4xx_hal_adc_ex.cpp ****       }
 332              		.loc 1 215 9 is_stmt 1 view .LVU96
 215:Drivers/STM32F4xx_HAL_Driver/Src/stm32f4xx_hal_adc_ex.cpp ****       }
 333              		.loc 1 215 25 is_stmt 0 view .LVU97
 334 0094 9368     		ldr	r3, [r2, #8]
 335              	.LVL19:
 215:Drivers/STM32F4xx_HAL_Driver/Src/stm32f4xx_hal_adc_ex.cpp ****       }
 336              		.loc 1 215 29 view .LVU98
 337 0096 43F48003 		orr	r3, r3, #4194304
 338 009a 9360     		str	r3, [r2, #8]
 239:Drivers/STM32F4xx_HAL_Driver/Src/stm32f4xx_hal_adc_ex.cpp **** }
 339              		.loc 1 239 10 view .LVU99
 340 009c 0020     		movs	r0, #0
 341              	.LVL20:
 239:Drivers/STM32F4xx_HAL_Driver/Src/stm32f4xx_hal_adc_ex.cpp **** }
 342              		.loc 1 239 10 view .LVU100
 343 009e 1CE0     		b	.L12
 344              	.LVL21:
 345              	.L18:
 220:Drivers/STM32F4xx_HAL_Driver/Src/stm32f4xx_hal_adc_ex.cpp ****       tmp2 = HAL_IS_BIT_CLR(hadc->Instance->CR1, ADC_CR1_JAUTO);
 346              		.loc 1 220 7 is_stmt 1 view .LVU101
 220:Drivers/STM32F4xx_HAL_Driver/Src/stm32f4xx_hal_adc_ex.cpp ****       tmp2 = HAL_IS_BIT_CLR(hadc->Instance->CR1, ADC_CR1_JAUTO);
 347              		.loc 1 220 14 is_stmt 0 view .LVU102
 348 00a0 0368     		ldr	r3, [r0]
 349 00a2 9A68     		ldr	r2, [r3, #8]
 350 00a4 02F44012 		and	r2, r2, #3145728
 351              	.LVL22:
 221:Drivers/STM32F4xx_HAL_Driver/Src/stm32f4xx_hal_adc_ex.cpp ****       if((hadc->Instance == ADC1) && tmp1 && tmp2)  
 352              		.loc 1 221 7 is_stmt 1 view .LVU103
 221:Drivers/STM32F4xx_HAL_Driver/Src/stm32f4xx_hal_adc_ex.cpp ****       if((hadc->Instance == ADC1) && tmp1 && tmp2)  
 353              		.loc 1 221 14 is_stmt 0 view .LVU104
 354 00a8 5968     		ldr	r1, [r3, #4]
 355 00aa 01F48061 		and	r1, r1, #1024
ARM GAS  C:\Users\huawei\AppData\Local\Temp\cc1TIrE4.s 			page 28


 356              	.LVL23:
 222:Drivers/STM32F4xx_HAL_Driver/Src/stm32f4xx_hal_adc_ex.cpp ****       {
 357              		.loc 1 222 7 is_stmt 1 view .LVU105
 358 00ae 1448     		ldr	r0, .L27+12
 359              	.LVL24:
 222:Drivers/STM32F4xx_HAL_Driver/Src/stm32f4xx_hal_adc_ex.cpp ****       {
 360              		.loc 1 222 7 is_stmt 0 view .LVU106
 361 00b0 8342     		cmp	r3, r0
 362 00b2 01D0     		beq	.L26
 239:Drivers/STM32F4xx_HAL_Driver/Src/stm32f4xx_hal_adc_ex.cpp **** }
 363              		.loc 1 239 10 view .LVU107
 364 00b4 0020     		movs	r0, #0
 365 00b6 10E0     		b	.L12
 366              	.L26:
 222:Drivers/STM32F4xx_HAL_Driver/Src/stm32f4xx_hal_adc_ex.cpp ****       {
 367              		.loc 1 222 35 discriminator 1 view .LVU108
 368 00b8 BAB9     		cbnz	r2, .L23
 222:Drivers/STM32F4xx_HAL_Driver/Src/stm32f4xx_hal_adc_ex.cpp ****       {
 369              		.loc 1 222 43 discriminator 2 view .LVU109
 370 00ba C1B9     		cbnz	r1, .L24
 225:Drivers/STM32F4xx_HAL_Driver/Src/stm32f4xx_hal_adc_ex.cpp ****       }
 371              		.loc 1 225 9 is_stmt 1 view .LVU110
 225:Drivers/STM32F4xx_HAL_Driver/Src/stm32f4xx_hal_adc_ex.cpp ****       }
 372              		.loc 1 225 25 is_stmt 0 view .LVU111
 373 00bc 9A68     		ldr	r2, [r3, #8]
 374              	.LVL25:
 225:Drivers/STM32F4xx_HAL_Driver/Src/stm32f4xx_hal_adc_ex.cpp ****       }
 375              		.loc 1 225 29 view .LVU112
 376 00be 42F48002 		orr	r2, r2, #4194304
 377 00c2 9A60     		str	r2, [r3, #8]
 239:Drivers/STM32F4xx_HAL_Driver/Src/stm32f4xx_hal_adc_ex.cpp **** }
 378              		.loc 1 239 10 view .LVU113
 379 00c4 0020     		movs	r0, #0
 380 00c6 08E0     		b	.L12
 381              	.LVL26:
 382              	.L16:
 232:Drivers/STM32F4xx_HAL_Driver/Src/stm32f4xx_hal_adc_ex.cpp **** 
 383              		.loc 1 232 5 is_stmt 1 view .LVU114
 384 00c8 036C     		ldr	r3, [r0, #64]
 385 00ca 43F01003 		orr	r3, r3, #16
 386 00ce 0364     		str	r3, [r0, #64]
 235:Drivers/STM32F4xx_HAL_Driver/Src/stm32f4xx_hal_adc_ex.cpp ****   }
 387              		.loc 1 235 5 view .LVU115
 388 00d0 436C     		ldr	r3, [r0, #68]
 389 00d2 43F00103 		orr	r3, r3, #1
 390 00d6 4364     		str	r3, [r0, #68]
 239:Drivers/STM32F4xx_HAL_Driver/Src/stm32f4xx_hal_adc_ex.cpp **** }
 391              		.loc 1 239 10 is_stmt 0 view .LVU116
 392 00d8 0020     		movs	r0, #0
 393              	.LVL27:
 394              	.L12:
 240:Drivers/STM32F4xx_HAL_Driver/Src/stm32f4xx_hal_adc_ex.cpp **** 
 395              		.loc 1 240 1 view .LVU117
 396 00da 02B0     		add	sp, sp, #8
 397              	.LCFI4:
 398              		.cfi_remember_state
 399              		.cfi_def_cfa_offset 0
ARM GAS  C:\Users\huawei\AppData\Local\Temp\cc1TIrE4.s 			page 29


 400              		@ sp needed
 401 00dc 7047     		bx	lr
 402              	.LVL28:
 403              	.L19:
 404              	.LCFI5:
 405              		.cfi_restore_state
 153:Drivers/STM32F4xx_HAL_Driver/Src/stm32f4xx_hal_adc_ex.cpp ****   
 406              		.loc 1 153 3 view .LVU118
 407 00de 0220     		movs	r0, #2
 408              	.LVL29:
 153:Drivers/STM32F4xx_HAL_Driver/Src/stm32f4xx_hal_adc_ex.cpp ****   
 409              		.loc 1 153 3 view .LVU119
 410 00e0 FBE7     		b	.L12
 411              	.LVL30:
 412              	.L20:
 239:Drivers/STM32F4xx_HAL_Driver/Src/stm32f4xx_hal_adc_ex.cpp **** }
 413              		.loc 1 239 10 view .LVU120
 414 00e2 0020     		movs	r0, #0
 415              	.LVL31:
 239:Drivers/STM32F4xx_HAL_Driver/Src/stm32f4xx_hal_adc_ex.cpp **** }
 416              		.loc 1 239 10 view .LVU121
 417 00e4 F9E7     		b	.L12
 418              	.LVL32:
 419              	.L21:
 239:Drivers/STM32F4xx_HAL_Driver/Src/stm32f4xx_hal_adc_ex.cpp **** }
 420              		.loc 1 239 10 view .LVU122
 421 00e6 0020     		movs	r0, #0
 422              	.LVL33:
 239:Drivers/STM32F4xx_HAL_Driver/Src/stm32f4xx_hal_adc_ex.cpp **** }
 423              		.loc 1 239 10 view .LVU123
 424 00e8 F7E7     		b	.L12
 425              	.LVL34:
 426              	.L23:
 239:Drivers/STM32F4xx_HAL_Driver/Src/stm32f4xx_hal_adc_ex.cpp **** }
 427              		.loc 1 239 10 view .LVU124
 428 00ea 0020     		movs	r0, #0
 429 00ec F5E7     		b	.L12
 430              	.L24:
 431 00ee 0020     		movs	r0, #0
 432 00f0 F3E7     		b	.L12
 433              	.L28:
 434 00f2 00BF     		.align	2
 435              	.L27:
 436 00f4 00000000 		.word	SystemCoreClock
 437 00f8 83DE1B43 		.word	1125899907
 438 00fc 00230140 		.word	1073816320
 439 0100 00200140 		.word	1073815552
 440              		.cfi_endproc
 441              	.LFE235:
 442              		.cantunwind
 443              		.fnend
 445              		.section	.text.HAL_ADCEx_InjectedStart_IT,"ax",%progbits
 446              		.align	1
 447              		.global	HAL_ADCEx_InjectedStart_IT
 448              		.syntax unified
 449              		.thumb
 450              		.thumb_func
ARM GAS  C:\Users\huawei\AppData\Local\Temp\cc1TIrE4.s 			page 30


 452              	HAL_ADCEx_InjectedStart_IT:
 453              		.fnstart
 454              	.LVL35:
 455              	.LFB236:
 250:Drivers/STM32F4xx_HAL_Driver/Src/stm32f4xx_hal_adc_ex.cpp ****   __IO uint32_t counter = 0U;
 456              		.loc 1 250 1 is_stmt 1 view -0
 457              		.cfi_startproc
 458              		@ args = 0, pretend = 0, frame = 8
 459              		@ frame_needed = 0, uses_anonymous_args = 0
 460              		@ link register save eliminated.
 250:Drivers/STM32F4xx_HAL_Driver/Src/stm32f4xx_hal_adc_ex.cpp ****   __IO uint32_t counter = 0U;
 461              		.loc 1 250 1 is_stmt 0 view .LVU126
 462 0000 82B0     		sub	sp, sp, #8
 463              	.LCFI6:
 464              		.cfi_def_cfa_offset 8
 251:Drivers/STM32F4xx_HAL_Driver/Src/stm32f4xx_hal_adc_ex.cpp ****   uint32_t tmp1 = 0U, tmp2 = 0U;
 465              		.loc 1 251 3 is_stmt 1 view .LVU127
 251:Drivers/STM32F4xx_HAL_Driver/Src/stm32f4xx_hal_adc_ex.cpp ****   uint32_t tmp1 = 0U, tmp2 = 0U;
 466              		.loc 1 251 17 is_stmt 0 view .LVU128
 467 0002 0023     		movs	r3, #0
 468 0004 0193     		str	r3, [sp, #4]
 252:Drivers/STM32F4xx_HAL_Driver/Src/stm32f4xx_hal_adc_ex.cpp ****   ADC_Common_TypeDef *tmpADC_Common;
 469              		.loc 1 252 3 is_stmt 1 view .LVU129
 470              	.LVL36:
 253:Drivers/STM32F4xx_HAL_Driver/Src/stm32f4xx_hal_adc_ex.cpp ****   
 471              		.loc 1 253 3 view .LVU130
 256:Drivers/STM32F4xx_HAL_Driver/Src/stm32f4xx_hal_adc_ex.cpp ****   
 472              		.loc 1 256 3 view .LVU131
 256:Drivers/STM32F4xx_HAL_Driver/Src/stm32f4xx_hal_adc_ex.cpp ****   
 473              		.loc 1 256 3 view .LVU132
 474 0006 90F83C30 		ldrb	r3, [r0, #60]	@ zero_extendqisi2
 475 000a 012B     		cmp	r3, #1
 476 000c 6CD0     		beq	.L37
 256:Drivers/STM32F4xx_HAL_Driver/Src/stm32f4xx_hal_adc_ex.cpp ****   
 477              		.loc 1 256 3 discriminator 2 view .LVU133
 478 000e 0123     		movs	r3, #1
 479 0010 80F83C30 		strb	r3, [r0, #60]
 256:Drivers/STM32F4xx_HAL_Driver/Src/stm32f4xx_hal_adc_ex.cpp ****   
 480              		.loc 1 256 3 discriminator 2 view .LVU134
 262:Drivers/STM32F4xx_HAL_Driver/Src/stm32f4xx_hal_adc_ex.cpp ****   {  
 481              		.loc 1 262 3 discriminator 2 view .LVU135
 262:Drivers/STM32F4xx_HAL_Driver/Src/stm32f4xx_hal_adc_ex.cpp ****   {  
 482              		.loc 1 262 13 is_stmt 0 discriminator 2 view .LVU136
 483 0014 0368     		ldr	r3, [r0]
 262:Drivers/STM32F4xx_HAL_Driver/Src/stm32f4xx_hal_adc_ex.cpp ****   {  
 484              		.loc 1 262 23 discriminator 2 view .LVU137
 485 0016 9A68     		ldr	r2, [r3, #8]
 262:Drivers/STM32F4xx_HAL_Driver/Src/stm32f4xx_hal_adc_ex.cpp ****   {  
 486              		.loc 1 262 3 discriminator 2 view .LVU138
 487 0018 12F0010F 		tst	r2, #1
 488 001c 13D1     		bne	.L31
 265:Drivers/STM32F4xx_HAL_Driver/Src/stm32f4xx_hal_adc_ex.cpp ****     
 489              		.loc 1 265 5 is_stmt 1 view .LVU139
 490 001e 9A68     		ldr	r2, [r3, #8]
 491 0020 42F00102 		orr	r2, r2, #1
 492 0024 9A60     		str	r2, [r3, #8]
 269:Drivers/STM32F4xx_HAL_Driver/Src/stm32f4xx_hal_adc_ex.cpp ****     while(counter != 0U)
ARM GAS  C:\Users\huawei\AppData\Local\Temp\cc1TIrE4.s 			page 31


 493              		.loc 1 269 5 view .LVU140
 269:Drivers/STM32F4xx_HAL_Driver/Src/stm32f4xx_hal_adc_ex.cpp ****     while(counter != 0U)
 494              		.loc 1 269 53 is_stmt 0 view .LVU141
 495 0026 354B     		ldr	r3, .L45
 496 0028 1B68     		ldr	r3, [r3]
 497 002a 354A     		ldr	r2, .L45+4
 498 002c A2FB0323 		umull	r2, r3, r2, r3
 499 0030 9B0C     		lsrs	r3, r3, #18
 269:Drivers/STM32F4xx_HAL_Driver/Src/stm32f4xx_hal_adc_ex.cpp ****     while(counter != 0U)
 500              		.loc 1 269 34 view .LVU142
 501 0032 03EB4303 		add	r3, r3, r3, lsl #1
 269:Drivers/STM32F4xx_HAL_Driver/Src/stm32f4xx_hal_adc_ex.cpp ****     while(counter != 0U)
 502              		.loc 1 269 13 view .LVU143
 503 0036 0193     		str	r3, [sp, #4]
 270:Drivers/STM32F4xx_HAL_Driver/Src/stm32f4xx_hal_adc_ex.cpp ****     {
 504              		.loc 1 270 5 is_stmt 1 view .LVU144
 505 0038 02E0     		b	.L32
 506              	.L33:
 272:Drivers/STM32F4xx_HAL_Driver/Src/stm32f4xx_hal_adc_ex.cpp ****     }
 507              		.loc 1 272 7 view .LVU145
 272:Drivers/STM32F4xx_HAL_Driver/Src/stm32f4xx_hal_adc_ex.cpp ****     }
 508              		.loc 1 272 14 is_stmt 0 view .LVU146
 509 003a 019B     		ldr	r3, [sp, #4]
 510 003c 013B     		subs	r3, r3, #1
 511 003e 0193     		str	r3, [sp, #4]
 512              	.L32:
 270:Drivers/STM32F4xx_HAL_Driver/Src/stm32f4xx_hal_adc_ex.cpp ****     {
 513              		.loc 1 270 19 is_stmt 1 view .LVU147
 514 0040 019B     		ldr	r3, [sp, #4]
 515 0042 002B     		cmp	r3, #0
 516 0044 F9D1     		bne	.L33
 517              	.L31:
 277:Drivers/STM32F4xx_HAL_Driver/Src/stm32f4xx_hal_adc_ex.cpp ****   {
 518              		.loc 1 277 3 view .LVU148
 277:Drivers/STM32F4xx_HAL_Driver/Src/stm32f4xx_hal_adc_ex.cpp ****   {
 519              		.loc 1 277 6 is_stmt 0 view .LVU149
 520 0046 0268     		ldr	r2, [r0]
 521 0048 9368     		ldr	r3, [r2, #8]
 277:Drivers/STM32F4xx_HAL_Driver/Src/stm32f4xx_hal_adc_ex.cpp ****   {
 522              		.loc 1 277 3 view .LVU150
 523 004a 13F0010F 		tst	r3, #1
 524 004e 40D0     		beq	.L34
 282:Drivers/STM32F4xx_HAL_Driver/Src/stm32f4xx_hal_adc_ex.cpp ****                       HAL_ADC_STATE_READY | HAL_ADC_STATE_INJ_EOC,
 525              		.loc 1 282 5 is_stmt 1 view .LVU151
 526 0050 036C     		ldr	r3, [r0, #64]
 527 0052 23F44053 		bic	r3, r3, #12288
 528 0056 23F00103 		bic	r3, r3, #1
 529 005a 43F48053 		orr	r3, r3, #4096
 530 005e 0364     		str	r3, [r0, #64]
 290:Drivers/STM32F4xx_HAL_Driver/Src/stm32f4xx_hal_adc_ex.cpp ****     {
 531              		.loc 1 290 5 view .LVU152
 290:Drivers/STM32F4xx_HAL_Driver/Src/stm32f4xx_hal_adc_ex.cpp ****     {
 532              		.loc 1 290 9 is_stmt 0 view .LVU153
 533 0060 036C     		ldr	r3, [r0, #64]
 290:Drivers/STM32F4xx_HAL_Driver/Src/stm32f4xx_hal_adc_ex.cpp ****     {
 534              		.loc 1 290 5 view .LVU154
 535 0062 13F4807F 		tst	r3, #256
ARM GAS  C:\Users\huawei\AppData\Local\Temp\cc1TIrE4.s 			page 32


 536 0066 01D1     		bne	.L35
 293:Drivers/STM32F4xx_HAL_Driver/Src/stm32f4xx_hal_adc_ex.cpp ****     }
 537              		.loc 1 293 7 is_stmt 1 view .LVU155
 538 0068 0023     		movs	r3, #0
 539 006a 4364     		str	r3, [r0, #68]
 540              	.L35:
 299:Drivers/STM32F4xx_HAL_Driver/Src/stm32f4xx_hal_adc_ex.cpp ****     
 541              		.loc 1 299 5 view .LVU156
 299:Drivers/STM32F4xx_HAL_Driver/Src/stm32f4xx_hal_adc_ex.cpp ****     
 542              		.loc 1 299 5 view .LVU157
 543 006c 0023     		movs	r3, #0
 544 006e 80F83C30 		strb	r3, [r0, #60]
 299:Drivers/STM32F4xx_HAL_Driver/Src/stm32f4xx_hal_adc_ex.cpp ****     
 545              		.loc 1 299 5 view .LVU158
 303:Drivers/STM32F4xx_HAL_Driver/Src/stm32f4xx_hal_adc_ex.cpp ****     
 546              		.loc 1 303 5 view .LVU159
 547 0072 6FF00403 		mvn	r3, #4
 548 0076 1360     		str	r3, [r2]
 306:Drivers/STM32F4xx_HAL_Driver/Src/stm32f4xx_hal_adc_ex.cpp **** 
 549              		.loc 1 306 5 view .LVU160
 550 0078 0268     		ldr	r2, [r0]
 551 007a 5368     		ldr	r3, [r2, #4]
 552 007c 43F08003 		orr	r3, r3, #128
 553 0080 5360     		str	r3, [r2, #4]
 311:Drivers/STM32F4xx_HAL_Driver/Src/stm32f4xx_hal_adc_ex.cpp ****     
 554              		.loc 1 311 5 view .LVU161
 555              	.LVL37:
 314:Drivers/STM32F4xx_HAL_Driver/Src/stm32f4xx_hal_adc_ex.cpp ****     {
 556              		.loc 1 314 5 view .LVU162
 314:Drivers/STM32F4xx_HAL_Driver/Src/stm32f4xx_hal_adc_ex.cpp ****     {
 557              		.loc 1 314 8 is_stmt 0 view .LVU163
 558 0082 204B     		ldr	r3, .L45+8
 559 0084 5B68     		ldr	r3, [r3, #4]
 314:Drivers/STM32F4xx_HAL_Driver/Src/stm32f4xx_hal_adc_ex.cpp ****     {
 560              		.loc 1 314 5 view .LVU164
 561 0086 13F01F0F 		tst	r3, #31
 562 008a 0ED1     		bne	.L36
 316:Drivers/STM32F4xx_HAL_Driver/Src/stm32f4xx_hal_adc_ex.cpp ****       tmp2 = HAL_IS_BIT_CLR(hadc->Instance->CR1, ADC_CR1_JAUTO);
 563              		.loc 1 316 7 is_stmt 1 view .LVU165
 316:Drivers/STM32F4xx_HAL_Driver/Src/stm32f4xx_hal_adc_ex.cpp ****       tmp2 = HAL_IS_BIT_CLR(hadc->Instance->CR1, ADC_CR1_JAUTO);
 564              		.loc 1 316 14 is_stmt 0 view .LVU166
 565 008c 0268     		ldr	r2, [r0]
 566 008e 9168     		ldr	r1, [r2, #8]
 567              	.LVL38:
 317:Drivers/STM32F4xx_HAL_Driver/Src/stm32f4xx_hal_adc_ex.cpp ****       if(tmp1 && tmp2)
 568              		.loc 1 317 7 is_stmt 1 view .LVU167
 317:Drivers/STM32F4xx_HAL_Driver/Src/stm32f4xx_hal_adc_ex.cpp ****       if(tmp1 && tmp2)
 569              		.loc 1 317 14 is_stmt 0 view .LVU168
 570 0090 5368     		ldr	r3, [r2, #4]
 571 0092 03F48063 		and	r3, r3, #1024
 572              	.LVL39:
 318:Drivers/STM32F4xx_HAL_Driver/Src/stm32f4xx_hal_adc_ex.cpp ****       {
 573              		.loc 1 318 7 is_stmt 1 view .LVU169
 574 0096 11F4401F 		tst	r1, #3145728
 575 009a 27D1     		bne	.L38
 318:Drivers/STM32F4xx_HAL_Driver/Src/stm32f4xx_hal_adc_ex.cpp ****       {
 576              		.loc 1 318 15 is_stmt 0 discriminator 1 view .LVU170
ARM GAS  C:\Users\huawei\AppData\Local\Temp\cc1TIrE4.s 			page 33


 577 009c 43BB     		cbnz	r3, .L39
 321:Drivers/STM32F4xx_HAL_Driver/Src/stm32f4xx_hal_adc_ex.cpp ****       }
 578              		.loc 1 321 9 is_stmt 1 view .LVU171
 321:Drivers/STM32F4xx_HAL_Driver/Src/stm32f4xx_hal_adc_ex.cpp ****       }
 579              		.loc 1 321 25 is_stmt 0 view .LVU172
 580 009e 9368     		ldr	r3, [r2, #8]
 581              	.LVL40:
 321:Drivers/STM32F4xx_HAL_Driver/Src/stm32f4xx_hal_adc_ex.cpp ****       }
 582              		.loc 1 321 29 view .LVU173
 583 00a0 43F48003 		orr	r3, r3, #4194304
 584 00a4 9360     		str	r3, [r2, #8]
 345:Drivers/STM32F4xx_HAL_Driver/Src/stm32f4xx_hal_adc_ex.cpp **** }
 585              		.loc 1 345 10 view .LVU174
 586 00a6 0020     		movs	r0, #0
 587              	.LVL41:
 345:Drivers/STM32F4xx_HAL_Driver/Src/stm32f4xx_hal_adc_ex.cpp **** }
 588              		.loc 1 345 10 view .LVU175
 589 00a8 1CE0     		b	.L30
 590              	.LVL42:
 591              	.L36:
 326:Drivers/STM32F4xx_HAL_Driver/Src/stm32f4xx_hal_adc_ex.cpp ****       tmp2 = HAL_IS_BIT_CLR(hadc->Instance->CR1, ADC_CR1_JAUTO);
 592              		.loc 1 326 7 is_stmt 1 view .LVU176
 326:Drivers/STM32F4xx_HAL_Driver/Src/stm32f4xx_hal_adc_ex.cpp ****       tmp2 = HAL_IS_BIT_CLR(hadc->Instance->CR1, ADC_CR1_JAUTO);
 593              		.loc 1 326 14 is_stmt 0 view .LVU177
 594 00aa 0368     		ldr	r3, [r0]
 595 00ac 9A68     		ldr	r2, [r3, #8]
 596 00ae 02F44012 		and	r2, r2, #3145728
 597              	.LVL43:
 327:Drivers/STM32F4xx_HAL_Driver/Src/stm32f4xx_hal_adc_ex.cpp ****       if((hadc->Instance == ADC1) && tmp1 && tmp2)  
 598              		.loc 1 327 7 is_stmt 1 view .LVU178
 327:Drivers/STM32F4xx_HAL_Driver/Src/stm32f4xx_hal_adc_ex.cpp ****       if((hadc->Instance == ADC1) && tmp1 && tmp2)  
 599              		.loc 1 327 14 is_stmt 0 view .LVU179
 600 00b2 5968     		ldr	r1, [r3, #4]
 601 00b4 01F48061 		and	r1, r1, #1024
 602              	.LVL44:
 328:Drivers/STM32F4xx_HAL_Driver/Src/stm32f4xx_hal_adc_ex.cpp ****       {
 603              		.loc 1 328 7 is_stmt 1 view .LVU180
 604 00b8 1348     		ldr	r0, .L45+12
 605              	.LVL45:
 328:Drivers/STM32F4xx_HAL_Driver/Src/stm32f4xx_hal_adc_ex.cpp ****       {
 606              		.loc 1 328 7 is_stmt 0 view .LVU181
 607 00ba 8342     		cmp	r3, r0
 608 00bc 01D0     		beq	.L44
 345:Drivers/STM32F4xx_HAL_Driver/Src/stm32f4xx_hal_adc_ex.cpp **** }
 609              		.loc 1 345 10 view .LVU182
 610 00be 0020     		movs	r0, #0
 611 00c0 10E0     		b	.L30
 612              	.L44:
 328:Drivers/STM32F4xx_HAL_Driver/Src/stm32f4xx_hal_adc_ex.cpp ****       {
 613              		.loc 1 328 35 discriminator 1 view .LVU183
 614 00c2 BAB9     		cbnz	r2, .L41
 328:Drivers/STM32F4xx_HAL_Driver/Src/stm32f4xx_hal_adc_ex.cpp ****       {
 615              		.loc 1 328 43 discriminator 2 view .LVU184
 616 00c4 C1B9     		cbnz	r1, .L42
 331:Drivers/STM32F4xx_HAL_Driver/Src/stm32f4xx_hal_adc_ex.cpp ****       }
 617              		.loc 1 331 9 is_stmt 1 view .LVU185
 331:Drivers/STM32F4xx_HAL_Driver/Src/stm32f4xx_hal_adc_ex.cpp ****       }
ARM GAS  C:\Users\huawei\AppData\Local\Temp\cc1TIrE4.s 			page 34


 618              		.loc 1 331 25 is_stmt 0 view .LVU186
 619 00c6 9A68     		ldr	r2, [r3, #8]
 620              	.LVL46:
 331:Drivers/STM32F4xx_HAL_Driver/Src/stm32f4xx_hal_adc_ex.cpp ****       }
 621              		.loc 1 331 29 view .LVU187
 622 00c8 42F48002 		orr	r2, r2, #4194304
 623 00cc 9A60     		str	r2, [r3, #8]
 345:Drivers/STM32F4xx_HAL_Driver/Src/stm32f4xx_hal_adc_ex.cpp **** }
 624              		.loc 1 345 10 view .LVU188
 625 00ce 0020     		movs	r0, #0
 626 00d0 08E0     		b	.L30
 627              	.LVL47:
 628              	.L34:
 338:Drivers/STM32F4xx_HAL_Driver/Src/stm32f4xx_hal_adc_ex.cpp **** 
 629              		.loc 1 338 5 is_stmt 1 view .LVU189
 630 00d2 036C     		ldr	r3, [r0, #64]
 631 00d4 43F01003 		orr	r3, r3, #16
 632 00d8 0364     		str	r3, [r0, #64]
 341:Drivers/STM32F4xx_HAL_Driver/Src/stm32f4xx_hal_adc_ex.cpp ****   }
 633              		.loc 1 341 5 view .LVU190
 634 00da 436C     		ldr	r3, [r0, #68]
 635 00dc 43F00103 		orr	r3, r3, #1
 636 00e0 4364     		str	r3, [r0, #68]
 345:Drivers/STM32F4xx_HAL_Driver/Src/stm32f4xx_hal_adc_ex.cpp **** }
 637              		.loc 1 345 10 is_stmt 0 view .LVU191
 638 00e2 0020     		movs	r0, #0
 639              	.LVL48:
 640              	.L30:
 346:Drivers/STM32F4xx_HAL_Driver/Src/stm32f4xx_hal_adc_ex.cpp **** 
 641              		.loc 1 346 1 view .LVU192
 642 00e4 02B0     		add	sp, sp, #8
 643              	.LCFI7:
 644              		.cfi_remember_state
 645              		.cfi_def_cfa_offset 0
 646              		@ sp needed
 647 00e6 7047     		bx	lr
 648              	.LVL49:
 649              	.L37:
 650              	.LCFI8:
 651              		.cfi_restore_state
 256:Drivers/STM32F4xx_HAL_Driver/Src/stm32f4xx_hal_adc_ex.cpp ****   
 652              		.loc 1 256 3 view .LVU193
 653 00e8 0220     		movs	r0, #2
 654              	.LVL50:
 256:Drivers/STM32F4xx_HAL_Driver/Src/stm32f4xx_hal_adc_ex.cpp ****   
 655              		.loc 1 256 3 view .LVU194
 656 00ea FBE7     		b	.L30
 657              	.LVL51:
 658              	.L38:
 345:Drivers/STM32F4xx_HAL_Driver/Src/stm32f4xx_hal_adc_ex.cpp **** }
 659              		.loc 1 345 10 view .LVU195
 660 00ec 0020     		movs	r0, #0
 661              	.LVL52:
 345:Drivers/STM32F4xx_HAL_Driver/Src/stm32f4xx_hal_adc_ex.cpp **** }
 662              		.loc 1 345 10 view .LVU196
 663 00ee F9E7     		b	.L30
 664              	.LVL53:
ARM GAS  C:\Users\huawei\AppData\Local\Temp\cc1TIrE4.s 			page 35


 665              	.L39:
 345:Drivers/STM32F4xx_HAL_Driver/Src/stm32f4xx_hal_adc_ex.cpp **** }
 666              		.loc 1 345 10 view .LVU197
 667 00f0 0020     		movs	r0, #0
 668              	.LVL54:
 345:Drivers/STM32F4xx_HAL_Driver/Src/stm32f4xx_hal_adc_ex.cpp **** }
 669              		.loc 1 345 10 view .LVU198
 670 00f2 F7E7     		b	.L30
 671              	.LVL55:
 672              	.L41:
 345:Drivers/STM32F4xx_HAL_Driver/Src/stm32f4xx_hal_adc_ex.cpp **** }
 673              		.loc 1 345 10 view .LVU199
 674 00f4 0020     		movs	r0, #0
 675 00f6 F5E7     		b	.L30
 676              	.L42:
 677 00f8 0020     		movs	r0, #0
 678 00fa F3E7     		b	.L30
 679              	.L46:
 680              		.align	2
 681              	.L45:
 682 00fc 00000000 		.word	SystemCoreClock
 683 0100 83DE1B43 		.word	1125899907
 684 0104 00230140 		.word	1073816320
 685 0108 00200140 		.word	1073815552
 686              		.cfi_endproc
 687              	.LFE236:
 688              		.cantunwind
 689              		.fnend
 691              		.section	.text.HAL_ADCEx_InjectedStop,"ax",%progbits
 692              		.align	1
 693              		.global	HAL_ADCEx_InjectedStop
 694              		.syntax unified
 695              		.thumb
 696              		.thumb_func
 698              	HAL_ADCEx_InjectedStop:
 699              		.fnstart
 700              	.LVL56:
 701              	.LFB237:
 361:Drivers/STM32F4xx_HAL_Driver/Src/stm32f4xx_hal_adc_ex.cpp ****   HAL_StatusTypeDef tmp_hal_status = HAL_OK;
 702              		.loc 1 361 1 is_stmt 1 view -0
 703              		.cfi_startproc
 704              		@ args = 0, pretend = 0, frame = 0
 705              		@ frame_needed = 0, uses_anonymous_args = 0
 706              		@ link register save eliminated.
 361:Drivers/STM32F4xx_HAL_Driver/Src/stm32f4xx_hal_adc_ex.cpp ****   HAL_StatusTypeDef tmp_hal_status = HAL_OK;
 707              		.loc 1 361 1 is_stmt 0 view .LVU201
 708 0000 0346     		mov	r3, r0
 362:Drivers/STM32F4xx_HAL_Driver/Src/stm32f4xx_hal_adc_ex.cpp ****   
 709              		.loc 1 362 3 is_stmt 1 view .LVU202
 710              	.LVL57:
 365:Drivers/STM32F4xx_HAL_Driver/Src/stm32f4xx_hal_adc_ex.cpp **** 
 711              		.loc 1 365 3 view .LVU203
 368:Drivers/STM32F4xx_HAL_Driver/Src/stm32f4xx_hal_adc_ex.cpp ****     
 712              		.loc 1 368 3 view .LVU204
 368:Drivers/STM32F4xx_HAL_Driver/Src/stm32f4xx_hal_adc_ex.cpp ****     
 713              		.loc 1 368 3 view .LVU205
 714 0002 90F83C20 		ldrb	r2, [r0, #60]	@ zero_extendqisi2
ARM GAS  C:\Users\huawei\AppData\Local\Temp\cc1TIrE4.s 			page 36


 715 0006 012A     		cmp	r2, #1
 716 0008 29D0     		beq	.L52
 368:Drivers/STM32F4xx_HAL_Driver/Src/stm32f4xx_hal_adc_ex.cpp ****     
 717              		.loc 1 368 3 discriminator 2 view .LVU206
 718 000a 0122     		movs	r2, #1
 719 000c 80F83C20 		strb	r2, [r0, #60]
 368:Drivers/STM32F4xx_HAL_Driver/Src/stm32f4xx_hal_adc_ex.cpp ****     
 720              		.loc 1 368 3 discriminator 2 view .LVU207
 376:Drivers/STM32F4xx_HAL_Driver/Src/stm32f4xx_hal_adc_ex.cpp ****      HAL_IS_BIT_CLR(hadc->Instance->CR1, ADC_CR1_JAUTO)   )
 721              		.loc 1 376 3 discriminator 2 view .LVU208
 376:Drivers/STM32F4xx_HAL_Driver/Src/stm32f4xx_hal_adc_ex.cpp ****      HAL_IS_BIT_CLR(hadc->Instance->CR1, ADC_CR1_JAUTO)   )
 722              		.loc 1 376 14 is_stmt 0 discriminator 2 view .LVU209
 723 0010 026C     		ldr	r2, [r0, #64]
 376:Drivers/STM32F4xx_HAL_Driver/Src/stm32f4xx_hal_adc_ex.cpp ****      HAL_IS_BIT_CLR(hadc->Instance->CR1, ADC_CR1_JAUTO)   )
 724              		.loc 1 376 57 discriminator 2 view .LVU210
 725 0012 12F4807F 		tst	r2, #256
 726 0016 0FD1     		bne	.L49
 377:Drivers/STM32F4xx_HAL_Driver/Src/stm32f4xx_hal_adc_ex.cpp ****   {
 727              		.loc 1 377 6 discriminator 1 view .LVU211
 728 0018 0268     		ldr	r2, [r0]
 729 001a 5168     		ldr	r1, [r2, #4]
 376:Drivers/STM32F4xx_HAL_Driver/Src/stm32f4xx_hal_adc_ex.cpp ****      HAL_IS_BIT_CLR(hadc->Instance->CR1, ADC_CR1_JAUTO)   )
 730              		.loc 1 376 57 discriminator 1 view .LVU212
 731 001c 11F4806F 		tst	r1, #1024
 732 0020 0AD1     		bne	.L49
 381:Drivers/STM32F4xx_HAL_Driver/Src/stm32f4xx_hal_adc_ex.cpp ****     
 733              		.loc 1 381 5 is_stmt 1 view .LVU213
 734 0022 9168     		ldr	r1, [r2, #8]
 735 0024 21F00101 		bic	r1, r1, #1
 736 0028 9160     		str	r1, [r2, #8]
 384:Drivers/STM32F4xx_HAL_Driver/Src/stm32f4xx_hal_adc_ex.cpp ****     {
 737              		.loc 1 384 5 view .LVU214
 384:Drivers/STM32F4xx_HAL_Driver/Src/stm32f4xx_hal_adc_ex.cpp ****     {
 738              		.loc 1 384 8 is_stmt 0 view .LVU215
 739 002a 0268     		ldr	r2, [r0]
 740 002c 9268     		ldr	r2, [r2, #8]
 384:Drivers/STM32F4xx_HAL_Driver/Src/stm32f4xx_hal_adc_ex.cpp ****     {
 741              		.loc 1 384 5 view .LVU216
 742 002e 12F0010F 		tst	r2, #1
 743 0032 0AD0     		beq	.L50
 362:Drivers/STM32F4xx_HAL_Driver/Src/stm32f4xx_hal_adc_ex.cpp ****   
 744              		.loc 1 362 21 view .LVU217
 745 0034 0020     		movs	r0, #0
 746              	.LVL58:
 362:Drivers/STM32F4xx_HAL_Driver/Src/stm32f4xx_hal_adc_ex.cpp ****   
 747              		.loc 1 362 21 view .LVU218
 748 0036 04E0     		b	.L51
 749              	.LVL59:
 750              	.L49:
 395:Drivers/STM32F4xx_HAL_Driver/Src/stm32f4xx_hal_adc_ex.cpp ****       
 751              		.loc 1 395 5 is_stmt 1 view .LVU219
 752 0038 1A6C     		ldr	r2, [r3, #64]
 753 003a 42F02002 		orr	r2, r2, #32
 754 003e 1A64     		str	r2, [r3, #64]
 397:Drivers/STM32F4xx_HAL_Driver/Src/stm32f4xx_hal_adc_ex.cpp ****   }
 755              		.loc 1 397 5 view .LVU220
 756              	.LVL60:
ARM GAS  C:\Users\huawei\AppData\Local\Temp\cc1TIrE4.s 			page 37


 397:Drivers/STM32F4xx_HAL_Driver/Src/stm32f4xx_hal_adc_ex.cpp ****   }
 757              		.loc 1 397 20 is_stmt 0 view .LVU221
 758 0040 0120     		movs	r0, #1
 759              	.LVL61:
 760              	.L51:
 401:Drivers/STM32F4xx_HAL_Driver/Src/stm32f4xx_hal_adc_ex.cpp ****   
 761              		.loc 1 401 3 is_stmt 1 view .LVU222
 401:Drivers/STM32F4xx_HAL_Driver/Src/stm32f4xx_hal_adc_ex.cpp ****   
 762              		.loc 1 401 3 view .LVU223
 763 0042 0022     		movs	r2, #0
 764 0044 83F83C20 		strb	r2, [r3, #60]
 401:Drivers/STM32F4xx_HAL_Driver/Src/stm32f4xx_hal_adc_ex.cpp ****   
 765              		.loc 1 401 3 view .LVU224
 404:Drivers/STM32F4xx_HAL_Driver/Src/stm32f4xx_hal_adc_ex.cpp **** }
 766              		.loc 1 404 3 view .LVU225
 404:Drivers/STM32F4xx_HAL_Driver/Src/stm32f4xx_hal_adc_ex.cpp **** }
 767              		.loc 1 404 10 is_stmt 0 view .LVU226
 768 0048 7047     		bx	lr
 769              	.LVL62:
 770              	.L50:
 387:Drivers/STM32F4xx_HAL_Driver/Src/stm32f4xx_hal_adc_ex.cpp ****                         HAL_ADC_STATE_REG_BUSY | HAL_ADC_STATE_INJ_BUSY,
 771              		.loc 1 387 7 is_stmt 1 view .LVU227
 772 004a 026C     		ldr	r2, [r0, #64]
 773 004c 22F48852 		bic	r2, r2, #4352
 774 0050 22F00102 		bic	r2, r2, #1
 775 0054 42F00102 		orr	r2, r2, #1
 776 0058 0264     		str	r2, [r0, #64]
 362:Drivers/STM32F4xx_HAL_Driver/Src/stm32f4xx_hal_adc_ex.cpp ****   
 777              		.loc 1 362 21 is_stmt 0 view .LVU228
 778 005a 0020     		movs	r0, #0
 779              	.LVL63:
 362:Drivers/STM32F4xx_HAL_Driver/Src/stm32f4xx_hal_adc_ex.cpp ****   
 780              		.loc 1 362 21 view .LVU229
 781 005c F1E7     		b	.L51
 782              	.LVL64:
 783              	.L52:
 368:Drivers/STM32F4xx_HAL_Driver/Src/stm32f4xx_hal_adc_ex.cpp ****     
 784              		.loc 1 368 3 view .LVU230
 785 005e 0220     		movs	r0, #2
 786              	.LVL65:
 405:Drivers/STM32F4xx_HAL_Driver/Src/stm32f4xx_hal_adc_ex.cpp **** 
 787              		.loc 1 405 1 view .LVU231
 788 0060 7047     		bx	lr
 789              		.cfi_endproc
 790              	.LFE237:
 791              		.cantunwind
 792              		.fnend
 794              		.section	.text.HAL_ADCEx_InjectedPollForConversion,"ax",%progbits
 795              		.align	1
 796              		.global	HAL_ADCEx_InjectedPollForConversion
 797              		.syntax unified
 798              		.thumb
 799              		.thumb_func
 801              	HAL_ADCEx_InjectedPollForConversion:
 802              		.fnstart
 803              	.LVL66:
 804              	.LFB238:
ARM GAS  C:\Users\huawei\AppData\Local\Temp\cc1TIrE4.s 			page 38


 415:Drivers/STM32F4xx_HAL_Driver/Src/stm32f4xx_hal_adc_ex.cpp ****   uint32_t tickstart = 0U;
 805              		.loc 1 415 1 is_stmt 1 view -0
 806              		.cfi_startproc
 807              		@ args = 0, pretend = 0, frame = 0
 808              		@ frame_needed = 0, uses_anonymous_args = 0
 415:Drivers/STM32F4xx_HAL_Driver/Src/stm32f4xx_hal_adc_ex.cpp ****   uint32_t tickstart = 0U;
 809              		.loc 1 415 1 is_stmt 0 view .LVU233
 810 0000 70B5     		push	{r4, r5, r6, lr}
 811              		.save {r4, r5, r6, lr}
 812              	.LCFI9:
 813              		.cfi_def_cfa_offset 16
 814              		.cfi_offset 4, -16
 815              		.cfi_offset 5, -12
 816              		.cfi_offset 6, -8
 817              		.cfi_offset 14, -4
 818 0002 0446     		mov	r4, r0
 819 0004 0D46     		mov	r5, r1
 416:Drivers/STM32F4xx_HAL_Driver/Src/stm32f4xx_hal_adc_ex.cpp **** 
 820              		.loc 1 416 3 is_stmt 1 view .LVU234
 821              	.LVL67:
 419:Drivers/STM32F4xx_HAL_Driver/Src/stm32f4xx_hal_adc_ex.cpp **** 
 822              		.loc 1 419 3 view .LVU235
 419:Drivers/STM32F4xx_HAL_Driver/Src/stm32f4xx_hal_adc_ex.cpp **** 
 823              		.loc 1 419 26 is_stmt 0 view .LVU236
 824 0006 FFF7FEFF 		bl	HAL_GetTick
 825              	.LVL68:
 419:Drivers/STM32F4xx_HAL_Driver/Src/stm32f4xx_hal_adc_ex.cpp **** 
 826              		.loc 1 419 26 view .LVU237
 827 000a 0646     		mov	r6, r0
 828              	.LVL69:
 422:Drivers/STM32F4xx_HAL_Driver/Src/stm32f4xx_hal_adc_ex.cpp ****   {
 829              		.loc 1 422 3 is_stmt 1 view .LVU238
 830              	.L55:
 422:Drivers/STM32F4xx_HAL_Driver/Src/stm32f4xx_hal_adc_ex.cpp ****   {
 831              		.loc 1 422 9 view .LVU239
 422:Drivers/STM32F4xx_HAL_Driver/Src/stm32f4xx_hal_adc_ex.cpp ****   {
 832              		.loc 1 422 11 is_stmt 0 view .LVU240
 833 000c 2368     		ldr	r3, [r4]
 834 000e 1A68     		ldr	r2, [r3]
 422:Drivers/STM32F4xx_HAL_Driver/Src/stm32f4xx_hal_adc_ex.cpp ****   {
 835              		.loc 1 422 9 view .LVU241
 836 0010 12F0040F 		tst	r2, #4
 837 0014 15D1     		bne	.L67
 425:Drivers/STM32F4xx_HAL_Driver/Src/stm32f4xx_hal_adc_ex.cpp ****     {
 838              		.loc 1 425 5 is_stmt 1 view .LVU242
 839 0016 B5F1FF3F 		cmp	r5, #-1
 840 001a F7D0     		beq	.L55
 427:Drivers/STM32F4xx_HAL_Driver/Src/stm32f4xx_hal_adc_ex.cpp ****       {
 841              		.loc 1 427 7 view .LVU243
 427:Drivers/STM32F4xx_HAL_Driver/Src/stm32f4xx_hal_adc_ex.cpp ****       {
 842              		.loc 1 427 25 is_stmt 0 view .LVU244
 843 001c 5DB9     		cbnz	r5, .L68
 844              	.L56:
 430:Drivers/STM32F4xx_HAL_Driver/Src/stm32f4xx_hal_adc_ex.cpp ****         {
 845              		.loc 1 430 9 is_stmt 1 discriminator 3 view .LVU245
 430:Drivers/STM32F4xx_HAL_Driver/Src/stm32f4xx_hal_adc_ex.cpp ****         {
 846              		.loc 1 430 14 is_stmt 0 discriminator 3 view .LVU246
ARM GAS  C:\Users\huawei\AppData\Local\Temp\cc1TIrE4.s 			page 39


 847 001e 2368     		ldr	r3, [r4]
 848 0020 1B68     		ldr	r3, [r3]
 430:Drivers/STM32F4xx_HAL_Driver/Src/stm32f4xx_hal_adc_ex.cpp ****         {
 849              		.loc 1 430 9 discriminator 3 view .LVU247
 850 0022 13F0040F 		tst	r3, #4
 851 0026 F1D1     		bne	.L55
 432:Drivers/STM32F4xx_HAL_Driver/Src/stm32f4xx_hal_adc_ex.cpp ****           /* Process unlocked */
 852              		.loc 1 432 11 is_stmt 1 view .LVU248
 432:Drivers/STM32F4xx_HAL_Driver/Src/stm32f4xx_hal_adc_ex.cpp ****           /* Process unlocked */
 853              		.loc 1 432 22 is_stmt 0 view .LVU249
 854 0028 0423     		movs	r3, #4
 855 002a 2364     		str	r3, [r4, #64]
 434:Drivers/STM32F4xx_HAL_Driver/Src/stm32f4xx_hal_adc_ex.cpp ****           return HAL_TIMEOUT;
 856              		.loc 1 434 11 is_stmt 1 view .LVU250
 434:Drivers/STM32F4xx_HAL_Driver/Src/stm32f4xx_hal_adc_ex.cpp ****           return HAL_TIMEOUT;
 857              		.loc 1 434 11 view .LVU251
 858 002c 0023     		movs	r3, #0
 859 002e 84F83C30 		strb	r3, [r4, #60]
 434:Drivers/STM32F4xx_HAL_Driver/Src/stm32f4xx_hal_adc_ex.cpp ****           return HAL_TIMEOUT;
 860              		.loc 1 434 11 view .LVU252
 435:Drivers/STM32F4xx_HAL_Driver/Src/stm32f4xx_hal_adc_ex.cpp ****         }
 861              		.loc 1 435 11 view .LVU253
 435:Drivers/STM32F4xx_HAL_Driver/Src/stm32f4xx_hal_adc_ex.cpp ****         }
 862              		.loc 1 435 18 is_stmt 0 view .LVU254
 863 0032 0320     		movs	r0, #3
 864 0034 31E0     		b	.L58
 865              	.L68:
 427:Drivers/STM32F4xx_HAL_Driver/Src/stm32f4xx_hal_adc_ex.cpp ****       {
 866              		.loc 1 427 40 discriminator 2 view .LVU255
 867 0036 FFF7FEFF 		bl	HAL_GetTick
 868              	.LVL70:
 427:Drivers/STM32F4xx_HAL_Driver/Src/stm32f4xx_hal_adc_ex.cpp ****       {
 869              		.loc 1 427 43 discriminator 2 view .LVU256
 870 003a 801B     		subs	r0, r0, r6
 427:Drivers/STM32F4xx_HAL_Driver/Src/stm32f4xx_hal_adc_ex.cpp ****       {
 871              		.loc 1 427 25 discriminator 2 view .LVU257
 872 003c A842     		cmp	r0, r5
 873 003e E5D9     		bls	.L55
 874 0040 EDE7     		b	.L56
 875              	.L67:
 442:Drivers/STM32F4xx_HAL_Driver/Src/stm32f4xx_hal_adc_ex.cpp ****     
 876              		.loc 1 442 3 is_stmt 1 view .LVU258
 877 0042 6FF00C02 		mvn	r2, #12
 878 0046 1A60     		str	r2, [r3]
 445:Drivers/STM32F4xx_HAL_Driver/Src/stm32f4xx_hal_adc_ex.cpp ****   
 879              		.loc 1 445 3 view .LVU259
 880 0048 236C     		ldr	r3, [r4, #64]
 881 004a 43F40053 		orr	r3, r3, #8192
 882 004e 2364     		str	r3, [r4, #64]
 453:Drivers/STM32F4xx_HAL_Driver/Src/stm32f4xx_hal_adc_ex.cpp ****      (HAL_IS_BIT_CLR(hadc->Instance->JSQR, ADC_JSQR_JL)  ||
 883              		.loc 1 453 3 view .LVU260
 453:Drivers/STM32F4xx_HAL_Driver/Src/stm32f4xx_hal_adc_ex.cpp ****      (HAL_IS_BIT_CLR(hadc->Instance->JSQR, ADC_JSQR_JL)  ||
 884              		.loc 1 453 6 is_stmt 0 view .LVU261
 885 0050 2368     		ldr	r3, [r4]
 886 0052 9A68     		ldr	r2, [r3, #8]
 455:Drivers/STM32F4xx_HAL_Driver/Src/stm32f4xx_hal_adc_ex.cpp ****      (HAL_IS_BIT_CLR(hadc->Instance->CR1, ADC_CR1_JAUTO) &&
 887              		.loc 1 455 62 view .LVU262
ARM GAS  C:\Users\huawei\AppData\Local\Temp\cc1TIrE4.s 			page 40


 888 0054 12F4401F 		tst	r2, #3145728
 889 0058 1ED1     		bne	.L61
 454:Drivers/STM32F4xx_HAL_Driver/Src/stm32f4xx_hal_adc_ex.cpp ****       HAL_IS_BIT_CLR(hadc->Instance->CR2, ADC_CR2_EOCS)    ) &&
 890              		.loc 1 454 7 view .LVU263
 891 005a 9A6B     		ldr	r2, [r3, #56]
 453:Drivers/STM32F4xx_HAL_Driver/Src/stm32f4xx_hal_adc_ex.cpp ****      (HAL_IS_BIT_CLR(hadc->Instance->JSQR, ADC_JSQR_JL)  ||
 892              		.loc 1 453 62 view .LVU264
 893 005c 12F4401F 		tst	r2, #3145728
 894 0060 03D0     		beq	.L60
 455:Drivers/STM32F4xx_HAL_Driver/Src/stm32f4xx_hal_adc_ex.cpp ****      (HAL_IS_BIT_CLR(hadc->Instance->CR1, ADC_CR1_JAUTO) &&
 895              		.loc 1 455 7 view .LVU265
 896 0062 9A68     		ldr	r2, [r3, #8]
 454:Drivers/STM32F4xx_HAL_Driver/Src/stm32f4xx_hal_adc_ex.cpp ****       HAL_IS_BIT_CLR(hadc->Instance->CR2, ADC_CR2_EOCS)    ) &&
 897              		.loc 1 454 58 view .LVU266
 898 0064 12F4806F 		tst	r2, #1024
 899 0068 18D1     		bne	.L62
 900              	.L60:
 456:Drivers/STM32F4xx_HAL_Driver/Src/stm32f4xx_hal_adc_ex.cpp ****       (ADC_IS_SOFTWARE_START_REGULAR(hadc)       &&
 901              		.loc 1 456 7 discriminator 2 view .LVU267
 902 006a 5A68     		ldr	r2, [r3, #4]
 455:Drivers/STM32F4xx_HAL_Driver/Src/stm32f4xx_hal_adc_ex.cpp ****      (HAL_IS_BIT_CLR(hadc->Instance->CR1, ADC_CR1_JAUTO) &&
 903              		.loc 1 455 62 discriminator 2 view .LVU268
 904 006c 12F4806F 		tst	r2, #1024
 905 0070 16D1     		bne	.L63
 457:Drivers/STM32F4xx_HAL_Driver/Src/stm32f4xx_hal_adc_ex.cpp ****       (hadc->Init.ContinuousConvMode == DISABLE)   )       )   )
 906              		.loc 1 457 8 view .LVU269
 907 0072 9B68     		ldr	r3, [r3, #8]
 456:Drivers/STM32F4xx_HAL_Driver/Src/stm32f4xx_hal_adc_ex.cpp ****       (ADC_IS_SOFTWARE_START_REGULAR(hadc)       &&
 908              		.loc 1 456 58 view .LVU270
 909 0074 13F0405F 		tst	r3, #805306368
 910 0078 14D1     		bne	.L64
 458:Drivers/STM32F4xx_HAL_Driver/Src/stm32f4xx_hal_adc_ex.cpp ****   {
 911              		.loc 1 458 19 view .LVU271
 912 007a 207E     		ldrb	r0, [r4, #24]	@ zero_extendqisi2
 457:Drivers/STM32F4xx_HAL_Driver/Src/stm32f4xx_hal_adc_ex.cpp ****       (hadc->Init.ContinuousConvMode == DISABLE)   )       )   )
 913              		.loc 1 457 50 view .LVU272
 914 007c A0B9     		cbnz	r0, .L65
 461:Drivers/STM32F4xx_HAL_Driver/Src/stm32f4xx_hal_adc_ex.cpp ****     
 915              		.loc 1 461 5 is_stmt 1 view .LVU273
 916 007e 236C     		ldr	r3, [r4, #64]
 917 0080 23F48053 		bic	r3, r3, #4096
 918 0084 2364     		str	r3, [r4, #64]
 463:Drivers/STM32F4xx_HAL_Driver/Src/stm32f4xx_hal_adc_ex.cpp ****     { 
 919              		.loc 1 463 5 view .LVU274
 463:Drivers/STM32F4xx_HAL_Driver/Src/stm32f4xx_hal_adc_ex.cpp ****     { 
 920              		.loc 1 463 9 is_stmt 0 view .LVU275
 921 0086 236C     		ldr	r3, [r4, #64]
 463:Drivers/STM32F4xx_HAL_Driver/Src/stm32f4xx_hal_adc_ex.cpp ****     { 
 922              		.loc 1 463 5 view .LVU276
 923 0088 13F4807F 		tst	r3, #256
 924 008c 05D1     		bne	.L58
 465:Drivers/STM32F4xx_HAL_Driver/Src/stm32f4xx_hal_adc_ex.cpp ****     }
 925              		.loc 1 465 7 is_stmt 1 view .LVU277
 926 008e 236C     		ldr	r3, [r4, #64]
 927 0090 43F00103 		orr	r3, r3, #1
 928 0094 2364     		str	r3, [r4, #64]
 929 0096 00E0     		b	.L58
ARM GAS  C:\Users\huawei\AppData\Local\Temp\cc1TIrE4.s 			page 41


 930              	.L61:
 470:Drivers/STM32F4xx_HAL_Driver/Src/stm32f4xx_hal_adc_ex.cpp **** }      
 931              		.loc 1 470 10 is_stmt 0 view .LVU278
 932 0098 0020     		movs	r0, #0
 933              	.L58:
 471:Drivers/STM32F4xx_HAL_Driver/Src/stm32f4xx_hal_adc_ex.cpp ****   
 934              		.loc 1 471 1 view .LVU279
 935 009a 70BD     		pop	{r4, r5, r6, pc}
 936              	.LVL71:
 937              	.L62:
 470:Drivers/STM32F4xx_HAL_Driver/Src/stm32f4xx_hal_adc_ex.cpp **** }      
 938              		.loc 1 470 10 view .LVU280
 939 009c 0020     		movs	r0, #0
 940 009e FCE7     		b	.L58
 941              	.L63:
 942 00a0 0020     		movs	r0, #0
 943 00a2 FAE7     		b	.L58
 944              	.L64:
 945 00a4 0020     		movs	r0, #0
 946 00a6 F8E7     		b	.L58
 947              	.L65:
 470:Drivers/STM32F4xx_HAL_Driver/Src/stm32f4xx_hal_adc_ex.cpp **** }      
 948              		.loc 1 470 10 view .LVU281
 949 00a8 0020     		movs	r0, #0
 950 00aa F6E7     		b	.L58
 951              		.cfi_endproc
 952              	.LFE238:
 953              		.fnend
 955              		.section	.text.HAL_ADCEx_InjectedStop_IT,"ax",%progbits
 956              		.align	1
 957              		.global	HAL_ADCEx_InjectedStop_IT
 958              		.syntax unified
 959              		.thumb
 960              		.thumb_func
 962              	HAL_ADCEx_InjectedStop_IT:
 963              		.fnstart
 964              	.LVL72:
 965              	.LFB239:
 486:Drivers/STM32F4xx_HAL_Driver/Src/stm32f4xx_hal_adc_ex.cpp ****   HAL_StatusTypeDef tmp_hal_status = HAL_OK;
 966              		.loc 1 486 1 is_stmt 1 view -0
 967              		.cfi_startproc
 968              		@ args = 0, pretend = 0, frame = 0
 969              		@ frame_needed = 0, uses_anonymous_args = 0
 970              		@ link register save eliminated.
 486:Drivers/STM32F4xx_HAL_Driver/Src/stm32f4xx_hal_adc_ex.cpp ****   HAL_StatusTypeDef tmp_hal_status = HAL_OK;
 971              		.loc 1 486 1 is_stmt 0 view .LVU283
 972 0000 0346     		mov	r3, r0
 487:Drivers/STM32F4xx_HAL_Driver/Src/stm32f4xx_hal_adc_ex.cpp ****   
 973              		.loc 1 487 3 is_stmt 1 view .LVU284
 974              	.LVL73:
 490:Drivers/STM32F4xx_HAL_Driver/Src/stm32f4xx_hal_adc_ex.cpp **** 
 975              		.loc 1 490 3 view .LVU285
 493:Drivers/STM32F4xx_HAL_Driver/Src/stm32f4xx_hal_adc_ex.cpp ****     
 976              		.loc 1 493 3 view .LVU286
 493:Drivers/STM32F4xx_HAL_Driver/Src/stm32f4xx_hal_adc_ex.cpp ****     
 977              		.loc 1 493 3 view .LVU287
 978 0002 90F83C20 		ldrb	r2, [r0, #60]	@ zero_extendqisi2
ARM GAS  C:\Users\huawei\AppData\Local\Temp\cc1TIrE4.s 			page 42


 979 0006 012A     		cmp	r2, #1
 980 0008 2DD0     		beq	.L74
 493:Drivers/STM32F4xx_HAL_Driver/Src/stm32f4xx_hal_adc_ex.cpp ****     
 981              		.loc 1 493 3 discriminator 2 view .LVU288
 982 000a 0122     		movs	r2, #1
 983 000c 80F83C20 		strb	r2, [r0, #60]
 493:Drivers/STM32F4xx_HAL_Driver/Src/stm32f4xx_hal_adc_ex.cpp ****     
 984              		.loc 1 493 3 discriminator 2 view .LVU289
 501:Drivers/STM32F4xx_HAL_Driver/Src/stm32f4xx_hal_adc_ex.cpp ****      HAL_IS_BIT_CLR(hadc->Instance->CR1, ADC_CR1_JAUTO)   )
 985              		.loc 1 501 3 discriminator 2 view .LVU290
 501:Drivers/STM32F4xx_HAL_Driver/Src/stm32f4xx_hal_adc_ex.cpp ****      HAL_IS_BIT_CLR(hadc->Instance->CR1, ADC_CR1_JAUTO)   )
 986              		.loc 1 501 14 is_stmt 0 discriminator 2 view .LVU291
 987 0010 026C     		ldr	r2, [r0, #64]
 501:Drivers/STM32F4xx_HAL_Driver/Src/stm32f4xx_hal_adc_ex.cpp ****      HAL_IS_BIT_CLR(hadc->Instance->CR1, ADC_CR1_JAUTO)   )
 988              		.loc 1 501 57 discriminator 2 view .LVU292
 989 0012 12F4807F 		tst	r2, #256
 990 0016 0FD1     		bne	.L71
 502:Drivers/STM32F4xx_HAL_Driver/Src/stm32f4xx_hal_adc_ex.cpp ****   {
 991              		.loc 1 502 6 discriminator 1 view .LVU293
 992 0018 0268     		ldr	r2, [r0]
 993 001a 5168     		ldr	r1, [r2, #4]
 501:Drivers/STM32F4xx_HAL_Driver/Src/stm32f4xx_hal_adc_ex.cpp ****      HAL_IS_BIT_CLR(hadc->Instance->CR1, ADC_CR1_JAUTO)   )
 994              		.loc 1 501 57 discriminator 1 view .LVU294
 995 001c 11F4806F 		tst	r1, #1024
 996 0020 0AD1     		bne	.L71
 506:Drivers/STM32F4xx_HAL_Driver/Src/stm32f4xx_hal_adc_ex.cpp ****     
 997              		.loc 1 506 5 is_stmt 1 view .LVU295
 998 0022 9168     		ldr	r1, [r2, #8]
 999 0024 21F00101 		bic	r1, r1, #1
 1000 0028 9160     		str	r1, [r2, #8]
 509:Drivers/STM32F4xx_HAL_Driver/Src/stm32f4xx_hal_adc_ex.cpp ****     {
 1001              		.loc 1 509 5 view .LVU296
 509:Drivers/STM32F4xx_HAL_Driver/Src/stm32f4xx_hal_adc_ex.cpp ****     {
 1002              		.loc 1 509 8 is_stmt 0 view .LVU297
 1003 002a 0268     		ldr	r2, [r0]
 1004 002c 9168     		ldr	r1, [r2, #8]
 509:Drivers/STM32F4xx_HAL_Driver/Src/stm32f4xx_hal_adc_ex.cpp ****     {
 1005              		.loc 1 509 5 view .LVU298
 1006 002e 11F0010F 		tst	r1, #1
 1007 0032 0AD0     		beq	.L72
 487:Drivers/STM32F4xx_HAL_Driver/Src/stm32f4xx_hal_adc_ex.cpp ****   
 1008              		.loc 1 487 21 view .LVU299
 1009 0034 0020     		movs	r0, #0
 1010              	.LVL74:
 487:Drivers/STM32F4xx_HAL_Driver/Src/stm32f4xx_hal_adc_ex.cpp ****   
 1011              		.loc 1 487 21 view .LVU300
 1012 0036 04E0     		b	.L73
 1013              	.LVL75:
 1014              	.L71:
 523:Drivers/STM32F4xx_HAL_Driver/Src/stm32f4xx_hal_adc_ex.cpp ****       
 1015              		.loc 1 523 5 is_stmt 1 view .LVU301
 1016 0038 1A6C     		ldr	r2, [r3, #64]
 1017 003a 42F02002 		orr	r2, r2, #32
 1018 003e 1A64     		str	r2, [r3, #64]
 525:Drivers/STM32F4xx_HAL_Driver/Src/stm32f4xx_hal_adc_ex.cpp ****   }
 1019              		.loc 1 525 5 view .LVU302
 1020              	.LVL76:
ARM GAS  C:\Users\huawei\AppData\Local\Temp\cc1TIrE4.s 			page 43


 525:Drivers/STM32F4xx_HAL_Driver/Src/stm32f4xx_hal_adc_ex.cpp ****   }
 1021              		.loc 1 525 20 is_stmt 0 view .LVU303
 1022 0040 0120     		movs	r0, #1
 1023              	.LVL77:
 1024              	.L73:
 529:Drivers/STM32F4xx_HAL_Driver/Src/stm32f4xx_hal_adc_ex.cpp ****   
 1025              		.loc 1 529 3 is_stmt 1 view .LVU304
 529:Drivers/STM32F4xx_HAL_Driver/Src/stm32f4xx_hal_adc_ex.cpp ****   
 1026              		.loc 1 529 3 view .LVU305
 1027 0042 0022     		movs	r2, #0
 1028 0044 83F83C20 		strb	r2, [r3, #60]
 529:Drivers/STM32F4xx_HAL_Driver/Src/stm32f4xx_hal_adc_ex.cpp ****   
 1029              		.loc 1 529 3 view .LVU306
 532:Drivers/STM32F4xx_HAL_Driver/Src/stm32f4xx_hal_adc_ex.cpp **** }
 1030              		.loc 1 532 3 view .LVU307
 532:Drivers/STM32F4xx_HAL_Driver/Src/stm32f4xx_hal_adc_ex.cpp **** }
 1031              		.loc 1 532 10 is_stmt 0 view .LVU308
 1032 0048 7047     		bx	lr
 1033              	.LVL78:
 1034              	.L72:
 512:Drivers/STM32F4xx_HAL_Driver/Src/stm32f4xx_hal_adc_ex.cpp ****       
 1035              		.loc 1 512 7 is_stmt 1 view .LVU309
 1036 004a 5168     		ldr	r1, [r2, #4]
 1037 004c 21F08001 		bic	r1, r1, #128
 1038 0050 5160     		str	r1, [r2, #4]
 515:Drivers/STM32F4xx_HAL_Driver/Src/stm32f4xx_hal_adc_ex.cpp ****                         HAL_ADC_STATE_REG_BUSY | HAL_ADC_STATE_INJ_BUSY,
 1039              		.loc 1 515 7 view .LVU310
 1040 0052 026C     		ldr	r2, [r0, #64]
 1041 0054 22F48852 		bic	r2, r2, #4352
 1042 0058 22F00102 		bic	r2, r2, #1
 1043 005c 42F00102 		orr	r2, r2, #1
 1044 0060 0264     		str	r2, [r0, #64]
 487:Drivers/STM32F4xx_HAL_Driver/Src/stm32f4xx_hal_adc_ex.cpp ****   
 1045              		.loc 1 487 21 is_stmt 0 view .LVU311
 1046 0062 0020     		movs	r0, #0
 1047              	.LVL79:
 487:Drivers/STM32F4xx_HAL_Driver/Src/stm32f4xx_hal_adc_ex.cpp ****   
 1048              		.loc 1 487 21 view .LVU312
 1049 0064 EDE7     		b	.L73
 1050              	.LVL80:
 1051              	.L74:
 493:Drivers/STM32F4xx_HAL_Driver/Src/stm32f4xx_hal_adc_ex.cpp ****     
 1052              		.loc 1 493 3 view .LVU313
 1053 0066 0220     		movs	r0, #2
 1054              	.LVL81:
 533:Drivers/STM32F4xx_HAL_Driver/Src/stm32f4xx_hal_adc_ex.cpp **** 
 1055              		.loc 1 533 1 view .LVU314
 1056 0068 7047     		bx	lr
 1057              		.cfi_endproc
 1058              	.LFE239:
 1059              		.cantunwind
 1060              		.fnend
 1062              		.section	.text.HAL_ADCEx_InjectedGetValue,"ax",%progbits
 1063              		.align	1
 1064              		.global	HAL_ADCEx_InjectedGetValue
 1065              		.syntax unified
 1066              		.thumb
ARM GAS  C:\Users\huawei\AppData\Local\Temp\cc1TIrE4.s 			page 44


 1067              		.thumb_func
 1069              	HAL_ADCEx_InjectedGetValue:
 1070              		.fnstart
 1071              	.LVL82:
 1072              	.LFB240:
 548:Drivers/STM32F4xx_HAL_Driver/Src/stm32f4xx_hal_adc_ex.cpp ****   __IO uint32_t tmp = 0U;
 1073              		.loc 1 548 1 is_stmt 1 view -0
 1074              		.cfi_startproc
 1075              		@ args = 0, pretend = 0, frame = 8
 1076              		@ frame_needed = 0, uses_anonymous_args = 0
 1077              		@ link register save eliminated.
 548:Drivers/STM32F4xx_HAL_Driver/Src/stm32f4xx_hal_adc_ex.cpp ****   __IO uint32_t tmp = 0U;
 1078              		.loc 1 548 1 is_stmt 0 view .LVU316
 1079 0000 82B0     		sub	sp, sp, #8
 1080              	.LCFI10:
 1081              		.cfi_def_cfa_offset 8
 549:Drivers/STM32F4xx_HAL_Driver/Src/stm32f4xx_hal_adc_ex.cpp ****   
 1082              		.loc 1 549 3 is_stmt 1 view .LVU317
 549:Drivers/STM32F4xx_HAL_Driver/Src/stm32f4xx_hal_adc_ex.cpp ****   
 1083              		.loc 1 549 17 is_stmt 0 view .LVU318
 1084 0002 0023     		movs	r3, #0
 1085 0004 0193     		str	r3, [sp, #4]
 552:Drivers/STM32F4xx_HAL_Driver/Src/stm32f4xx_hal_adc_ex.cpp ****   
 1086              		.loc 1 552 3 is_stmt 1 view .LVU319
 556:Drivers/STM32F4xx_HAL_Driver/Src/stm32f4xx_hal_adc_ex.cpp ****   
 1087              		.loc 1 556 3 view .LVU320
 1088 0006 0368     		ldr	r3, [r0]
 1089 0008 6FF00402 		mvn	r2, #4
 1090 000c 1A60     		str	r2, [r3]
 559:Drivers/STM32F4xx_HAL_Driver/Src/stm32f4xx_hal_adc_ex.cpp ****   {  
 1091              		.loc 1 559 3 view .LVU321
 1092 000e 0139     		subs	r1, r1, #1
 1093              	.LVL83:
 559:Drivers/STM32F4xx_HAL_Driver/Src/stm32f4xx_hal_adc_ex.cpp ****   {  
 1094              		.loc 1 559 3 is_stmt 0 view .LVU322
 1095 0010 0329     		cmp	r1, #3
 1096 0012 06D8     		bhi	.L76
 1097 0014 DFE801F0 		tbb	[pc, r1]
 1098              	.L78:
 1099 0018 10       		.byte	(.L81-.L78)/2
 1100 0019 0C       		.byte	(.L80-.L78)/2
 1101 001a 08       		.byte	(.L79-.L78)/2
 1102 001b 02       		.byte	(.L77-.L78)/2
 1103              		.p2align 1
 1104              	.L77:
 561:Drivers/STM32F4xx_HAL_Driver/Src/stm32f4xx_hal_adc_ex.cpp ****     {
 1105              		.loc 1 561 5 is_stmt 1 view .LVU323
 562:Drivers/STM32F4xx_HAL_Driver/Src/stm32f4xx_hal_adc_ex.cpp ****       tmp =  hadc->Instance->JDR4;
 1106              		.loc 1 562 5 view .LVU324
 563:Drivers/STM32F4xx_HAL_Driver/Src/stm32f4xx_hal_adc_ex.cpp ****     }  
 1107              		.loc 1 563 7 view .LVU325
 563:Drivers/STM32F4xx_HAL_Driver/Src/stm32f4xx_hal_adc_ex.cpp ****     }  
 1108              		.loc 1 563 20 is_stmt 0 view .LVU326
 1109 001c 0368     		ldr	r3, [r0]
 563:Drivers/STM32F4xx_HAL_Driver/Src/stm32f4xx_hal_adc_ex.cpp ****     }  
 1110              		.loc 1 563 30 view .LVU327
 1111 001e 9B6C     		ldr	r3, [r3, #72]
ARM GAS  C:\Users\huawei\AppData\Local\Temp\cc1TIrE4.s 			page 45


 563:Drivers/STM32F4xx_HAL_Driver/Src/stm32f4xx_hal_adc_ex.cpp ****     }  
 1112              		.loc 1 563 11 view .LVU328
 1113 0020 0193     		str	r3, [sp, #4]
 565:Drivers/STM32F4xx_HAL_Driver/Src/stm32f4xx_hal_adc_ex.cpp ****     case ADC_INJECTED_RANK_3: 
 1114              		.loc 1 565 5 is_stmt 1 view .LVU329
 1115              	.L76:
 584:Drivers/STM32F4xx_HAL_Driver/Src/stm32f4xx_hal_adc_ex.cpp **** }
 1116              		.loc 1 584 3 view .LVU330
 584:Drivers/STM32F4xx_HAL_Driver/Src/stm32f4xx_hal_adc_ex.cpp **** }
 1117              		.loc 1 584 10 is_stmt 0 view .LVU331
 1118 0022 0198     		ldr	r0, [sp, #4]
 1119              	.LVL84:
 585:Drivers/STM32F4xx_HAL_Driver/Src/stm32f4xx_hal_adc_ex.cpp **** 
 1120              		.loc 1 585 1 view .LVU332
 1121 0024 02B0     		add	sp, sp, #8
 1122              	.LCFI11:
 1123              		.cfi_remember_state
 1124              		.cfi_def_cfa_offset 0
 1125              		@ sp needed
 1126 0026 7047     		bx	lr
 1127              	.LVL85:
 1128              	.L79:
 1129              	.LCFI12:
 1130              		.cfi_restore_state
 566:Drivers/STM32F4xx_HAL_Driver/Src/stm32f4xx_hal_adc_ex.cpp ****     {  
 1131              		.loc 1 566 5 is_stmt 1 view .LVU333
 567:Drivers/STM32F4xx_HAL_Driver/Src/stm32f4xx_hal_adc_ex.cpp ****       tmp =  hadc->Instance->JDR3;
 1132              		.loc 1 567 5 view .LVU334
 568:Drivers/STM32F4xx_HAL_Driver/Src/stm32f4xx_hal_adc_ex.cpp ****     }  
 1133              		.loc 1 568 7 view .LVU335
 568:Drivers/STM32F4xx_HAL_Driver/Src/stm32f4xx_hal_adc_ex.cpp ****     }  
 1134              		.loc 1 568 20 is_stmt 0 view .LVU336
 1135 0028 0368     		ldr	r3, [r0]
 568:Drivers/STM32F4xx_HAL_Driver/Src/stm32f4xx_hal_adc_ex.cpp ****     }  
 1136              		.loc 1 568 30 view .LVU337
 1137 002a 5B6C     		ldr	r3, [r3, #68]
 568:Drivers/STM32F4xx_HAL_Driver/Src/stm32f4xx_hal_adc_ex.cpp ****     }  
 1138              		.loc 1 568 11 view .LVU338
 1139 002c 0193     		str	r3, [sp, #4]
 570:Drivers/STM32F4xx_HAL_Driver/Src/stm32f4xx_hal_adc_ex.cpp ****     case ADC_INJECTED_RANK_2: 
 1140              		.loc 1 570 5 is_stmt 1 view .LVU339
 1141 002e F8E7     		b	.L76
 1142              	.L80:
 571:Drivers/STM32F4xx_HAL_Driver/Src/stm32f4xx_hal_adc_ex.cpp ****     {  
 1143              		.loc 1 571 5 view .LVU340
 572:Drivers/STM32F4xx_HAL_Driver/Src/stm32f4xx_hal_adc_ex.cpp ****       tmp =  hadc->Instance->JDR2;
 1144              		.loc 1 572 5 view .LVU341
 573:Drivers/STM32F4xx_HAL_Driver/Src/stm32f4xx_hal_adc_ex.cpp ****     }
 1145              		.loc 1 573 7 view .LVU342
 573:Drivers/STM32F4xx_HAL_Driver/Src/stm32f4xx_hal_adc_ex.cpp ****     }
 1146              		.loc 1 573 20 is_stmt 0 view .LVU343
 1147 0030 0368     		ldr	r3, [r0]
 573:Drivers/STM32F4xx_HAL_Driver/Src/stm32f4xx_hal_adc_ex.cpp ****     }
 1148              		.loc 1 573 30 view .LVU344
 1149 0032 1B6C     		ldr	r3, [r3, #64]
 573:Drivers/STM32F4xx_HAL_Driver/Src/stm32f4xx_hal_adc_ex.cpp ****     }
 1150              		.loc 1 573 11 view .LVU345
ARM GAS  C:\Users\huawei\AppData\Local\Temp\cc1TIrE4.s 			page 46


 1151 0034 0193     		str	r3, [sp, #4]
 575:Drivers/STM32F4xx_HAL_Driver/Src/stm32f4xx_hal_adc_ex.cpp ****     case ADC_INJECTED_RANK_1:
 1152              		.loc 1 575 5 is_stmt 1 view .LVU346
 1153 0036 F4E7     		b	.L76
 1154              	.L81:
 576:Drivers/STM32F4xx_HAL_Driver/Src/stm32f4xx_hal_adc_ex.cpp ****     {
 1155              		.loc 1 576 5 view .LVU347
 577:Drivers/STM32F4xx_HAL_Driver/Src/stm32f4xx_hal_adc_ex.cpp ****       tmp =  hadc->Instance->JDR1;
 1156              		.loc 1 577 5 view .LVU348
 578:Drivers/STM32F4xx_HAL_Driver/Src/stm32f4xx_hal_adc_ex.cpp ****     }
 1157              		.loc 1 578 7 view .LVU349
 578:Drivers/STM32F4xx_HAL_Driver/Src/stm32f4xx_hal_adc_ex.cpp ****     }
 1158              		.loc 1 578 20 is_stmt 0 view .LVU350
 1159 0038 0368     		ldr	r3, [r0]
 578:Drivers/STM32F4xx_HAL_Driver/Src/stm32f4xx_hal_adc_ex.cpp ****     }
 1160              		.loc 1 578 30 view .LVU351
 1161 003a DB6B     		ldr	r3, [r3, #60]
 578:Drivers/STM32F4xx_HAL_Driver/Src/stm32f4xx_hal_adc_ex.cpp ****     }
 1162              		.loc 1 578 11 view .LVU352
 1163 003c 0193     		str	r3, [sp, #4]
 580:Drivers/STM32F4xx_HAL_Driver/Src/stm32f4xx_hal_adc_ex.cpp ****     default:
 1164              		.loc 1 580 5 is_stmt 1 view .LVU353
 1165 003e F0E7     		b	.L76
 1166              		.cfi_endproc
 1167              	.LFE240:
 1168              		.cantunwind
 1169              		.fnend
 1171              		.section	.text.HAL_ADCEx_MultiModeStart_DMA,"ax",%progbits
 1172              		.align	1
 1173              		.global	HAL_ADCEx_MultiModeStart_DMA
 1174              		.syntax unified
 1175              		.thumb
 1176              		.thumb_func
 1178              	HAL_ADCEx_MultiModeStart_DMA:
 1179              		.fnstart
 1180              	.LVL86:
 1181              	.LFB241:
 599:Drivers/STM32F4xx_HAL_Driver/Src/stm32f4xx_hal_adc_ex.cpp ****   __IO uint32_t counter = 0U;
 1182              		.loc 1 599 1 view -0
 1183              		.cfi_startproc
 1184              		@ args = 0, pretend = 0, frame = 8
 1185              		@ frame_needed = 0, uses_anonymous_args = 0
 599:Drivers/STM32F4xx_HAL_Driver/Src/stm32f4xx_hal_adc_ex.cpp ****   __IO uint32_t counter = 0U;
 1186              		.loc 1 599 1 is_stmt 0 view .LVU355
 1187 0000 10B5     		push	{r4, lr}
 1188              		.save {r4, lr}
 1189              	.LCFI13:
 1190              		.cfi_def_cfa_offset 8
 1191              		.cfi_offset 4, -8
 1192              		.cfi_offset 14, -4
 1193              		.pad #8
 1194 0002 82B0     		sub	sp, sp, #8
 1195              	.LCFI14:
 1196              		.cfi_def_cfa_offset 16
 1197 0004 1346     		mov	r3, r2
 600:Drivers/STM32F4xx_HAL_Driver/Src/stm32f4xx_hal_adc_ex.cpp ****   ADC_Common_TypeDef *tmpADC_Common;
 1198              		.loc 1 600 3 is_stmt 1 view .LVU356
ARM GAS  C:\Users\huawei\AppData\Local\Temp\cc1TIrE4.s 			page 47


 600:Drivers/STM32F4xx_HAL_Driver/Src/stm32f4xx_hal_adc_ex.cpp ****   ADC_Common_TypeDef *tmpADC_Common;
 1199              		.loc 1 600 17 is_stmt 0 view .LVU357
 1200 0006 0022     		movs	r2, #0
 1201              	.LVL87:
 600:Drivers/STM32F4xx_HAL_Driver/Src/stm32f4xx_hal_adc_ex.cpp ****   ADC_Common_TypeDef *tmpADC_Common;
 1202              		.loc 1 600 17 view .LVU358
 1203 0008 0192     		str	r2, [sp, #4]
 601:Drivers/STM32F4xx_HAL_Driver/Src/stm32f4xx_hal_adc_ex.cpp ****   
 1204              		.loc 1 601 3 is_stmt 1 view .LVU359
 604:Drivers/STM32F4xx_HAL_Driver/Src/stm32f4xx_hal_adc_ex.cpp ****   assert_param(IS_ADC_EXT_TRIG_EDGE(hadc->Init.ExternalTrigConvEdge));
 1205              		.loc 1 604 3 view .LVU360
 605:Drivers/STM32F4xx_HAL_Driver/Src/stm32f4xx_hal_adc_ex.cpp ****   assert_param(IS_FUNCTIONAL_STATE(hadc->Init.DMAContinuousRequests));
 1206              		.loc 1 605 3 view .LVU361
 606:Drivers/STM32F4xx_HAL_Driver/Src/stm32f4xx_hal_adc_ex.cpp ****   
 1207              		.loc 1 606 3 view .LVU362
 609:Drivers/STM32F4xx_HAL_Driver/Src/stm32f4xx_hal_adc_ex.cpp ****   
 1208              		.loc 1 609 3 view .LVU363
 609:Drivers/STM32F4xx_HAL_Driver/Src/stm32f4xx_hal_adc_ex.cpp ****   
 1209              		.loc 1 609 3 view .LVU364
 1210 000a 90F83C20 		ldrb	r2, [r0, #60]	@ zero_extendqisi2
 1211 000e 012A     		cmp	r2, #1
 1212 0010 7CD0     		beq	.L95
 1213 0012 0446     		mov	r4, r0
 609:Drivers/STM32F4xx_HAL_Driver/Src/stm32f4xx_hal_adc_ex.cpp ****   
 1214              		.loc 1 609 3 discriminator 2 view .LVU365
 1215 0014 0122     		movs	r2, #1
 1216 0016 80F83C20 		strb	r2, [r0, #60]
 609:Drivers/STM32F4xx_HAL_Driver/Src/stm32f4xx_hal_adc_ex.cpp ****   
 1217              		.loc 1 609 3 discriminator 2 view .LVU366
 613:Drivers/STM32F4xx_HAL_Driver/Src/stm32f4xx_hal_adc_ex.cpp ****   {  
 1218              		.loc 1 613 3 discriminator 2 view .LVU367
 613:Drivers/STM32F4xx_HAL_Driver/Src/stm32f4xx_hal_adc_ex.cpp ****   {  
 1219              		.loc 1 613 13 is_stmt 0 discriminator 2 view .LVU368
 1220 001a 0268     		ldr	r2, [r0]
 613:Drivers/STM32F4xx_HAL_Driver/Src/stm32f4xx_hal_adc_ex.cpp ****   {  
 1221              		.loc 1 613 23 discriminator 2 view .LVU369
 1222 001c 9068     		ldr	r0, [r2, #8]
 1223              	.LVL88:
 613:Drivers/STM32F4xx_HAL_Driver/Src/stm32f4xx_hal_adc_ex.cpp ****   {  
 1224              		.loc 1 613 3 discriminator 2 view .LVU370
 1225 001e 10F0010F 		tst	r0, #1
 1226 0022 13D1     		bne	.L86
 616:Drivers/STM32F4xx_HAL_Driver/Src/stm32f4xx_hal_adc_ex.cpp ****     
 1227              		.loc 1 616 5 is_stmt 1 view .LVU371
 1228 0024 9068     		ldr	r0, [r2, #8]
 1229 0026 40F00100 		orr	r0, r0, #1
 1230 002a 9060     		str	r0, [r2, #8]
 620:Drivers/STM32F4xx_HAL_Driver/Src/stm32f4xx_hal_adc_ex.cpp ****     while(counter != 0U)
 1231              		.loc 1 620 5 view .LVU372
 620:Drivers/STM32F4xx_HAL_Driver/Src/stm32f4xx_hal_adc_ex.cpp ****     while(counter != 0U)
 1232              		.loc 1 620 53 is_stmt 0 view .LVU373
 1233 002c 394A     		ldr	r2, .L98
 1234 002e 1068     		ldr	r0, [r2]
 1235 0030 394A     		ldr	r2, .L98+4
 1236 0032 A2FB0020 		umull	r2, r0, r2, r0
 1237 0036 800C     		lsrs	r0, r0, #18
 620:Drivers/STM32F4xx_HAL_Driver/Src/stm32f4xx_hal_adc_ex.cpp ****     while(counter != 0U)
ARM GAS  C:\Users\huawei\AppData\Local\Temp\cc1TIrE4.s 			page 48


 1238              		.loc 1 620 34 view .LVU374
 1239 0038 00EB4000 		add	r0, r0, r0, lsl #1
 620:Drivers/STM32F4xx_HAL_Driver/Src/stm32f4xx_hal_adc_ex.cpp ****     while(counter != 0U)
 1240              		.loc 1 620 13 view .LVU375
 1241 003c 0190     		str	r0, [sp, #4]
 621:Drivers/STM32F4xx_HAL_Driver/Src/stm32f4xx_hal_adc_ex.cpp ****     {
 1242              		.loc 1 621 5 is_stmt 1 view .LVU376
 1243 003e 02E0     		b	.L87
 1244              	.L88:
 623:Drivers/STM32F4xx_HAL_Driver/Src/stm32f4xx_hal_adc_ex.cpp ****     }
 1245              		.loc 1 623 7 view .LVU377
 623:Drivers/STM32F4xx_HAL_Driver/Src/stm32f4xx_hal_adc_ex.cpp ****     }
 1246              		.loc 1 623 14 is_stmt 0 view .LVU378
 1247 0040 0198     		ldr	r0, [sp, #4]
 1248 0042 0138     		subs	r0, r0, #1
 1249 0044 0190     		str	r0, [sp, #4]
 1250              	.L87:
 621:Drivers/STM32F4xx_HAL_Driver/Src/stm32f4xx_hal_adc_ex.cpp ****     {
 1251              		.loc 1 621 19 is_stmt 1 view .LVU379
 1252 0046 0198     		ldr	r0, [sp, #4]
 1253 0048 0028     		cmp	r0, #0
 1254 004a F9D1     		bne	.L88
 1255              	.L86:
 628:Drivers/STM32F4xx_HAL_Driver/Src/stm32f4xx_hal_adc_ex.cpp ****   {
 1256              		.loc 1 628 3 view .LVU380
 628:Drivers/STM32F4xx_HAL_Driver/Src/stm32f4xx_hal_adc_ex.cpp ****   {
 1257              		.loc 1 628 6 is_stmt 0 view .LVU381
 1258 004c 2268     		ldr	r2, [r4]
 1259 004e 9068     		ldr	r0, [r2, #8]
 628:Drivers/STM32F4xx_HAL_Driver/Src/stm32f4xx_hal_adc_ex.cpp ****   {
 1260              		.loc 1 628 3 view .LVU382
 1261 0050 10F0010F 		tst	r0, #1
 1262 0054 4FD0     		beq	.L89
 633:Drivers/STM32F4xx_HAL_Driver/Src/stm32f4xx_hal_adc_ex.cpp ****                       HAL_ADC_STATE_READY | HAL_ADC_STATE_REG_EOC | HAL_ADC_STATE_REG_OVR,
 1263              		.loc 1 633 5 is_stmt 1 view .LVU383
 1264 0056 206C     		ldr	r0, [r4, #64]
 1265 0058 20F4E060 		bic	r0, r0, #1792
 1266 005c 20F00100 		bic	r0, r0, #1
 1267 0060 40F48070 		orr	r0, r0, #256
 1268 0064 2064     		str	r0, [r4, #64]
 639:Drivers/STM32F4xx_HAL_Driver/Src/stm32f4xx_hal_adc_ex.cpp ****     {
 1269              		.loc 1 639 5 view .LVU384
 639:Drivers/STM32F4xx_HAL_Driver/Src/stm32f4xx_hal_adc_ex.cpp ****     {
 1270              		.loc 1 639 9 is_stmt 0 view .LVU385
 1271 0066 5268     		ldr	r2, [r2, #4]
 639:Drivers/STM32F4xx_HAL_Driver/Src/stm32f4xx_hal_adc_ex.cpp ****     {
 1272              		.loc 1 639 5 view .LVU386
 1273 0068 12F4806F 		tst	r2, #1024
 1274 006c 05D0     		beq	.L90
 641:Drivers/STM32F4xx_HAL_Driver/Src/stm32f4xx_hal_adc_ex.cpp ****     }
 1275              		.loc 1 641 7 is_stmt 1 view .LVU387
 1276 006e 226C     		ldr	r2, [r4, #64]
 1277 0070 22F44052 		bic	r2, r2, #12288
 1278 0074 42F48052 		orr	r2, r2, #4096
 1279 0078 2264     		str	r2, [r4, #64]
 1280              	.L90:
 645:Drivers/STM32F4xx_HAL_Driver/Src/stm32f4xx_hal_adc_ex.cpp ****     {
ARM GAS  C:\Users\huawei\AppData\Local\Temp\cc1TIrE4.s 			page 49


 1281              		.loc 1 645 5 view .LVU388
 645:Drivers/STM32F4xx_HAL_Driver/Src/stm32f4xx_hal_adc_ex.cpp ****     {
 1282              		.loc 1 645 9 is_stmt 0 view .LVU389
 1283 007a 226C     		ldr	r2, [r4, #64]
 645:Drivers/STM32F4xx_HAL_Driver/Src/stm32f4xx_hal_adc_ex.cpp ****     {
 1284              		.loc 1 645 5 view .LVU390
 1285 007c 12F4805F 		tst	r2, #4096
 1286 0080 30D0     		beq	.L91
 648:Drivers/STM32F4xx_HAL_Driver/Src/stm32f4xx_hal_adc_ex.cpp ****     }
 1287              		.loc 1 648 7 is_stmt 1 view .LVU391
 1288 0082 626C     		ldr	r2, [r4, #68]
 1289 0084 22F00602 		bic	r2, r2, #6
 1290 0088 6264     		str	r2, [r4, #68]
 1291              	.L92:
 659:Drivers/STM32F4xx_HAL_Driver/Src/stm32f4xx_hal_adc_ex.cpp ****     
 1292              		.loc 1 659 5 view .LVU392
 659:Drivers/STM32F4xx_HAL_Driver/Src/stm32f4xx_hal_adc_ex.cpp ****     
 1293              		.loc 1 659 5 view .LVU393
 1294 008a 0022     		movs	r2, #0
 1295 008c 84F83C20 		strb	r2, [r4, #60]
 659:Drivers/STM32F4xx_HAL_Driver/Src/stm32f4xx_hal_adc_ex.cpp ****     
 1296              		.loc 1 659 5 view .LVU394
 662:Drivers/STM32F4xx_HAL_Driver/Src/stm32f4xx_hal_adc_ex.cpp ****     
 1297              		.loc 1 662 5 view .LVU395
 662:Drivers/STM32F4xx_HAL_Driver/Src/stm32f4xx_hal_adc_ex.cpp ****     
 1298              		.loc 1 662 11 is_stmt 0 view .LVU396
 1299 0090 A26B     		ldr	r2, [r4, #56]
 662:Drivers/STM32F4xx_HAL_Driver/Src/stm32f4xx_hal_adc_ex.cpp ****     
 1300              		.loc 1 662 40 view .LVU397
 1301 0092 2248     		ldr	r0, .L98+8
 1302 0094 D063     		str	r0, [r2, #60]
 665:Drivers/STM32F4xx_HAL_Driver/Src/stm32f4xx_hal_adc_ex.cpp ****     
 1303              		.loc 1 665 5 is_stmt 1 view .LVU398
 665:Drivers/STM32F4xx_HAL_Driver/Src/stm32f4xx_hal_adc_ex.cpp ****     
 1304              		.loc 1 665 11 is_stmt 0 view .LVU399
 1305 0096 A26B     		ldr	r2, [r4, #56]
 665:Drivers/STM32F4xx_HAL_Driver/Src/stm32f4xx_hal_adc_ex.cpp ****     
 1306              		.loc 1 665 44 view .LVU400
 1307 0098 2148     		ldr	r0, .L98+12
 1308 009a 1064     		str	r0, [r2, #64]
 668:Drivers/STM32F4xx_HAL_Driver/Src/stm32f4xx_hal_adc_ex.cpp ****     
 1309              		.loc 1 668 5 is_stmt 1 view .LVU401
 668:Drivers/STM32F4xx_HAL_Driver/Src/stm32f4xx_hal_adc_ex.cpp ****     
 1310              		.loc 1 668 11 is_stmt 0 view .LVU402
 1311 009c A26B     		ldr	r2, [r4, #56]
 668:Drivers/STM32F4xx_HAL_Driver/Src/stm32f4xx_hal_adc_ex.cpp ****     
 1312              		.loc 1 668 41 view .LVU403
 1313 009e 2148     		ldr	r0, .L98+16
 1314 00a0 D064     		str	r0, [r2, #76]
 675:Drivers/STM32F4xx_HAL_Driver/Src/stm32f4xx_hal_adc_ex.cpp **** 
 1315              		.loc 1 675 5 is_stmt 1 view .LVU404
 1316 00a2 2268     		ldr	r2, [r4]
 1317 00a4 6FF00200 		mvn	r0, #2
 1318 00a8 1060     		str	r0, [r2]
 678:Drivers/STM32F4xx_HAL_Driver/Src/stm32f4xx_hal_adc_ex.cpp **** 
 1319              		.loc 1 678 5 view .LVU405
 1320 00aa 2068     		ldr	r0, [r4]
ARM GAS  C:\Users\huawei\AppData\Local\Temp\cc1TIrE4.s 			page 50


 1321 00ac 4268     		ldr	r2, [r0, #4]
 1322 00ae 42F08062 		orr	r2, r2, #67108864
 1323 00b2 4260     		str	r2, [r0, #4]
 683:Drivers/STM32F4xx_HAL_Driver/Src/stm32f4xx_hal_adc_ex.cpp **** 
 1324              		.loc 1 683 5 view .LVU406
 1325              	.LVL89:
 685:Drivers/STM32F4xx_HAL_Driver/Src/stm32f4xx_hal_adc_ex.cpp ****     {
 1326              		.loc 1 685 5 view .LVU407
 685:Drivers/STM32F4xx_HAL_Driver/Src/stm32f4xx_hal_adc_ex.cpp ****     {
 1327              		.loc 1 685 20 is_stmt 0 view .LVU408
 1328 00b4 94F83020 		ldrb	r2, [r4, #48]	@ zero_extendqisi2
 685:Drivers/STM32F4xx_HAL_Driver/Src/stm32f4xx_hal_adc_ex.cpp ****     {
 1329              		.loc 1 685 5 view .LVU409
 1330 00b8 BAB1     		cbz	r2, .L93
 688:Drivers/STM32F4xx_HAL_Driver/Src/stm32f4xx_hal_adc_ex.cpp ****     }
 1331              		.loc 1 688 7 is_stmt 1 view .LVU410
 688:Drivers/STM32F4xx_HAL_Driver/Src/stm32f4xx_hal_adc_ex.cpp ****     }
 1332              		.loc 1 688 22 is_stmt 0 view .LVU411
 1333 00ba 1B48     		ldr	r0, .L98+20
 1334 00bc 4268     		ldr	r2, [r0, #4]
 688:Drivers/STM32F4xx_HAL_Driver/Src/stm32f4xx_hal_adc_ex.cpp ****     }
 1335              		.loc 1 688 26 view .LVU412
 1336 00be 42F40052 		orr	r2, r2, #8192
 1337 00c2 4260     		str	r2, [r0, #4]
 1338              	.L94:
 697:Drivers/STM32F4xx_HAL_Driver/Src/stm32f4xx_hal_adc_ex.cpp ****     
 1339              		.loc 1 697 5 is_stmt 1 view .LVU413
 697:Drivers/STM32F4xx_HAL_Driver/Src/stm32f4xx_hal_adc_ex.cpp ****     
 1340              		.loc 1 697 21 is_stmt 0 view .LVU414
 1341 00c4 0A46     		mov	r2, r1
 1342 00c6 1949     		ldr	r1, .L98+24
 1343              	.LVL90:
 697:Drivers/STM32F4xx_HAL_Driver/Src/stm32f4xx_hal_adc_ex.cpp ****     
 1344              		.loc 1 697 21 view .LVU415
 1345 00c8 A06B     		ldr	r0, [r4, #56]
 1346 00ca FFF7FEFF 		bl	HAL_DMA_Start_IT
 1347              	.LVL91:
 700:Drivers/STM32F4xx_HAL_Driver/Src/stm32f4xx_hal_adc_ex.cpp ****     {
 1348              		.loc 1 700 5 is_stmt 1 view .LVU416
 700:Drivers/STM32F4xx_HAL_Driver/Src/stm32f4xx_hal_adc_ex.cpp ****     {
 1349              		.loc 1 700 15 is_stmt 0 view .LVU417
 1350 00ce 2368     		ldr	r3, [r4]
 700:Drivers/STM32F4xx_HAL_Driver/Src/stm32f4xx_hal_adc_ex.cpp ****     {
 1351              		.loc 1 700 25 view .LVU418
 1352 00d0 9A68     		ldr	r2, [r3, #8]
 700:Drivers/STM32F4xx_HAL_Driver/Src/stm32f4xx_hal_adc_ex.cpp ****     {
 1353              		.loc 1 700 5 view .LVU419
 1354 00d2 12F0405F 		tst	r2, #805306368
 1355 00d6 1BD1     		bne	.L96
 703:Drivers/STM32F4xx_HAL_Driver/Src/stm32f4xx_hal_adc_ex.cpp ****     }
 1356              		.loc 1 703 7 is_stmt 1 view .LVU420
 703:Drivers/STM32F4xx_HAL_Driver/Src/stm32f4xx_hal_adc_ex.cpp ****     }
 1357              		.loc 1 703 23 is_stmt 0 view .LVU421
 1358 00d8 9A68     		ldr	r2, [r3, #8]
 703:Drivers/STM32F4xx_HAL_Driver/Src/stm32f4xx_hal_adc_ex.cpp ****     }
 1359              		.loc 1 703 27 view .LVU422
 1360 00da 42F08042 		orr	r2, r2, #1073741824
ARM GAS  C:\Users\huawei\AppData\Local\Temp\cc1TIrE4.s 			page 51


 1361 00de 9A60     		str	r2, [r3, #8]
 716:Drivers/STM32F4xx_HAL_Driver/Src/stm32f4xx_hal_adc_ex.cpp **** }
 1362              		.loc 1 716 10 view .LVU423
 1363 00e0 0020     		movs	r0, #0
 1364 00e2 11E0     		b	.L85
 1365              	.LVL92:
 1366              	.L91:
 653:Drivers/STM32F4xx_HAL_Driver/Src/stm32f4xx_hal_adc_ex.cpp ****     }
 1367              		.loc 1 653 7 is_stmt 1 view .LVU424
 1368 00e4 0022     		movs	r2, #0
 1369 00e6 6264     		str	r2, [r4, #68]
 1370 00e8 CFE7     		b	.L92
 1371              	.LVL93:
 1372              	.L93:
 693:Drivers/STM32F4xx_HAL_Driver/Src/stm32f4xx_hal_adc_ex.cpp ****     }
 1373              		.loc 1 693 7 view .LVU425
 693:Drivers/STM32F4xx_HAL_Driver/Src/stm32f4xx_hal_adc_ex.cpp ****     }
 1374              		.loc 1 693 22 is_stmt 0 view .LVU426
 1375 00ea 0F48     		ldr	r0, .L98+20
 1376 00ec 4268     		ldr	r2, [r0, #4]
 693:Drivers/STM32F4xx_HAL_Driver/Src/stm32f4xx_hal_adc_ex.cpp ****     }
 1377              		.loc 1 693 26 view .LVU427
 1378 00ee 22F40052 		bic	r2, r2, #8192
 1379 00f2 4260     		str	r2, [r0, #4]
 1380 00f4 E6E7     		b	.L94
 1381              	.LVL94:
 1382              	.L89:
 709:Drivers/STM32F4xx_HAL_Driver/Src/stm32f4xx_hal_adc_ex.cpp **** 
 1383              		.loc 1 709 5 is_stmt 1 view .LVU428
 1384 00f6 236C     		ldr	r3, [r4, #64]
 1385              	.LVL95:
 709:Drivers/STM32F4xx_HAL_Driver/Src/stm32f4xx_hal_adc_ex.cpp **** 
 1386              		.loc 1 709 5 is_stmt 0 view .LVU429
 1387 00f8 43F01003 		orr	r3, r3, #16
 1388 00fc 2364     		str	r3, [r4, #64]
 712:Drivers/STM32F4xx_HAL_Driver/Src/stm32f4xx_hal_adc_ex.cpp ****   }
 1389              		.loc 1 712 5 is_stmt 1 view .LVU430
 1390 00fe 636C     		ldr	r3, [r4, #68]
 1391 0100 43F00103 		orr	r3, r3, #1
 1392 0104 6364     		str	r3, [r4, #68]
 716:Drivers/STM32F4xx_HAL_Driver/Src/stm32f4xx_hal_adc_ex.cpp **** }
 1393              		.loc 1 716 10 is_stmt 0 view .LVU431
 1394 0106 0020     		movs	r0, #0
 1395              	.LVL96:
 1396              	.L85:
 717:Drivers/STM32F4xx_HAL_Driver/Src/stm32f4xx_hal_adc_ex.cpp **** 
 1397              		.loc 1 717 1 view .LVU432
 1398 0108 02B0     		add	sp, sp, #8
 1399              	.LCFI15:
 1400              		.cfi_remember_state
 1401              		.cfi_def_cfa_offset 8
 1402              		@ sp needed
 1403 010a 10BD     		pop	{r4, pc}
 1404              	.LVL97:
 1405              	.L95:
 1406              	.LCFI16:
 1407              		.cfi_restore_state
ARM GAS  C:\Users\huawei\AppData\Local\Temp\cc1TIrE4.s 			page 52


 609:Drivers/STM32F4xx_HAL_Driver/Src/stm32f4xx_hal_adc_ex.cpp ****   
 1408              		.loc 1 609 3 view .LVU433
 1409 010c 0220     		movs	r0, #2
 1410              	.LVL98:
 609:Drivers/STM32F4xx_HAL_Driver/Src/stm32f4xx_hal_adc_ex.cpp ****   
 1411              		.loc 1 609 3 view .LVU434
 1412 010e FBE7     		b	.L85
 1413              	.LVL99:
 1414              	.L96:
 716:Drivers/STM32F4xx_HAL_Driver/Src/stm32f4xx_hal_adc_ex.cpp **** }
 1415              		.loc 1 716 10 view .LVU435
 1416 0110 0020     		movs	r0, #0
 1417 0112 F9E7     		b	.L85
 1418              	.L99:
 1419              		.align	2
 1420              	.L98:
 1421 0114 00000000 		.word	SystemCoreClock
 1422 0118 83DE1B43 		.word	1125899907
 1423 011c 00000000 		.word	_ZL24ADC_MultiModeDMAConvCpltP19__DMA_HandleTypeDef
 1424 0120 00000000 		.word	_ZL28ADC_MultiModeDMAHalfConvCpltP19__DMA_HandleTypeDef
 1425 0124 00000000 		.word	_ZL21ADC_MultiModeDMAErrorP19__DMA_HandleTypeDef
 1426 0128 00230140 		.word	1073816320
 1427 012c 08230140 		.word	1073816328
 1428              		.cfi_endproc
 1429              	.LFE241:
 1430              		.fnend
 1432              		.section	.text.HAL_ADCEx_MultiModeStop_DMA,"ax",%progbits
 1433              		.align	1
 1434              		.global	HAL_ADCEx_MultiModeStop_DMA
 1435              		.syntax unified
 1436              		.thumb
 1437              		.thumb_func
 1439              	HAL_ADCEx_MultiModeStop_DMA:
 1440              		.fnstart
 1441              	.LVL100:
 1442              	.LFB242:
 726:Drivers/STM32F4xx_HAL_Driver/Src/stm32f4xx_hal_adc_ex.cpp ****   HAL_StatusTypeDef tmp_hal_status = HAL_OK;
 1443              		.loc 1 726 1 is_stmt 1 view -0
 1444              		.cfi_startproc
 1445              		@ args = 0, pretend = 0, frame = 0
 1446              		@ frame_needed = 0, uses_anonymous_args = 0
 727:Drivers/STM32F4xx_HAL_Driver/Src/stm32f4xx_hal_adc_ex.cpp ****   ADC_Common_TypeDef *tmpADC_Common;
 1447              		.loc 1 727 3 view .LVU437
 728:Drivers/STM32F4xx_HAL_Driver/Src/stm32f4xx_hal_adc_ex.cpp ****   
 1448              		.loc 1 728 3 view .LVU438
 731:Drivers/STM32F4xx_HAL_Driver/Src/stm32f4xx_hal_adc_ex.cpp ****   
 1449              		.loc 1 731 3 view .LVU439
 734:Drivers/STM32F4xx_HAL_Driver/Src/stm32f4xx_hal_adc_ex.cpp ****   
 1450              		.loc 1 734 3 view .LVU440
 734:Drivers/STM32F4xx_HAL_Driver/Src/stm32f4xx_hal_adc_ex.cpp ****   
 1451              		.loc 1 734 3 view .LVU441
 1452 0000 90F83C30 		ldrb	r3, [r0, #60]	@ zero_extendqisi2
 1453 0004 012B     		cmp	r3, #1
 1454 0006 29D0     		beq	.L103
 726:Drivers/STM32F4xx_HAL_Driver/Src/stm32f4xx_hal_adc_ex.cpp ****   HAL_StatusTypeDef tmp_hal_status = HAL_OK;
 1455              		.loc 1 726 1 is_stmt 0 discriminator 2 view .LVU442
 1456 0008 10B5     		push	{r4, lr}
ARM GAS  C:\Users\huawei\AppData\Local\Temp\cc1TIrE4.s 			page 53


 1457              		.save {r4, lr}
 1458              	.LCFI17:
 1459              		.cfi_def_cfa_offset 8
 1460              		.cfi_offset 4, -8
 1461              		.cfi_offset 14, -4
 1462 000a 0446     		mov	r4, r0
 734:Drivers/STM32F4xx_HAL_Driver/Src/stm32f4xx_hal_adc_ex.cpp ****   
 1463              		.loc 1 734 3 is_stmt 1 discriminator 2 view .LVU443
 1464 000c 0123     		movs	r3, #1
 1465 000e 80F83C30 		strb	r3, [r0, #60]
 734:Drivers/STM32F4xx_HAL_Driver/Src/stm32f4xx_hal_adc_ex.cpp ****   
 1466              		.loc 1 734 3 discriminator 2 view .LVU444
 738:Drivers/STM32F4xx_HAL_Driver/Src/stm32f4xx_hal_adc_ex.cpp **** 
 1467              		.loc 1 738 3 discriminator 2 view .LVU445
 1468 0012 0268     		ldr	r2, [r0]
 1469 0014 9368     		ldr	r3, [r2, #8]
 1470 0016 23F00103 		bic	r3, r3, #1
 1471 001a 9360     		str	r3, [r2, #8]
 743:Drivers/STM32F4xx_HAL_Driver/Src/stm32f4xx_hal_adc_ex.cpp **** 
 1472              		.loc 1 743 3 discriminator 2 view .LVU446
 1473              	.LVL101:
 746:Drivers/STM32F4xx_HAL_Driver/Src/stm32f4xx_hal_adc_ex.cpp ****   {
 1474              		.loc 1 746 3 discriminator 2 view .LVU447
 746:Drivers/STM32F4xx_HAL_Driver/Src/stm32f4xx_hal_adc_ex.cpp ****   {
 1475              		.loc 1 746 6 is_stmt 0 discriminator 2 view .LVU448
 1476 001c 0368     		ldr	r3, [r0]
 1477 001e 9B68     		ldr	r3, [r3, #8]
 746:Drivers/STM32F4xx_HAL_Driver/Src/stm32f4xx_hal_adc_ex.cpp ****   {
 1478              		.loc 1 746 3 discriminator 2 view .LVU449
 1479 0020 13F0010F 		tst	r3, #1
 1480 0024 04D0     		beq	.L109
 727:Drivers/STM32F4xx_HAL_Driver/Src/stm32f4xx_hal_adc_ex.cpp ****   ADC_Common_TypeDef *tmpADC_Common;
 1481              		.loc 1 727 21 view .LVU450
 1482 0026 0020     		movs	r0, #0
 1483              	.LVL102:
 1484              	.L102:
 765:Drivers/STM32F4xx_HAL_Driver/Src/stm32f4xx_hal_adc_ex.cpp ****   
 1485              		.loc 1 765 3 is_stmt 1 view .LVU451
 765:Drivers/STM32F4xx_HAL_Driver/Src/stm32f4xx_hal_adc_ex.cpp ****   
 1486              		.loc 1 765 3 view .LVU452
 1487 0028 0023     		movs	r3, #0
 1488 002a 84F83C30 		strb	r3, [r4, #60]
 765:Drivers/STM32F4xx_HAL_Driver/Src/stm32f4xx_hal_adc_ex.cpp ****   
 1489              		.loc 1 765 3 view .LVU453
 768:Drivers/STM32F4xx_HAL_Driver/Src/stm32f4xx_hal_adc_ex.cpp **** }
 1490              		.loc 1 768 3 view .LVU454
 769:Drivers/STM32F4xx_HAL_Driver/Src/stm32f4xx_hal_adc_ex.cpp **** 
 1491              		.loc 1 769 1 is_stmt 0 view .LVU455
 1492 002e 10BD     		pop	{r4, pc}
 1493              	.LVL103:
 1494              	.L109:
 749:Drivers/STM32F4xx_HAL_Driver/Src/stm32f4xx_hal_adc_ex.cpp ****     
 1495              		.loc 1 749 5 is_stmt 1 view .LVU456
 749:Drivers/STM32F4xx_HAL_Driver/Src/stm32f4xx_hal_adc_ex.cpp ****     
 1496              		.loc 1 749 20 is_stmt 0 view .LVU457
 1497 0030 0B4A     		ldr	r2, .L110
 1498 0032 5368     		ldr	r3, [r2, #4]
ARM GAS  C:\Users\huawei\AppData\Local\Temp\cc1TIrE4.s 			page 54


 749:Drivers/STM32F4xx_HAL_Driver/Src/stm32f4xx_hal_adc_ex.cpp ****     
 1499              		.loc 1 749 24 view .LVU458
 1500 0034 23F40053 		bic	r3, r3, #8192
 1501 0038 5360     		str	r3, [r2, #4]
 753:Drivers/STM32F4xx_HAL_Driver/Src/stm32f4xx_hal_adc_ex.cpp ****     
 1502              		.loc 1 753 5 is_stmt 1 view .LVU459
 753:Drivers/STM32F4xx_HAL_Driver/Src/stm32f4xx_hal_adc_ex.cpp ****     
 1503              		.loc 1 753 35 is_stmt 0 view .LVU460
 1504 003a 806B     		ldr	r0, [r0, #56]
 1505              	.LVL104:
 753:Drivers/STM32F4xx_HAL_Driver/Src/stm32f4xx_hal_adc_ex.cpp ****     
 1506              		.loc 1 753 35 view .LVU461
 1507 003c FFF7FEFF 		bl	HAL_DMA_Abort
 1508              	.LVL105:
 756:Drivers/STM32F4xx_HAL_Driver/Src/stm32f4xx_hal_adc_ex.cpp ****     
 1509              		.loc 1 756 5 is_stmt 1 view .LVU462
 1510 0040 2268     		ldr	r2, [r4]
 1511 0042 5368     		ldr	r3, [r2, #4]
 1512 0044 23F08063 		bic	r3, r3, #67108864
 1513 0048 5360     		str	r3, [r2, #4]
 759:Drivers/STM32F4xx_HAL_Driver/Src/stm32f4xx_hal_adc_ex.cpp ****                       HAL_ADC_STATE_REG_BUSY | HAL_ADC_STATE_INJ_BUSY,
 1514              		.loc 1 759 5 view .LVU463
 1515 004a 236C     		ldr	r3, [r4, #64]
 1516 004c 23F48853 		bic	r3, r3, #4352
 1517 0050 23F00103 		bic	r3, r3, #1
 1518 0054 43F00103 		orr	r3, r3, #1
 1519 0058 2364     		str	r3, [r4, #64]
 1520 005a E5E7     		b	.L102
 1521              	.LVL106:
 1522              	.L103:
 1523              	.LCFI18:
 1524              		.cfi_def_cfa_offset 0
 1525              		.cfi_restore 4
 1526              		.cfi_restore 14
 734:Drivers/STM32F4xx_HAL_Driver/Src/stm32f4xx_hal_adc_ex.cpp ****   
 1527              		.loc 1 734 3 is_stmt 0 view .LVU464
 1528 005c 0220     		movs	r0, #2
 1529              	.LVL107:
 769:Drivers/STM32F4xx_HAL_Driver/Src/stm32f4xx_hal_adc_ex.cpp **** 
 1530              		.loc 1 769 1 view .LVU465
 1531 005e 7047     		bx	lr
 1532              	.L111:
 1533              		.align	2
 1534              	.L110:
 1535 0060 00230140 		.word	1073816320
 1536              		.cfi_endproc
 1537              	.LFE242:
 1538              		.fnend
 1540              		.section	.text.HAL_ADCEx_MultiModeGetValue,"ax",%progbits
 1541              		.align	1
 1542              		.global	HAL_ADCEx_MultiModeGetValue
 1543              		.syntax unified
 1544              		.thumb
 1545              		.thumb_func
 1547              	HAL_ADCEx_MultiModeGetValue:
 1548              		.fnstart
 1549              	.LVL108:
ARM GAS  C:\Users\huawei\AppData\Local\Temp\cc1TIrE4.s 			page 55


 1550              	.LFB243:
 779:Drivers/STM32F4xx_HAL_Driver/Src/stm32f4xx_hal_adc_ex.cpp ****   ADC_Common_TypeDef *tmpADC_Common;
 1551              		.loc 1 779 1 is_stmt 1 view -0
 1552              		.cfi_startproc
 1553              		@ args = 0, pretend = 0, frame = 0
 1554              		@ frame_needed = 0, uses_anonymous_args = 0
 1555              		@ link register save eliminated.
 780:Drivers/STM32F4xx_HAL_Driver/Src/stm32f4xx_hal_adc_ex.cpp **** 
 1556              		.loc 1 780 3 view .LVU467
 785:Drivers/STM32F4xx_HAL_Driver/Src/stm32f4xx_hal_adc_ex.cpp **** 
 1557              		.loc 1 785 3 view .LVU468
 788:Drivers/STM32F4xx_HAL_Driver/Src/stm32f4xx_hal_adc_ex.cpp **** }
 1558              		.loc 1 788 3 view .LVU469
 788:Drivers/STM32F4xx_HAL_Driver/Src/stm32f4xx_hal_adc_ex.cpp **** }
 1559              		.loc 1 788 25 is_stmt 0 view .LVU470
 1560 0000 014B     		ldr	r3, .L113
 1561 0002 9868     		ldr	r0, [r3, #8]
 1562              	.LVL109:
 789:Drivers/STM32F4xx_HAL_Driver/Src/stm32f4xx_hal_adc_ex.cpp **** 
 1563              		.loc 1 789 1 view .LVU471
 1564 0004 7047     		bx	lr
 1565              	.L114:
 1566 0006 00BF     		.align	2
 1567              	.L113:
 1568 0008 00230140 		.word	1073816320
 1569              		.cfi_endproc
 1570              	.LFE243:
 1571              		.cantunwind
 1572              		.fnend
 1574              		.section	.text.HAL_ADCEx_InjectedConvCpltCallback,"ax",%progbits
 1575              		.align	1
 1576              		.weak	HAL_ADCEx_InjectedConvCpltCallback
 1577              		.syntax unified
 1578              		.thumb
 1579              		.thumb_func
 1581              	HAL_ADCEx_InjectedConvCpltCallback:
 1582              		.fnstart
 1583              	.LVL110:
 1584              	.LFB244:
 798:Drivers/STM32F4xx_HAL_Driver/Src/stm32f4xx_hal_adc_ex.cpp ****   /* Prevent unused argument(s) compilation warning */
 1585              		.loc 1 798 1 is_stmt 1 view -0
 1586              		.cfi_startproc
 1587              		@ args = 0, pretend = 0, frame = 0
 1588              		@ frame_needed = 0, uses_anonymous_args = 0
 1589              		@ link register save eliminated.
 800:Drivers/STM32F4xx_HAL_Driver/Src/stm32f4xx_hal_adc_ex.cpp ****   /* NOTE : This function Should not be modified, when the callback is needed,
 1590              		.loc 1 800 3 view .LVU473
 804:Drivers/STM32F4xx_HAL_Driver/Src/stm32f4xx_hal_adc_ex.cpp **** 
 1591              		.loc 1 804 1 is_stmt 0 view .LVU474
 1592 0000 7047     		bx	lr
 1593              		.cfi_endproc
 1594              	.LFE244:
 1595              		.cantunwind
 1596              		.fnend
 1598              		.section	.text.HAL_ADCEx_InjectedConfigChannel,"ax",%progbits
 1599              		.align	1
 1600              		.global	HAL_ADCEx_InjectedConfigChannel
ARM GAS  C:\Users\huawei\AppData\Local\Temp\cc1TIrE4.s 			page 56


 1601              		.syntax unified
 1602              		.thumb
 1603              		.thumb_func
 1605              	HAL_ADCEx_InjectedConfigChannel:
 1606              		.fnstart
 1607              	.LVL111:
 1608              	.LFB245:
 815:Drivers/STM32F4xx_HAL_Driver/Src/stm32f4xx_hal_adc_ex.cpp ****   
 1609              		.loc 1 815 1 is_stmt 1 view -0
 1610              		.cfi_startproc
 1611              		@ args = 0, pretend = 0, frame = 0
 1612              		@ frame_needed = 0, uses_anonymous_args = 0
 1613              		@ link register save eliminated.
 822:Drivers/STM32F4xx_HAL_Driver/Src/stm32f4xx_hal_adc_ex.cpp **** 
 1614              		.loc 1 822 3 view .LVU476
 825:Drivers/STM32F4xx_HAL_Driver/Src/stm32f4xx_hal_adc_ex.cpp ****   assert_param(IS_ADC_INJECTED_RANK(sConfigInjected->InjectedRank));
 1615              		.loc 1 825 3 view .LVU477
 826:Drivers/STM32F4xx_HAL_Driver/Src/stm32f4xx_hal_adc_ex.cpp ****   assert_param(IS_ADC_SAMPLE_TIME(sConfigInjected->InjectedSamplingTime));
 1616              		.loc 1 826 3 view .LVU478
 827:Drivers/STM32F4xx_HAL_Driver/Src/stm32f4xx_hal_adc_ex.cpp ****   assert_param(IS_ADC_EXT_INJEC_TRIG(sConfigInjected->ExternalTrigInjecConv));
 1617              		.loc 1 827 3 view .LVU479
 828:Drivers/STM32F4xx_HAL_Driver/Src/stm32f4xx_hal_adc_ex.cpp ****   assert_param(IS_ADC_INJECTED_LENGTH(sConfigInjected->InjectedNbrOfConversion));
 1618              		.loc 1 828 3 view .LVU480
 829:Drivers/STM32F4xx_HAL_Driver/Src/stm32f4xx_hal_adc_ex.cpp ****   assert_param(IS_FUNCTIONAL_STATE(sConfigInjected->AutoInjectedConv));
 1619              		.loc 1 829 3 view .LVU481
 830:Drivers/STM32F4xx_HAL_Driver/Src/stm32f4xx_hal_adc_ex.cpp ****   assert_param(IS_FUNCTIONAL_STATE(sConfigInjected->InjectedDiscontinuousConvMode));
 1620              		.loc 1 830 3 view .LVU482
 831:Drivers/STM32F4xx_HAL_Driver/Src/stm32f4xx_hal_adc_ex.cpp **** 
 1621              		.loc 1 831 3 view .LVU483
 838:Drivers/STM32F4xx_HAL_Driver/Src/stm32f4xx_hal_adc_ex.cpp ****   {
 1622              		.loc 1 838 3 view .LVU484
 844:Drivers/STM32F4xx_HAL_Driver/Src/stm32f4xx_hal_adc_ex.cpp ****   
 1623              		.loc 1 844 3 view .LVU485
 844:Drivers/STM32F4xx_HAL_Driver/Src/stm32f4xx_hal_adc_ex.cpp ****   
 1624              		.loc 1 844 3 view .LVU486
 1625 0000 90F83C20 		ldrb	r2, [r0, #60]	@ zero_extendqisi2
 1626 0004 012A     		cmp	r2, #1
 1627 0006 00F0F980 		beq	.L133
 815:Drivers/STM32F4xx_HAL_Driver/Src/stm32f4xx_hal_adc_ex.cpp ****   
 1628              		.loc 1 815 1 is_stmt 0 discriminator 2 view .LVU487
 1629 000a 30B4     		push	{r4, r5}
 1630              	.LCFI19:
 1631              		.cfi_def_cfa_offset 8
 1632              		.cfi_offset 4, -8
 1633              		.cfi_offset 5, -4
 1634 000c 0346     		mov	r3, r0
 844:Drivers/STM32F4xx_HAL_Driver/Src/stm32f4xx_hal_adc_ex.cpp ****   
 1635              		.loc 1 844 3 is_stmt 1 discriminator 2 view .LVU488
 1636 000e 0122     		movs	r2, #1
 1637 0010 80F83C20 		strb	r2, [r0, #60]
 844:Drivers/STM32F4xx_HAL_Driver/Src/stm32f4xx_hal_adc_ex.cpp ****   
 1638              		.loc 1 844 3 discriminator 2 view .LVU489
 847:Drivers/STM32F4xx_HAL_Driver/Src/stm32f4xx_hal_adc_ex.cpp ****   {
 1639              		.loc 1 847 3 discriminator 2 view .LVU490
 847:Drivers/STM32F4xx_HAL_Driver/Src/stm32f4xx_hal_adc_ex.cpp ****   {
 1640              		.loc 1 847 24 is_stmt 0 discriminator 2 view .LVU491
 1641 0014 0A68     		ldr	r2, [r1]
ARM GAS  C:\Users\huawei\AppData\Local\Temp\cc1TIrE4.s 			page 57


 847:Drivers/STM32F4xx_HAL_Driver/Src/stm32f4xx_hal_adc_ex.cpp ****   {
 1642              		.loc 1 847 3 discriminator 2 view .LVU492
 1643 0016 092A     		cmp	r2, #9
 1644 0018 7CD9     		bls	.L118
 850:Drivers/STM32F4xx_HAL_Driver/Src/stm32f4xx_hal_adc_ex.cpp ****     
 1645              		.loc 1 850 5 is_stmt 1 view .LVU493
 850:Drivers/STM32F4xx_HAL_Driver/Src/stm32f4xx_hal_adc_ex.cpp ****     
 1646              		.loc 1 850 11 is_stmt 0 view .LVU494
 1647 001a 0568     		ldr	r5, [r0]
 850:Drivers/STM32F4xx_HAL_Driver/Src/stm32f4xx_hal_adc_ex.cpp ****     
 1648              		.loc 1 850 21 view .LVU495
 1649 001c E868     		ldr	r0, [r5, #12]
 1650              	.LVL112:
 850:Drivers/STM32F4xx_HAL_Driver/Src/stm32f4xx_hal_adc_ex.cpp ****     
 1651              		.loc 1 850 31 view .LVU496
 1652 001e 92B2     		uxth	r2, r2
 1653 0020 02EB4202 		add	r2, r2, r2, lsl #1
 1654 0024 1E3A     		subs	r2, r2, #30
 1655 0026 0724     		movs	r4, #7
 1656 0028 04FA02F2 		lsl	r2, r4, r2
 850:Drivers/STM32F4xx_HAL_Driver/Src/stm32f4xx_hal_adc_ex.cpp ****     
 1657              		.loc 1 850 27 view .LVU497
 1658 002c 20EA0202 		bic	r2, r0, r2
 1659 0030 EA60     		str	r2, [r5, #12]
 853:Drivers/STM32F4xx_HAL_Driver/Src/stm32f4xx_hal_adc_ex.cpp ****   }
 1660              		.loc 1 853 5 is_stmt 1 view .LVU498
 853:Drivers/STM32F4xx_HAL_Driver/Src/stm32f4xx_hal_adc_ex.cpp ****   }
 1661              		.loc 1 853 11 is_stmt 0 view .LVU499
 1662 0032 1D68     		ldr	r5, [r3]
 853:Drivers/STM32F4xx_HAL_Driver/Src/stm32f4xx_hal_adc_ex.cpp ****   }
 1663              		.loc 1 853 21 view .LVU500
 1664 0034 E868     		ldr	r0, [r5, #12]
 853:Drivers/STM32F4xx_HAL_Driver/Src/stm32f4xx_hal_adc_ex.cpp ****   }
 1665              		.loc 1 853 30 view .LVU501
 1666 0036 8C68     		ldr	r4, [r1, #8]
 1667 0038 0A88     		ldrh	r2, [r1]
 1668 003a 02EB4202 		add	r2, r2, r2, lsl #1
 1669 003e 1E3A     		subs	r2, r2, #30
 1670 0040 9440     		lsls	r4, r4, r2
 853:Drivers/STM32F4xx_HAL_Driver/Src/stm32f4xx_hal_adc_ex.cpp ****   }
 1671              		.loc 1 853 27 view .LVU502
 1672 0042 2043     		orrs	r0, r0, r4
 1673 0044 E860     		str	r0, [r5, #12]
 1674              	.L119:
 865:Drivers/STM32F4xx_HAL_Driver/Src/stm32f4xx_hal_adc_ex.cpp ****   hadc->Instance->JSQR |=  ADC_SQR1(sConfigInjected->InjectedNbrOfConversion);
 1675              		.loc 1 865 3 is_stmt 1 view .LVU503
 865:Drivers/STM32F4xx_HAL_Driver/Src/stm32f4xx_hal_adc_ex.cpp ****   hadc->Instance->JSQR |=  ADC_SQR1(sConfigInjected->InjectedNbrOfConversion);
 1676              		.loc 1 865 9 is_stmt 0 view .LVU504
 1677 0046 1868     		ldr	r0, [r3]
 865:Drivers/STM32F4xx_HAL_Driver/Src/stm32f4xx_hal_adc_ex.cpp ****   hadc->Instance->JSQR |=  ADC_SQR1(sConfigInjected->InjectedNbrOfConversion);
 1678              		.loc 1 865 19 view .LVU505
 1679 0048 826B     		ldr	r2, [r0, #56]
 865:Drivers/STM32F4xx_HAL_Driver/Src/stm32f4xx_hal_adc_ex.cpp ****   hadc->Instance->JSQR |=  ADC_SQR1(sConfigInjected->InjectedNbrOfConversion);
 1680              		.loc 1 865 24 view .LVU506
 1681 004a 22F44012 		bic	r2, r2, #3145728
 1682 004e 8263     		str	r2, [r0, #56]
 866:Drivers/STM32F4xx_HAL_Driver/Src/stm32f4xx_hal_adc_ex.cpp ****   
ARM GAS  C:\Users\huawei\AppData\Local\Temp\cc1TIrE4.s 			page 58


 1683              		.loc 1 866 3 is_stmt 1 view .LVU507
 866:Drivers/STM32F4xx_HAL_Driver/Src/stm32f4xx_hal_adc_ex.cpp ****   
 1684              		.loc 1 866 9 is_stmt 0 view .LVU508
 1685 0050 1C68     		ldr	r4, [r3]
 866:Drivers/STM32F4xx_HAL_Driver/Src/stm32f4xx_hal_adc_ex.cpp ****   
 1686              		.loc 1 866 19 view .LVU509
 1687 0052 A26B     		ldr	r2, [r4, #56]
 866:Drivers/STM32F4xx_HAL_Driver/Src/stm32f4xx_hal_adc_ex.cpp ****   
 1688              		.loc 1 866 28 view .LVU510
 1689 0054 0869     		ldr	r0, [r1, #16]
 1690 0056 0138     		subs	r0, r0, #1
 866:Drivers/STM32F4xx_HAL_Driver/Src/stm32f4xx_hal_adc_ex.cpp ****   
 1691              		.loc 1 866 24 view .LVU511
 1692 0058 42EA0052 		orr	r2, r2, r0, lsl #20
 1693 005c A263     		str	r2, [r4, #56]
 871:Drivers/STM32F4xx_HAL_Driver/Src/stm32f4xx_hal_adc_ex.cpp ****    
 1694              		.loc 1 871 3 is_stmt 1 view .LVU512
 871:Drivers/STM32F4xx_HAL_Driver/Src/stm32f4xx_hal_adc_ex.cpp ****    
 1695              		.loc 1 871 9 is_stmt 0 view .LVU513
 1696 005e 1C68     		ldr	r4, [r3]
 871:Drivers/STM32F4xx_HAL_Driver/Src/stm32f4xx_hal_adc_ex.cpp ****    
 1697              		.loc 1 871 19 view .LVU514
 1698 0060 A06B     		ldr	r0, [r4, #56]
 871:Drivers/STM32F4xx_HAL_Driver/Src/stm32f4xx_hal_adc_ex.cpp ****    
 1699              		.loc 1 871 28 view .LVU515
 1700 0062 4A68     		ldr	r2, [r1, #4]
 1701 0064 0D69     		ldr	r5, [r1, #16]
 1702 0066 521B     		subs	r2, r2, r5
 1703 0068 0332     		adds	r2, r2, #3
 1704 006a D2B2     		uxtb	r2, r2
 1705 006c 02EB8202 		add	r2, r2, r2, lsl #2
 1706 0070 4FF01F0C 		mov	ip, #31
 1707 0074 0CFA02F2 		lsl	r2, ip, r2
 871:Drivers/STM32F4xx_HAL_Driver/Src/stm32f4xx_hal_adc_ex.cpp ****    
 1708              		.loc 1 871 24 view .LVU516
 1709 0078 20EA0202 		bic	r2, r0, r2
 1710 007c A263     		str	r2, [r4, #56]
 874:Drivers/STM32F4xx_HAL_Driver/Src/stm32f4xx_hal_adc_ex.cpp **** 
 1711              		.loc 1 874 3 is_stmt 1 view .LVU517
 874:Drivers/STM32F4xx_HAL_Driver/Src/stm32f4xx_hal_adc_ex.cpp **** 
 1712              		.loc 1 874 9 is_stmt 0 view .LVU518
 1713 007e 1C68     		ldr	r4, [r3]
 874:Drivers/STM32F4xx_HAL_Driver/Src/stm32f4xx_hal_adc_ex.cpp **** 
 1714              		.loc 1 874 19 view .LVU519
 1715 0080 A06B     		ldr	r0, [r4, #56]
 874:Drivers/STM32F4xx_HAL_Driver/Src/stm32f4xx_hal_adc_ex.cpp **** 
 1716              		.loc 1 874 27 view .LVU520
 1717 0082 4A68     		ldr	r2, [r1, #4]
 1718 0084 0D69     		ldr	r5, [r1, #16]
 1719 0086 521B     		subs	r2, r2, r5
 1720 0088 0332     		adds	r2, r2, #3
 1721 008a D2B2     		uxtb	r2, r2
 1722 008c 02EB8202 		add	r2, r2, r2, lsl #2
 1723 0090 B1F800C0 		ldrh	ip, [r1]
 1724 0094 0CFA02F2 		lsl	r2, ip, r2
 874:Drivers/STM32F4xx_HAL_Driver/Src/stm32f4xx_hal_adc_ex.cpp **** 
 1725              		.loc 1 874 24 view .LVU521
ARM GAS  C:\Users\huawei\AppData\Local\Temp\cc1TIrE4.s 			page 59


 1726 0098 0243     		orrs	r2, r2, r0
 1727 009a A263     		str	r2, [r4, #56]
 881:Drivers/STM32F4xx_HAL_Driver/Src/stm32f4xx_hal_adc_ex.cpp ****   {  
 1728              		.loc 1 881 3 is_stmt 1 view .LVU522
 881:Drivers/STM32F4xx_HAL_Driver/Src/stm32f4xx_hal_adc_ex.cpp ****   {  
 1729              		.loc 1 881 23 is_stmt 0 view .LVU523
 1730 009c 8869     		ldr	r0, [r1, #24]
 881:Drivers/STM32F4xx_HAL_Driver/Src/stm32f4xx_hal_adc_ex.cpp ****   {  
 1731              		.loc 1 881 3 view .LVU524
 1732 009e 584A     		ldr	r2, .L141
 1733 00a0 9042     		cmp	r0, r2
 1734 00a2 4CD0     		beq	.L120
 884:Drivers/STM32F4xx_HAL_Driver/Src/stm32f4xx_hal_adc_ex.cpp ****     hadc->Instance->CR2 |=  sConfigInjected->ExternalTrigInjecConv;
 1735              		.loc 1 884 5 is_stmt 1 view .LVU525
 884:Drivers/STM32F4xx_HAL_Driver/Src/stm32f4xx_hal_adc_ex.cpp ****     hadc->Instance->CR2 |=  sConfigInjected->ExternalTrigInjecConv;
 1736              		.loc 1 884 11 is_stmt 0 view .LVU526
 1737 00a4 1868     		ldr	r0, [r3]
 884:Drivers/STM32F4xx_HAL_Driver/Src/stm32f4xx_hal_adc_ex.cpp ****     hadc->Instance->CR2 |=  sConfigInjected->ExternalTrigInjecConv;
 1738              		.loc 1 884 21 view .LVU527
 1739 00a6 8268     		ldr	r2, [r0, #8]
 884:Drivers/STM32F4xx_HAL_Driver/Src/stm32f4xx_hal_adc_ex.cpp ****     hadc->Instance->CR2 |=  sConfigInjected->ExternalTrigInjecConv;
 1740              		.loc 1 884 25 view .LVU528
 1741 00a8 22F47022 		bic	r2, r2, #983040
 1742 00ac 8260     		str	r2, [r0, #8]
 885:Drivers/STM32F4xx_HAL_Driver/Src/stm32f4xx_hal_adc_ex.cpp ****     
 1743              		.loc 1 885 5 is_stmt 1 view .LVU529
 885:Drivers/STM32F4xx_HAL_Driver/Src/stm32f4xx_hal_adc_ex.cpp ****     
 1744              		.loc 1 885 11 is_stmt 0 view .LVU530
 1745 00ae 1868     		ldr	r0, [r3]
 885:Drivers/STM32F4xx_HAL_Driver/Src/stm32f4xx_hal_adc_ex.cpp ****     
 1746              		.loc 1 885 21 view .LVU531
 1747 00b0 8268     		ldr	r2, [r0, #8]
 885:Drivers/STM32F4xx_HAL_Driver/Src/stm32f4xx_hal_adc_ex.cpp ****     
 1748              		.loc 1 885 46 view .LVU532
 1749 00b2 8C69     		ldr	r4, [r1, #24]
 885:Drivers/STM32F4xx_HAL_Driver/Src/stm32f4xx_hal_adc_ex.cpp ****     
 1750              		.loc 1 885 25 view .LVU533
 1751 00b4 2243     		orrs	r2, r2, r4
 1752 00b6 8260     		str	r2, [r0, #8]
 888:Drivers/STM32F4xx_HAL_Driver/Src/stm32f4xx_hal_adc_ex.cpp ****     hadc->Instance->CR2 |= sConfigInjected->ExternalTrigInjecConvEdge;
 1753              		.loc 1 888 5 is_stmt 1 view .LVU534
 888:Drivers/STM32F4xx_HAL_Driver/Src/stm32f4xx_hal_adc_ex.cpp ****     hadc->Instance->CR2 |= sConfigInjected->ExternalTrigInjecConvEdge;
 1754              		.loc 1 888 11 is_stmt 0 view .LVU535
 1755 00b8 1868     		ldr	r0, [r3]
 888:Drivers/STM32F4xx_HAL_Driver/Src/stm32f4xx_hal_adc_ex.cpp ****     hadc->Instance->CR2 |= sConfigInjected->ExternalTrigInjecConvEdge;
 1756              		.loc 1 888 21 view .LVU536
 1757 00ba 8268     		ldr	r2, [r0, #8]
 888:Drivers/STM32F4xx_HAL_Driver/Src/stm32f4xx_hal_adc_ex.cpp ****     hadc->Instance->CR2 |= sConfigInjected->ExternalTrigInjecConvEdge;
 1758              		.loc 1 888 25 view .LVU537
 1759 00bc 22F44012 		bic	r2, r2, #3145728
 1760 00c0 8260     		str	r2, [r0, #8]
 889:Drivers/STM32F4xx_HAL_Driver/Src/stm32f4xx_hal_adc_ex.cpp ****   }
 1761              		.loc 1 889 5 is_stmt 1 view .LVU538
 889:Drivers/STM32F4xx_HAL_Driver/Src/stm32f4xx_hal_adc_ex.cpp ****   }
 1762              		.loc 1 889 11 is_stmt 0 view .LVU539
 1763 00c2 1868     		ldr	r0, [r3]
 889:Drivers/STM32F4xx_HAL_Driver/Src/stm32f4xx_hal_adc_ex.cpp ****   }
ARM GAS  C:\Users\huawei\AppData\Local\Temp\cc1TIrE4.s 			page 60


 1764              		.loc 1 889 21 view .LVU540
 1765 00c4 8268     		ldr	r2, [r0, #8]
 889:Drivers/STM32F4xx_HAL_Driver/Src/stm32f4xx_hal_adc_ex.cpp ****   }
 1766              		.loc 1 889 45 view .LVU541
 1767 00c6 CC69     		ldr	r4, [r1, #28]
 889:Drivers/STM32F4xx_HAL_Driver/Src/stm32f4xx_hal_adc_ex.cpp ****   }
 1768              		.loc 1 889 25 view .LVU542
 1769 00c8 2243     		orrs	r2, r2, r4
 1770 00ca 8260     		str	r2, [r0, #8]
 1771              	.L121:
 898:Drivers/STM32F4xx_HAL_Driver/Src/stm32f4xx_hal_adc_ex.cpp ****   {
 1772              		.loc 1 898 3 is_stmt 1 view .LVU543
 898:Drivers/STM32F4xx_HAL_Driver/Src/stm32f4xx_hal_adc_ex.cpp ****   {
 1773              		.loc 1 898 24 is_stmt 0 view .LVU544
 1774 00cc 4A7D     		ldrb	r2, [r1, #21]	@ zero_extendqisi2
 898:Drivers/STM32F4xx_HAL_Driver/Src/stm32f4xx_hal_adc_ex.cpp ****   {
 1775              		.loc 1 898 3 view .LVU545
 1776 00ce 002A     		cmp	r2, #0
 1777 00d0 40D0     		beq	.L122
 901:Drivers/STM32F4xx_HAL_Driver/Src/stm32f4xx_hal_adc_ex.cpp ****   }
 1778              		.loc 1 901 5 is_stmt 1 view .LVU546
 901:Drivers/STM32F4xx_HAL_Driver/Src/stm32f4xx_hal_adc_ex.cpp ****   }
 1779              		.loc 1 901 11 is_stmt 0 view .LVU547
 1780 00d2 1868     		ldr	r0, [r3]
 901:Drivers/STM32F4xx_HAL_Driver/Src/stm32f4xx_hal_adc_ex.cpp ****   }
 1781              		.loc 1 901 21 view .LVU548
 1782 00d4 4268     		ldr	r2, [r0, #4]
 901:Drivers/STM32F4xx_HAL_Driver/Src/stm32f4xx_hal_adc_ex.cpp ****   }
 1783              		.loc 1 901 25 view .LVU549
 1784 00d6 42F48062 		orr	r2, r2, #1024
 1785 00da 4260     		str	r2, [r0, #4]
 1786              	.L123:
 909:Drivers/STM32F4xx_HAL_Driver/Src/stm32f4xx_hal_adc_ex.cpp ****   {
 1787              		.loc 1 909 3 is_stmt 1 view .LVU550
 909:Drivers/STM32F4xx_HAL_Driver/Src/stm32f4xx_hal_adc_ex.cpp ****   {
 1788              		.loc 1 909 24 is_stmt 0 view .LVU551
 1789 00dc 0A7D     		ldrb	r2, [r1, #20]	@ zero_extendqisi2
 909:Drivers/STM32F4xx_HAL_Driver/Src/stm32f4xx_hal_adc_ex.cpp ****   {
 1790              		.loc 1 909 3 view .LVU552
 1791 00de 002A     		cmp	r2, #0
 1792 00e0 3ED0     		beq	.L124
 912:Drivers/STM32F4xx_HAL_Driver/Src/stm32f4xx_hal_adc_ex.cpp ****   }
 1793              		.loc 1 912 5 is_stmt 1 view .LVU553
 912:Drivers/STM32F4xx_HAL_Driver/Src/stm32f4xx_hal_adc_ex.cpp ****   }
 1794              		.loc 1 912 11 is_stmt 0 view .LVU554
 1795 00e2 1868     		ldr	r0, [r3]
 912:Drivers/STM32F4xx_HAL_Driver/Src/stm32f4xx_hal_adc_ex.cpp ****   }
 1796              		.loc 1 912 21 view .LVU555
 1797 00e4 4268     		ldr	r2, [r0, #4]
 912:Drivers/STM32F4xx_HAL_Driver/Src/stm32f4xx_hal_adc_ex.cpp ****   }
 1798              		.loc 1 912 25 view .LVU556
 1799 00e6 42F48052 		orr	r2, r2, #4096
 1800 00ea 4260     		str	r2, [r0, #4]
 1801              	.L125:
 920:Drivers/STM32F4xx_HAL_Driver/Src/stm32f4xx_hal_adc_ex.cpp ****   {
 1802              		.loc 1 920 3 is_stmt 1 view .LVU557
 920:Drivers/STM32F4xx_HAL_Driver/Src/stm32f4xx_hal_adc_ex.cpp ****   {
ARM GAS  C:\Users\huawei\AppData\Local\Temp\cc1TIrE4.s 			page 61


 1803              		.loc 1 920 27 is_stmt 0 view .LVU558
 1804 00ec 4A68     		ldr	r2, [r1, #4]
 920:Drivers/STM32F4xx_HAL_Driver/Src/stm32f4xx_hal_adc_ex.cpp ****   {
 1805              		.loc 1 920 3 view .LVU559
 1806 00ee 022A     		cmp	r2, #2
 1807 00f0 55D0     		beq	.L126
 1808 00f2 032A     		cmp	r2, #3
 1809 00f4 60D0     		beq	.L127
 1810 00f6 012A     		cmp	r2, #1
 1811 00f8 38D0     		beq	.L138
 937:Drivers/STM32F4xx_HAL_Driver/Src/stm32f4xx_hal_adc_ex.cpp ****       /* Set injected channel 4 offset */
 1812              		.loc 1 937 5 is_stmt 1 view .LVU560
 939:Drivers/STM32F4xx_HAL_Driver/Src/stm32f4xx_hal_adc_ex.cpp ****       hadc->Instance->JOFR4 |= sConfigInjected->InjectedOffset;
 1813              		.loc 1 939 7 view .LVU561
 939:Drivers/STM32F4xx_HAL_Driver/Src/stm32f4xx_hal_adc_ex.cpp ****       hadc->Instance->JOFR4 |= sConfigInjected->InjectedOffset;
 1814              		.loc 1 939 13 is_stmt 0 view .LVU562
 1815 00fa 1868     		ldr	r0, [r3]
 939:Drivers/STM32F4xx_HAL_Driver/Src/stm32f4xx_hal_adc_ex.cpp ****       hadc->Instance->JOFR4 |= sConfigInjected->InjectedOffset;
 1816              		.loc 1 939 23 view .LVU563
 1817 00fc 026A     		ldr	r2, [r0, #32]
 939:Drivers/STM32F4xx_HAL_Driver/Src/stm32f4xx_hal_adc_ex.cpp ****       hadc->Instance->JOFR4 |= sConfigInjected->InjectedOffset;
 1818              		.loc 1 939 29 view .LVU564
 1819 00fe 22F47F62 		bic	r2, r2, #4080
 1820 0102 22F00F02 		bic	r2, r2, #15
 1821 0106 0262     		str	r2, [r0, #32]
 940:Drivers/STM32F4xx_HAL_Driver/Src/stm32f4xx_hal_adc_ex.cpp ****       break;
 1822              		.loc 1 940 7 is_stmt 1 view .LVU565
 940:Drivers/STM32F4xx_HAL_Driver/Src/stm32f4xx_hal_adc_ex.cpp ****       break;
 1823              		.loc 1 940 13 is_stmt 0 view .LVU566
 1824 0108 1868     		ldr	r0, [r3]
 940:Drivers/STM32F4xx_HAL_Driver/Src/stm32f4xx_hal_adc_ex.cpp ****       break;
 1825              		.loc 1 940 23 view .LVU567
 1826 010a 026A     		ldr	r2, [r0, #32]
 940:Drivers/STM32F4xx_HAL_Driver/Src/stm32f4xx_hal_adc_ex.cpp ****       break;
 1827              		.loc 1 940 49 view .LVU568
 1828 010c CC68     		ldr	r4, [r1, #12]
 940:Drivers/STM32F4xx_HAL_Driver/Src/stm32f4xx_hal_adc_ex.cpp ****       break;
 1829              		.loc 1 940 29 view .LVU569
 1830 010e 2243     		orrs	r2, r2, r4
 1831 0110 0262     		str	r2, [r0, #32]
 941:Drivers/STM32F4xx_HAL_Driver/Src/stm32f4xx_hal_adc_ex.cpp ****   }
 1832              		.loc 1 941 7 is_stmt 1 view .LVU570
 1833 0112 37E0     		b	.L129
 1834              	.LVL113:
 1835              	.L118:
 858:Drivers/STM32F4xx_HAL_Driver/Src/stm32f4xx_hal_adc_ex.cpp ****     
 1836              		.loc 1 858 5 view .LVU571
 858:Drivers/STM32F4xx_HAL_Driver/Src/stm32f4xx_hal_adc_ex.cpp ****     
 1837              		.loc 1 858 11 is_stmt 0 view .LVU572
 1838 0114 0568     		ldr	r5, [r0]
 858:Drivers/STM32F4xx_HAL_Driver/Src/stm32f4xx_hal_adc_ex.cpp ****     
 1839              		.loc 1 858 21 view .LVU573
 1840 0116 2869     		ldr	r0, [r5, #16]
 1841              	.LVL114:
 858:Drivers/STM32F4xx_HAL_Driver/Src/stm32f4xx_hal_adc_ex.cpp ****     
 1842              		.loc 1 858 31 view .LVU574
 1843 0118 92B2     		uxth	r2, r2
ARM GAS  C:\Users\huawei\AppData\Local\Temp\cc1TIrE4.s 			page 62


 1844 011a 02EB4202 		add	r2, r2, r2, lsl #1
 1845 011e 0724     		movs	r4, #7
 1846 0120 04FA02F2 		lsl	r2, r4, r2
 858:Drivers/STM32F4xx_HAL_Driver/Src/stm32f4xx_hal_adc_ex.cpp ****     
 1847              		.loc 1 858 27 view .LVU575
 1848 0124 20EA0202 		bic	r2, r0, r2
 1849 0128 2A61     		str	r2, [r5, #16]
 861:Drivers/STM32F4xx_HAL_Driver/Src/stm32f4xx_hal_adc_ex.cpp ****   }
 1850              		.loc 1 861 5 is_stmt 1 view .LVU576
 861:Drivers/STM32F4xx_HAL_Driver/Src/stm32f4xx_hal_adc_ex.cpp ****   }
 1851              		.loc 1 861 11 is_stmt 0 view .LVU577
 1852 012a 1D68     		ldr	r5, [r3]
 861:Drivers/STM32F4xx_HAL_Driver/Src/stm32f4xx_hal_adc_ex.cpp ****   }
 1853              		.loc 1 861 21 view .LVU578
 1854 012c 2869     		ldr	r0, [r5, #16]
 861:Drivers/STM32F4xx_HAL_Driver/Src/stm32f4xx_hal_adc_ex.cpp ****   }
 1855              		.loc 1 861 30 view .LVU579
 1856 012e 8C68     		ldr	r4, [r1, #8]
 1857 0130 0A88     		ldrh	r2, [r1]
 1858 0132 02EB4202 		add	r2, r2, r2, lsl #1
 1859 0136 9440     		lsls	r4, r4, r2
 861:Drivers/STM32F4xx_HAL_Driver/Src/stm32f4xx_hal_adc_ex.cpp ****   }
 1860              		.loc 1 861 27 view .LVU580
 1861 0138 2043     		orrs	r0, r0, r4
 1862 013a 2861     		str	r0, [r5, #16]
 1863 013c 83E7     		b	.L119
 1864              	.L120:
 894:Drivers/STM32F4xx_HAL_Driver/Src/stm32f4xx_hal_adc_ex.cpp ****     hadc->Instance->CR2 &= ~(ADC_CR2_JEXTEN);  
 1865              		.loc 1 894 5 is_stmt 1 view .LVU581
 894:Drivers/STM32F4xx_HAL_Driver/Src/stm32f4xx_hal_adc_ex.cpp ****     hadc->Instance->CR2 &= ~(ADC_CR2_JEXTEN);  
 1866              		.loc 1 894 11 is_stmt 0 view .LVU582
 1867 013e 1868     		ldr	r0, [r3]
 894:Drivers/STM32F4xx_HAL_Driver/Src/stm32f4xx_hal_adc_ex.cpp ****     hadc->Instance->CR2 &= ~(ADC_CR2_JEXTEN);  
 1868              		.loc 1 894 21 view .LVU583
 1869 0140 8268     		ldr	r2, [r0, #8]
 894:Drivers/STM32F4xx_HAL_Driver/Src/stm32f4xx_hal_adc_ex.cpp ****     hadc->Instance->CR2 &= ~(ADC_CR2_JEXTEN);  
 1870              		.loc 1 894 25 view .LVU584
 1871 0142 22F47022 		bic	r2, r2, #983040
 1872 0146 8260     		str	r2, [r0, #8]
 895:Drivers/STM32F4xx_HAL_Driver/Src/stm32f4xx_hal_adc_ex.cpp ****   }
 1873              		.loc 1 895 5 is_stmt 1 view .LVU585
 895:Drivers/STM32F4xx_HAL_Driver/Src/stm32f4xx_hal_adc_ex.cpp ****   }
 1874              		.loc 1 895 11 is_stmt 0 view .LVU586
 1875 0148 1868     		ldr	r0, [r3]
 895:Drivers/STM32F4xx_HAL_Driver/Src/stm32f4xx_hal_adc_ex.cpp ****   }
 1876              		.loc 1 895 21 view .LVU587
 1877 014a 8268     		ldr	r2, [r0, #8]
 895:Drivers/STM32F4xx_HAL_Driver/Src/stm32f4xx_hal_adc_ex.cpp ****   }
 1878              		.loc 1 895 25 view .LVU588
 1879 014c 22F44012 		bic	r2, r2, #3145728
 1880 0150 8260     		str	r2, [r0, #8]
 1881 0152 BBE7     		b	.L121
 1882              	.L122:
 906:Drivers/STM32F4xx_HAL_Driver/Src/stm32f4xx_hal_adc_ex.cpp ****   }
 1883              		.loc 1 906 5 is_stmt 1 view .LVU589
 906:Drivers/STM32F4xx_HAL_Driver/Src/stm32f4xx_hal_adc_ex.cpp ****   }
 1884              		.loc 1 906 11 is_stmt 0 view .LVU590
ARM GAS  C:\Users\huawei\AppData\Local\Temp\cc1TIrE4.s 			page 63


 1885 0154 1868     		ldr	r0, [r3]
 906:Drivers/STM32F4xx_HAL_Driver/Src/stm32f4xx_hal_adc_ex.cpp ****   }
 1886              		.loc 1 906 21 view .LVU591
 1887 0156 4268     		ldr	r2, [r0, #4]
 906:Drivers/STM32F4xx_HAL_Driver/Src/stm32f4xx_hal_adc_ex.cpp ****   }
 1888              		.loc 1 906 25 view .LVU592
 1889 0158 22F48062 		bic	r2, r2, #1024
 1890 015c 4260     		str	r2, [r0, #4]
 1891 015e BDE7     		b	.L123
 1892              	.L124:
 917:Drivers/STM32F4xx_HAL_Driver/Src/stm32f4xx_hal_adc_ex.cpp ****   }
 1893              		.loc 1 917 5 is_stmt 1 view .LVU593
 917:Drivers/STM32F4xx_HAL_Driver/Src/stm32f4xx_hal_adc_ex.cpp ****   }
 1894              		.loc 1 917 11 is_stmt 0 view .LVU594
 1895 0160 1868     		ldr	r0, [r3]
 917:Drivers/STM32F4xx_HAL_Driver/Src/stm32f4xx_hal_adc_ex.cpp ****   }
 1896              		.loc 1 917 21 view .LVU595
 1897 0162 4268     		ldr	r2, [r0, #4]
 917:Drivers/STM32F4xx_HAL_Driver/Src/stm32f4xx_hal_adc_ex.cpp ****   }
 1898              		.loc 1 917 25 view .LVU596
 1899 0164 22F48052 		bic	r2, r2, #4096
 1900 0168 4260     		str	r2, [r0, #4]
 1901 016a BFE7     		b	.L125
 1902              	.L138:
 922:Drivers/STM32F4xx_HAL_Driver/Src/stm32f4xx_hal_adc_ex.cpp ****       /* Set injected channel 1 offset */
 1903              		.loc 1 922 5 is_stmt 1 view .LVU597
 924:Drivers/STM32F4xx_HAL_Driver/Src/stm32f4xx_hal_adc_ex.cpp ****       hadc->Instance->JOFR1 |= sConfigInjected->InjectedOffset;
 1904              		.loc 1 924 7 view .LVU598
 924:Drivers/STM32F4xx_HAL_Driver/Src/stm32f4xx_hal_adc_ex.cpp ****       hadc->Instance->JOFR1 |= sConfigInjected->InjectedOffset;
 1905              		.loc 1 924 13 is_stmt 0 view .LVU599
 1906 016c 1868     		ldr	r0, [r3]
 924:Drivers/STM32F4xx_HAL_Driver/Src/stm32f4xx_hal_adc_ex.cpp ****       hadc->Instance->JOFR1 |= sConfigInjected->InjectedOffset;
 1907              		.loc 1 924 23 view .LVU600
 1908 016e 4269     		ldr	r2, [r0, #20]
 924:Drivers/STM32F4xx_HAL_Driver/Src/stm32f4xx_hal_adc_ex.cpp ****       hadc->Instance->JOFR1 |= sConfigInjected->InjectedOffset;
 1909              		.loc 1 924 29 view .LVU601
 1910 0170 22F47F62 		bic	r2, r2, #4080
 1911 0174 22F00F02 		bic	r2, r2, #15
 1912 0178 4261     		str	r2, [r0, #20]
 925:Drivers/STM32F4xx_HAL_Driver/Src/stm32f4xx_hal_adc_ex.cpp ****       break;
 1913              		.loc 1 925 7 is_stmt 1 view .LVU602
 925:Drivers/STM32F4xx_HAL_Driver/Src/stm32f4xx_hal_adc_ex.cpp ****       break;
 1914              		.loc 1 925 13 is_stmt 0 view .LVU603
 1915 017a 1868     		ldr	r0, [r3]
 925:Drivers/STM32F4xx_HAL_Driver/Src/stm32f4xx_hal_adc_ex.cpp ****       break;
 1916              		.loc 1 925 23 view .LVU604
 1917 017c 4269     		ldr	r2, [r0, #20]
 925:Drivers/STM32F4xx_HAL_Driver/Src/stm32f4xx_hal_adc_ex.cpp ****       break;
 1918              		.loc 1 925 49 view .LVU605
 1919 017e CC68     		ldr	r4, [r1, #12]
 925:Drivers/STM32F4xx_HAL_Driver/Src/stm32f4xx_hal_adc_ex.cpp ****       break;
 1920              		.loc 1 925 29 view .LVU606
 1921 0180 2243     		orrs	r2, r2, r4
 1922 0182 4261     		str	r2, [r0, #20]
 926:Drivers/STM32F4xx_HAL_Driver/Src/stm32f4xx_hal_adc_ex.cpp ****     case 2U:
 1923              		.loc 1 926 7 is_stmt 1 view .LVU607
 1924              	.L129:
ARM GAS  C:\Users\huawei\AppData\Local\Temp\cc1TIrE4.s 			page 64


 947:Drivers/STM32F4xx_HAL_Driver/Src/stm32f4xx_hal_adc_ex.cpp **** 
 1925              		.loc 1 947 5 view .LVU608
 1926              	.LVL115:
 950:Drivers/STM32F4xx_HAL_Driver/Src/stm32f4xx_hal_adc_ex.cpp ****   {
 1927              		.loc 1 950 3 view .LVU609
 950:Drivers/STM32F4xx_HAL_Driver/Src/stm32f4xx_hal_adc_ex.cpp ****   {
 1928              		.loc 1 950 14 is_stmt 0 view .LVU610
 1929 0184 1868     		ldr	r0, [r3]
 950:Drivers/STM32F4xx_HAL_Driver/Src/stm32f4xx_hal_adc_ex.cpp ****   {
 1930              		.loc 1 950 3 view .LVU611
 1931 0186 1F4A     		ldr	r2, .L141+4
 1932 0188 9042     		cmp	r0, r2
 1933 018a 22D0     		beq	.L139
 1934              	.L130:
 957:Drivers/STM32F4xx_HAL_Driver/Src/stm32f4xx_hal_adc_ex.cpp ****   {
 1935              		.loc 1 957 3 is_stmt 1 view .LVU612
 957:Drivers/STM32F4xx_HAL_Driver/Src/stm32f4xx_hal_adc_ex.cpp ****   {
 1936              		.loc 1 957 14 is_stmt 0 view .LVU613
 1937 018c 1868     		ldr	r0, [r3]
 957:Drivers/STM32F4xx_HAL_Driver/Src/stm32f4xx_hal_adc_ex.cpp ****   {
 1938              		.loc 1 957 3 view .LVU614
 1939 018e 1D4A     		ldr	r2, .L141+4
 1940 0190 9042     		cmp	r0, r2
 1941 0192 27D0     		beq	.L140
 1942              	.LVL116:
 1943              	.L131:
 964:Drivers/STM32F4xx_HAL_Driver/Src/stm32f4xx_hal_adc_ex.cpp ****   
 1944              		.loc 1 964 3 is_stmt 1 view .LVU615
 964:Drivers/STM32F4xx_HAL_Driver/Src/stm32f4xx_hal_adc_ex.cpp ****   
 1945              		.loc 1 964 3 view .LVU616
 1946 0194 0020     		movs	r0, #0
 1947 0196 83F83C00 		strb	r0, [r3, #60]
 964:Drivers/STM32F4xx_HAL_Driver/Src/stm32f4xx_hal_adc_ex.cpp ****   
 1948              		.loc 1 964 3 view .LVU617
 967:Drivers/STM32F4xx_HAL_Driver/Src/stm32f4xx_hal_adc_ex.cpp **** }
 1949              		.loc 1 967 3 view .LVU618
 968:Drivers/STM32F4xx_HAL_Driver/Src/stm32f4xx_hal_adc_ex.cpp **** 
 1950              		.loc 1 968 1 is_stmt 0 view .LVU619
 1951 019a 30BC     		pop	{r4, r5}
 1952              	.LCFI20:
 1953              		.cfi_remember_state
 1954              		.cfi_restore 5
 1955              		.cfi_restore 4
 1956              		.cfi_def_cfa_offset 0
 1957 019c 7047     		bx	lr
 1958              	.LVL117:
 1959              	.L126:
 1960              	.LCFI21:
 1961              		.cfi_restore_state
 927:Drivers/STM32F4xx_HAL_Driver/Src/stm32f4xx_hal_adc_ex.cpp ****       /* Set injected channel 2 offset */
 1962              		.loc 1 927 5 is_stmt 1 view .LVU620
 929:Drivers/STM32F4xx_HAL_Driver/Src/stm32f4xx_hal_adc_ex.cpp ****       hadc->Instance->JOFR2 |= sConfigInjected->InjectedOffset;
 1963              		.loc 1 929 7 view .LVU621
 929:Drivers/STM32F4xx_HAL_Driver/Src/stm32f4xx_hal_adc_ex.cpp ****       hadc->Instance->JOFR2 |= sConfigInjected->InjectedOffset;
 1964              		.loc 1 929 13 is_stmt 0 view .LVU622
 1965 019e 1868     		ldr	r0, [r3]
 929:Drivers/STM32F4xx_HAL_Driver/Src/stm32f4xx_hal_adc_ex.cpp ****       hadc->Instance->JOFR2 |= sConfigInjected->InjectedOffset;
ARM GAS  C:\Users\huawei\AppData\Local\Temp\cc1TIrE4.s 			page 65


 1966              		.loc 1 929 23 view .LVU623
 1967 01a0 8269     		ldr	r2, [r0, #24]
 929:Drivers/STM32F4xx_HAL_Driver/Src/stm32f4xx_hal_adc_ex.cpp ****       hadc->Instance->JOFR2 |= sConfigInjected->InjectedOffset;
 1968              		.loc 1 929 29 view .LVU624
 1969 01a2 22F47F62 		bic	r2, r2, #4080
 1970 01a6 22F00F02 		bic	r2, r2, #15
 1971 01aa 8261     		str	r2, [r0, #24]
 930:Drivers/STM32F4xx_HAL_Driver/Src/stm32f4xx_hal_adc_ex.cpp ****       break;
 1972              		.loc 1 930 7 is_stmt 1 view .LVU625
 930:Drivers/STM32F4xx_HAL_Driver/Src/stm32f4xx_hal_adc_ex.cpp ****       break;
 1973              		.loc 1 930 13 is_stmt 0 view .LVU626
 1974 01ac 1868     		ldr	r0, [r3]
 930:Drivers/STM32F4xx_HAL_Driver/Src/stm32f4xx_hal_adc_ex.cpp ****       break;
 1975              		.loc 1 930 23 view .LVU627
 1976 01ae 8269     		ldr	r2, [r0, #24]
 930:Drivers/STM32F4xx_HAL_Driver/Src/stm32f4xx_hal_adc_ex.cpp ****       break;
 1977              		.loc 1 930 49 view .LVU628
 1978 01b0 CC68     		ldr	r4, [r1, #12]
 930:Drivers/STM32F4xx_HAL_Driver/Src/stm32f4xx_hal_adc_ex.cpp ****       break;
 1979              		.loc 1 930 29 view .LVU629
 1980 01b2 2243     		orrs	r2, r2, r4
 1981 01b4 8261     		str	r2, [r0, #24]
 931:Drivers/STM32F4xx_HAL_Driver/Src/stm32f4xx_hal_adc_ex.cpp ****     case 3U:
 1982              		.loc 1 931 7 is_stmt 1 view .LVU630
 1983 01b6 E5E7     		b	.L129
 1984              	.L127:
 932:Drivers/STM32F4xx_HAL_Driver/Src/stm32f4xx_hal_adc_ex.cpp ****       /* Set injected channel 3 offset */
 1985              		.loc 1 932 5 view .LVU631
 934:Drivers/STM32F4xx_HAL_Driver/Src/stm32f4xx_hal_adc_ex.cpp ****       hadc->Instance->JOFR3 |= sConfigInjected->InjectedOffset;
 1986              		.loc 1 934 7 view .LVU632
 934:Drivers/STM32F4xx_HAL_Driver/Src/stm32f4xx_hal_adc_ex.cpp ****       hadc->Instance->JOFR3 |= sConfigInjected->InjectedOffset;
 1987              		.loc 1 934 13 is_stmt 0 view .LVU633
 1988 01b8 1868     		ldr	r0, [r3]
 934:Drivers/STM32F4xx_HAL_Driver/Src/stm32f4xx_hal_adc_ex.cpp ****       hadc->Instance->JOFR3 |= sConfigInjected->InjectedOffset;
 1989              		.loc 1 934 23 view .LVU634
 1990 01ba C269     		ldr	r2, [r0, #28]
 934:Drivers/STM32F4xx_HAL_Driver/Src/stm32f4xx_hal_adc_ex.cpp ****       hadc->Instance->JOFR3 |= sConfigInjected->InjectedOffset;
 1991              		.loc 1 934 29 view .LVU635
 1992 01bc 22F47F62 		bic	r2, r2, #4080
 1993 01c0 22F00F02 		bic	r2, r2, #15
 1994 01c4 C261     		str	r2, [r0, #28]
 935:Drivers/STM32F4xx_HAL_Driver/Src/stm32f4xx_hal_adc_ex.cpp ****       break;
 1995              		.loc 1 935 7 is_stmt 1 view .LVU636
 935:Drivers/STM32F4xx_HAL_Driver/Src/stm32f4xx_hal_adc_ex.cpp ****       break;
 1996              		.loc 1 935 13 is_stmt 0 view .LVU637
 1997 01c6 1868     		ldr	r0, [r3]
 935:Drivers/STM32F4xx_HAL_Driver/Src/stm32f4xx_hal_adc_ex.cpp ****       break;
 1998              		.loc 1 935 23 view .LVU638
 1999 01c8 C269     		ldr	r2, [r0, #28]
 935:Drivers/STM32F4xx_HAL_Driver/Src/stm32f4xx_hal_adc_ex.cpp ****       break;
 2000              		.loc 1 935 49 view .LVU639
 2001 01ca CC68     		ldr	r4, [r1, #12]
 935:Drivers/STM32F4xx_HAL_Driver/Src/stm32f4xx_hal_adc_ex.cpp ****       break;
 2002              		.loc 1 935 29 view .LVU640
 2003 01cc 2243     		orrs	r2, r2, r4
 2004 01ce C261     		str	r2, [r0, #28]
 936:Drivers/STM32F4xx_HAL_Driver/Src/stm32f4xx_hal_adc_ex.cpp ****     default:
ARM GAS  C:\Users\huawei\AppData\Local\Temp\cc1TIrE4.s 			page 66


 2005              		.loc 1 936 7 is_stmt 1 view .LVU641
 2006 01d0 D8E7     		b	.L129
 2007              	.LVL118:
 2008              	.L139:
 950:Drivers/STM32F4xx_HAL_Driver/Src/stm32f4xx_hal_adc_ex.cpp ****   {
 2009              		.loc 1 950 53 is_stmt 0 discriminator 1 view .LVU642
 2010 01d2 0A68     		ldr	r2, [r1]
 950:Drivers/STM32F4xx_HAL_Driver/Src/stm32f4xx_hal_adc_ex.cpp ****   {
 2011              		.loc 1 950 32 discriminator 1 view .LVU643
 2012 01d4 122A     		cmp	r2, #18
 2013 01d6 D9D1     		bne	.L130
 953:Drivers/STM32F4xx_HAL_Driver/Src/stm32f4xx_hal_adc_ex.cpp ****   }
 2014              		.loc 1 953 5 is_stmt 1 view .LVU644
 953:Drivers/STM32F4xx_HAL_Driver/Src/stm32f4xx_hal_adc_ex.cpp ****   }
 2015              		.loc 1 953 20 is_stmt 0 view .LVU645
 2016 01d8 0B48     		ldr	r0, .L141+8
 2017 01da 4268     		ldr	r2, [r0, #4]
 953:Drivers/STM32F4xx_HAL_Driver/Src/stm32f4xx_hal_adc_ex.cpp ****   }
 2018              		.loc 1 953 24 view .LVU646
 2019 01dc 42F48002 		orr	r2, r2, #4194304
 2020 01e0 4260     		str	r2, [r0, #4]
 2021 01e2 D3E7     		b	.L130
 2022              	.L140:
 957:Drivers/STM32F4xx_HAL_Driver/Src/stm32f4xx_hal_adc_ex.cpp ****   {
 2023              		.loc 1 957 54 discriminator 1 view .LVU647
 2024 01e4 0A68     		ldr	r2, [r1]
 957:Drivers/STM32F4xx_HAL_Driver/Src/stm32f4xx_hal_adc_ex.cpp ****   {
 2025              		.loc 1 957 32 discriminator 1 view .LVU648
 2026 01e6 0949     		ldr	r1, .L141+12
 2027              	.LVL119:
 957:Drivers/STM32F4xx_HAL_Driver/Src/stm32f4xx_hal_adc_ex.cpp ****   {
 2028              		.loc 1 957 32 discriminator 1 view .LVU649
 2029 01e8 8A42     		cmp	r2, r1
 2030 01ea 01D0     		beq	.L132
 957:Drivers/STM32F4xx_HAL_Driver/Src/stm32f4xx_hal_adc_ex.cpp ****   {
 2031              		.loc 1 957 97 discriminator 2 view .LVU650
 2032 01ec 112A     		cmp	r2, #17
 2033 01ee D1D1     		bne	.L131
 2034              	.L132:
 960:Drivers/STM32F4xx_HAL_Driver/Src/stm32f4xx_hal_adc_ex.cpp ****   }
 2035              		.loc 1 960 5 is_stmt 1 view .LVU651
 960:Drivers/STM32F4xx_HAL_Driver/Src/stm32f4xx_hal_adc_ex.cpp ****   }
 2036              		.loc 1 960 20 is_stmt 0 view .LVU652
 2037 01f0 0549     		ldr	r1, .L141+8
 2038 01f2 4A68     		ldr	r2, [r1, #4]
 960:Drivers/STM32F4xx_HAL_Driver/Src/stm32f4xx_hal_adc_ex.cpp ****   }
 2039              		.loc 1 960 24 view .LVU653
 2040 01f4 42F40002 		orr	r2, r2, #8388608
 2041 01f8 4A60     		str	r2, [r1, #4]
 2042 01fa CBE7     		b	.L131
 2043              	.LVL120:
 2044              	.L133:
 2045              	.LCFI22:
 2046              		.cfi_def_cfa_offset 0
 2047              		.cfi_restore 4
 2048              		.cfi_restore 5
 844:Drivers/STM32F4xx_HAL_Driver/Src/stm32f4xx_hal_adc_ex.cpp ****   
ARM GAS  C:\Users\huawei\AppData\Local\Temp\cc1TIrE4.s 			page 67


 2049              		.loc 1 844 3 view .LVU654
 2050 01fc 0220     		movs	r0, #2
 2051              	.LVL121:
 968:Drivers/STM32F4xx_HAL_Driver/Src/stm32f4xx_hal_adc_ex.cpp **** 
 2052              		.loc 1 968 1 view .LVU655
 2053 01fe 7047     		bx	lr
 2054              	.L142:
 2055              		.align	2
 2056              	.L141:
 2057 0200 01000F00 		.word	983041
 2058 0204 00200140 		.word	1073815552
 2059 0208 00230140 		.word	1073816320
 2060 020c 12000010 		.word	268435474
 2061              		.cfi_endproc
 2062              	.LFE245:
 2063              		.cantunwind
 2064              		.fnend
 2066              		.section	.text.HAL_ADCEx_MultiModeConfigChannel,"ax",%progbits
 2067              		.align	1
 2068              		.global	HAL_ADCEx_MultiModeConfigChannel
 2069              		.syntax unified
 2070              		.thumb
 2071              		.thumb_func
 2073              	HAL_ADCEx_MultiModeConfigChannel:
 2074              		.fnstart
 2075              	.LVL122:
 2076              	.LFB246:
 979:Drivers/STM32F4xx_HAL_Driver/Src/stm32f4xx_hal_adc_ex.cpp **** 
 2077              		.loc 1 979 1 is_stmt 1 view -0
 2078              		.cfi_startproc
 2079              		@ args = 0, pretend = 0, frame = 0
 2080              		@ frame_needed = 0, uses_anonymous_args = 0
 2081              		@ link register save eliminated.
 981:Drivers/STM32F4xx_HAL_Driver/Src/stm32f4xx_hal_adc_ex.cpp **** 
 2082              		.loc 1 981 3 view .LVU657
 984:Drivers/STM32F4xx_HAL_Driver/Src/stm32f4xx_hal_adc_ex.cpp ****   assert_param(IS_ADC_DMA_ACCESS_MODE(multimode->DMAAccessMode));
 2083              		.loc 1 984 3 view .LVU658
 985:Drivers/STM32F4xx_HAL_Driver/Src/stm32f4xx_hal_adc_ex.cpp ****   assert_param(IS_ADC_SAMPLING_DELAY(multimode->TwoSamplingDelay));
 2084              		.loc 1 985 3 view .LVU659
 986:Drivers/STM32F4xx_HAL_Driver/Src/stm32f4xx_hal_adc_ex.cpp ****   
 2085              		.loc 1 986 3 view .LVU660
 989:Drivers/STM32F4xx_HAL_Driver/Src/stm32f4xx_hal_adc_ex.cpp **** 
 2086              		.loc 1 989 3 view .LVU661
 989:Drivers/STM32F4xx_HAL_Driver/Src/stm32f4xx_hal_adc_ex.cpp **** 
 2087              		.loc 1 989 3 view .LVU662
 2088 0000 90F83C30 		ldrb	r3, [r0, #60]	@ zero_extendqisi2
 2089 0004 012B     		cmp	r3, #1
 2090 0006 23D0     		beq	.L145
 979:Drivers/STM32F4xx_HAL_Driver/Src/stm32f4xx_hal_adc_ex.cpp **** 
 2091              		.loc 1 979 1 is_stmt 0 discriminator 2 view .LVU663
 2092 0008 10B4     		push	{r4}
 2093              	.LCFI23:
 2094              		.cfi_def_cfa_offset 4
 2095              		.cfi_offset 4, -4
 2096 000a 0246     		mov	r2, r0
 989:Drivers/STM32F4xx_HAL_Driver/Src/stm32f4xx_hal_adc_ex.cpp **** 
 2097              		.loc 1 989 3 is_stmt 1 discriminator 2 view .LVU664
ARM GAS  C:\Users\huawei\AppData\Local\Temp\cc1TIrE4.s 			page 68


 2098 000c 0123     		movs	r3, #1
 2099 000e 80F83C30 		strb	r3, [r0, #60]
 989:Drivers/STM32F4xx_HAL_Driver/Src/stm32f4xx_hal_adc_ex.cpp **** 
 2100              		.loc 1 989 3 discriminator 2 view .LVU665
 994:Drivers/STM32F4xx_HAL_Driver/Src/stm32f4xx_hal_adc_ex.cpp **** 
 2101              		.loc 1 994 3 discriminator 2 view .LVU666
 2102              	.LVL123:
 997:Drivers/STM32F4xx_HAL_Driver/Src/stm32f4xx_hal_adc_ex.cpp ****   tmpADC_Common->CCR |= multimode->Mode;
 2103              		.loc 1 997 3 discriminator 2 view .LVU667
 997:Drivers/STM32F4xx_HAL_Driver/Src/stm32f4xx_hal_adc_ex.cpp ****   tmpADC_Common->CCR |= multimode->Mode;
 2104              		.loc 1 997 18 is_stmt 0 discriminator 2 view .LVU668
 2105 0012 104B     		ldr	r3, .L150
 2106 0014 5868     		ldr	r0, [r3, #4]
 2107              	.LVL124:
 997:Drivers/STM32F4xx_HAL_Driver/Src/stm32f4xx_hal_adc_ex.cpp ****   tmpADC_Common->CCR |= multimode->Mode;
 2108              		.loc 1 997 22 discriminator 2 view .LVU669
 2109 0016 20F01F00 		bic	r0, r0, #31
 2110 001a 5860     		str	r0, [r3, #4]
 998:Drivers/STM32F4xx_HAL_Driver/Src/stm32f4xx_hal_adc_ex.cpp ****   
 2111              		.loc 1 998 3 is_stmt 1 discriminator 2 view .LVU670
 998:Drivers/STM32F4xx_HAL_Driver/Src/stm32f4xx_hal_adc_ex.cpp ****   
 2112              		.loc 1 998 18 is_stmt 0 discriminator 2 view .LVU671
 2113 001c 5868     		ldr	r0, [r3, #4]
 998:Drivers/STM32F4xx_HAL_Driver/Src/stm32f4xx_hal_adc_ex.cpp ****   
 2114              		.loc 1 998 22 discriminator 2 view .LVU672
 2115 001e 0C68     		ldr	r4, [r1]
 2116 0020 2043     		orrs	r0, r0, r4
 2117 0022 5860     		str	r0, [r3, #4]
1001:Drivers/STM32F4xx_HAL_Driver/Src/stm32f4xx_hal_adc_ex.cpp ****   tmpADC_Common->CCR |= multimode->DMAAccessMode;
 2118              		.loc 1 1001 3 is_stmt 1 discriminator 2 view .LVU673
1001:Drivers/STM32F4xx_HAL_Driver/Src/stm32f4xx_hal_adc_ex.cpp ****   tmpADC_Common->CCR |= multimode->DMAAccessMode;
 2119              		.loc 1 1001 18 is_stmt 0 discriminator 2 view .LVU674
 2120 0024 5868     		ldr	r0, [r3, #4]
1001:Drivers/STM32F4xx_HAL_Driver/Src/stm32f4xx_hal_adc_ex.cpp ****   tmpADC_Common->CCR |= multimode->DMAAccessMode;
 2121              		.loc 1 1001 22 discriminator 2 view .LVU675
 2122 0026 20F44040 		bic	r0, r0, #49152
 2123 002a 5860     		str	r0, [r3, #4]
1002:Drivers/STM32F4xx_HAL_Driver/Src/stm32f4xx_hal_adc_ex.cpp ****   
 2124              		.loc 1 1002 3 is_stmt 1 discriminator 2 view .LVU676
1002:Drivers/STM32F4xx_HAL_Driver/Src/stm32f4xx_hal_adc_ex.cpp ****   
 2125              		.loc 1 1002 18 is_stmt 0 discriminator 2 view .LVU677
 2126 002c 5868     		ldr	r0, [r3, #4]
1002:Drivers/STM32F4xx_HAL_Driver/Src/stm32f4xx_hal_adc_ex.cpp ****   
 2127              		.loc 1 1002 22 discriminator 2 view .LVU678
 2128 002e 4C68     		ldr	r4, [r1, #4]
 2129 0030 2043     		orrs	r0, r0, r4
 2130 0032 5860     		str	r0, [r3, #4]
1005:Drivers/STM32F4xx_HAL_Driver/Src/stm32f4xx_hal_adc_ex.cpp ****   tmpADC_Common->CCR |= multimode->TwoSamplingDelay;
 2131              		.loc 1 1005 3 is_stmt 1 discriminator 2 view .LVU679
1005:Drivers/STM32F4xx_HAL_Driver/Src/stm32f4xx_hal_adc_ex.cpp ****   tmpADC_Common->CCR |= multimode->TwoSamplingDelay;
 2132              		.loc 1 1005 18 is_stmt 0 discriminator 2 view .LVU680
 2133 0034 5868     		ldr	r0, [r3, #4]
1005:Drivers/STM32F4xx_HAL_Driver/Src/stm32f4xx_hal_adc_ex.cpp ****   tmpADC_Common->CCR |= multimode->TwoSamplingDelay;
 2134              		.loc 1 1005 22 discriminator 2 view .LVU681
 2135 0036 20F47060 		bic	r0, r0, #3840
 2136 003a 5860     		str	r0, [r3, #4]
1006:Drivers/STM32F4xx_HAL_Driver/Src/stm32f4xx_hal_adc_ex.cpp ****   
ARM GAS  C:\Users\huawei\AppData\Local\Temp\cc1TIrE4.s 			page 69


 2137              		.loc 1 1006 3 is_stmt 1 discriminator 2 view .LVU682
1006:Drivers/STM32F4xx_HAL_Driver/Src/stm32f4xx_hal_adc_ex.cpp ****   
 2138              		.loc 1 1006 18 is_stmt 0 discriminator 2 view .LVU683
 2139 003c 5868     		ldr	r0, [r3, #4]
1006:Drivers/STM32F4xx_HAL_Driver/Src/stm32f4xx_hal_adc_ex.cpp ****   
 2140              		.loc 1 1006 36 discriminator 2 view .LVU684
 2141 003e 8968     		ldr	r1, [r1, #8]
 2142              	.LVL125:
1006:Drivers/STM32F4xx_HAL_Driver/Src/stm32f4xx_hal_adc_ex.cpp ****   
 2143              		.loc 1 1006 22 discriminator 2 view .LVU685
 2144 0040 0143     		orrs	r1, r1, r0
 2145 0042 5960     		str	r1, [r3, #4]
1009:Drivers/STM32F4xx_HAL_Driver/Src/stm32f4xx_hal_adc_ex.cpp ****   
 2146              		.loc 1 1009 3 is_stmt 1 discriminator 2 view .LVU686
1009:Drivers/STM32F4xx_HAL_Driver/Src/stm32f4xx_hal_adc_ex.cpp ****   
 2147              		.loc 1 1009 3 discriminator 2 view .LVU687
 2148 0044 0020     		movs	r0, #0
 2149 0046 82F83C00 		strb	r0, [r2, #60]
1009:Drivers/STM32F4xx_HAL_Driver/Src/stm32f4xx_hal_adc_ex.cpp ****   
 2150              		.loc 1 1009 3 discriminator 2 view .LVU688
1012:Drivers/STM32F4xx_HAL_Driver/Src/stm32f4xx_hal_adc_ex.cpp **** }
 2151              		.loc 1 1012 3 discriminator 2 view .LVU689
1013:Drivers/STM32F4xx_HAL_Driver/Src/stm32f4xx_hal_adc_ex.cpp **** 
 2152              		.loc 1 1013 1 is_stmt 0 discriminator 2 view .LVU690
 2153 004a 5DF8044B 		ldr	r4, [sp], #4
 2154              	.LCFI24:
 2155              		.cfi_restore 4
 2156              		.cfi_def_cfa_offset 0
 2157 004e 7047     		bx	lr
 2158              	.LVL126:
 2159              	.L145:
 989:Drivers/STM32F4xx_HAL_Driver/Src/stm32f4xx_hal_adc_ex.cpp **** 
 2160              		.loc 1 989 3 view .LVU691
 2161 0050 0220     		movs	r0, #2
 2162              	.LVL127:
1013:Drivers/STM32F4xx_HAL_Driver/Src/stm32f4xx_hal_adc_ex.cpp **** 
 2163              		.loc 1 1013 1 view .LVU692
 2164 0052 7047     		bx	lr
 2165              	.L151:
 2166              		.align	2
 2167              	.L150:
 2168 0054 00230140 		.word	1073816320
 2169              		.cfi_endproc
 2170              	.LFE246:
 2171              		.cantunwind
 2172              		.fnend
 2174              		.text
 2175              	.Letext0:
 2176              		.file 2 "c:\\users\\huawei\\desktop\\workspace\\stm32\\vs code tools\\arm-gnu-toolchain-12.2.rel1-
 2177              		.file 3 "c:\\users\\huawei\\desktop\\workspace\\stm32\\vs code tools\\arm-gnu-toolchain-12.2.rel1-
 2178              		.file 4 "Drivers/CMSIS/Device/ST/STM32F4xx/Include/stm32f446xx.h"
 2179              		.file 5 "Drivers/CMSIS/Device/ST/STM32F4xx/Include/stm32f4xx.h"
 2180              		.file 6 "Drivers/STM32F4xx_HAL_Driver/Inc/stm32f4xx_hal_def.h"
 2181              		.file 7 "Drivers/STM32F4xx_HAL_Driver/Inc/stm32f4xx_hal_dma.h"
 2182              		.file 8 "Drivers/STM32F4xx_HAL_Driver/Inc/stm32f4xx_hal_adc.h"
 2183              		.file 9 "Drivers/STM32F4xx_HAL_Driver/Inc/stm32f4xx_hal_adc_ex.h"
 2184              		.file 10 "Drivers/CMSIS/Device/ST/STM32F4xx/Include/system_stm32f4xx.h"
ARM GAS  C:\Users\huawei\AppData\Local\Temp\cc1TIrE4.s 			page 70


 2185              		.file 11 "Drivers/STM32F4xx_HAL_Driver/Inc/stm32f4xx_hal.h"
ARM GAS  C:\Users\huawei\AppData\Local\Temp\cc1TIrE4.s 			page 71


DEFINED SYMBOLS
                            *ABS*:00000000 stm32f4xx_hal_adc_ex.cpp
C:\Users\huawei\AppData\Local\Temp\cc1TIrE4.s:21     .text._ZL21ADC_MultiModeDMAErrorP19__DMA_HandleTypeDef:00000000 $t
C:\Users\huawei\AppData\Local\Temp\cc1TIrE4.s:26     .text._ZL21ADC_MultiModeDMAErrorP19__DMA_HandleTypeDef:00000000 _ZL21ADC_MultiModeDMAErrorP19__DMA_HandleTypeDef
.ARM.extab.text._ZL21ADC_MultiModeDMAErrorP19__DMA_HandleTypeDef:00000000 $d
.ARM.exidx.text._ZL21ADC_MultiModeDMAErrorP19__DMA_HandleTypeDef:00000000 $d
C:\Users\huawei\AppData\Local\Temp\cc1TIrE4.s:66     .text._ZL28ADC_MultiModeDMAHalfConvCpltP19__DMA_HandleTypeDef:00000000 $t
C:\Users\huawei\AppData\Local\Temp\cc1TIrE4.s:71     .text._ZL28ADC_MultiModeDMAHalfConvCpltP19__DMA_HandleTypeDef:00000000 _ZL28ADC_MultiModeDMAHalfConvCpltP19__DMA_HandleTypeDef
.ARM.extab.text._ZL28ADC_MultiModeDMAHalfConvCpltP19__DMA_HandleTypeDef:00000000 $d
.ARM.exidx.text._ZL28ADC_MultiModeDMAHalfConvCpltP19__DMA_HandleTypeDef:00000000 $d
C:\Users\huawei\AppData\Local\Temp\cc1TIrE4.s:102    .text._ZL24ADC_MultiModeDMAConvCpltP19__DMA_HandleTypeDef:00000000 $t
C:\Users\huawei\AppData\Local\Temp\cc1TIrE4.s:107    .text._ZL24ADC_MultiModeDMAConvCpltP19__DMA_HandleTypeDef:00000000 _ZL24ADC_MultiModeDMAConvCpltP19__DMA_HandleTypeDef
.ARM.extab.text._ZL24ADC_MultiModeDMAConvCpltP19__DMA_HandleTypeDef:00000000 $d
.ARM.exidx.text._ZL24ADC_MultiModeDMAConvCpltP19__DMA_HandleTypeDef:00000000 $d
C:\Users\huawei\AppData\Local\Temp\cc1TIrE4.s:205    .text.HAL_ADCEx_InjectedStart:00000000 $t
C:\Users\huawei\AppData\Local\Temp\cc1TIrE4.s:211    .text.HAL_ADCEx_InjectedStart:00000000 HAL_ADCEx_InjectedStart
C:\Users\huawei\AppData\Local\Temp\cc1TIrE4.s:436    .text.HAL_ADCEx_InjectedStart:000000f4 $d
.ARM.exidx.text.HAL_ADCEx_InjectedStart:00000000 $d
C:\Users\huawei\AppData\Local\Temp\cc1TIrE4.s:446    .text.HAL_ADCEx_InjectedStart_IT:00000000 $t
C:\Users\huawei\AppData\Local\Temp\cc1TIrE4.s:452    .text.HAL_ADCEx_InjectedStart_IT:00000000 HAL_ADCEx_InjectedStart_IT
C:\Users\huawei\AppData\Local\Temp\cc1TIrE4.s:682    .text.HAL_ADCEx_InjectedStart_IT:000000fc $d
.ARM.exidx.text.HAL_ADCEx_InjectedStart_IT:00000000 $d
C:\Users\huawei\AppData\Local\Temp\cc1TIrE4.s:692    .text.HAL_ADCEx_InjectedStop:00000000 $t
C:\Users\huawei\AppData\Local\Temp\cc1TIrE4.s:698    .text.HAL_ADCEx_InjectedStop:00000000 HAL_ADCEx_InjectedStop
.ARM.exidx.text.HAL_ADCEx_InjectedStop:00000000 $d
C:\Users\huawei\AppData\Local\Temp\cc1TIrE4.s:795    .text.HAL_ADCEx_InjectedPollForConversion:00000000 $t
C:\Users\huawei\AppData\Local\Temp\cc1TIrE4.s:801    .text.HAL_ADCEx_InjectedPollForConversion:00000000 HAL_ADCEx_InjectedPollForConversion
.ARM.exidx.text.HAL_ADCEx_InjectedPollForConversion:00000000 $d
C:\Users\huawei\AppData\Local\Temp\cc1TIrE4.s:956    .text.HAL_ADCEx_InjectedStop_IT:00000000 $t
C:\Users\huawei\AppData\Local\Temp\cc1TIrE4.s:962    .text.HAL_ADCEx_InjectedStop_IT:00000000 HAL_ADCEx_InjectedStop_IT
.ARM.exidx.text.HAL_ADCEx_InjectedStop_IT:00000000 $d
C:\Users\huawei\AppData\Local\Temp\cc1TIrE4.s:1063   .text.HAL_ADCEx_InjectedGetValue:00000000 $t
C:\Users\huawei\AppData\Local\Temp\cc1TIrE4.s:1069   .text.HAL_ADCEx_InjectedGetValue:00000000 HAL_ADCEx_InjectedGetValue
C:\Users\huawei\AppData\Local\Temp\cc1TIrE4.s:1099   .text.HAL_ADCEx_InjectedGetValue:00000018 $d
C:\Users\huawei\AppData\Local\Temp\cc1TIrE4.s:1103   .text.HAL_ADCEx_InjectedGetValue:0000001c $t
.ARM.exidx.text.HAL_ADCEx_InjectedGetValue:00000000 $d
C:\Users\huawei\AppData\Local\Temp\cc1TIrE4.s:1172   .text.HAL_ADCEx_MultiModeStart_DMA:00000000 $t
C:\Users\huawei\AppData\Local\Temp\cc1TIrE4.s:1178   .text.HAL_ADCEx_MultiModeStart_DMA:00000000 HAL_ADCEx_MultiModeStart_DMA
C:\Users\huawei\AppData\Local\Temp\cc1TIrE4.s:1421   .text.HAL_ADCEx_MultiModeStart_DMA:00000114 $d
.ARM.exidx.text.HAL_ADCEx_MultiModeStart_DMA:00000000 $d
C:\Users\huawei\AppData\Local\Temp\cc1TIrE4.s:1433   .text.HAL_ADCEx_MultiModeStop_DMA:00000000 $t
C:\Users\huawei\AppData\Local\Temp\cc1TIrE4.s:1439   .text.HAL_ADCEx_MultiModeStop_DMA:00000000 HAL_ADCEx_MultiModeStop_DMA
C:\Users\huawei\AppData\Local\Temp\cc1TIrE4.s:1535   .text.HAL_ADCEx_MultiModeStop_DMA:00000060 $d
.ARM.exidx.text.HAL_ADCEx_MultiModeStop_DMA:00000000 $d
C:\Users\huawei\AppData\Local\Temp\cc1TIrE4.s:1541   .text.HAL_ADCEx_MultiModeGetValue:00000000 $t
C:\Users\huawei\AppData\Local\Temp\cc1TIrE4.s:1547   .text.HAL_ADCEx_MultiModeGetValue:00000000 HAL_ADCEx_MultiModeGetValue
C:\Users\huawei\AppData\Local\Temp\cc1TIrE4.s:1568   .text.HAL_ADCEx_MultiModeGetValue:00000008 $d
.ARM.exidx.text.HAL_ADCEx_MultiModeGetValue:00000000 $d
C:\Users\huawei\AppData\Local\Temp\cc1TIrE4.s:1575   .text.HAL_ADCEx_InjectedConvCpltCallback:00000000 $t
C:\Users\huawei\AppData\Local\Temp\cc1TIrE4.s:1581   .text.HAL_ADCEx_InjectedConvCpltCallback:00000000 HAL_ADCEx_InjectedConvCpltCallback
.ARM.exidx.text.HAL_ADCEx_InjectedConvCpltCallback:00000000 $d
C:\Users\huawei\AppData\Local\Temp\cc1TIrE4.s:1599   .text.HAL_ADCEx_InjectedConfigChannel:00000000 $t
C:\Users\huawei\AppData\Local\Temp\cc1TIrE4.s:1605   .text.HAL_ADCEx_InjectedConfigChannel:00000000 HAL_ADCEx_InjectedConfigChannel
C:\Users\huawei\AppData\Local\Temp\cc1TIrE4.s:2057   .text.HAL_ADCEx_InjectedConfigChannel:00000200 $d
.ARM.exidx.text.HAL_ADCEx_InjectedConfigChannel:00000000 $d
C:\Users\huawei\AppData\Local\Temp\cc1TIrE4.s:2067   .text.HAL_ADCEx_MultiModeConfigChannel:00000000 $t
C:\Users\huawei\AppData\Local\Temp\cc1TIrE4.s:2073   .text.HAL_ADCEx_MultiModeConfigChannel:00000000 HAL_ADCEx_MultiModeConfigChannel
ARM GAS  C:\Users\huawei\AppData\Local\Temp\cc1TIrE4.s 			page 72


C:\Users\huawei\AppData\Local\Temp\cc1TIrE4.s:2168   .text.HAL_ADCEx_MultiModeConfigChannel:00000054 $d
.ARM.exidx.text.HAL_ADCEx_MultiModeConfigChannel:00000000 $d

UNDEFINED SYMBOLS
HAL_ADC_ErrorCallback
__aeabi_unwind_cpp_pr1
HAL_ADC_ConvHalfCpltCallback
HAL_ADC_ConvCpltCallback
SystemCoreClock
HAL_GetTick
__aeabi_unwind_cpp_pr0
HAL_DMA_Start_IT
HAL_DMA_Abort
