ARM GAS  C:\Users\huawei\AppData\Local\Temp\ccXalwLh.s 			page 1


   1              		.cpu cortex-m4
   2              		.arch armv7e-m
   3              		.fpu fpv4-sp-d16
   4              		.eabi_attribute 27, 1
   5              		.eabi_attribute 28, 1
   6              		.eabi_attribute 20, 1
   7              		.eabi_attribute 21, 1
   8              		.eabi_attribute 23, 3
   9              		.eabi_attribute 24, 1
  10              		.eabi_attribute 25, 1
  11              		.eabi_attribute 26, 1
  12              		.eabi_attribute 30, 1
  13              		.eabi_attribute 34, 1
  14              		.eabi_attribute 18, 4
  15              		.file	"stm32f4xx_hal_dma.cpp"
  16              		.text
  17              	.Ltext0:
  18              		.cfi_sections	.debug_frame
  19              		.file 1 "Drivers/STM32F4xx_HAL_Driver/Src/stm32f4xx_hal_dma.cpp"
  20              		.section	.text._ZL13DMA_SetConfigP19__DMA_HandleTypeDefmmm,"ax",%progbits
  21              		.align	1
  22              		.syntax unified
  23              		.thumb
  24              		.thumb_func
  26              	_ZL13DMA_SetConfigP19__DMA_HandleTypeDefmmm:
  27              		.fnstart
  28              	.LVL0:
  29              	.LFB247:
   1:Drivers/STM32F4xx_HAL_Driver/Src/stm32f4xx_hal_dma.cpp **** /**
   2:Drivers/STM32F4xx_HAL_Driver/Src/stm32f4xx_hal_dma.cpp ****   ******************************************************************************
   3:Drivers/STM32F4xx_HAL_Driver/Src/stm32f4xx_hal_dma.cpp ****   * @file    stm32f4xx_hal_dma.c
   4:Drivers/STM32F4xx_HAL_Driver/Src/stm32f4xx_hal_dma.cpp ****   * @author  MCD Application Team
   5:Drivers/STM32F4xx_HAL_Driver/Src/stm32f4xx_hal_dma.cpp ****   * @brief   DMA HAL module driver.
   6:Drivers/STM32F4xx_HAL_Driver/Src/stm32f4xx_hal_dma.cpp ****   *    
   7:Drivers/STM32F4xx_HAL_Driver/Src/stm32f4xx_hal_dma.cpp ****   *          This file provides firmware functions to manage the following 
   8:Drivers/STM32F4xx_HAL_Driver/Src/stm32f4xx_hal_dma.cpp ****   *          functionalities of the Direct Memory Access (DMA) peripheral:
   9:Drivers/STM32F4xx_HAL_Driver/Src/stm32f4xx_hal_dma.cpp ****   *           + Initialization and de-initialization functions
  10:Drivers/STM32F4xx_HAL_Driver/Src/stm32f4xx_hal_dma.cpp ****   *           + IO operation functions
  11:Drivers/STM32F4xx_HAL_Driver/Src/stm32f4xx_hal_dma.cpp ****   *           + Peripheral State and errors functions
  12:Drivers/STM32F4xx_HAL_Driver/Src/stm32f4xx_hal_dma.cpp ****   @verbatim     
  13:Drivers/STM32F4xx_HAL_Driver/Src/stm32f4xx_hal_dma.cpp ****   ==============================================================================
  14:Drivers/STM32F4xx_HAL_Driver/Src/stm32f4xx_hal_dma.cpp ****                         ##### How to use this driver #####
  15:Drivers/STM32F4xx_HAL_Driver/Src/stm32f4xx_hal_dma.cpp ****   ==============================================================================
  16:Drivers/STM32F4xx_HAL_Driver/Src/stm32f4xx_hal_dma.cpp ****   [..]
  17:Drivers/STM32F4xx_HAL_Driver/Src/stm32f4xx_hal_dma.cpp ****    (#) Enable and configure the peripheral to be connected to the DMA Stream
  18:Drivers/STM32F4xx_HAL_Driver/Src/stm32f4xx_hal_dma.cpp ****        (except for internal SRAM/FLASH memories: no initialization is 
  19:Drivers/STM32F4xx_HAL_Driver/Src/stm32f4xx_hal_dma.cpp ****        necessary) please refer to Reference manual for connection between peripherals
  20:Drivers/STM32F4xx_HAL_Driver/Src/stm32f4xx_hal_dma.cpp ****        and DMA requests.
  21:Drivers/STM32F4xx_HAL_Driver/Src/stm32f4xx_hal_dma.cpp **** 
  22:Drivers/STM32F4xx_HAL_Driver/Src/stm32f4xx_hal_dma.cpp ****    (#) For a given Stream, program the required configuration through the following parameters:
  23:Drivers/STM32F4xx_HAL_Driver/Src/stm32f4xx_hal_dma.cpp ****        Transfer Direction, Source and Destination data formats, 
  24:Drivers/STM32F4xx_HAL_Driver/Src/stm32f4xx_hal_dma.cpp ****        Circular, Normal or peripheral flow control mode, Stream Priority level, 
  25:Drivers/STM32F4xx_HAL_Driver/Src/stm32f4xx_hal_dma.cpp ****        Source and Destination Increment mode, FIFO mode and its Threshold (if needed), 
  26:Drivers/STM32F4xx_HAL_Driver/Src/stm32f4xx_hal_dma.cpp ****        Burst mode for Source and/or Destination (if needed) using HAL_DMA_Init() function.
  27:Drivers/STM32F4xx_HAL_Driver/Src/stm32f4xx_hal_dma.cpp **** 
  28:Drivers/STM32F4xx_HAL_Driver/Src/stm32f4xx_hal_dma.cpp ****    -@-   Prior to HAL_DMA_Init() the clock must be enabled for DMA through the following macros:
  29:Drivers/STM32F4xx_HAL_Driver/Src/stm32f4xx_hal_dma.cpp ****          __HAL_RCC_DMA1_CLK_ENABLE() or __HAL_RCC_DMA2_CLK_ENABLE().
ARM GAS  C:\Users\huawei\AppData\Local\Temp\ccXalwLh.s 			page 2


  30:Drivers/STM32F4xx_HAL_Driver/Src/stm32f4xx_hal_dma.cpp **** 
  31:Drivers/STM32F4xx_HAL_Driver/Src/stm32f4xx_hal_dma.cpp ****      *** Polling mode IO operation ***
  32:Drivers/STM32F4xx_HAL_Driver/Src/stm32f4xx_hal_dma.cpp ****      =================================
  33:Drivers/STM32F4xx_HAL_Driver/Src/stm32f4xx_hal_dma.cpp ****     [..]
  34:Drivers/STM32F4xx_HAL_Driver/Src/stm32f4xx_hal_dma.cpp ****           (+) Use HAL_DMA_Start() to start DMA transfer after the configuration of Source 
  35:Drivers/STM32F4xx_HAL_Driver/Src/stm32f4xx_hal_dma.cpp ****               address and destination address and the Length of data to be transferred.
  36:Drivers/STM32F4xx_HAL_Driver/Src/stm32f4xx_hal_dma.cpp ****           (+) Use HAL_DMA_PollForTransfer() to poll for the end of current transfer, in this  
  37:Drivers/STM32F4xx_HAL_Driver/Src/stm32f4xx_hal_dma.cpp ****               case a fixed Timeout can be configured by User depending from his application.
  38:Drivers/STM32F4xx_HAL_Driver/Src/stm32f4xx_hal_dma.cpp ****           (+) Use HAL_DMA_Abort() function to abort the current transfer.
  39:Drivers/STM32F4xx_HAL_Driver/Src/stm32f4xx_hal_dma.cpp **** 
  40:Drivers/STM32F4xx_HAL_Driver/Src/stm32f4xx_hal_dma.cpp ****      *** Interrupt mode IO operation ***
  41:Drivers/STM32F4xx_HAL_Driver/Src/stm32f4xx_hal_dma.cpp ****      ===================================
  42:Drivers/STM32F4xx_HAL_Driver/Src/stm32f4xx_hal_dma.cpp ****     [..]
  43:Drivers/STM32F4xx_HAL_Driver/Src/stm32f4xx_hal_dma.cpp ****           (+) Configure the DMA interrupt priority using HAL_NVIC_SetPriority()
  44:Drivers/STM32F4xx_HAL_Driver/Src/stm32f4xx_hal_dma.cpp ****           (+) Enable the DMA IRQ handler using HAL_NVIC_EnableIRQ() 
  45:Drivers/STM32F4xx_HAL_Driver/Src/stm32f4xx_hal_dma.cpp ****           (+) Use HAL_DMA_Start_IT() to start DMA transfer after the configuration of  
  46:Drivers/STM32F4xx_HAL_Driver/Src/stm32f4xx_hal_dma.cpp ****               Source address and destination address and the Length of data to be transferred. In t
  47:Drivers/STM32F4xx_HAL_Driver/Src/stm32f4xx_hal_dma.cpp ****               case the DMA interrupt is configured 
  48:Drivers/STM32F4xx_HAL_Driver/Src/stm32f4xx_hal_dma.cpp ****           (+) Use HAL_DMA_IRQHandler() called under DMA_IRQHandler() Interrupt subroutine
  49:Drivers/STM32F4xx_HAL_Driver/Src/stm32f4xx_hal_dma.cpp ****           (+) At the end of data transfer HAL_DMA_IRQHandler() function is executed and user can 
  50:Drivers/STM32F4xx_HAL_Driver/Src/stm32f4xx_hal_dma.cpp ****               add his own function by customization of function pointer XferCpltCallback and 
  51:Drivers/STM32F4xx_HAL_Driver/Src/stm32f4xx_hal_dma.cpp ****               XferErrorCallback (i.e a member of DMA handle structure).
  52:Drivers/STM32F4xx_HAL_Driver/Src/stm32f4xx_hal_dma.cpp ****     [..]
  53:Drivers/STM32F4xx_HAL_Driver/Src/stm32f4xx_hal_dma.cpp ****      (#) Use HAL_DMA_GetState() function to return the DMA state and HAL_DMA_GetError() in case of 
  54:Drivers/STM32F4xx_HAL_Driver/Src/stm32f4xx_hal_dma.cpp ****          detection.
  55:Drivers/STM32F4xx_HAL_Driver/Src/stm32f4xx_hal_dma.cpp **** 
  56:Drivers/STM32F4xx_HAL_Driver/Src/stm32f4xx_hal_dma.cpp ****      (#) Use HAL_DMA_Abort_IT() function to abort the current transfer
  57:Drivers/STM32F4xx_HAL_Driver/Src/stm32f4xx_hal_dma.cpp **** 
  58:Drivers/STM32F4xx_HAL_Driver/Src/stm32f4xx_hal_dma.cpp ****      -@-   In Memory-to-Memory transfer mode, Circular mode is not allowed.
  59:Drivers/STM32F4xx_HAL_Driver/Src/stm32f4xx_hal_dma.cpp **** 
  60:Drivers/STM32F4xx_HAL_Driver/Src/stm32f4xx_hal_dma.cpp ****      -@-   The FIFO is used mainly to reduce bus usage and to allow data packing/unpacking: it is
  61:Drivers/STM32F4xx_HAL_Driver/Src/stm32f4xx_hal_dma.cpp ****            possible to set different Data Sizes for the Peripheral and the Memory (ie. you can set
  62:Drivers/STM32F4xx_HAL_Driver/Src/stm32f4xx_hal_dma.cpp ****            Half-Word data size for the peripheral to access its data register and set Word data siz
  63:Drivers/STM32F4xx_HAL_Driver/Src/stm32f4xx_hal_dma.cpp ****            for the Memory to gain in access time. Each two half words will be packed and written in
  64:Drivers/STM32F4xx_HAL_Driver/Src/stm32f4xx_hal_dma.cpp ****            a single access to a Word in the Memory).
  65:Drivers/STM32F4xx_HAL_Driver/Src/stm32f4xx_hal_dma.cpp **** 
  66:Drivers/STM32F4xx_HAL_Driver/Src/stm32f4xx_hal_dma.cpp ****      -@-   When FIFO is disabled, it is not allowed to configure different Data Sizes for Source
  67:Drivers/STM32F4xx_HAL_Driver/Src/stm32f4xx_hal_dma.cpp ****            and Destination. In this case the Peripheral Data Size will be applied to both Source
  68:Drivers/STM32F4xx_HAL_Driver/Src/stm32f4xx_hal_dma.cpp ****            and Destination.
  69:Drivers/STM32F4xx_HAL_Driver/Src/stm32f4xx_hal_dma.cpp **** 
  70:Drivers/STM32F4xx_HAL_Driver/Src/stm32f4xx_hal_dma.cpp ****      *** DMA HAL driver macros list ***
  71:Drivers/STM32F4xx_HAL_Driver/Src/stm32f4xx_hal_dma.cpp ****      =============================================
  72:Drivers/STM32F4xx_HAL_Driver/Src/stm32f4xx_hal_dma.cpp ****      [..]
  73:Drivers/STM32F4xx_HAL_Driver/Src/stm32f4xx_hal_dma.cpp ****        Below the list of most used macros in DMA HAL driver.
  74:Drivers/STM32F4xx_HAL_Driver/Src/stm32f4xx_hal_dma.cpp ****        
  75:Drivers/STM32F4xx_HAL_Driver/Src/stm32f4xx_hal_dma.cpp ****       (+) __HAL_DMA_ENABLE: Enable the specified DMA Stream.
  76:Drivers/STM32F4xx_HAL_Driver/Src/stm32f4xx_hal_dma.cpp ****       (+) __HAL_DMA_DISABLE: Disable the specified DMA Stream.
  77:Drivers/STM32F4xx_HAL_Driver/Src/stm32f4xx_hal_dma.cpp ****       (+) __HAL_DMA_GET_IT_SOURCE: Check whether the specified DMA Stream interrupt has occurred or
  78:Drivers/STM32F4xx_HAL_Driver/Src/stm32f4xx_hal_dma.cpp **** 
  79:Drivers/STM32F4xx_HAL_Driver/Src/stm32f4xx_hal_dma.cpp ****      [..]
  80:Drivers/STM32F4xx_HAL_Driver/Src/stm32f4xx_hal_dma.cpp ****       (@) You can refer to the DMA HAL driver header file for more useful macros
  81:Drivers/STM32F4xx_HAL_Driver/Src/stm32f4xx_hal_dma.cpp **** 
  82:Drivers/STM32F4xx_HAL_Driver/Src/stm32f4xx_hal_dma.cpp ****   @endverbatim
  83:Drivers/STM32F4xx_HAL_Driver/Src/stm32f4xx_hal_dma.cpp ****   ******************************************************************************
  84:Drivers/STM32F4xx_HAL_Driver/Src/stm32f4xx_hal_dma.cpp ****   * @attention
  85:Drivers/STM32F4xx_HAL_Driver/Src/stm32f4xx_hal_dma.cpp ****   *
  86:Drivers/STM32F4xx_HAL_Driver/Src/stm32f4xx_hal_dma.cpp ****   * Copyright (c) 2017 STMicroelectronics.
ARM GAS  C:\Users\huawei\AppData\Local\Temp\ccXalwLh.s 			page 3


  87:Drivers/STM32F4xx_HAL_Driver/Src/stm32f4xx_hal_dma.cpp ****   * All rights reserved.
  88:Drivers/STM32F4xx_HAL_Driver/Src/stm32f4xx_hal_dma.cpp ****   *
  89:Drivers/STM32F4xx_HAL_Driver/Src/stm32f4xx_hal_dma.cpp ****   * This software is licensed under terms that can be found in the LICENSE file in
  90:Drivers/STM32F4xx_HAL_Driver/Src/stm32f4xx_hal_dma.cpp ****   * the root directory of this software component.
  91:Drivers/STM32F4xx_HAL_Driver/Src/stm32f4xx_hal_dma.cpp ****   * If no LICENSE file comes with this software, it is provided AS-IS.
  92:Drivers/STM32F4xx_HAL_Driver/Src/stm32f4xx_hal_dma.cpp ****   *
  93:Drivers/STM32F4xx_HAL_Driver/Src/stm32f4xx_hal_dma.cpp ****   ******************************************************************************
  94:Drivers/STM32F4xx_HAL_Driver/Src/stm32f4xx_hal_dma.cpp ****   */ 
  95:Drivers/STM32F4xx_HAL_Driver/Src/stm32f4xx_hal_dma.cpp **** 
  96:Drivers/STM32F4xx_HAL_Driver/Src/stm32f4xx_hal_dma.cpp **** /* Includes ------------------------------------------------------------------*/
  97:Drivers/STM32F4xx_HAL_Driver/Src/stm32f4xx_hal_dma.cpp **** #include "stm32f4xx_hal.h"
  98:Drivers/STM32F4xx_HAL_Driver/Src/stm32f4xx_hal_dma.cpp **** 
  99:Drivers/STM32F4xx_HAL_Driver/Src/stm32f4xx_hal_dma.cpp **** /** @addtogroup STM32F4xx_HAL_Driver
 100:Drivers/STM32F4xx_HAL_Driver/Src/stm32f4xx_hal_dma.cpp ****   * @{
 101:Drivers/STM32F4xx_HAL_Driver/Src/stm32f4xx_hal_dma.cpp ****   */
 102:Drivers/STM32F4xx_HAL_Driver/Src/stm32f4xx_hal_dma.cpp **** 
 103:Drivers/STM32F4xx_HAL_Driver/Src/stm32f4xx_hal_dma.cpp **** /** @defgroup DMA DMA
 104:Drivers/STM32F4xx_HAL_Driver/Src/stm32f4xx_hal_dma.cpp ****   * @brief DMA HAL module driver
 105:Drivers/STM32F4xx_HAL_Driver/Src/stm32f4xx_hal_dma.cpp ****   * @{
 106:Drivers/STM32F4xx_HAL_Driver/Src/stm32f4xx_hal_dma.cpp ****   */
 107:Drivers/STM32F4xx_HAL_Driver/Src/stm32f4xx_hal_dma.cpp **** 
 108:Drivers/STM32F4xx_HAL_Driver/Src/stm32f4xx_hal_dma.cpp **** #ifdef HAL_DMA_MODULE_ENABLED
 109:Drivers/STM32F4xx_HAL_Driver/Src/stm32f4xx_hal_dma.cpp **** 
 110:Drivers/STM32F4xx_HAL_Driver/Src/stm32f4xx_hal_dma.cpp **** /* Private types -------------------------------------------------------------*/
 111:Drivers/STM32F4xx_HAL_Driver/Src/stm32f4xx_hal_dma.cpp **** typedef struct
 112:Drivers/STM32F4xx_HAL_Driver/Src/stm32f4xx_hal_dma.cpp **** {
 113:Drivers/STM32F4xx_HAL_Driver/Src/stm32f4xx_hal_dma.cpp ****   __IO uint32_t ISR;   /*!< DMA interrupt status register */
 114:Drivers/STM32F4xx_HAL_Driver/Src/stm32f4xx_hal_dma.cpp ****   __IO uint32_t Reserved0;
 115:Drivers/STM32F4xx_HAL_Driver/Src/stm32f4xx_hal_dma.cpp ****   __IO uint32_t IFCR;  /*!< DMA interrupt flag clear register */
 116:Drivers/STM32F4xx_HAL_Driver/Src/stm32f4xx_hal_dma.cpp **** } DMA_Base_Registers;
 117:Drivers/STM32F4xx_HAL_Driver/Src/stm32f4xx_hal_dma.cpp **** 
 118:Drivers/STM32F4xx_HAL_Driver/Src/stm32f4xx_hal_dma.cpp **** /* Private variables ---------------------------------------------------------*/
 119:Drivers/STM32F4xx_HAL_Driver/Src/stm32f4xx_hal_dma.cpp **** /* Private constants ---------------------------------------------------------*/
 120:Drivers/STM32F4xx_HAL_Driver/Src/stm32f4xx_hal_dma.cpp **** /** @addtogroup DMA_Private_Constants
 121:Drivers/STM32F4xx_HAL_Driver/Src/stm32f4xx_hal_dma.cpp ****  * @{
 122:Drivers/STM32F4xx_HAL_Driver/Src/stm32f4xx_hal_dma.cpp ****  */
 123:Drivers/STM32F4xx_HAL_Driver/Src/stm32f4xx_hal_dma.cpp ****  #define HAL_TIMEOUT_DMA_ABORT    5U  /* 5 ms */
 124:Drivers/STM32F4xx_HAL_Driver/Src/stm32f4xx_hal_dma.cpp **** /**
 125:Drivers/STM32F4xx_HAL_Driver/Src/stm32f4xx_hal_dma.cpp ****   * @}
 126:Drivers/STM32F4xx_HAL_Driver/Src/stm32f4xx_hal_dma.cpp ****   */
 127:Drivers/STM32F4xx_HAL_Driver/Src/stm32f4xx_hal_dma.cpp **** /* Private macros ------------------------------------------------------------*/
 128:Drivers/STM32F4xx_HAL_Driver/Src/stm32f4xx_hal_dma.cpp **** /* Private functions ---------------------------------------------------------*/
 129:Drivers/STM32F4xx_HAL_Driver/Src/stm32f4xx_hal_dma.cpp **** /** @addtogroup DMA_Private_Functions
 130:Drivers/STM32F4xx_HAL_Driver/Src/stm32f4xx_hal_dma.cpp ****   * @{
 131:Drivers/STM32F4xx_HAL_Driver/Src/stm32f4xx_hal_dma.cpp ****   */
 132:Drivers/STM32F4xx_HAL_Driver/Src/stm32f4xx_hal_dma.cpp **** static void DMA_SetConfig(DMA_HandleTypeDef *hdma, uint32_t SrcAddress, uint32_t DstAddress, uint32
 133:Drivers/STM32F4xx_HAL_Driver/Src/stm32f4xx_hal_dma.cpp **** static uint32_t DMA_CalcBaseAndBitshift(DMA_HandleTypeDef *hdma);
 134:Drivers/STM32F4xx_HAL_Driver/Src/stm32f4xx_hal_dma.cpp **** static HAL_StatusTypeDef DMA_CheckFifoParam(DMA_HandleTypeDef *hdma);
 135:Drivers/STM32F4xx_HAL_Driver/Src/stm32f4xx_hal_dma.cpp **** 
 136:Drivers/STM32F4xx_HAL_Driver/Src/stm32f4xx_hal_dma.cpp **** /**
 137:Drivers/STM32F4xx_HAL_Driver/Src/stm32f4xx_hal_dma.cpp ****   * @}
 138:Drivers/STM32F4xx_HAL_Driver/Src/stm32f4xx_hal_dma.cpp ****   */  
 139:Drivers/STM32F4xx_HAL_Driver/Src/stm32f4xx_hal_dma.cpp **** 
 140:Drivers/STM32F4xx_HAL_Driver/Src/stm32f4xx_hal_dma.cpp **** /* Exported functions ---------------------------------------------------------*/
 141:Drivers/STM32F4xx_HAL_Driver/Src/stm32f4xx_hal_dma.cpp **** /** @addtogroup DMA_Exported_Functions
 142:Drivers/STM32F4xx_HAL_Driver/Src/stm32f4xx_hal_dma.cpp ****   * @{
 143:Drivers/STM32F4xx_HAL_Driver/Src/stm32f4xx_hal_dma.cpp ****   */
ARM GAS  C:\Users\huawei\AppData\Local\Temp\ccXalwLh.s 			page 4


 144:Drivers/STM32F4xx_HAL_Driver/Src/stm32f4xx_hal_dma.cpp **** 
 145:Drivers/STM32F4xx_HAL_Driver/Src/stm32f4xx_hal_dma.cpp **** /** @addtogroup DMA_Exported_Functions_Group1
 146:Drivers/STM32F4xx_HAL_Driver/Src/stm32f4xx_hal_dma.cpp ****   *
 147:Drivers/STM32F4xx_HAL_Driver/Src/stm32f4xx_hal_dma.cpp **** @verbatim
 148:Drivers/STM32F4xx_HAL_Driver/Src/stm32f4xx_hal_dma.cpp ****  ===============================================================================
 149:Drivers/STM32F4xx_HAL_Driver/Src/stm32f4xx_hal_dma.cpp ****              ##### Initialization and de-initialization functions  #####
 150:Drivers/STM32F4xx_HAL_Driver/Src/stm32f4xx_hal_dma.cpp ****  ===============================================================================
 151:Drivers/STM32F4xx_HAL_Driver/Src/stm32f4xx_hal_dma.cpp ****     [..]
 152:Drivers/STM32F4xx_HAL_Driver/Src/stm32f4xx_hal_dma.cpp ****     This section provides functions allowing to initialize the DMA Stream source
 153:Drivers/STM32F4xx_HAL_Driver/Src/stm32f4xx_hal_dma.cpp ****     and destination addresses, incrementation and data sizes, transfer direction, 
 154:Drivers/STM32F4xx_HAL_Driver/Src/stm32f4xx_hal_dma.cpp ****     circular/normal mode selection, memory-to-memory mode selection and Stream priority value.
 155:Drivers/STM32F4xx_HAL_Driver/Src/stm32f4xx_hal_dma.cpp ****     [..]
 156:Drivers/STM32F4xx_HAL_Driver/Src/stm32f4xx_hal_dma.cpp ****     The HAL_DMA_Init() function follows the DMA configuration procedures as described in
 157:Drivers/STM32F4xx_HAL_Driver/Src/stm32f4xx_hal_dma.cpp ****     reference manual.
 158:Drivers/STM32F4xx_HAL_Driver/Src/stm32f4xx_hal_dma.cpp **** 
 159:Drivers/STM32F4xx_HAL_Driver/Src/stm32f4xx_hal_dma.cpp **** @endverbatim
 160:Drivers/STM32F4xx_HAL_Driver/Src/stm32f4xx_hal_dma.cpp ****   * @{
 161:Drivers/STM32F4xx_HAL_Driver/Src/stm32f4xx_hal_dma.cpp ****   */
 162:Drivers/STM32F4xx_HAL_Driver/Src/stm32f4xx_hal_dma.cpp ****   
 163:Drivers/STM32F4xx_HAL_Driver/Src/stm32f4xx_hal_dma.cpp **** /**
 164:Drivers/STM32F4xx_HAL_Driver/Src/stm32f4xx_hal_dma.cpp ****   * @brief  Initialize the DMA according to the specified
 165:Drivers/STM32F4xx_HAL_Driver/Src/stm32f4xx_hal_dma.cpp ****   *         parameters in the DMA_InitTypeDef and create the associated handle.
 166:Drivers/STM32F4xx_HAL_Driver/Src/stm32f4xx_hal_dma.cpp ****   * @param  hdma Pointer to a DMA_HandleTypeDef structure that contains
 167:Drivers/STM32F4xx_HAL_Driver/Src/stm32f4xx_hal_dma.cpp ****   *               the configuration information for the specified DMA Stream.  
 168:Drivers/STM32F4xx_HAL_Driver/Src/stm32f4xx_hal_dma.cpp ****   * @retval HAL status
 169:Drivers/STM32F4xx_HAL_Driver/Src/stm32f4xx_hal_dma.cpp ****   */
 170:Drivers/STM32F4xx_HAL_Driver/Src/stm32f4xx_hal_dma.cpp **** HAL_StatusTypeDef HAL_DMA_Init(DMA_HandleTypeDef *hdma)
 171:Drivers/STM32F4xx_HAL_Driver/Src/stm32f4xx_hal_dma.cpp **** {
 172:Drivers/STM32F4xx_HAL_Driver/Src/stm32f4xx_hal_dma.cpp ****   uint32_t tmp = 0U;
 173:Drivers/STM32F4xx_HAL_Driver/Src/stm32f4xx_hal_dma.cpp ****   uint32_t tickstart = HAL_GetTick();
 174:Drivers/STM32F4xx_HAL_Driver/Src/stm32f4xx_hal_dma.cpp ****   DMA_Base_Registers *regs;
 175:Drivers/STM32F4xx_HAL_Driver/Src/stm32f4xx_hal_dma.cpp **** 
 176:Drivers/STM32F4xx_HAL_Driver/Src/stm32f4xx_hal_dma.cpp ****   /* Check the DMA peripheral state */
 177:Drivers/STM32F4xx_HAL_Driver/Src/stm32f4xx_hal_dma.cpp ****   if(hdma == NULL)
 178:Drivers/STM32F4xx_HAL_Driver/Src/stm32f4xx_hal_dma.cpp ****   {
 179:Drivers/STM32F4xx_HAL_Driver/Src/stm32f4xx_hal_dma.cpp ****     return HAL_ERROR;
 180:Drivers/STM32F4xx_HAL_Driver/Src/stm32f4xx_hal_dma.cpp ****   }
 181:Drivers/STM32F4xx_HAL_Driver/Src/stm32f4xx_hal_dma.cpp **** 
 182:Drivers/STM32F4xx_HAL_Driver/Src/stm32f4xx_hal_dma.cpp ****   /* Check the parameters */
 183:Drivers/STM32F4xx_HAL_Driver/Src/stm32f4xx_hal_dma.cpp ****   assert_param(IS_DMA_STREAM_ALL_INSTANCE(hdma->Instance));
 184:Drivers/STM32F4xx_HAL_Driver/Src/stm32f4xx_hal_dma.cpp ****   assert_param(IS_DMA_CHANNEL(hdma->Init.Channel));
 185:Drivers/STM32F4xx_HAL_Driver/Src/stm32f4xx_hal_dma.cpp ****   assert_param(IS_DMA_DIRECTION(hdma->Init.Direction));
 186:Drivers/STM32F4xx_HAL_Driver/Src/stm32f4xx_hal_dma.cpp ****   assert_param(IS_DMA_PERIPHERAL_INC_STATE(hdma->Init.PeriphInc));
 187:Drivers/STM32F4xx_HAL_Driver/Src/stm32f4xx_hal_dma.cpp ****   assert_param(IS_DMA_MEMORY_INC_STATE(hdma->Init.MemInc));
 188:Drivers/STM32F4xx_HAL_Driver/Src/stm32f4xx_hal_dma.cpp ****   assert_param(IS_DMA_PERIPHERAL_DATA_SIZE(hdma->Init.PeriphDataAlignment));
 189:Drivers/STM32F4xx_HAL_Driver/Src/stm32f4xx_hal_dma.cpp ****   assert_param(IS_DMA_MEMORY_DATA_SIZE(hdma->Init.MemDataAlignment));
 190:Drivers/STM32F4xx_HAL_Driver/Src/stm32f4xx_hal_dma.cpp ****   assert_param(IS_DMA_MODE(hdma->Init.Mode));
 191:Drivers/STM32F4xx_HAL_Driver/Src/stm32f4xx_hal_dma.cpp ****   assert_param(IS_DMA_PRIORITY(hdma->Init.Priority));
 192:Drivers/STM32F4xx_HAL_Driver/Src/stm32f4xx_hal_dma.cpp ****   assert_param(IS_DMA_FIFO_MODE_STATE(hdma->Init.FIFOMode));
 193:Drivers/STM32F4xx_HAL_Driver/Src/stm32f4xx_hal_dma.cpp ****   /* Check the memory burst, peripheral burst and FIFO threshold parameters only
 194:Drivers/STM32F4xx_HAL_Driver/Src/stm32f4xx_hal_dma.cpp ****      when FIFO mode is enabled */
 195:Drivers/STM32F4xx_HAL_Driver/Src/stm32f4xx_hal_dma.cpp ****   if(hdma->Init.FIFOMode != DMA_FIFOMODE_DISABLE)
 196:Drivers/STM32F4xx_HAL_Driver/Src/stm32f4xx_hal_dma.cpp ****   {
 197:Drivers/STM32F4xx_HAL_Driver/Src/stm32f4xx_hal_dma.cpp ****     assert_param(IS_DMA_FIFO_THRESHOLD(hdma->Init.FIFOThreshold));
 198:Drivers/STM32F4xx_HAL_Driver/Src/stm32f4xx_hal_dma.cpp ****     assert_param(IS_DMA_MEMORY_BURST(hdma->Init.MemBurst));
 199:Drivers/STM32F4xx_HAL_Driver/Src/stm32f4xx_hal_dma.cpp ****     assert_param(IS_DMA_PERIPHERAL_BURST(hdma->Init.PeriphBurst));
 200:Drivers/STM32F4xx_HAL_Driver/Src/stm32f4xx_hal_dma.cpp ****   }
ARM GAS  C:\Users\huawei\AppData\Local\Temp\ccXalwLh.s 			page 5


 201:Drivers/STM32F4xx_HAL_Driver/Src/stm32f4xx_hal_dma.cpp **** 
 202:Drivers/STM32F4xx_HAL_Driver/Src/stm32f4xx_hal_dma.cpp ****   /* Change DMA peripheral state */
 203:Drivers/STM32F4xx_HAL_Driver/Src/stm32f4xx_hal_dma.cpp ****   hdma->State = HAL_DMA_STATE_BUSY;
 204:Drivers/STM32F4xx_HAL_Driver/Src/stm32f4xx_hal_dma.cpp **** 
 205:Drivers/STM32F4xx_HAL_Driver/Src/stm32f4xx_hal_dma.cpp ****   /* Allocate lock resource */
 206:Drivers/STM32F4xx_HAL_Driver/Src/stm32f4xx_hal_dma.cpp ****   __HAL_UNLOCK(hdma);
 207:Drivers/STM32F4xx_HAL_Driver/Src/stm32f4xx_hal_dma.cpp ****   
 208:Drivers/STM32F4xx_HAL_Driver/Src/stm32f4xx_hal_dma.cpp ****   /* Disable the peripheral */
 209:Drivers/STM32F4xx_HAL_Driver/Src/stm32f4xx_hal_dma.cpp ****   __HAL_DMA_DISABLE(hdma);
 210:Drivers/STM32F4xx_HAL_Driver/Src/stm32f4xx_hal_dma.cpp ****   
 211:Drivers/STM32F4xx_HAL_Driver/Src/stm32f4xx_hal_dma.cpp ****   /* Check if the DMA Stream is effectively disabled */
 212:Drivers/STM32F4xx_HAL_Driver/Src/stm32f4xx_hal_dma.cpp ****   while((hdma->Instance->CR & DMA_SxCR_EN) != RESET)
 213:Drivers/STM32F4xx_HAL_Driver/Src/stm32f4xx_hal_dma.cpp ****   {
 214:Drivers/STM32F4xx_HAL_Driver/Src/stm32f4xx_hal_dma.cpp ****     /* Check for the Timeout */
 215:Drivers/STM32F4xx_HAL_Driver/Src/stm32f4xx_hal_dma.cpp ****     if((HAL_GetTick() - tickstart ) > HAL_TIMEOUT_DMA_ABORT)
 216:Drivers/STM32F4xx_HAL_Driver/Src/stm32f4xx_hal_dma.cpp ****     {
 217:Drivers/STM32F4xx_HAL_Driver/Src/stm32f4xx_hal_dma.cpp ****       /* Update error code */
 218:Drivers/STM32F4xx_HAL_Driver/Src/stm32f4xx_hal_dma.cpp ****       hdma->ErrorCode = HAL_DMA_ERROR_TIMEOUT;
 219:Drivers/STM32F4xx_HAL_Driver/Src/stm32f4xx_hal_dma.cpp ****       
 220:Drivers/STM32F4xx_HAL_Driver/Src/stm32f4xx_hal_dma.cpp ****       /* Change the DMA state */
 221:Drivers/STM32F4xx_HAL_Driver/Src/stm32f4xx_hal_dma.cpp ****       hdma->State = HAL_DMA_STATE_TIMEOUT;
 222:Drivers/STM32F4xx_HAL_Driver/Src/stm32f4xx_hal_dma.cpp ****       
 223:Drivers/STM32F4xx_HAL_Driver/Src/stm32f4xx_hal_dma.cpp ****       return HAL_TIMEOUT;
 224:Drivers/STM32F4xx_HAL_Driver/Src/stm32f4xx_hal_dma.cpp ****     }
 225:Drivers/STM32F4xx_HAL_Driver/Src/stm32f4xx_hal_dma.cpp ****   }
 226:Drivers/STM32F4xx_HAL_Driver/Src/stm32f4xx_hal_dma.cpp ****   
 227:Drivers/STM32F4xx_HAL_Driver/Src/stm32f4xx_hal_dma.cpp ****   /* Get the CR register value */
 228:Drivers/STM32F4xx_HAL_Driver/Src/stm32f4xx_hal_dma.cpp ****   tmp = hdma->Instance->CR;
 229:Drivers/STM32F4xx_HAL_Driver/Src/stm32f4xx_hal_dma.cpp **** 
 230:Drivers/STM32F4xx_HAL_Driver/Src/stm32f4xx_hal_dma.cpp ****   /* Clear CHSEL, MBURST, PBURST, PL, MSIZE, PSIZE, MINC, PINC, CIRC, DIR, CT and DBM bits */
 231:Drivers/STM32F4xx_HAL_Driver/Src/stm32f4xx_hal_dma.cpp ****   tmp &= ((uint32_t)~(DMA_SxCR_CHSEL | DMA_SxCR_MBURST | DMA_SxCR_PBURST | \
 232:Drivers/STM32F4xx_HAL_Driver/Src/stm32f4xx_hal_dma.cpp ****                       DMA_SxCR_PL    | DMA_SxCR_MSIZE  | DMA_SxCR_PSIZE  | \
 233:Drivers/STM32F4xx_HAL_Driver/Src/stm32f4xx_hal_dma.cpp ****                       DMA_SxCR_MINC  | DMA_SxCR_PINC   | DMA_SxCR_CIRC   | \
 234:Drivers/STM32F4xx_HAL_Driver/Src/stm32f4xx_hal_dma.cpp ****                       DMA_SxCR_DIR   | DMA_SxCR_CT     | DMA_SxCR_DBM));
 235:Drivers/STM32F4xx_HAL_Driver/Src/stm32f4xx_hal_dma.cpp **** 
 236:Drivers/STM32F4xx_HAL_Driver/Src/stm32f4xx_hal_dma.cpp ****   /* Prepare the DMA Stream configuration */
 237:Drivers/STM32F4xx_HAL_Driver/Src/stm32f4xx_hal_dma.cpp ****   tmp |=  hdma->Init.Channel             | hdma->Init.Direction        |
 238:Drivers/STM32F4xx_HAL_Driver/Src/stm32f4xx_hal_dma.cpp ****           hdma->Init.PeriphInc           | hdma->Init.MemInc           |
 239:Drivers/STM32F4xx_HAL_Driver/Src/stm32f4xx_hal_dma.cpp ****           hdma->Init.PeriphDataAlignment | hdma->Init.MemDataAlignment |
 240:Drivers/STM32F4xx_HAL_Driver/Src/stm32f4xx_hal_dma.cpp ****           hdma->Init.Mode                | hdma->Init.Priority;
 241:Drivers/STM32F4xx_HAL_Driver/Src/stm32f4xx_hal_dma.cpp **** 
 242:Drivers/STM32F4xx_HAL_Driver/Src/stm32f4xx_hal_dma.cpp ****   /* the Memory burst and peripheral burst are not used when the FIFO is disabled */
 243:Drivers/STM32F4xx_HAL_Driver/Src/stm32f4xx_hal_dma.cpp ****   if(hdma->Init.FIFOMode == DMA_FIFOMODE_ENABLE)
 244:Drivers/STM32F4xx_HAL_Driver/Src/stm32f4xx_hal_dma.cpp ****   {
 245:Drivers/STM32F4xx_HAL_Driver/Src/stm32f4xx_hal_dma.cpp ****     /* Get memory burst and peripheral burst */
 246:Drivers/STM32F4xx_HAL_Driver/Src/stm32f4xx_hal_dma.cpp ****     tmp |=  hdma->Init.MemBurst | hdma->Init.PeriphBurst;
 247:Drivers/STM32F4xx_HAL_Driver/Src/stm32f4xx_hal_dma.cpp ****   }
 248:Drivers/STM32F4xx_HAL_Driver/Src/stm32f4xx_hal_dma.cpp ****   
 249:Drivers/STM32F4xx_HAL_Driver/Src/stm32f4xx_hal_dma.cpp ****   /* Write to DMA Stream CR register */
 250:Drivers/STM32F4xx_HAL_Driver/Src/stm32f4xx_hal_dma.cpp ****   hdma->Instance->CR = tmp;  
 251:Drivers/STM32F4xx_HAL_Driver/Src/stm32f4xx_hal_dma.cpp **** 
 252:Drivers/STM32F4xx_HAL_Driver/Src/stm32f4xx_hal_dma.cpp ****   /* Get the FCR register value */
 253:Drivers/STM32F4xx_HAL_Driver/Src/stm32f4xx_hal_dma.cpp ****   tmp = hdma->Instance->FCR;
 254:Drivers/STM32F4xx_HAL_Driver/Src/stm32f4xx_hal_dma.cpp **** 
 255:Drivers/STM32F4xx_HAL_Driver/Src/stm32f4xx_hal_dma.cpp ****   /* Clear Direct mode and FIFO threshold bits */
 256:Drivers/STM32F4xx_HAL_Driver/Src/stm32f4xx_hal_dma.cpp ****   tmp &= (uint32_t)~(DMA_SxFCR_DMDIS | DMA_SxFCR_FTH);
 257:Drivers/STM32F4xx_HAL_Driver/Src/stm32f4xx_hal_dma.cpp **** 
ARM GAS  C:\Users\huawei\AppData\Local\Temp\ccXalwLh.s 			page 6


 258:Drivers/STM32F4xx_HAL_Driver/Src/stm32f4xx_hal_dma.cpp ****   /* Prepare the DMA Stream FIFO configuration */
 259:Drivers/STM32F4xx_HAL_Driver/Src/stm32f4xx_hal_dma.cpp ****   tmp |= hdma->Init.FIFOMode;
 260:Drivers/STM32F4xx_HAL_Driver/Src/stm32f4xx_hal_dma.cpp **** 
 261:Drivers/STM32F4xx_HAL_Driver/Src/stm32f4xx_hal_dma.cpp ****   /* The FIFO threshold is not used when the FIFO mode is disabled */
 262:Drivers/STM32F4xx_HAL_Driver/Src/stm32f4xx_hal_dma.cpp ****   if(hdma->Init.FIFOMode == DMA_FIFOMODE_ENABLE)
 263:Drivers/STM32F4xx_HAL_Driver/Src/stm32f4xx_hal_dma.cpp ****   {
 264:Drivers/STM32F4xx_HAL_Driver/Src/stm32f4xx_hal_dma.cpp ****     /* Get the FIFO threshold */
 265:Drivers/STM32F4xx_HAL_Driver/Src/stm32f4xx_hal_dma.cpp ****     tmp |= hdma->Init.FIFOThreshold;
 266:Drivers/STM32F4xx_HAL_Driver/Src/stm32f4xx_hal_dma.cpp ****     
 267:Drivers/STM32F4xx_HAL_Driver/Src/stm32f4xx_hal_dma.cpp ****     /* Check compatibility between FIFO threshold level and size of the memory burst */
 268:Drivers/STM32F4xx_HAL_Driver/Src/stm32f4xx_hal_dma.cpp ****     /* for INCR4, INCR8, INCR16 bursts */
 269:Drivers/STM32F4xx_HAL_Driver/Src/stm32f4xx_hal_dma.cpp ****     if (hdma->Init.MemBurst != DMA_MBURST_SINGLE)
 270:Drivers/STM32F4xx_HAL_Driver/Src/stm32f4xx_hal_dma.cpp ****     {
 271:Drivers/STM32F4xx_HAL_Driver/Src/stm32f4xx_hal_dma.cpp ****       if (DMA_CheckFifoParam(hdma) != HAL_OK)
 272:Drivers/STM32F4xx_HAL_Driver/Src/stm32f4xx_hal_dma.cpp ****       {
 273:Drivers/STM32F4xx_HAL_Driver/Src/stm32f4xx_hal_dma.cpp ****         /* Update error code */
 274:Drivers/STM32F4xx_HAL_Driver/Src/stm32f4xx_hal_dma.cpp ****         hdma->ErrorCode = HAL_DMA_ERROR_PARAM;
 275:Drivers/STM32F4xx_HAL_Driver/Src/stm32f4xx_hal_dma.cpp ****         
 276:Drivers/STM32F4xx_HAL_Driver/Src/stm32f4xx_hal_dma.cpp ****         /* Change the DMA state */
 277:Drivers/STM32F4xx_HAL_Driver/Src/stm32f4xx_hal_dma.cpp ****         hdma->State = HAL_DMA_STATE_READY;
 278:Drivers/STM32F4xx_HAL_Driver/Src/stm32f4xx_hal_dma.cpp ****         
 279:Drivers/STM32F4xx_HAL_Driver/Src/stm32f4xx_hal_dma.cpp ****         return HAL_ERROR; 
 280:Drivers/STM32F4xx_HAL_Driver/Src/stm32f4xx_hal_dma.cpp ****       }
 281:Drivers/STM32F4xx_HAL_Driver/Src/stm32f4xx_hal_dma.cpp ****     }
 282:Drivers/STM32F4xx_HAL_Driver/Src/stm32f4xx_hal_dma.cpp ****   }
 283:Drivers/STM32F4xx_HAL_Driver/Src/stm32f4xx_hal_dma.cpp ****   
 284:Drivers/STM32F4xx_HAL_Driver/Src/stm32f4xx_hal_dma.cpp ****   /* Write to DMA Stream FCR */
 285:Drivers/STM32F4xx_HAL_Driver/Src/stm32f4xx_hal_dma.cpp ****   hdma->Instance->FCR = tmp;
 286:Drivers/STM32F4xx_HAL_Driver/Src/stm32f4xx_hal_dma.cpp **** 
 287:Drivers/STM32F4xx_HAL_Driver/Src/stm32f4xx_hal_dma.cpp ****   /* Initialize StreamBaseAddress and StreamIndex parameters to be used to calculate
 288:Drivers/STM32F4xx_HAL_Driver/Src/stm32f4xx_hal_dma.cpp ****      DMA steam Base Address needed by HAL_DMA_IRQHandler() and HAL_DMA_PollForTransfer() */
 289:Drivers/STM32F4xx_HAL_Driver/Src/stm32f4xx_hal_dma.cpp ****   regs = (DMA_Base_Registers *)DMA_CalcBaseAndBitshift(hdma);
 290:Drivers/STM32F4xx_HAL_Driver/Src/stm32f4xx_hal_dma.cpp ****   
 291:Drivers/STM32F4xx_HAL_Driver/Src/stm32f4xx_hal_dma.cpp ****   /* Clear all interrupt flags */
 292:Drivers/STM32F4xx_HAL_Driver/Src/stm32f4xx_hal_dma.cpp ****   regs->IFCR = 0x3FU << hdma->StreamIndex;
 293:Drivers/STM32F4xx_HAL_Driver/Src/stm32f4xx_hal_dma.cpp **** 
 294:Drivers/STM32F4xx_HAL_Driver/Src/stm32f4xx_hal_dma.cpp ****   /* Initialize the error code */
 295:Drivers/STM32F4xx_HAL_Driver/Src/stm32f4xx_hal_dma.cpp ****   hdma->ErrorCode = HAL_DMA_ERROR_NONE;
 296:Drivers/STM32F4xx_HAL_Driver/Src/stm32f4xx_hal_dma.cpp ****                                                                                      
 297:Drivers/STM32F4xx_HAL_Driver/Src/stm32f4xx_hal_dma.cpp ****   /* Initialize the DMA state */
 298:Drivers/STM32F4xx_HAL_Driver/Src/stm32f4xx_hal_dma.cpp ****   hdma->State = HAL_DMA_STATE_READY;
 299:Drivers/STM32F4xx_HAL_Driver/Src/stm32f4xx_hal_dma.cpp **** 
 300:Drivers/STM32F4xx_HAL_Driver/Src/stm32f4xx_hal_dma.cpp ****   return HAL_OK;
 301:Drivers/STM32F4xx_HAL_Driver/Src/stm32f4xx_hal_dma.cpp **** }
 302:Drivers/STM32F4xx_HAL_Driver/Src/stm32f4xx_hal_dma.cpp **** 
 303:Drivers/STM32F4xx_HAL_Driver/Src/stm32f4xx_hal_dma.cpp **** /**
 304:Drivers/STM32F4xx_HAL_Driver/Src/stm32f4xx_hal_dma.cpp ****   * @brief  DeInitializes the DMA peripheral 
 305:Drivers/STM32F4xx_HAL_Driver/Src/stm32f4xx_hal_dma.cpp ****   * @param  hdma pointer to a DMA_HandleTypeDef structure that contains
 306:Drivers/STM32F4xx_HAL_Driver/Src/stm32f4xx_hal_dma.cpp ****   *               the configuration information for the specified DMA Stream.  
 307:Drivers/STM32F4xx_HAL_Driver/Src/stm32f4xx_hal_dma.cpp ****   * @retval HAL status
 308:Drivers/STM32F4xx_HAL_Driver/Src/stm32f4xx_hal_dma.cpp ****   */
 309:Drivers/STM32F4xx_HAL_Driver/Src/stm32f4xx_hal_dma.cpp **** HAL_StatusTypeDef HAL_DMA_DeInit(DMA_HandleTypeDef *hdma)
 310:Drivers/STM32F4xx_HAL_Driver/Src/stm32f4xx_hal_dma.cpp **** {
 311:Drivers/STM32F4xx_HAL_Driver/Src/stm32f4xx_hal_dma.cpp ****   DMA_Base_Registers *regs;
 312:Drivers/STM32F4xx_HAL_Driver/Src/stm32f4xx_hal_dma.cpp **** 
 313:Drivers/STM32F4xx_HAL_Driver/Src/stm32f4xx_hal_dma.cpp ****   /* Check the DMA peripheral state */
 314:Drivers/STM32F4xx_HAL_Driver/Src/stm32f4xx_hal_dma.cpp ****   if(hdma == NULL)
ARM GAS  C:\Users\huawei\AppData\Local\Temp\ccXalwLh.s 			page 7


 315:Drivers/STM32F4xx_HAL_Driver/Src/stm32f4xx_hal_dma.cpp ****   {
 316:Drivers/STM32F4xx_HAL_Driver/Src/stm32f4xx_hal_dma.cpp ****     return HAL_ERROR;
 317:Drivers/STM32F4xx_HAL_Driver/Src/stm32f4xx_hal_dma.cpp ****   }
 318:Drivers/STM32F4xx_HAL_Driver/Src/stm32f4xx_hal_dma.cpp ****   
 319:Drivers/STM32F4xx_HAL_Driver/Src/stm32f4xx_hal_dma.cpp ****   /* Check the DMA peripheral state */
 320:Drivers/STM32F4xx_HAL_Driver/Src/stm32f4xx_hal_dma.cpp ****   if(hdma->State == HAL_DMA_STATE_BUSY)
 321:Drivers/STM32F4xx_HAL_Driver/Src/stm32f4xx_hal_dma.cpp ****   {
 322:Drivers/STM32F4xx_HAL_Driver/Src/stm32f4xx_hal_dma.cpp ****     /* Return error status */
 323:Drivers/STM32F4xx_HAL_Driver/Src/stm32f4xx_hal_dma.cpp ****     return HAL_BUSY;
 324:Drivers/STM32F4xx_HAL_Driver/Src/stm32f4xx_hal_dma.cpp ****   }
 325:Drivers/STM32F4xx_HAL_Driver/Src/stm32f4xx_hal_dma.cpp **** 
 326:Drivers/STM32F4xx_HAL_Driver/Src/stm32f4xx_hal_dma.cpp ****   /* Check the parameters */
 327:Drivers/STM32F4xx_HAL_Driver/Src/stm32f4xx_hal_dma.cpp ****   assert_param(IS_DMA_STREAM_ALL_INSTANCE(hdma->Instance));
 328:Drivers/STM32F4xx_HAL_Driver/Src/stm32f4xx_hal_dma.cpp **** 
 329:Drivers/STM32F4xx_HAL_Driver/Src/stm32f4xx_hal_dma.cpp ****   /* Disable the selected DMA Streamx */
 330:Drivers/STM32F4xx_HAL_Driver/Src/stm32f4xx_hal_dma.cpp ****   __HAL_DMA_DISABLE(hdma);
 331:Drivers/STM32F4xx_HAL_Driver/Src/stm32f4xx_hal_dma.cpp **** 
 332:Drivers/STM32F4xx_HAL_Driver/Src/stm32f4xx_hal_dma.cpp ****   /* Reset DMA Streamx control register */
 333:Drivers/STM32F4xx_HAL_Driver/Src/stm32f4xx_hal_dma.cpp ****   hdma->Instance->CR   = 0U;
 334:Drivers/STM32F4xx_HAL_Driver/Src/stm32f4xx_hal_dma.cpp **** 
 335:Drivers/STM32F4xx_HAL_Driver/Src/stm32f4xx_hal_dma.cpp ****   /* Reset DMA Streamx number of data to transfer register */
 336:Drivers/STM32F4xx_HAL_Driver/Src/stm32f4xx_hal_dma.cpp ****   hdma->Instance->NDTR = 0U;
 337:Drivers/STM32F4xx_HAL_Driver/Src/stm32f4xx_hal_dma.cpp **** 
 338:Drivers/STM32F4xx_HAL_Driver/Src/stm32f4xx_hal_dma.cpp ****   /* Reset DMA Streamx peripheral address register */
 339:Drivers/STM32F4xx_HAL_Driver/Src/stm32f4xx_hal_dma.cpp ****   hdma->Instance->PAR  = 0U;
 340:Drivers/STM32F4xx_HAL_Driver/Src/stm32f4xx_hal_dma.cpp **** 
 341:Drivers/STM32F4xx_HAL_Driver/Src/stm32f4xx_hal_dma.cpp ****   /* Reset DMA Streamx memory 0 address register */
 342:Drivers/STM32F4xx_HAL_Driver/Src/stm32f4xx_hal_dma.cpp ****   hdma->Instance->M0AR = 0U;
 343:Drivers/STM32F4xx_HAL_Driver/Src/stm32f4xx_hal_dma.cpp ****   
 344:Drivers/STM32F4xx_HAL_Driver/Src/stm32f4xx_hal_dma.cpp ****   /* Reset DMA Streamx memory 1 address register */
 345:Drivers/STM32F4xx_HAL_Driver/Src/stm32f4xx_hal_dma.cpp ****   hdma->Instance->M1AR = 0U;
 346:Drivers/STM32F4xx_HAL_Driver/Src/stm32f4xx_hal_dma.cpp ****   
 347:Drivers/STM32F4xx_HAL_Driver/Src/stm32f4xx_hal_dma.cpp ****   /* Reset DMA Streamx FIFO control register */
 348:Drivers/STM32F4xx_HAL_Driver/Src/stm32f4xx_hal_dma.cpp ****   hdma->Instance->FCR  = 0x00000021U;
 349:Drivers/STM32F4xx_HAL_Driver/Src/stm32f4xx_hal_dma.cpp ****   
 350:Drivers/STM32F4xx_HAL_Driver/Src/stm32f4xx_hal_dma.cpp ****   /* Get DMA steam Base Address */  
 351:Drivers/STM32F4xx_HAL_Driver/Src/stm32f4xx_hal_dma.cpp ****   regs = (DMA_Base_Registers *)DMA_CalcBaseAndBitshift(hdma);
 352:Drivers/STM32F4xx_HAL_Driver/Src/stm32f4xx_hal_dma.cpp ****   
 353:Drivers/STM32F4xx_HAL_Driver/Src/stm32f4xx_hal_dma.cpp ****   /* Clean all callbacks */
 354:Drivers/STM32F4xx_HAL_Driver/Src/stm32f4xx_hal_dma.cpp ****   hdma->XferCpltCallback = NULL;
 355:Drivers/STM32F4xx_HAL_Driver/Src/stm32f4xx_hal_dma.cpp ****   hdma->XferHalfCpltCallback = NULL;
 356:Drivers/STM32F4xx_HAL_Driver/Src/stm32f4xx_hal_dma.cpp ****   hdma->XferM1CpltCallback = NULL;
 357:Drivers/STM32F4xx_HAL_Driver/Src/stm32f4xx_hal_dma.cpp ****   hdma->XferM1HalfCpltCallback = NULL;
 358:Drivers/STM32F4xx_HAL_Driver/Src/stm32f4xx_hal_dma.cpp ****   hdma->XferErrorCallback = NULL;
 359:Drivers/STM32F4xx_HAL_Driver/Src/stm32f4xx_hal_dma.cpp ****   hdma->XferAbortCallback = NULL;
 360:Drivers/STM32F4xx_HAL_Driver/Src/stm32f4xx_hal_dma.cpp **** 
 361:Drivers/STM32F4xx_HAL_Driver/Src/stm32f4xx_hal_dma.cpp ****   /* Clear all interrupt flags at correct offset within the register */
 362:Drivers/STM32F4xx_HAL_Driver/Src/stm32f4xx_hal_dma.cpp ****   regs->IFCR = 0x3FU << hdma->StreamIndex;
 363:Drivers/STM32F4xx_HAL_Driver/Src/stm32f4xx_hal_dma.cpp **** 
 364:Drivers/STM32F4xx_HAL_Driver/Src/stm32f4xx_hal_dma.cpp ****   /* Reset the error code */
 365:Drivers/STM32F4xx_HAL_Driver/Src/stm32f4xx_hal_dma.cpp ****   hdma->ErrorCode = HAL_DMA_ERROR_NONE;
 366:Drivers/STM32F4xx_HAL_Driver/Src/stm32f4xx_hal_dma.cpp **** 
 367:Drivers/STM32F4xx_HAL_Driver/Src/stm32f4xx_hal_dma.cpp ****   /* Reset the DMA state */
 368:Drivers/STM32F4xx_HAL_Driver/Src/stm32f4xx_hal_dma.cpp ****   hdma->State = HAL_DMA_STATE_RESET;
 369:Drivers/STM32F4xx_HAL_Driver/Src/stm32f4xx_hal_dma.cpp **** 
 370:Drivers/STM32F4xx_HAL_Driver/Src/stm32f4xx_hal_dma.cpp ****   /* Release Lock */
 371:Drivers/STM32F4xx_HAL_Driver/Src/stm32f4xx_hal_dma.cpp ****   __HAL_UNLOCK(hdma);
ARM GAS  C:\Users\huawei\AppData\Local\Temp\ccXalwLh.s 			page 8


 372:Drivers/STM32F4xx_HAL_Driver/Src/stm32f4xx_hal_dma.cpp **** 
 373:Drivers/STM32F4xx_HAL_Driver/Src/stm32f4xx_hal_dma.cpp ****   return HAL_OK;
 374:Drivers/STM32F4xx_HAL_Driver/Src/stm32f4xx_hal_dma.cpp **** }
 375:Drivers/STM32F4xx_HAL_Driver/Src/stm32f4xx_hal_dma.cpp **** 
 376:Drivers/STM32F4xx_HAL_Driver/Src/stm32f4xx_hal_dma.cpp **** /**
 377:Drivers/STM32F4xx_HAL_Driver/Src/stm32f4xx_hal_dma.cpp ****   * @}
 378:Drivers/STM32F4xx_HAL_Driver/Src/stm32f4xx_hal_dma.cpp ****   */
 379:Drivers/STM32F4xx_HAL_Driver/Src/stm32f4xx_hal_dma.cpp **** 
 380:Drivers/STM32F4xx_HAL_Driver/Src/stm32f4xx_hal_dma.cpp **** /** @addtogroup DMA_Exported_Functions_Group2
 381:Drivers/STM32F4xx_HAL_Driver/Src/stm32f4xx_hal_dma.cpp ****   *
 382:Drivers/STM32F4xx_HAL_Driver/Src/stm32f4xx_hal_dma.cpp **** @verbatim   
 383:Drivers/STM32F4xx_HAL_Driver/Src/stm32f4xx_hal_dma.cpp ****  ===============================================================================
 384:Drivers/STM32F4xx_HAL_Driver/Src/stm32f4xx_hal_dma.cpp ****                       #####  IO operation functions  #####
 385:Drivers/STM32F4xx_HAL_Driver/Src/stm32f4xx_hal_dma.cpp ****  ===============================================================================
 386:Drivers/STM32F4xx_HAL_Driver/Src/stm32f4xx_hal_dma.cpp ****     [..]  This section provides functions allowing to:
 387:Drivers/STM32F4xx_HAL_Driver/Src/stm32f4xx_hal_dma.cpp ****       (+) Configure the source, destination address and data length and Start DMA transfer
 388:Drivers/STM32F4xx_HAL_Driver/Src/stm32f4xx_hal_dma.cpp ****       (+) Configure the source, destination address and data length and 
 389:Drivers/STM32F4xx_HAL_Driver/Src/stm32f4xx_hal_dma.cpp ****           Start DMA transfer with interrupt
 390:Drivers/STM32F4xx_HAL_Driver/Src/stm32f4xx_hal_dma.cpp ****       (+) Abort DMA transfer
 391:Drivers/STM32F4xx_HAL_Driver/Src/stm32f4xx_hal_dma.cpp ****       (+) Poll for transfer complete
 392:Drivers/STM32F4xx_HAL_Driver/Src/stm32f4xx_hal_dma.cpp ****       (+) Handle DMA interrupt request  
 393:Drivers/STM32F4xx_HAL_Driver/Src/stm32f4xx_hal_dma.cpp **** 
 394:Drivers/STM32F4xx_HAL_Driver/Src/stm32f4xx_hal_dma.cpp **** @endverbatim
 395:Drivers/STM32F4xx_HAL_Driver/Src/stm32f4xx_hal_dma.cpp ****   * @{
 396:Drivers/STM32F4xx_HAL_Driver/Src/stm32f4xx_hal_dma.cpp ****   */
 397:Drivers/STM32F4xx_HAL_Driver/Src/stm32f4xx_hal_dma.cpp **** 
 398:Drivers/STM32F4xx_HAL_Driver/Src/stm32f4xx_hal_dma.cpp **** /**
 399:Drivers/STM32F4xx_HAL_Driver/Src/stm32f4xx_hal_dma.cpp ****   * @brief  Starts the DMA Transfer.
 400:Drivers/STM32F4xx_HAL_Driver/Src/stm32f4xx_hal_dma.cpp ****   * @param  hdma       pointer to a DMA_HandleTypeDef structure that contains
 401:Drivers/STM32F4xx_HAL_Driver/Src/stm32f4xx_hal_dma.cpp ****   *                     the configuration information for the specified DMA Stream.
 402:Drivers/STM32F4xx_HAL_Driver/Src/stm32f4xx_hal_dma.cpp ****   * @param  SrcAddress The source memory Buffer address
 403:Drivers/STM32F4xx_HAL_Driver/Src/stm32f4xx_hal_dma.cpp ****   * @param  DstAddress The destination memory Buffer address
 404:Drivers/STM32F4xx_HAL_Driver/Src/stm32f4xx_hal_dma.cpp ****   * @param  DataLength The length of data to be transferred from source to destination
 405:Drivers/STM32F4xx_HAL_Driver/Src/stm32f4xx_hal_dma.cpp ****   * @retval HAL status
 406:Drivers/STM32F4xx_HAL_Driver/Src/stm32f4xx_hal_dma.cpp ****   */
 407:Drivers/STM32F4xx_HAL_Driver/Src/stm32f4xx_hal_dma.cpp **** HAL_StatusTypeDef HAL_DMA_Start(DMA_HandleTypeDef *hdma, uint32_t SrcAddress, uint32_t DstAddress, 
 408:Drivers/STM32F4xx_HAL_Driver/Src/stm32f4xx_hal_dma.cpp **** {
 409:Drivers/STM32F4xx_HAL_Driver/Src/stm32f4xx_hal_dma.cpp ****   HAL_StatusTypeDef status = HAL_OK;
 410:Drivers/STM32F4xx_HAL_Driver/Src/stm32f4xx_hal_dma.cpp ****   
 411:Drivers/STM32F4xx_HAL_Driver/Src/stm32f4xx_hal_dma.cpp ****   /* Check the parameters */
 412:Drivers/STM32F4xx_HAL_Driver/Src/stm32f4xx_hal_dma.cpp ****   assert_param(IS_DMA_BUFFER_SIZE(DataLength));
 413:Drivers/STM32F4xx_HAL_Driver/Src/stm32f4xx_hal_dma.cpp **** 
 414:Drivers/STM32F4xx_HAL_Driver/Src/stm32f4xx_hal_dma.cpp ****   /* Process locked */
 415:Drivers/STM32F4xx_HAL_Driver/Src/stm32f4xx_hal_dma.cpp ****   __HAL_LOCK(hdma);
 416:Drivers/STM32F4xx_HAL_Driver/Src/stm32f4xx_hal_dma.cpp **** 
 417:Drivers/STM32F4xx_HAL_Driver/Src/stm32f4xx_hal_dma.cpp ****   if(HAL_DMA_STATE_READY == hdma->State)
 418:Drivers/STM32F4xx_HAL_Driver/Src/stm32f4xx_hal_dma.cpp ****   {
 419:Drivers/STM32F4xx_HAL_Driver/Src/stm32f4xx_hal_dma.cpp ****     /* Change DMA peripheral state */
 420:Drivers/STM32F4xx_HAL_Driver/Src/stm32f4xx_hal_dma.cpp ****     hdma->State = HAL_DMA_STATE_BUSY;
 421:Drivers/STM32F4xx_HAL_Driver/Src/stm32f4xx_hal_dma.cpp ****     
 422:Drivers/STM32F4xx_HAL_Driver/Src/stm32f4xx_hal_dma.cpp ****     /* Initialize the error code */
 423:Drivers/STM32F4xx_HAL_Driver/Src/stm32f4xx_hal_dma.cpp ****     hdma->ErrorCode = HAL_DMA_ERROR_NONE;
 424:Drivers/STM32F4xx_HAL_Driver/Src/stm32f4xx_hal_dma.cpp ****     
 425:Drivers/STM32F4xx_HAL_Driver/Src/stm32f4xx_hal_dma.cpp ****     /* Configure the source, destination address and the data length */
 426:Drivers/STM32F4xx_HAL_Driver/Src/stm32f4xx_hal_dma.cpp ****     DMA_SetConfig(hdma, SrcAddress, DstAddress, DataLength);
 427:Drivers/STM32F4xx_HAL_Driver/Src/stm32f4xx_hal_dma.cpp **** 
 428:Drivers/STM32F4xx_HAL_Driver/Src/stm32f4xx_hal_dma.cpp ****     /* Enable the Peripheral */
ARM GAS  C:\Users\huawei\AppData\Local\Temp\ccXalwLh.s 			page 9


 429:Drivers/STM32F4xx_HAL_Driver/Src/stm32f4xx_hal_dma.cpp ****     __HAL_DMA_ENABLE(hdma);
 430:Drivers/STM32F4xx_HAL_Driver/Src/stm32f4xx_hal_dma.cpp ****   }
 431:Drivers/STM32F4xx_HAL_Driver/Src/stm32f4xx_hal_dma.cpp ****   else
 432:Drivers/STM32F4xx_HAL_Driver/Src/stm32f4xx_hal_dma.cpp ****   {
 433:Drivers/STM32F4xx_HAL_Driver/Src/stm32f4xx_hal_dma.cpp ****     /* Process unlocked */
 434:Drivers/STM32F4xx_HAL_Driver/Src/stm32f4xx_hal_dma.cpp ****     __HAL_UNLOCK(hdma);
 435:Drivers/STM32F4xx_HAL_Driver/Src/stm32f4xx_hal_dma.cpp ****     
 436:Drivers/STM32F4xx_HAL_Driver/Src/stm32f4xx_hal_dma.cpp ****     /* Return error status */
 437:Drivers/STM32F4xx_HAL_Driver/Src/stm32f4xx_hal_dma.cpp ****     status = HAL_BUSY;
 438:Drivers/STM32F4xx_HAL_Driver/Src/stm32f4xx_hal_dma.cpp ****   } 
 439:Drivers/STM32F4xx_HAL_Driver/Src/stm32f4xx_hal_dma.cpp ****   return status; 
 440:Drivers/STM32F4xx_HAL_Driver/Src/stm32f4xx_hal_dma.cpp **** }
 441:Drivers/STM32F4xx_HAL_Driver/Src/stm32f4xx_hal_dma.cpp **** 
 442:Drivers/STM32F4xx_HAL_Driver/Src/stm32f4xx_hal_dma.cpp **** /**
 443:Drivers/STM32F4xx_HAL_Driver/Src/stm32f4xx_hal_dma.cpp ****   * @brief  Start the DMA Transfer with interrupt enabled.
 444:Drivers/STM32F4xx_HAL_Driver/Src/stm32f4xx_hal_dma.cpp ****   * @param  hdma       pointer to a DMA_HandleTypeDef structure that contains
 445:Drivers/STM32F4xx_HAL_Driver/Src/stm32f4xx_hal_dma.cpp ****   *                     the configuration information for the specified DMA Stream.  
 446:Drivers/STM32F4xx_HAL_Driver/Src/stm32f4xx_hal_dma.cpp ****   * @param  SrcAddress The source memory Buffer address
 447:Drivers/STM32F4xx_HAL_Driver/Src/stm32f4xx_hal_dma.cpp ****   * @param  DstAddress The destination memory Buffer address
 448:Drivers/STM32F4xx_HAL_Driver/Src/stm32f4xx_hal_dma.cpp ****   * @param  DataLength The length of data to be transferred from source to destination
 449:Drivers/STM32F4xx_HAL_Driver/Src/stm32f4xx_hal_dma.cpp ****   * @retval HAL status
 450:Drivers/STM32F4xx_HAL_Driver/Src/stm32f4xx_hal_dma.cpp ****   */
 451:Drivers/STM32F4xx_HAL_Driver/Src/stm32f4xx_hal_dma.cpp **** HAL_StatusTypeDef HAL_DMA_Start_IT(DMA_HandleTypeDef *hdma, uint32_t SrcAddress, uint32_t DstAddres
 452:Drivers/STM32F4xx_HAL_Driver/Src/stm32f4xx_hal_dma.cpp **** {
 453:Drivers/STM32F4xx_HAL_Driver/Src/stm32f4xx_hal_dma.cpp ****   HAL_StatusTypeDef status = HAL_OK;
 454:Drivers/STM32F4xx_HAL_Driver/Src/stm32f4xx_hal_dma.cpp **** 
 455:Drivers/STM32F4xx_HAL_Driver/Src/stm32f4xx_hal_dma.cpp ****   /* calculate DMA base and stream number */
 456:Drivers/STM32F4xx_HAL_Driver/Src/stm32f4xx_hal_dma.cpp ****   DMA_Base_Registers *regs = (DMA_Base_Registers *)hdma->StreamBaseAddress;
 457:Drivers/STM32F4xx_HAL_Driver/Src/stm32f4xx_hal_dma.cpp ****   
 458:Drivers/STM32F4xx_HAL_Driver/Src/stm32f4xx_hal_dma.cpp ****   /* Check the parameters */
 459:Drivers/STM32F4xx_HAL_Driver/Src/stm32f4xx_hal_dma.cpp ****   assert_param(IS_DMA_BUFFER_SIZE(DataLength));
 460:Drivers/STM32F4xx_HAL_Driver/Src/stm32f4xx_hal_dma.cpp ****  
 461:Drivers/STM32F4xx_HAL_Driver/Src/stm32f4xx_hal_dma.cpp ****   /* Process locked */
 462:Drivers/STM32F4xx_HAL_Driver/Src/stm32f4xx_hal_dma.cpp ****   __HAL_LOCK(hdma);
 463:Drivers/STM32F4xx_HAL_Driver/Src/stm32f4xx_hal_dma.cpp ****   
 464:Drivers/STM32F4xx_HAL_Driver/Src/stm32f4xx_hal_dma.cpp ****   if(HAL_DMA_STATE_READY == hdma->State)
 465:Drivers/STM32F4xx_HAL_Driver/Src/stm32f4xx_hal_dma.cpp ****   {
 466:Drivers/STM32F4xx_HAL_Driver/Src/stm32f4xx_hal_dma.cpp ****     /* Change DMA peripheral state */
 467:Drivers/STM32F4xx_HAL_Driver/Src/stm32f4xx_hal_dma.cpp ****     hdma->State = HAL_DMA_STATE_BUSY;
 468:Drivers/STM32F4xx_HAL_Driver/Src/stm32f4xx_hal_dma.cpp ****     
 469:Drivers/STM32F4xx_HAL_Driver/Src/stm32f4xx_hal_dma.cpp ****     /* Initialize the error code */
 470:Drivers/STM32F4xx_HAL_Driver/Src/stm32f4xx_hal_dma.cpp ****     hdma->ErrorCode = HAL_DMA_ERROR_NONE;
 471:Drivers/STM32F4xx_HAL_Driver/Src/stm32f4xx_hal_dma.cpp ****     
 472:Drivers/STM32F4xx_HAL_Driver/Src/stm32f4xx_hal_dma.cpp ****     /* Configure the source, destination address and the data length */
 473:Drivers/STM32F4xx_HAL_Driver/Src/stm32f4xx_hal_dma.cpp ****     DMA_SetConfig(hdma, SrcAddress, DstAddress, DataLength);
 474:Drivers/STM32F4xx_HAL_Driver/Src/stm32f4xx_hal_dma.cpp ****     
 475:Drivers/STM32F4xx_HAL_Driver/Src/stm32f4xx_hal_dma.cpp ****     /* Clear all interrupt flags at correct offset within the register */
 476:Drivers/STM32F4xx_HAL_Driver/Src/stm32f4xx_hal_dma.cpp ****     regs->IFCR = 0x3FU << hdma->StreamIndex;
 477:Drivers/STM32F4xx_HAL_Driver/Src/stm32f4xx_hal_dma.cpp ****     
 478:Drivers/STM32F4xx_HAL_Driver/Src/stm32f4xx_hal_dma.cpp ****     /* Enable Common interrupts*/
 479:Drivers/STM32F4xx_HAL_Driver/Src/stm32f4xx_hal_dma.cpp ****     hdma->Instance->CR  |= DMA_IT_TC | DMA_IT_TE | DMA_IT_DME;
 480:Drivers/STM32F4xx_HAL_Driver/Src/stm32f4xx_hal_dma.cpp ****     
 481:Drivers/STM32F4xx_HAL_Driver/Src/stm32f4xx_hal_dma.cpp ****     if(hdma->XferHalfCpltCallback != NULL)
 482:Drivers/STM32F4xx_HAL_Driver/Src/stm32f4xx_hal_dma.cpp ****     {
 483:Drivers/STM32F4xx_HAL_Driver/Src/stm32f4xx_hal_dma.cpp ****       hdma->Instance->CR  |= DMA_IT_HT;
 484:Drivers/STM32F4xx_HAL_Driver/Src/stm32f4xx_hal_dma.cpp ****     }
 485:Drivers/STM32F4xx_HAL_Driver/Src/stm32f4xx_hal_dma.cpp ****     
ARM GAS  C:\Users\huawei\AppData\Local\Temp\ccXalwLh.s 			page 10


 486:Drivers/STM32F4xx_HAL_Driver/Src/stm32f4xx_hal_dma.cpp ****     /* Enable the Peripheral */
 487:Drivers/STM32F4xx_HAL_Driver/Src/stm32f4xx_hal_dma.cpp ****     __HAL_DMA_ENABLE(hdma);
 488:Drivers/STM32F4xx_HAL_Driver/Src/stm32f4xx_hal_dma.cpp ****   }
 489:Drivers/STM32F4xx_HAL_Driver/Src/stm32f4xx_hal_dma.cpp ****   else
 490:Drivers/STM32F4xx_HAL_Driver/Src/stm32f4xx_hal_dma.cpp ****   {
 491:Drivers/STM32F4xx_HAL_Driver/Src/stm32f4xx_hal_dma.cpp ****     /* Process unlocked */
 492:Drivers/STM32F4xx_HAL_Driver/Src/stm32f4xx_hal_dma.cpp ****     __HAL_UNLOCK(hdma);	  
 493:Drivers/STM32F4xx_HAL_Driver/Src/stm32f4xx_hal_dma.cpp ****     
 494:Drivers/STM32F4xx_HAL_Driver/Src/stm32f4xx_hal_dma.cpp ****     /* Return error status */
 495:Drivers/STM32F4xx_HAL_Driver/Src/stm32f4xx_hal_dma.cpp ****     status = HAL_BUSY;
 496:Drivers/STM32F4xx_HAL_Driver/Src/stm32f4xx_hal_dma.cpp ****   }
 497:Drivers/STM32F4xx_HAL_Driver/Src/stm32f4xx_hal_dma.cpp ****   
 498:Drivers/STM32F4xx_HAL_Driver/Src/stm32f4xx_hal_dma.cpp ****   return status;
 499:Drivers/STM32F4xx_HAL_Driver/Src/stm32f4xx_hal_dma.cpp **** }
 500:Drivers/STM32F4xx_HAL_Driver/Src/stm32f4xx_hal_dma.cpp **** 
 501:Drivers/STM32F4xx_HAL_Driver/Src/stm32f4xx_hal_dma.cpp **** /**
 502:Drivers/STM32F4xx_HAL_Driver/Src/stm32f4xx_hal_dma.cpp ****   * @brief  Aborts the DMA Transfer.
 503:Drivers/STM32F4xx_HAL_Driver/Src/stm32f4xx_hal_dma.cpp ****   * @param  hdma   pointer to a DMA_HandleTypeDef structure that contains
 504:Drivers/STM32F4xx_HAL_Driver/Src/stm32f4xx_hal_dma.cpp ****   *                 the configuration information for the specified DMA Stream.
 505:Drivers/STM32F4xx_HAL_Driver/Src/stm32f4xx_hal_dma.cpp ****   *                   
 506:Drivers/STM32F4xx_HAL_Driver/Src/stm32f4xx_hal_dma.cpp ****   * @note  After disabling a DMA Stream, a check for wait until the DMA Stream is 
 507:Drivers/STM32F4xx_HAL_Driver/Src/stm32f4xx_hal_dma.cpp ****   *        effectively disabled is added. If a Stream is disabled 
 508:Drivers/STM32F4xx_HAL_Driver/Src/stm32f4xx_hal_dma.cpp ****   *        while a data transfer is ongoing, the current data will be transferred
 509:Drivers/STM32F4xx_HAL_Driver/Src/stm32f4xx_hal_dma.cpp ****   *        and the Stream will be effectively disabled only after the transfer of
 510:Drivers/STM32F4xx_HAL_Driver/Src/stm32f4xx_hal_dma.cpp ****   *        this single data is finished.  
 511:Drivers/STM32F4xx_HAL_Driver/Src/stm32f4xx_hal_dma.cpp ****   * @retval HAL status
 512:Drivers/STM32F4xx_HAL_Driver/Src/stm32f4xx_hal_dma.cpp ****   */
 513:Drivers/STM32F4xx_HAL_Driver/Src/stm32f4xx_hal_dma.cpp **** HAL_StatusTypeDef HAL_DMA_Abort(DMA_HandleTypeDef *hdma)
 514:Drivers/STM32F4xx_HAL_Driver/Src/stm32f4xx_hal_dma.cpp **** {
 515:Drivers/STM32F4xx_HAL_Driver/Src/stm32f4xx_hal_dma.cpp ****   /* calculate DMA base and stream number */
 516:Drivers/STM32F4xx_HAL_Driver/Src/stm32f4xx_hal_dma.cpp ****   DMA_Base_Registers *regs = (DMA_Base_Registers *)hdma->StreamBaseAddress;
 517:Drivers/STM32F4xx_HAL_Driver/Src/stm32f4xx_hal_dma.cpp ****   
 518:Drivers/STM32F4xx_HAL_Driver/Src/stm32f4xx_hal_dma.cpp ****   uint32_t tickstart = HAL_GetTick();
 519:Drivers/STM32F4xx_HAL_Driver/Src/stm32f4xx_hal_dma.cpp ****   
 520:Drivers/STM32F4xx_HAL_Driver/Src/stm32f4xx_hal_dma.cpp ****   if(hdma->State != HAL_DMA_STATE_BUSY)
 521:Drivers/STM32F4xx_HAL_Driver/Src/stm32f4xx_hal_dma.cpp ****   {
 522:Drivers/STM32F4xx_HAL_Driver/Src/stm32f4xx_hal_dma.cpp ****     hdma->ErrorCode = HAL_DMA_ERROR_NO_XFER;
 523:Drivers/STM32F4xx_HAL_Driver/Src/stm32f4xx_hal_dma.cpp ****     
 524:Drivers/STM32F4xx_HAL_Driver/Src/stm32f4xx_hal_dma.cpp ****     /* Process Unlocked */
 525:Drivers/STM32F4xx_HAL_Driver/Src/stm32f4xx_hal_dma.cpp ****     __HAL_UNLOCK(hdma);
 526:Drivers/STM32F4xx_HAL_Driver/Src/stm32f4xx_hal_dma.cpp ****     
 527:Drivers/STM32F4xx_HAL_Driver/Src/stm32f4xx_hal_dma.cpp ****     return HAL_ERROR;
 528:Drivers/STM32F4xx_HAL_Driver/Src/stm32f4xx_hal_dma.cpp ****   }
 529:Drivers/STM32F4xx_HAL_Driver/Src/stm32f4xx_hal_dma.cpp ****   else
 530:Drivers/STM32F4xx_HAL_Driver/Src/stm32f4xx_hal_dma.cpp ****   {
 531:Drivers/STM32F4xx_HAL_Driver/Src/stm32f4xx_hal_dma.cpp ****     /* Disable all the transfer interrupts */
 532:Drivers/STM32F4xx_HAL_Driver/Src/stm32f4xx_hal_dma.cpp ****     hdma->Instance->CR  &= ~(DMA_IT_TC | DMA_IT_TE | DMA_IT_DME);
 533:Drivers/STM32F4xx_HAL_Driver/Src/stm32f4xx_hal_dma.cpp ****     hdma->Instance->FCR &= ~(DMA_IT_FE);
 534:Drivers/STM32F4xx_HAL_Driver/Src/stm32f4xx_hal_dma.cpp ****     
 535:Drivers/STM32F4xx_HAL_Driver/Src/stm32f4xx_hal_dma.cpp ****     if((hdma->XferHalfCpltCallback != NULL) || (hdma->XferM1HalfCpltCallback != NULL))
 536:Drivers/STM32F4xx_HAL_Driver/Src/stm32f4xx_hal_dma.cpp ****     {
 537:Drivers/STM32F4xx_HAL_Driver/Src/stm32f4xx_hal_dma.cpp ****       hdma->Instance->CR  &= ~(DMA_IT_HT);
 538:Drivers/STM32F4xx_HAL_Driver/Src/stm32f4xx_hal_dma.cpp ****     }
 539:Drivers/STM32F4xx_HAL_Driver/Src/stm32f4xx_hal_dma.cpp ****     
 540:Drivers/STM32F4xx_HAL_Driver/Src/stm32f4xx_hal_dma.cpp ****     /* Disable the stream */
 541:Drivers/STM32F4xx_HAL_Driver/Src/stm32f4xx_hal_dma.cpp ****     __HAL_DMA_DISABLE(hdma);
 542:Drivers/STM32F4xx_HAL_Driver/Src/stm32f4xx_hal_dma.cpp ****     
ARM GAS  C:\Users\huawei\AppData\Local\Temp\ccXalwLh.s 			page 11


 543:Drivers/STM32F4xx_HAL_Driver/Src/stm32f4xx_hal_dma.cpp ****     /* Check if the DMA Stream is effectively disabled */
 544:Drivers/STM32F4xx_HAL_Driver/Src/stm32f4xx_hal_dma.cpp ****     while((hdma->Instance->CR & DMA_SxCR_EN) != RESET)
 545:Drivers/STM32F4xx_HAL_Driver/Src/stm32f4xx_hal_dma.cpp ****     {
 546:Drivers/STM32F4xx_HAL_Driver/Src/stm32f4xx_hal_dma.cpp ****       /* Check for the Timeout */
 547:Drivers/STM32F4xx_HAL_Driver/Src/stm32f4xx_hal_dma.cpp ****       if((HAL_GetTick() - tickstart ) > HAL_TIMEOUT_DMA_ABORT)
 548:Drivers/STM32F4xx_HAL_Driver/Src/stm32f4xx_hal_dma.cpp ****       {
 549:Drivers/STM32F4xx_HAL_Driver/Src/stm32f4xx_hal_dma.cpp ****         /* Update error code */
 550:Drivers/STM32F4xx_HAL_Driver/Src/stm32f4xx_hal_dma.cpp ****         hdma->ErrorCode = HAL_DMA_ERROR_TIMEOUT;
 551:Drivers/STM32F4xx_HAL_Driver/Src/stm32f4xx_hal_dma.cpp ****         
 552:Drivers/STM32F4xx_HAL_Driver/Src/stm32f4xx_hal_dma.cpp ****         /* Change the DMA state */
 553:Drivers/STM32F4xx_HAL_Driver/Src/stm32f4xx_hal_dma.cpp ****         hdma->State = HAL_DMA_STATE_TIMEOUT;
 554:Drivers/STM32F4xx_HAL_Driver/Src/stm32f4xx_hal_dma.cpp ****         
 555:Drivers/STM32F4xx_HAL_Driver/Src/stm32f4xx_hal_dma.cpp ****         /* Process Unlocked */
 556:Drivers/STM32F4xx_HAL_Driver/Src/stm32f4xx_hal_dma.cpp ****         __HAL_UNLOCK(hdma);
 557:Drivers/STM32F4xx_HAL_Driver/Src/stm32f4xx_hal_dma.cpp ****         
 558:Drivers/STM32F4xx_HAL_Driver/Src/stm32f4xx_hal_dma.cpp ****         return HAL_TIMEOUT;
 559:Drivers/STM32F4xx_HAL_Driver/Src/stm32f4xx_hal_dma.cpp ****       }
 560:Drivers/STM32F4xx_HAL_Driver/Src/stm32f4xx_hal_dma.cpp ****     }
 561:Drivers/STM32F4xx_HAL_Driver/Src/stm32f4xx_hal_dma.cpp ****     
 562:Drivers/STM32F4xx_HAL_Driver/Src/stm32f4xx_hal_dma.cpp ****     /* Clear all interrupt flags at correct offset within the register */
 563:Drivers/STM32F4xx_HAL_Driver/Src/stm32f4xx_hal_dma.cpp ****     regs->IFCR = 0x3FU << hdma->StreamIndex;
 564:Drivers/STM32F4xx_HAL_Driver/Src/stm32f4xx_hal_dma.cpp ****     
 565:Drivers/STM32F4xx_HAL_Driver/Src/stm32f4xx_hal_dma.cpp ****     /* Change the DMA state*/
 566:Drivers/STM32F4xx_HAL_Driver/Src/stm32f4xx_hal_dma.cpp ****     hdma->State = HAL_DMA_STATE_READY;
 567:Drivers/STM32F4xx_HAL_Driver/Src/stm32f4xx_hal_dma.cpp ****     
 568:Drivers/STM32F4xx_HAL_Driver/Src/stm32f4xx_hal_dma.cpp ****     /* Process Unlocked */
 569:Drivers/STM32F4xx_HAL_Driver/Src/stm32f4xx_hal_dma.cpp ****     __HAL_UNLOCK(hdma);
 570:Drivers/STM32F4xx_HAL_Driver/Src/stm32f4xx_hal_dma.cpp ****   }
 571:Drivers/STM32F4xx_HAL_Driver/Src/stm32f4xx_hal_dma.cpp ****   return HAL_OK;
 572:Drivers/STM32F4xx_HAL_Driver/Src/stm32f4xx_hal_dma.cpp **** }
 573:Drivers/STM32F4xx_HAL_Driver/Src/stm32f4xx_hal_dma.cpp **** 
 574:Drivers/STM32F4xx_HAL_Driver/Src/stm32f4xx_hal_dma.cpp **** /**
 575:Drivers/STM32F4xx_HAL_Driver/Src/stm32f4xx_hal_dma.cpp ****   * @brief  Aborts the DMA Transfer in Interrupt mode.
 576:Drivers/STM32F4xx_HAL_Driver/Src/stm32f4xx_hal_dma.cpp ****   * @param  hdma   pointer to a DMA_HandleTypeDef structure that contains
 577:Drivers/STM32F4xx_HAL_Driver/Src/stm32f4xx_hal_dma.cpp ****   *                 the configuration information for the specified DMA Stream.
 578:Drivers/STM32F4xx_HAL_Driver/Src/stm32f4xx_hal_dma.cpp ****   * @retval HAL status
 579:Drivers/STM32F4xx_HAL_Driver/Src/stm32f4xx_hal_dma.cpp ****   */
 580:Drivers/STM32F4xx_HAL_Driver/Src/stm32f4xx_hal_dma.cpp **** HAL_StatusTypeDef HAL_DMA_Abort_IT(DMA_HandleTypeDef *hdma)
 581:Drivers/STM32F4xx_HAL_Driver/Src/stm32f4xx_hal_dma.cpp **** {
 582:Drivers/STM32F4xx_HAL_Driver/Src/stm32f4xx_hal_dma.cpp ****   if(hdma->State != HAL_DMA_STATE_BUSY)
 583:Drivers/STM32F4xx_HAL_Driver/Src/stm32f4xx_hal_dma.cpp ****   {
 584:Drivers/STM32F4xx_HAL_Driver/Src/stm32f4xx_hal_dma.cpp ****     hdma->ErrorCode = HAL_DMA_ERROR_NO_XFER;
 585:Drivers/STM32F4xx_HAL_Driver/Src/stm32f4xx_hal_dma.cpp ****     return HAL_ERROR;
 586:Drivers/STM32F4xx_HAL_Driver/Src/stm32f4xx_hal_dma.cpp ****   }
 587:Drivers/STM32F4xx_HAL_Driver/Src/stm32f4xx_hal_dma.cpp ****   else
 588:Drivers/STM32F4xx_HAL_Driver/Src/stm32f4xx_hal_dma.cpp ****   {
 589:Drivers/STM32F4xx_HAL_Driver/Src/stm32f4xx_hal_dma.cpp ****     /* Set Abort State  */
 590:Drivers/STM32F4xx_HAL_Driver/Src/stm32f4xx_hal_dma.cpp ****     hdma->State = HAL_DMA_STATE_ABORT;
 591:Drivers/STM32F4xx_HAL_Driver/Src/stm32f4xx_hal_dma.cpp ****     
 592:Drivers/STM32F4xx_HAL_Driver/Src/stm32f4xx_hal_dma.cpp ****     /* Disable the stream */
 593:Drivers/STM32F4xx_HAL_Driver/Src/stm32f4xx_hal_dma.cpp ****     __HAL_DMA_DISABLE(hdma);
 594:Drivers/STM32F4xx_HAL_Driver/Src/stm32f4xx_hal_dma.cpp ****   }
 595:Drivers/STM32F4xx_HAL_Driver/Src/stm32f4xx_hal_dma.cpp **** 
 596:Drivers/STM32F4xx_HAL_Driver/Src/stm32f4xx_hal_dma.cpp ****   return HAL_OK;
 597:Drivers/STM32F4xx_HAL_Driver/Src/stm32f4xx_hal_dma.cpp **** }
 598:Drivers/STM32F4xx_HAL_Driver/Src/stm32f4xx_hal_dma.cpp **** 
 599:Drivers/STM32F4xx_HAL_Driver/Src/stm32f4xx_hal_dma.cpp **** /**
ARM GAS  C:\Users\huawei\AppData\Local\Temp\ccXalwLh.s 			page 12


 600:Drivers/STM32F4xx_HAL_Driver/Src/stm32f4xx_hal_dma.cpp ****   * @brief  Polling for transfer complete.
 601:Drivers/STM32F4xx_HAL_Driver/Src/stm32f4xx_hal_dma.cpp ****   * @param  hdma          pointer to a DMA_HandleTypeDef structure that contains
 602:Drivers/STM32F4xx_HAL_Driver/Src/stm32f4xx_hal_dma.cpp ****   *                        the configuration information for the specified DMA Stream.
 603:Drivers/STM32F4xx_HAL_Driver/Src/stm32f4xx_hal_dma.cpp ****   * @param  CompleteLevel Specifies the DMA level complete.
 604:Drivers/STM32F4xx_HAL_Driver/Src/stm32f4xx_hal_dma.cpp ****   * @note   The polling mode is kept in this version for legacy. it is recommended to use the IT mo
 605:Drivers/STM32F4xx_HAL_Driver/Src/stm32f4xx_hal_dma.cpp ****   *         This model could be used for debug purpose.
 606:Drivers/STM32F4xx_HAL_Driver/Src/stm32f4xx_hal_dma.cpp ****   * @note   The HAL_DMA_PollForTransfer API cannot be used in circular and double buffering mode (a
 607:Drivers/STM32F4xx_HAL_Driver/Src/stm32f4xx_hal_dma.cpp ****   * @param  Timeout       Timeout duration.
 608:Drivers/STM32F4xx_HAL_Driver/Src/stm32f4xx_hal_dma.cpp ****   * @retval HAL status
 609:Drivers/STM32F4xx_HAL_Driver/Src/stm32f4xx_hal_dma.cpp ****   */
 610:Drivers/STM32F4xx_HAL_Driver/Src/stm32f4xx_hal_dma.cpp **** HAL_StatusTypeDef HAL_DMA_PollForTransfer(DMA_HandleTypeDef *hdma, HAL_DMA_LevelCompleteTypeDef Com
 611:Drivers/STM32F4xx_HAL_Driver/Src/stm32f4xx_hal_dma.cpp **** {
 612:Drivers/STM32F4xx_HAL_Driver/Src/stm32f4xx_hal_dma.cpp ****   HAL_StatusTypeDef status = HAL_OK; 
 613:Drivers/STM32F4xx_HAL_Driver/Src/stm32f4xx_hal_dma.cpp ****   uint32_t mask_cpltlevel;
 614:Drivers/STM32F4xx_HAL_Driver/Src/stm32f4xx_hal_dma.cpp ****   uint32_t tickstart = HAL_GetTick(); 
 615:Drivers/STM32F4xx_HAL_Driver/Src/stm32f4xx_hal_dma.cpp ****   uint32_t tmpisr;
 616:Drivers/STM32F4xx_HAL_Driver/Src/stm32f4xx_hal_dma.cpp ****   
 617:Drivers/STM32F4xx_HAL_Driver/Src/stm32f4xx_hal_dma.cpp ****   /* calculate DMA base and stream number */
 618:Drivers/STM32F4xx_HAL_Driver/Src/stm32f4xx_hal_dma.cpp ****   DMA_Base_Registers *regs;
 619:Drivers/STM32F4xx_HAL_Driver/Src/stm32f4xx_hal_dma.cpp **** 
 620:Drivers/STM32F4xx_HAL_Driver/Src/stm32f4xx_hal_dma.cpp ****   if(HAL_DMA_STATE_BUSY != hdma->State)
 621:Drivers/STM32F4xx_HAL_Driver/Src/stm32f4xx_hal_dma.cpp ****   {
 622:Drivers/STM32F4xx_HAL_Driver/Src/stm32f4xx_hal_dma.cpp ****     /* No transfer ongoing */
 623:Drivers/STM32F4xx_HAL_Driver/Src/stm32f4xx_hal_dma.cpp ****     hdma->ErrorCode = HAL_DMA_ERROR_NO_XFER;
 624:Drivers/STM32F4xx_HAL_Driver/Src/stm32f4xx_hal_dma.cpp ****     __HAL_UNLOCK(hdma);
 625:Drivers/STM32F4xx_HAL_Driver/Src/stm32f4xx_hal_dma.cpp ****     return HAL_ERROR;
 626:Drivers/STM32F4xx_HAL_Driver/Src/stm32f4xx_hal_dma.cpp ****   }
 627:Drivers/STM32F4xx_HAL_Driver/Src/stm32f4xx_hal_dma.cpp **** 
 628:Drivers/STM32F4xx_HAL_Driver/Src/stm32f4xx_hal_dma.cpp ****   /* Polling mode not supported in circular mode and double buffering mode */
 629:Drivers/STM32F4xx_HAL_Driver/Src/stm32f4xx_hal_dma.cpp ****   if ((hdma->Instance->CR & DMA_SxCR_CIRC) != RESET)
 630:Drivers/STM32F4xx_HAL_Driver/Src/stm32f4xx_hal_dma.cpp ****   {
 631:Drivers/STM32F4xx_HAL_Driver/Src/stm32f4xx_hal_dma.cpp ****     hdma->ErrorCode = HAL_DMA_ERROR_NOT_SUPPORTED;
 632:Drivers/STM32F4xx_HAL_Driver/Src/stm32f4xx_hal_dma.cpp ****     return HAL_ERROR;
 633:Drivers/STM32F4xx_HAL_Driver/Src/stm32f4xx_hal_dma.cpp ****   }
 634:Drivers/STM32F4xx_HAL_Driver/Src/stm32f4xx_hal_dma.cpp ****   
 635:Drivers/STM32F4xx_HAL_Driver/Src/stm32f4xx_hal_dma.cpp ****   /* Get the level transfer complete flag */
 636:Drivers/STM32F4xx_HAL_Driver/Src/stm32f4xx_hal_dma.cpp ****   if(CompleteLevel == HAL_DMA_FULL_TRANSFER)
 637:Drivers/STM32F4xx_HAL_Driver/Src/stm32f4xx_hal_dma.cpp ****   {
 638:Drivers/STM32F4xx_HAL_Driver/Src/stm32f4xx_hal_dma.cpp ****     /* Transfer Complete flag */
 639:Drivers/STM32F4xx_HAL_Driver/Src/stm32f4xx_hal_dma.cpp ****     mask_cpltlevel = DMA_FLAG_TCIF0_4 << hdma->StreamIndex;
 640:Drivers/STM32F4xx_HAL_Driver/Src/stm32f4xx_hal_dma.cpp ****   }
 641:Drivers/STM32F4xx_HAL_Driver/Src/stm32f4xx_hal_dma.cpp ****   else
 642:Drivers/STM32F4xx_HAL_Driver/Src/stm32f4xx_hal_dma.cpp ****   {
 643:Drivers/STM32F4xx_HAL_Driver/Src/stm32f4xx_hal_dma.cpp ****     /* Half Transfer Complete flag */
 644:Drivers/STM32F4xx_HAL_Driver/Src/stm32f4xx_hal_dma.cpp ****     mask_cpltlevel = DMA_FLAG_HTIF0_4 << hdma->StreamIndex;
 645:Drivers/STM32F4xx_HAL_Driver/Src/stm32f4xx_hal_dma.cpp ****   }
 646:Drivers/STM32F4xx_HAL_Driver/Src/stm32f4xx_hal_dma.cpp ****   
 647:Drivers/STM32F4xx_HAL_Driver/Src/stm32f4xx_hal_dma.cpp ****   regs = (DMA_Base_Registers *)hdma->StreamBaseAddress;
 648:Drivers/STM32F4xx_HAL_Driver/Src/stm32f4xx_hal_dma.cpp ****   tmpisr = regs->ISR;
 649:Drivers/STM32F4xx_HAL_Driver/Src/stm32f4xx_hal_dma.cpp ****   
 650:Drivers/STM32F4xx_HAL_Driver/Src/stm32f4xx_hal_dma.cpp ****   while(((tmpisr & mask_cpltlevel) == RESET) && ((hdma->ErrorCode & HAL_DMA_ERROR_TE) == RESET))
 651:Drivers/STM32F4xx_HAL_Driver/Src/stm32f4xx_hal_dma.cpp ****   {
 652:Drivers/STM32F4xx_HAL_Driver/Src/stm32f4xx_hal_dma.cpp ****     /* Check for the Timeout (Not applicable in circular mode)*/
 653:Drivers/STM32F4xx_HAL_Driver/Src/stm32f4xx_hal_dma.cpp ****     if(Timeout != HAL_MAX_DELAY)
 654:Drivers/STM32F4xx_HAL_Driver/Src/stm32f4xx_hal_dma.cpp ****     {
 655:Drivers/STM32F4xx_HAL_Driver/Src/stm32f4xx_hal_dma.cpp ****       if((Timeout == 0U)||((HAL_GetTick() - tickstart ) > Timeout))
 656:Drivers/STM32F4xx_HAL_Driver/Src/stm32f4xx_hal_dma.cpp ****       {
ARM GAS  C:\Users\huawei\AppData\Local\Temp\ccXalwLh.s 			page 13


 657:Drivers/STM32F4xx_HAL_Driver/Src/stm32f4xx_hal_dma.cpp ****         /* Update error code */
 658:Drivers/STM32F4xx_HAL_Driver/Src/stm32f4xx_hal_dma.cpp ****         hdma->ErrorCode = HAL_DMA_ERROR_TIMEOUT;
 659:Drivers/STM32F4xx_HAL_Driver/Src/stm32f4xx_hal_dma.cpp ****         
 660:Drivers/STM32F4xx_HAL_Driver/Src/stm32f4xx_hal_dma.cpp ****         /* Change the DMA state */
 661:Drivers/STM32F4xx_HAL_Driver/Src/stm32f4xx_hal_dma.cpp ****         hdma->State = HAL_DMA_STATE_READY;
 662:Drivers/STM32F4xx_HAL_Driver/Src/stm32f4xx_hal_dma.cpp ****         
 663:Drivers/STM32F4xx_HAL_Driver/Src/stm32f4xx_hal_dma.cpp ****         /* Process Unlocked */
 664:Drivers/STM32F4xx_HAL_Driver/Src/stm32f4xx_hal_dma.cpp ****         __HAL_UNLOCK(hdma);
 665:Drivers/STM32F4xx_HAL_Driver/Src/stm32f4xx_hal_dma.cpp ****         
 666:Drivers/STM32F4xx_HAL_Driver/Src/stm32f4xx_hal_dma.cpp ****         return HAL_TIMEOUT;
 667:Drivers/STM32F4xx_HAL_Driver/Src/stm32f4xx_hal_dma.cpp ****       }
 668:Drivers/STM32F4xx_HAL_Driver/Src/stm32f4xx_hal_dma.cpp ****     }
 669:Drivers/STM32F4xx_HAL_Driver/Src/stm32f4xx_hal_dma.cpp **** 
 670:Drivers/STM32F4xx_HAL_Driver/Src/stm32f4xx_hal_dma.cpp ****     /* Get the ISR register value */
 671:Drivers/STM32F4xx_HAL_Driver/Src/stm32f4xx_hal_dma.cpp ****     tmpisr = regs->ISR;
 672:Drivers/STM32F4xx_HAL_Driver/Src/stm32f4xx_hal_dma.cpp **** 
 673:Drivers/STM32F4xx_HAL_Driver/Src/stm32f4xx_hal_dma.cpp ****     if((tmpisr & (DMA_FLAG_TEIF0_4 << hdma->StreamIndex)) != RESET)
 674:Drivers/STM32F4xx_HAL_Driver/Src/stm32f4xx_hal_dma.cpp ****     {
 675:Drivers/STM32F4xx_HAL_Driver/Src/stm32f4xx_hal_dma.cpp ****       /* Update error code */
 676:Drivers/STM32F4xx_HAL_Driver/Src/stm32f4xx_hal_dma.cpp ****       hdma->ErrorCode |= HAL_DMA_ERROR_TE;
 677:Drivers/STM32F4xx_HAL_Driver/Src/stm32f4xx_hal_dma.cpp ****       
 678:Drivers/STM32F4xx_HAL_Driver/Src/stm32f4xx_hal_dma.cpp ****       /* Clear the transfer error flag */
 679:Drivers/STM32F4xx_HAL_Driver/Src/stm32f4xx_hal_dma.cpp ****       regs->IFCR = DMA_FLAG_TEIF0_4 << hdma->StreamIndex;
 680:Drivers/STM32F4xx_HAL_Driver/Src/stm32f4xx_hal_dma.cpp ****     }
 681:Drivers/STM32F4xx_HAL_Driver/Src/stm32f4xx_hal_dma.cpp ****     
 682:Drivers/STM32F4xx_HAL_Driver/Src/stm32f4xx_hal_dma.cpp ****     if((tmpisr & (DMA_FLAG_FEIF0_4 << hdma->StreamIndex)) != RESET)
 683:Drivers/STM32F4xx_HAL_Driver/Src/stm32f4xx_hal_dma.cpp ****     {
 684:Drivers/STM32F4xx_HAL_Driver/Src/stm32f4xx_hal_dma.cpp ****       /* Update error code */
 685:Drivers/STM32F4xx_HAL_Driver/Src/stm32f4xx_hal_dma.cpp ****       hdma->ErrorCode |= HAL_DMA_ERROR_FE;
 686:Drivers/STM32F4xx_HAL_Driver/Src/stm32f4xx_hal_dma.cpp ****       
 687:Drivers/STM32F4xx_HAL_Driver/Src/stm32f4xx_hal_dma.cpp ****       /* Clear the FIFO error flag */
 688:Drivers/STM32F4xx_HAL_Driver/Src/stm32f4xx_hal_dma.cpp ****       regs->IFCR = DMA_FLAG_FEIF0_4 << hdma->StreamIndex;
 689:Drivers/STM32F4xx_HAL_Driver/Src/stm32f4xx_hal_dma.cpp ****     }
 690:Drivers/STM32F4xx_HAL_Driver/Src/stm32f4xx_hal_dma.cpp ****     
 691:Drivers/STM32F4xx_HAL_Driver/Src/stm32f4xx_hal_dma.cpp ****     if((tmpisr & (DMA_FLAG_DMEIF0_4 << hdma->StreamIndex)) != RESET)
 692:Drivers/STM32F4xx_HAL_Driver/Src/stm32f4xx_hal_dma.cpp ****     {
 693:Drivers/STM32F4xx_HAL_Driver/Src/stm32f4xx_hal_dma.cpp ****       /* Update error code */
 694:Drivers/STM32F4xx_HAL_Driver/Src/stm32f4xx_hal_dma.cpp ****       hdma->ErrorCode |= HAL_DMA_ERROR_DME;
 695:Drivers/STM32F4xx_HAL_Driver/Src/stm32f4xx_hal_dma.cpp ****       
 696:Drivers/STM32F4xx_HAL_Driver/Src/stm32f4xx_hal_dma.cpp ****       /* Clear the Direct Mode error flag */
 697:Drivers/STM32F4xx_HAL_Driver/Src/stm32f4xx_hal_dma.cpp ****       regs->IFCR = DMA_FLAG_DMEIF0_4 << hdma->StreamIndex;
 698:Drivers/STM32F4xx_HAL_Driver/Src/stm32f4xx_hal_dma.cpp ****     }
 699:Drivers/STM32F4xx_HAL_Driver/Src/stm32f4xx_hal_dma.cpp ****   }
 700:Drivers/STM32F4xx_HAL_Driver/Src/stm32f4xx_hal_dma.cpp ****   
 701:Drivers/STM32F4xx_HAL_Driver/Src/stm32f4xx_hal_dma.cpp ****   if(hdma->ErrorCode != HAL_DMA_ERROR_NONE)
 702:Drivers/STM32F4xx_HAL_Driver/Src/stm32f4xx_hal_dma.cpp ****   {
 703:Drivers/STM32F4xx_HAL_Driver/Src/stm32f4xx_hal_dma.cpp ****     if((hdma->ErrorCode & HAL_DMA_ERROR_TE) != RESET)
 704:Drivers/STM32F4xx_HAL_Driver/Src/stm32f4xx_hal_dma.cpp ****     {
 705:Drivers/STM32F4xx_HAL_Driver/Src/stm32f4xx_hal_dma.cpp ****       HAL_DMA_Abort(hdma);
 706:Drivers/STM32F4xx_HAL_Driver/Src/stm32f4xx_hal_dma.cpp ****     
 707:Drivers/STM32F4xx_HAL_Driver/Src/stm32f4xx_hal_dma.cpp ****       /* Clear the half transfer and transfer complete flags */
 708:Drivers/STM32F4xx_HAL_Driver/Src/stm32f4xx_hal_dma.cpp ****       regs->IFCR = (DMA_FLAG_HTIF0_4 | DMA_FLAG_TCIF0_4) << hdma->StreamIndex;
 709:Drivers/STM32F4xx_HAL_Driver/Src/stm32f4xx_hal_dma.cpp ****     
 710:Drivers/STM32F4xx_HAL_Driver/Src/stm32f4xx_hal_dma.cpp ****       /* Change the DMA state */
 711:Drivers/STM32F4xx_HAL_Driver/Src/stm32f4xx_hal_dma.cpp ****       hdma->State= HAL_DMA_STATE_READY;
 712:Drivers/STM32F4xx_HAL_Driver/Src/stm32f4xx_hal_dma.cpp **** 
 713:Drivers/STM32F4xx_HAL_Driver/Src/stm32f4xx_hal_dma.cpp ****       /* Process Unlocked */
ARM GAS  C:\Users\huawei\AppData\Local\Temp\ccXalwLh.s 			page 14


 714:Drivers/STM32F4xx_HAL_Driver/Src/stm32f4xx_hal_dma.cpp ****       __HAL_UNLOCK(hdma);
 715:Drivers/STM32F4xx_HAL_Driver/Src/stm32f4xx_hal_dma.cpp **** 
 716:Drivers/STM32F4xx_HAL_Driver/Src/stm32f4xx_hal_dma.cpp ****       return HAL_ERROR;
 717:Drivers/STM32F4xx_HAL_Driver/Src/stm32f4xx_hal_dma.cpp ****    }
 718:Drivers/STM32F4xx_HAL_Driver/Src/stm32f4xx_hal_dma.cpp ****   }
 719:Drivers/STM32F4xx_HAL_Driver/Src/stm32f4xx_hal_dma.cpp ****   
 720:Drivers/STM32F4xx_HAL_Driver/Src/stm32f4xx_hal_dma.cpp ****   /* Get the level transfer complete flag */
 721:Drivers/STM32F4xx_HAL_Driver/Src/stm32f4xx_hal_dma.cpp ****   if(CompleteLevel == HAL_DMA_FULL_TRANSFER)
 722:Drivers/STM32F4xx_HAL_Driver/Src/stm32f4xx_hal_dma.cpp ****   {
 723:Drivers/STM32F4xx_HAL_Driver/Src/stm32f4xx_hal_dma.cpp ****     /* Clear the half transfer and transfer complete flags */
 724:Drivers/STM32F4xx_HAL_Driver/Src/stm32f4xx_hal_dma.cpp ****     regs->IFCR = (DMA_FLAG_HTIF0_4 | DMA_FLAG_TCIF0_4) << hdma->StreamIndex;
 725:Drivers/STM32F4xx_HAL_Driver/Src/stm32f4xx_hal_dma.cpp ****     
 726:Drivers/STM32F4xx_HAL_Driver/Src/stm32f4xx_hal_dma.cpp ****     hdma->State = HAL_DMA_STATE_READY;
 727:Drivers/STM32F4xx_HAL_Driver/Src/stm32f4xx_hal_dma.cpp ****     
 728:Drivers/STM32F4xx_HAL_Driver/Src/stm32f4xx_hal_dma.cpp ****     /* Process Unlocked */
 729:Drivers/STM32F4xx_HAL_Driver/Src/stm32f4xx_hal_dma.cpp ****     __HAL_UNLOCK(hdma);
 730:Drivers/STM32F4xx_HAL_Driver/Src/stm32f4xx_hal_dma.cpp ****   }
 731:Drivers/STM32F4xx_HAL_Driver/Src/stm32f4xx_hal_dma.cpp ****   else
 732:Drivers/STM32F4xx_HAL_Driver/Src/stm32f4xx_hal_dma.cpp ****   {
 733:Drivers/STM32F4xx_HAL_Driver/Src/stm32f4xx_hal_dma.cpp ****     /* Clear the half transfer and transfer complete flags */
 734:Drivers/STM32F4xx_HAL_Driver/Src/stm32f4xx_hal_dma.cpp ****     regs->IFCR = (DMA_FLAG_HTIF0_4) << hdma->StreamIndex;
 735:Drivers/STM32F4xx_HAL_Driver/Src/stm32f4xx_hal_dma.cpp ****   }
 736:Drivers/STM32F4xx_HAL_Driver/Src/stm32f4xx_hal_dma.cpp ****   
 737:Drivers/STM32F4xx_HAL_Driver/Src/stm32f4xx_hal_dma.cpp ****   return status;
 738:Drivers/STM32F4xx_HAL_Driver/Src/stm32f4xx_hal_dma.cpp **** }
 739:Drivers/STM32F4xx_HAL_Driver/Src/stm32f4xx_hal_dma.cpp **** 
 740:Drivers/STM32F4xx_HAL_Driver/Src/stm32f4xx_hal_dma.cpp **** /**
 741:Drivers/STM32F4xx_HAL_Driver/Src/stm32f4xx_hal_dma.cpp ****   * @brief  Handles DMA interrupt request.
 742:Drivers/STM32F4xx_HAL_Driver/Src/stm32f4xx_hal_dma.cpp ****   * @param  hdma pointer to a DMA_HandleTypeDef structure that contains
 743:Drivers/STM32F4xx_HAL_Driver/Src/stm32f4xx_hal_dma.cpp ****   *               the configuration information for the specified DMA Stream.  
 744:Drivers/STM32F4xx_HAL_Driver/Src/stm32f4xx_hal_dma.cpp ****   * @retval None
 745:Drivers/STM32F4xx_HAL_Driver/Src/stm32f4xx_hal_dma.cpp ****   */
 746:Drivers/STM32F4xx_HAL_Driver/Src/stm32f4xx_hal_dma.cpp **** void HAL_DMA_IRQHandler(DMA_HandleTypeDef *hdma)
 747:Drivers/STM32F4xx_HAL_Driver/Src/stm32f4xx_hal_dma.cpp **** {
 748:Drivers/STM32F4xx_HAL_Driver/Src/stm32f4xx_hal_dma.cpp ****   uint32_t tmpisr;
 749:Drivers/STM32F4xx_HAL_Driver/Src/stm32f4xx_hal_dma.cpp ****   __IO uint32_t count = 0U;
 750:Drivers/STM32F4xx_HAL_Driver/Src/stm32f4xx_hal_dma.cpp ****   uint32_t timeout = SystemCoreClock / 9600U;
 751:Drivers/STM32F4xx_HAL_Driver/Src/stm32f4xx_hal_dma.cpp **** 
 752:Drivers/STM32F4xx_HAL_Driver/Src/stm32f4xx_hal_dma.cpp ****   /* calculate DMA base and stream number */
 753:Drivers/STM32F4xx_HAL_Driver/Src/stm32f4xx_hal_dma.cpp ****   DMA_Base_Registers *regs = (DMA_Base_Registers *)hdma->StreamBaseAddress;
 754:Drivers/STM32F4xx_HAL_Driver/Src/stm32f4xx_hal_dma.cpp **** 
 755:Drivers/STM32F4xx_HAL_Driver/Src/stm32f4xx_hal_dma.cpp ****   tmpisr = regs->ISR;
 756:Drivers/STM32F4xx_HAL_Driver/Src/stm32f4xx_hal_dma.cpp **** 
 757:Drivers/STM32F4xx_HAL_Driver/Src/stm32f4xx_hal_dma.cpp ****   /* Transfer Error Interrupt management ***************************************/
 758:Drivers/STM32F4xx_HAL_Driver/Src/stm32f4xx_hal_dma.cpp ****   if ((tmpisr & (DMA_FLAG_TEIF0_4 << hdma->StreamIndex)) != RESET)
 759:Drivers/STM32F4xx_HAL_Driver/Src/stm32f4xx_hal_dma.cpp ****   {
 760:Drivers/STM32F4xx_HAL_Driver/Src/stm32f4xx_hal_dma.cpp ****     if(__HAL_DMA_GET_IT_SOURCE(hdma, DMA_IT_TE) != RESET)
 761:Drivers/STM32F4xx_HAL_Driver/Src/stm32f4xx_hal_dma.cpp ****     {
 762:Drivers/STM32F4xx_HAL_Driver/Src/stm32f4xx_hal_dma.cpp ****       /* Disable the transfer error interrupt */
 763:Drivers/STM32F4xx_HAL_Driver/Src/stm32f4xx_hal_dma.cpp ****       hdma->Instance->CR  &= ~(DMA_IT_TE);
 764:Drivers/STM32F4xx_HAL_Driver/Src/stm32f4xx_hal_dma.cpp ****       
 765:Drivers/STM32F4xx_HAL_Driver/Src/stm32f4xx_hal_dma.cpp ****       /* Clear the transfer error flag */
 766:Drivers/STM32F4xx_HAL_Driver/Src/stm32f4xx_hal_dma.cpp ****       regs->IFCR = DMA_FLAG_TEIF0_4 << hdma->StreamIndex;
 767:Drivers/STM32F4xx_HAL_Driver/Src/stm32f4xx_hal_dma.cpp ****       
 768:Drivers/STM32F4xx_HAL_Driver/Src/stm32f4xx_hal_dma.cpp ****       /* Update error code */
 769:Drivers/STM32F4xx_HAL_Driver/Src/stm32f4xx_hal_dma.cpp ****       hdma->ErrorCode |= HAL_DMA_ERROR_TE;
 770:Drivers/STM32F4xx_HAL_Driver/Src/stm32f4xx_hal_dma.cpp ****     }
ARM GAS  C:\Users\huawei\AppData\Local\Temp\ccXalwLh.s 			page 15


 771:Drivers/STM32F4xx_HAL_Driver/Src/stm32f4xx_hal_dma.cpp ****   }
 772:Drivers/STM32F4xx_HAL_Driver/Src/stm32f4xx_hal_dma.cpp ****   /* FIFO Error Interrupt management ******************************************/
 773:Drivers/STM32F4xx_HAL_Driver/Src/stm32f4xx_hal_dma.cpp ****   if ((tmpisr & (DMA_FLAG_FEIF0_4 << hdma->StreamIndex)) != RESET)
 774:Drivers/STM32F4xx_HAL_Driver/Src/stm32f4xx_hal_dma.cpp ****   {
 775:Drivers/STM32F4xx_HAL_Driver/Src/stm32f4xx_hal_dma.cpp ****     if(__HAL_DMA_GET_IT_SOURCE(hdma, DMA_IT_FE) != RESET)
 776:Drivers/STM32F4xx_HAL_Driver/Src/stm32f4xx_hal_dma.cpp ****     {
 777:Drivers/STM32F4xx_HAL_Driver/Src/stm32f4xx_hal_dma.cpp ****       /* Clear the FIFO error flag */
 778:Drivers/STM32F4xx_HAL_Driver/Src/stm32f4xx_hal_dma.cpp ****       regs->IFCR = DMA_FLAG_FEIF0_4 << hdma->StreamIndex;
 779:Drivers/STM32F4xx_HAL_Driver/Src/stm32f4xx_hal_dma.cpp **** 
 780:Drivers/STM32F4xx_HAL_Driver/Src/stm32f4xx_hal_dma.cpp ****       /* Update error code */
 781:Drivers/STM32F4xx_HAL_Driver/Src/stm32f4xx_hal_dma.cpp ****       hdma->ErrorCode |= HAL_DMA_ERROR_FE;
 782:Drivers/STM32F4xx_HAL_Driver/Src/stm32f4xx_hal_dma.cpp ****     }
 783:Drivers/STM32F4xx_HAL_Driver/Src/stm32f4xx_hal_dma.cpp ****   }
 784:Drivers/STM32F4xx_HAL_Driver/Src/stm32f4xx_hal_dma.cpp ****   /* Direct Mode Error Interrupt management ***********************************/
 785:Drivers/STM32F4xx_HAL_Driver/Src/stm32f4xx_hal_dma.cpp ****   if ((tmpisr & (DMA_FLAG_DMEIF0_4 << hdma->StreamIndex)) != RESET)
 786:Drivers/STM32F4xx_HAL_Driver/Src/stm32f4xx_hal_dma.cpp ****   {
 787:Drivers/STM32F4xx_HAL_Driver/Src/stm32f4xx_hal_dma.cpp ****     if(__HAL_DMA_GET_IT_SOURCE(hdma, DMA_IT_DME) != RESET)
 788:Drivers/STM32F4xx_HAL_Driver/Src/stm32f4xx_hal_dma.cpp ****     {
 789:Drivers/STM32F4xx_HAL_Driver/Src/stm32f4xx_hal_dma.cpp ****       /* Clear the direct mode error flag */
 790:Drivers/STM32F4xx_HAL_Driver/Src/stm32f4xx_hal_dma.cpp ****       regs->IFCR = DMA_FLAG_DMEIF0_4 << hdma->StreamIndex;
 791:Drivers/STM32F4xx_HAL_Driver/Src/stm32f4xx_hal_dma.cpp **** 
 792:Drivers/STM32F4xx_HAL_Driver/Src/stm32f4xx_hal_dma.cpp ****       /* Update error code */
 793:Drivers/STM32F4xx_HAL_Driver/Src/stm32f4xx_hal_dma.cpp ****       hdma->ErrorCode |= HAL_DMA_ERROR_DME;
 794:Drivers/STM32F4xx_HAL_Driver/Src/stm32f4xx_hal_dma.cpp ****     }
 795:Drivers/STM32F4xx_HAL_Driver/Src/stm32f4xx_hal_dma.cpp ****   }
 796:Drivers/STM32F4xx_HAL_Driver/Src/stm32f4xx_hal_dma.cpp ****   /* Half Transfer Complete Interrupt management ******************************/
 797:Drivers/STM32F4xx_HAL_Driver/Src/stm32f4xx_hal_dma.cpp ****   if ((tmpisr & (DMA_FLAG_HTIF0_4 << hdma->StreamIndex)) != RESET)
 798:Drivers/STM32F4xx_HAL_Driver/Src/stm32f4xx_hal_dma.cpp ****   {
 799:Drivers/STM32F4xx_HAL_Driver/Src/stm32f4xx_hal_dma.cpp ****     if(__HAL_DMA_GET_IT_SOURCE(hdma, DMA_IT_HT) != RESET)
 800:Drivers/STM32F4xx_HAL_Driver/Src/stm32f4xx_hal_dma.cpp ****     {
 801:Drivers/STM32F4xx_HAL_Driver/Src/stm32f4xx_hal_dma.cpp ****       /* Clear the half transfer complete flag */
 802:Drivers/STM32F4xx_HAL_Driver/Src/stm32f4xx_hal_dma.cpp ****       regs->IFCR = DMA_FLAG_HTIF0_4 << hdma->StreamIndex;
 803:Drivers/STM32F4xx_HAL_Driver/Src/stm32f4xx_hal_dma.cpp ****       
 804:Drivers/STM32F4xx_HAL_Driver/Src/stm32f4xx_hal_dma.cpp ****       /* Multi_Buffering mode enabled */
 805:Drivers/STM32F4xx_HAL_Driver/Src/stm32f4xx_hal_dma.cpp ****       if(((hdma->Instance->CR) & (uint32_t)(DMA_SxCR_DBM)) != RESET)
 806:Drivers/STM32F4xx_HAL_Driver/Src/stm32f4xx_hal_dma.cpp ****       {
 807:Drivers/STM32F4xx_HAL_Driver/Src/stm32f4xx_hal_dma.cpp ****         /* Current memory buffer used is Memory 0 */
 808:Drivers/STM32F4xx_HAL_Driver/Src/stm32f4xx_hal_dma.cpp ****         if((hdma->Instance->CR & DMA_SxCR_CT) == RESET)
 809:Drivers/STM32F4xx_HAL_Driver/Src/stm32f4xx_hal_dma.cpp ****         {
 810:Drivers/STM32F4xx_HAL_Driver/Src/stm32f4xx_hal_dma.cpp ****           if(hdma->XferHalfCpltCallback != NULL)
 811:Drivers/STM32F4xx_HAL_Driver/Src/stm32f4xx_hal_dma.cpp ****           {
 812:Drivers/STM32F4xx_HAL_Driver/Src/stm32f4xx_hal_dma.cpp ****             /* Half transfer callback */
 813:Drivers/STM32F4xx_HAL_Driver/Src/stm32f4xx_hal_dma.cpp ****             hdma->XferHalfCpltCallback(hdma);
 814:Drivers/STM32F4xx_HAL_Driver/Src/stm32f4xx_hal_dma.cpp ****           }
 815:Drivers/STM32F4xx_HAL_Driver/Src/stm32f4xx_hal_dma.cpp ****         }
 816:Drivers/STM32F4xx_HAL_Driver/Src/stm32f4xx_hal_dma.cpp ****         /* Current memory buffer used is Memory 1 */
 817:Drivers/STM32F4xx_HAL_Driver/Src/stm32f4xx_hal_dma.cpp ****         else
 818:Drivers/STM32F4xx_HAL_Driver/Src/stm32f4xx_hal_dma.cpp ****         {
 819:Drivers/STM32F4xx_HAL_Driver/Src/stm32f4xx_hal_dma.cpp ****           if(hdma->XferM1HalfCpltCallback != NULL)
 820:Drivers/STM32F4xx_HAL_Driver/Src/stm32f4xx_hal_dma.cpp ****           {
 821:Drivers/STM32F4xx_HAL_Driver/Src/stm32f4xx_hal_dma.cpp ****             /* Half transfer callback */
 822:Drivers/STM32F4xx_HAL_Driver/Src/stm32f4xx_hal_dma.cpp ****             hdma->XferM1HalfCpltCallback(hdma);
 823:Drivers/STM32F4xx_HAL_Driver/Src/stm32f4xx_hal_dma.cpp ****           }
 824:Drivers/STM32F4xx_HAL_Driver/Src/stm32f4xx_hal_dma.cpp ****         }
 825:Drivers/STM32F4xx_HAL_Driver/Src/stm32f4xx_hal_dma.cpp ****       }
 826:Drivers/STM32F4xx_HAL_Driver/Src/stm32f4xx_hal_dma.cpp ****       else
 827:Drivers/STM32F4xx_HAL_Driver/Src/stm32f4xx_hal_dma.cpp ****       {
ARM GAS  C:\Users\huawei\AppData\Local\Temp\ccXalwLh.s 			page 16


 828:Drivers/STM32F4xx_HAL_Driver/Src/stm32f4xx_hal_dma.cpp ****         /* Disable the half transfer interrupt if the DMA mode is not CIRCULAR */
 829:Drivers/STM32F4xx_HAL_Driver/Src/stm32f4xx_hal_dma.cpp ****         if((hdma->Instance->CR & DMA_SxCR_CIRC) == RESET)
 830:Drivers/STM32F4xx_HAL_Driver/Src/stm32f4xx_hal_dma.cpp ****         {
 831:Drivers/STM32F4xx_HAL_Driver/Src/stm32f4xx_hal_dma.cpp ****           /* Disable the half transfer interrupt */
 832:Drivers/STM32F4xx_HAL_Driver/Src/stm32f4xx_hal_dma.cpp ****           hdma->Instance->CR  &= ~(DMA_IT_HT);
 833:Drivers/STM32F4xx_HAL_Driver/Src/stm32f4xx_hal_dma.cpp ****         }
 834:Drivers/STM32F4xx_HAL_Driver/Src/stm32f4xx_hal_dma.cpp ****         
 835:Drivers/STM32F4xx_HAL_Driver/Src/stm32f4xx_hal_dma.cpp ****         if(hdma->XferHalfCpltCallback != NULL)
 836:Drivers/STM32F4xx_HAL_Driver/Src/stm32f4xx_hal_dma.cpp ****         {
 837:Drivers/STM32F4xx_HAL_Driver/Src/stm32f4xx_hal_dma.cpp ****           /* Half transfer callback */
 838:Drivers/STM32F4xx_HAL_Driver/Src/stm32f4xx_hal_dma.cpp ****           hdma->XferHalfCpltCallback(hdma);
 839:Drivers/STM32F4xx_HAL_Driver/Src/stm32f4xx_hal_dma.cpp ****         }
 840:Drivers/STM32F4xx_HAL_Driver/Src/stm32f4xx_hal_dma.cpp ****       }
 841:Drivers/STM32F4xx_HAL_Driver/Src/stm32f4xx_hal_dma.cpp ****     }
 842:Drivers/STM32F4xx_HAL_Driver/Src/stm32f4xx_hal_dma.cpp ****   }
 843:Drivers/STM32F4xx_HAL_Driver/Src/stm32f4xx_hal_dma.cpp ****   /* Transfer Complete Interrupt management ***********************************/
 844:Drivers/STM32F4xx_HAL_Driver/Src/stm32f4xx_hal_dma.cpp ****   if ((tmpisr & (DMA_FLAG_TCIF0_4 << hdma->StreamIndex)) != RESET)
 845:Drivers/STM32F4xx_HAL_Driver/Src/stm32f4xx_hal_dma.cpp ****   {
 846:Drivers/STM32F4xx_HAL_Driver/Src/stm32f4xx_hal_dma.cpp ****     if(__HAL_DMA_GET_IT_SOURCE(hdma, DMA_IT_TC) != RESET)
 847:Drivers/STM32F4xx_HAL_Driver/Src/stm32f4xx_hal_dma.cpp ****     {
 848:Drivers/STM32F4xx_HAL_Driver/Src/stm32f4xx_hal_dma.cpp ****       /* Clear the transfer complete flag */
 849:Drivers/STM32F4xx_HAL_Driver/Src/stm32f4xx_hal_dma.cpp ****       regs->IFCR = DMA_FLAG_TCIF0_4 << hdma->StreamIndex;
 850:Drivers/STM32F4xx_HAL_Driver/Src/stm32f4xx_hal_dma.cpp ****       
 851:Drivers/STM32F4xx_HAL_Driver/Src/stm32f4xx_hal_dma.cpp ****       if(HAL_DMA_STATE_ABORT == hdma->State)
 852:Drivers/STM32F4xx_HAL_Driver/Src/stm32f4xx_hal_dma.cpp ****       {
 853:Drivers/STM32F4xx_HAL_Driver/Src/stm32f4xx_hal_dma.cpp ****         /* Disable all the transfer interrupts */
 854:Drivers/STM32F4xx_HAL_Driver/Src/stm32f4xx_hal_dma.cpp ****         hdma->Instance->CR  &= ~(DMA_IT_TC | DMA_IT_TE | DMA_IT_DME);
 855:Drivers/STM32F4xx_HAL_Driver/Src/stm32f4xx_hal_dma.cpp ****         hdma->Instance->FCR &= ~(DMA_IT_FE);
 856:Drivers/STM32F4xx_HAL_Driver/Src/stm32f4xx_hal_dma.cpp ****         
 857:Drivers/STM32F4xx_HAL_Driver/Src/stm32f4xx_hal_dma.cpp ****         if((hdma->XferHalfCpltCallback != NULL) || (hdma->XferM1HalfCpltCallback != NULL))
 858:Drivers/STM32F4xx_HAL_Driver/Src/stm32f4xx_hal_dma.cpp ****         {
 859:Drivers/STM32F4xx_HAL_Driver/Src/stm32f4xx_hal_dma.cpp ****           hdma->Instance->CR  &= ~(DMA_IT_HT);
 860:Drivers/STM32F4xx_HAL_Driver/Src/stm32f4xx_hal_dma.cpp ****         }
 861:Drivers/STM32F4xx_HAL_Driver/Src/stm32f4xx_hal_dma.cpp **** 
 862:Drivers/STM32F4xx_HAL_Driver/Src/stm32f4xx_hal_dma.cpp ****         /* Clear all interrupt flags at correct offset within the register */
 863:Drivers/STM32F4xx_HAL_Driver/Src/stm32f4xx_hal_dma.cpp ****         regs->IFCR = 0x3FU << hdma->StreamIndex;
 864:Drivers/STM32F4xx_HAL_Driver/Src/stm32f4xx_hal_dma.cpp **** 
 865:Drivers/STM32F4xx_HAL_Driver/Src/stm32f4xx_hal_dma.cpp ****         /* Change the DMA state */
 866:Drivers/STM32F4xx_HAL_Driver/Src/stm32f4xx_hal_dma.cpp ****         hdma->State = HAL_DMA_STATE_READY;
 867:Drivers/STM32F4xx_HAL_Driver/Src/stm32f4xx_hal_dma.cpp **** 
 868:Drivers/STM32F4xx_HAL_Driver/Src/stm32f4xx_hal_dma.cpp ****         /* Process Unlocked */
 869:Drivers/STM32F4xx_HAL_Driver/Src/stm32f4xx_hal_dma.cpp ****         __HAL_UNLOCK(hdma);
 870:Drivers/STM32F4xx_HAL_Driver/Src/stm32f4xx_hal_dma.cpp **** 
 871:Drivers/STM32F4xx_HAL_Driver/Src/stm32f4xx_hal_dma.cpp ****         if(hdma->XferAbortCallback != NULL)
 872:Drivers/STM32F4xx_HAL_Driver/Src/stm32f4xx_hal_dma.cpp ****         {
 873:Drivers/STM32F4xx_HAL_Driver/Src/stm32f4xx_hal_dma.cpp ****           hdma->XferAbortCallback(hdma);
 874:Drivers/STM32F4xx_HAL_Driver/Src/stm32f4xx_hal_dma.cpp ****         }
 875:Drivers/STM32F4xx_HAL_Driver/Src/stm32f4xx_hal_dma.cpp ****         return;
 876:Drivers/STM32F4xx_HAL_Driver/Src/stm32f4xx_hal_dma.cpp ****       }
 877:Drivers/STM32F4xx_HAL_Driver/Src/stm32f4xx_hal_dma.cpp **** 
 878:Drivers/STM32F4xx_HAL_Driver/Src/stm32f4xx_hal_dma.cpp ****       if(((hdma->Instance->CR) & (uint32_t)(DMA_SxCR_DBM)) != RESET)
 879:Drivers/STM32F4xx_HAL_Driver/Src/stm32f4xx_hal_dma.cpp ****       {
 880:Drivers/STM32F4xx_HAL_Driver/Src/stm32f4xx_hal_dma.cpp ****         /* Current memory buffer used is Memory 0 */
 881:Drivers/STM32F4xx_HAL_Driver/Src/stm32f4xx_hal_dma.cpp ****         if((hdma->Instance->CR & DMA_SxCR_CT) == RESET)
 882:Drivers/STM32F4xx_HAL_Driver/Src/stm32f4xx_hal_dma.cpp ****         {
 883:Drivers/STM32F4xx_HAL_Driver/Src/stm32f4xx_hal_dma.cpp ****           if(hdma->XferM1CpltCallback != NULL)
 884:Drivers/STM32F4xx_HAL_Driver/Src/stm32f4xx_hal_dma.cpp ****           {
ARM GAS  C:\Users\huawei\AppData\Local\Temp\ccXalwLh.s 			page 17


 885:Drivers/STM32F4xx_HAL_Driver/Src/stm32f4xx_hal_dma.cpp ****             /* Transfer complete Callback for memory1 */
 886:Drivers/STM32F4xx_HAL_Driver/Src/stm32f4xx_hal_dma.cpp ****             hdma->XferM1CpltCallback(hdma);
 887:Drivers/STM32F4xx_HAL_Driver/Src/stm32f4xx_hal_dma.cpp ****           }
 888:Drivers/STM32F4xx_HAL_Driver/Src/stm32f4xx_hal_dma.cpp ****         }
 889:Drivers/STM32F4xx_HAL_Driver/Src/stm32f4xx_hal_dma.cpp ****         /* Current memory buffer used is Memory 1 */
 890:Drivers/STM32F4xx_HAL_Driver/Src/stm32f4xx_hal_dma.cpp ****         else
 891:Drivers/STM32F4xx_HAL_Driver/Src/stm32f4xx_hal_dma.cpp ****         {
 892:Drivers/STM32F4xx_HAL_Driver/Src/stm32f4xx_hal_dma.cpp ****           if(hdma->XferCpltCallback != NULL)
 893:Drivers/STM32F4xx_HAL_Driver/Src/stm32f4xx_hal_dma.cpp ****           {
 894:Drivers/STM32F4xx_HAL_Driver/Src/stm32f4xx_hal_dma.cpp ****             /* Transfer complete Callback for memory0 */
 895:Drivers/STM32F4xx_HAL_Driver/Src/stm32f4xx_hal_dma.cpp ****             hdma->XferCpltCallback(hdma);
 896:Drivers/STM32F4xx_HAL_Driver/Src/stm32f4xx_hal_dma.cpp ****           }
 897:Drivers/STM32F4xx_HAL_Driver/Src/stm32f4xx_hal_dma.cpp ****         }
 898:Drivers/STM32F4xx_HAL_Driver/Src/stm32f4xx_hal_dma.cpp ****       }
 899:Drivers/STM32F4xx_HAL_Driver/Src/stm32f4xx_hal_dma.cpp ****       /* Disable the transfer complete interrupt if the DMA mode is not CIRCULAR */
 900:Drivers/STM32F4xx_HAL_Driver/Src/stm32f4xx_hal_dma.cpp ****       else
 901:Drivers/STM32F4xx_HAL_Driver/Src/stm32f4xx_hal_dma.cpp ****       {
 902:Drivers/STM32F4xx_HAL_Driver/Src/stm32f4xx_hal_dma.cpp ****         if((hdma->Instance->CR & DMA_SxCR_CIRC) == RESET)
 903:Drivers/STM32F4xx_HAL_Driver/Src/stm32f4xx_hal_dma.cpp ****         {
 904:Drivers/STM32F4xx_HAL_Driver/Src/stm32f4xx_hal_dma.cpp ****           /* Disable the transfer complete interrupt */
 905:Drivers/STM32F4xx_HAL_Driver/Src/stm32f4xx_hal_dma.cpp ****           hdma->Instance->CR  &= ~(DMA_IT_TC);
 906:Drivers/STM32F4xx_HAL_Driver/Src/stm32f4xx_hal_dma.cpp **** 
 907:Drivers/STM32F4xx_HAL_Driver/Src/stm32f4xx_hal_dma.cpp ****           /* Change the DMA state */
 908:Drivers/STM32F4xx_HAL_Driver/Src/stm32f4xx_hal_dma.cpp ****           hdma->State = HAL_DMA_STATE_READY;
 909:Drivers/STM32F4xx_HAL_Driver/Src/stm32f4xx_hal_dma.cpp **** 
 910:Drivers/STM32F4xx_HAL_Driver/Src/stm32f4xx_hal_dma.cpp ****           /* Process Unlocked */
 911:Drivers/STM32F4xx_HAL_Driver/Src/stm32f4xx_hal_dma.cpp ****           __HAL_UNLOCK(hdma);
 912:Drivers/STM32F4xx_HAL_Driver/Src/stm32f4xx_hal_dma.cpp ****         }
 913:Drivers/STM32F4xx_HAL_Driver/Src/stm32f4xx_hal_dma.cpp **** 
 914:Drivers/STM32F4xx_HAL_Driver/Src/stm32f4xx_hal_dma.cpp ****         if(hdma->XferCpltCallback != NULL)
 915:Drivers/STM32F4xx_HAL_Driver/Src/stm32f4xx_hal_dma.cpp ****         {
 916:Drivers/STM32F4xx_HAL_Driver/Src/stm32f4xx_hal_dma.cpp ****           /* Transfer complete callback */
 917:Drivers/STM32F4xx_HAL_Driver/Src/stm32f4xx_hal_dma.cpp ****           hdma->XferCpltCallback(hdma);
 918:Drivers/STM32F4xx_HAL_Driver/Src/stm32f4xx_hal_dma.cpp ****         }
 919:Drivers/STM32F4xx_HAL_Driver/Src/stm32f4xx_hal_dma.cpp ****       }
 920:Drivers/STM32F4xx_HAL_Driver/Src/stm32f4xx_hal_dma.cpp ****     }
 921:Drivers/STM32F4xx_HAL_Driver/Src/stm32f4xx_hal_dma.cpp ****   }
 922:Drivers/STM32F4xx_HAL_Driver/Src/stm32f4xx_hal_dma.cpp ****   
 923:Drivers/STM32F4xx_HAL_Driver/Src/stm32f4xx_hal_dma.cpp ****   /* manage error case */
 924:Drivers/STM32F4xx_HAL_Driver/Src/stm32f4xx_hal_dma.cpp ****   if(hdma->ErrorCode != HAL_DMA_ERROR_NONE)
 925:Drivers/STM32F4xx_HAL_Driver/Src/stm32f4xx_hal_dma.cpp ****   {
 926:Drivers/STM32F4xx_HAL_Driver/Src/stm32f4xx_hal_dma.cpp ****     if((hdma->ErrorCode & HAL_DMA_ERROR_TE) != RESET)
 927:Drivers/STM32F4xx_HAL_Driver/Src/stm32f4xx_hal_dma.cpp ****     {
 928:Drivers/STM32F4xx_HAL_Driver/Src/stm32f4xx_hal_dma.cpp ****       hdma->State = HAL_DMA_STATE_ABORT;
 929:Drivers/STM32F4xx_HAL_Driver/Src/stm32f4xx_hal_dma.cpp **** 
 930:Drivers/STM32F4xx_HAL_Driver/Src/stm32f4xx_hal_dma.cpp ****       /* Disable the stream */
 931:Drivers/STM32F4xx_HAL_Driver/Src/stm32f4xx_hal_dma.cpp ****       __HAL_DMA_DISABLE(hdma);
 932:Drivers/STM32F4xx_HAL_Driver/Src/stm32f4xx_hal_dma.cpp **** 
 933:Drivers/STM32F4xx_HAL_Driver/Src/stm32f4xx_hal_dma.cpp ****       do
 934:Drivers/STM32F4xx_HAL_Driver/Src/stm32f4xx_hal_dma.cpp ****       {
 935:Drivers/STM32F4xx_HAL_Driver/Src/stm32f4xx_hal_dma.cpp ****         if (++count > timeout)
 936:Drivers/STM32F4xx_HAL_Driver/Src/stm32f4xx_hal_dma.cpp ****         {
 937:Drivers/STM32F4xx_HAL_Driver/Src/stm32f4xx_hal_dma.cpp ****           break;
 938:Drivers/STM32F4xx_HAL_Driver/Src/stm32f4xx_hal_dma.cpp ****         }
 939:Drivers/STM32F4xx_HAL_Driver/Src/stm32f4xx_hal_dma.cpp ****       }
 940:Drivers/STM32F4xx_HAL_Driver/Src/stm32f4xx_hal_dma.cpp ****       while((hdma->Instance->CR & DMA_SxCR_EN) != RESET);
 941:Drivers/STM32F4xx_HAL_Driver/Src/stm32f4xx_hal_dma.cpp **** 
ARM GAS  C:\Users\huawei\AppData\Local\Temp\ccXalwLh.s 			page 18


 942:Drivers/STM32F4xx_HAL_Driver/Src/stm32f4xx_hal_dma.cpp ****       /* Change the DMA state */
 943:Drivers/STM32F4xx_HAL_Driver/Src/stm32f4xx_hal_dma.cpp ****       hdma->State = HAL_DMA_STATE_READY;
 944:Drivers/STM32F4xx_HAL_Driver/Src/stm32f4xx_hal_dma.cpp **** 
 945:Drivers/STM32F4xx_HAL_Driver/Src/stm32f4xx_hal_dma.cpp ****       /* Process Unlocked */
 946:Drivers/STM32F4xx_HAL_Driver/Src/stm32f4xx_hal_dma.cpp ****       __HAL_UNLOCK(hdma);
 947:Drivers/STM32F4xx_HAL_Driver/Src/stm32f4xx_hal_dma.cpp ****     }
 948:Drivers/STM32F4xx_HAL_Driver/Src/stm32f4xx_hal_dma.cpp **** 
 949:Drivers/STM32F4xx_HAL_Driver/Src/stm32f4xx_hal_dma.cpp ****     if(hdma->XferErrorCallback != NULL)
 950:Drivers/STM32F4xx_HAL_Driver/Src/stm32f4xx_hal_dma.cpp ****     {
 951:Drivers/STM32F4xx_HAL_Driver/Src/stm32f4xx_hal_dma.cpp ****       /* Transfer error callback */
 952:Drivers/STM32F4xx_HAL_Driver/Src/stm32f4xx_hal_dma.cpp ****       hdma->XferErrorCallback(hdma);
 953:Drivers/STM32F4xx_HAL_Driver/Src/stm32f4xx_hal_dma.cpp ****     }
 954:Drivers/STM32F4xx_HAL_Driver/Src/stm32f4xx_hal_dma.cpp ****   }
 955:Drivers/STM32F4xx_HAL_Driver/Src/stm32f4xx_hal_dma.cpp **** }
 956:Drivers/STM32F4xx_HAL_Driver/Src/stm32f4xx_hal_dma.cpp **** 
 957:Drivers/STM32F4xx_HAL_Driver/Src/stm32f4xx_hal_dma.cpp **** /**
 958:Drivers/STM32F4xx_HAL_Driver/Src/stm32f4xx_hal_dma.cpp ****   * @brief  Register callbacks
 959:Drivers/STM32F4xx_HAL_Driver/Src/stm32f4xx_hal_dma.cpp ****   * @param  hdma                 pointer to a DMA_HandleTypeDef structure that contains
 960:Drivers/STM32F4xx_HAL_Driver/Src/stm32f4xx_hal_dma.cpp ****   *                               the configuration information for the specified DMA Stream.
 961:Drivers/STM32F4xx_HAL_Driver/Src/stm32f4xx_hal_dma.cpp ****   * @param  CallbackID           User Callback identifier
 962:Drivers/STM32F4xx_HAL_Driver/Src/stm32f4xx_hal_dma.cpp ****   *                               a DMA_HandleTypeDef structure as parameter.
 963:Drivers/STM32F4xx_HAL_Driver/Src/stm32f4xx_hal_dma.cpp ****   * @param  pCallback            pointer to private callback function which has pointer to 
 964:Drivers/STM32F4xx_HAL_Driver/Src/stm32f4xx_hal_dma.cpp ****   *                               a DMA_HandleTypeDef structure as parameter.
 965:Drivers/STM32F4xx_HAL_Driver/Src/stm32f4xx_hal_dma.cpp ****   * @retval HAL status
 966:Drivers/STM32F4xx_HAL_Driver/Src/stm32f4xx_hal_dma.cpp ****   */                      
 967:Drivers/STM32F4xx_HAL_Driver/Src/stm32f4xx_hal_dma.cpp **** HAL_StatusTypeDef HAL_DMA_RegisterCallback(DMA_HandleTypeDef *hdma, HAL_DMA_CallbackIDTypeDef Callb
 968:Drivers/STM32F4xx_HAL_Driver/Src/stm32f4xx_hal_dma.cpp **** {
 969:Drivers/STM32F4xx_HAL_Driver/Src/stm32f4xx_hal_dma.cpp **** 
 970:Drivers/STM32F4xx_HAL_Driver/Src/stm32f4xx_hal_dma.cpp ****   HAL_StatusTypeDef status = HAL_OK;
 971:Drivers/STM32F4xx_HAL_Driver/Src/stm32f4xx_hal_dma.cpp **** 
 972:Drivers/STM32F4xx_HAL_Driver/Src/stm32f4xx_hal_dma.cpp ****   /* Process locked */
 973:Drivers/STM32F4xx_HAL_Driver/Src/stm32f4xx_hal_dma.cpp ****   __HAL_LOCK(hdma);
 974:Drivers/STM32F4xx_HAL_Driver/Src/stm32f4xx_hal_dma.cpp **** 
 975:Drivers/STM32F4xx_HAL_Driver/Src/stm32f4xx_hal_dma.cpp ****   if(HAL_DMA_STATE_READY == hdma->State)
 976:Drivers/STM32F4xx_HAL_Driver/Src/stm32f4xx_hal_dma.cpp ****   {
 977:Drivers/STM32F4xx_HAL_Driver/Src/stm32f4xx_hal_dma.cpp ****     switch (CallbackID)
 978:Drivers/STM32F4xx_HAL_Driver/Src/stm32f4xx_hal_dma.cpp ****     {
 979:Drivers/STM32F4xx_HAL_Driver/Src/stm32f4xx_hal_dma.cpp ****     case  HAL_DMA_XFER_CPLT_CB_ID:
 980:Drivers/STM32F4xx_HAL_Driver/Src/stm32f4xx_hal_dma.cpp ****       hdma->XferCpltCallback = pCallback;
 981:Drivers/STM32F4xx_HAL_Driver/Src/stm32f4xx_hal_dma.cpp ****       break;
 982:Drivers/STM32F4xx_HAL_Driver/Src/stm32f4xx_hal_dma.cpp **** 
 983:Drivers/STM32F4xx_HAL_Driver/Src/stm32f4xx_hal_dma.cpp ****     case  HAL_DMA_XFER_HALFCPLT_CB_ID:
 984:Drivers/STM32F4xx_HAL_Driver/Src/stm32f4xx_hal_dma.cpp ****       hdma->XferHalfCpltCallback = pCallback;
 985:Drivers/STM32F4xx_HAL_Driver/Src/stm32f4xx_hal_dma.cpp ****       break;
 986:Drivers/STM32F4xx_HAL_Driver/Src/stm32f4xx_hal_dma.cpp **** 
 987:Drivers/STM32F4xx_HAL_Driver/Src/stm32f4xx_hal_dma.cpp ****     case  HAL_DMA_XFER_M1CPLT_CB_ID:
 988:Drivers/STM32F4xx_HAL_Driver/Src/stm32f4xx_hal_dma.cpp ****       hdma->XferM1CpltCallback = pCallback;
 989:Drivers/STM32F4xx_HAL_Driver/Src/stm32f4xx_hal_dma.cpp ****       break;
 990:Drivers/STM32F4xx_HAL_Driver/Src/stm32f4xx_hal_dma.cpp **** 
 991:Drivers/STM32F4xx_HAL_Driver/Src/stm32f4xx_hal_dma.cpp ****     case  HAL_DMA_XFER_M1HALFCPLT_CB_ID:
 992:Drivers/STM32F4xx_HAL_Driver/Src/stm32f4xx_hal_dma.cpp ****       hdma->XferM1HalfCpltCallback = pCallback;
 993:Drivers/STM32F4xx_HAL_Driver/Src/stm32f4xx_hal_dma.cpp ****       break;
 994:Drivers/STM32F4xx_HAL_Driver/Src/stm32f4xx_hal_dma.cpp **** 
 995:Drivers/STM32F4xx_HAL_Driver/Src/stm32f4xx_hal_dma.cpp ****     case  HAL_DMA_XFER_ERROR_CB_ID:
 996:Drivers/STM32F4xx_HAL_Driver/Src/stm32f4xx_hal_dma.cpp ****       hdma->XferErrorCallback = pCallback;
 997:Drivers/STM32F4xx_HAL_Driver/Src/stm32f4xx_hal_dma.cpp ****       break;
 998:Drivers/STM32F4xx_HAL_Driver/Src/stm32f4xx_hal_dma.cpp **** 
ARM GAS  C:\Users\huawei\AppData\Local\Temp\ccXalwLh.s 			page 19


 999:Drivers/STM32F4xx_HAL_Driver/Src/stm32f4xx_hal_dma.cpp ****     case  HAL_DMA_XFER_ABORT_CB_ID:
1000:Drivers/STM32F4xx_HAL_Driver/Src/stm32f4xx_hal_dma.cpp ****       hdma->XferAbortCallback = pCallback;
1001:Drivers/STM32F4xx_HAL_Driver/Src/stm32f4xx_hal_dma.cpp ****       break;
1002:Drivers/STM32F4xx_HAL_Driver/Src/stm32f4xx_hal_dma.cpp **** 
1003:Drivers/STM32F4xx_HAL_Driver/Src/stm32f4xx_hal_dma.cpp ****     default:
1004:Drivers/STM32F4xx_HAL_Driver/Src/stm32f4xx_hal_dma.cpp ****       /* Return error status */
1005:Drivers/STM32F4xx_HAL_Driver/Src/stm32f4xx_hal_dma.cpp ****       status =  HAL_ERROR;
1006:Drivers/STM32F4xx_HAL_Driver/Src/stm32f4xx_hal_dma.cpp ****       break;
1007:Drivers/STM32F4xx_HAL_Driver/Src/stm32f4xx_hal_dma.cpp ****     }
1008:Drivers/STM32F4xx_HAL_Driver/Src/stm32f4xx_hal_dma.cpp ****   }
1009:Drivers/STM32F4xx_HAL_Driver/Src/stm32f4xx_hal_dma.cpp ****   else
1010:Drivers/STM32F4xx_HAL_Driver/Src/stm32f4xx_hal_dma.cpp ****   {
1011:Drivers/STM32F4xx_HAL_Driver/Src/stm32f4xx_hal_dma.cpp ****     /* Return error status */
1012:Drivers/STM32F4xx_HAL_Driver/Src/stm32f4xx_hal_dma.cpp ****     status =  HAL_ERROR;
1013:Drivers/STM32F4xx_HAL_Driver/Src/stm32f4xx_hal_dma.cpp ****   }
1014:Drivers/STM32F4xx_HAL_Driver/Src/stm32f4xx_hal_dma.cpp **** 
1015:Drivers/STM32F4xx_HAL_Driver/Src/stm32f4xx_hal_dma.cpp ****   /* Release Lock */
1016:Drivers/STM32F4xx_HAL_Driver/Src/stm32f4xx_hal_dma.cpp ****   __HAL_UNLOCK(hdma);
1017:Drivers/STM32F4xx_HAL_Driver/Src/stm32f4xx_hal_dma.cpp ****   
1018:Drivers/STM32F4xx_HAL_Driver/Src/stm32f4xx_hal_dma.cpp ****   return status;
1019:Drivers/STM32F4xx_HAL_Driver/Src/stm32f4xx_hal_dma.cpp **** }
1020:Drivers/STM32F4xx_HAL_Driver/Src/stm32f4xx_hal_dma.cpp **** 
1021:Drivers/STM32F4xx_HAL_Driver/Src/stm32f4xx_hal_dma.cpp **** /**
1022:Drivers/STM32F4xx_HAL_Driver/Src/stm32f4xx_hal_dma.cpp ****   * @brief  UnRegister callbacks
1023:Drivers/STM32F4xx_HAL_Driver/Src/stm32f4xx_hal_dma.cpp ****   * @param  hdma                 pointer to a DMA_HandleTypeDef structure that contains
1024:Drivers/STM32F4xx_HAL_Driver/Src/stm32f4xx_hal_dma.cpp ****   *                               the configuration information for the specified DMA Stream.
1025:Drivers/STM32F4xx_HAL_Driver/Src/stm32f4xx_hal_dma.cpp ****   * @param  CallbackID           User Callback identifier
1026:Drivers/STM32F4xx_HAL_Driver/Src/stm32f4xx_hal_dma.cpp ****   *                               a HAL_DMA_CallbackIDTypeDef ENUM as parameter.
1027:Drivers/STM32F4xx_HAL_Driver/Src/stm32f4xx_hal_dma.cpp ****   * @retval HAL status
1028:Drivers/STM32F4xx_HAL_Driver/Src/stm32f4xx_hal_dma.cpp ****   */              
1029:Drivers/STM32F4xx_HAL_Driver/Src/stm32f4xx_hal_dma.cpp **** HAL_StatusTypeDef HAL_DMA_UnRegisterCallback(DMA_HandleTypeDef *hdma, HAL_DMA_CallbackIDTypeDef Cal
1030:Drivers/STM32F4xx_HAL_Driver/Src/stm32f4xx_hal_dma.cpp **** {
1031:Drivers/STM32F4xx_HAL_Driver/Src/stm32f4xx_hal_dma.cpp ****   HAL_StatusTypeDef status = HAL_OK;
1032:Drivers/STM32F4xx_HAL_Driver/Src/stm32f4xx_hal_dma.cpp ****   
1033:Drivers/STM32F4xx_HAL_Driver/Src/stm32f4xx_hal_dma.cpp ****   /* Process locked */
1034:Drivers/STM32F4xx_HAL_Driver/Src/stm32f4xx_hal_dma.cpp ****   __HAL_LOCK(hdma);
1035:Drivers/STM32F4xx_HAL_Driver/Src/stm32f4xx_hal_dma.cpp ****   
1036:Drivers/STM32F4xx_HAL_Driver/Src/stm32f4xx_hal_dma.cpp ****   if(HAL_DMA_STATE_READY == hdma->State)
1037:Drivers/STM32F4xx_HAL_Driver/Src/stm32f4xx_hal_dma.cpp ****   {
1038:Drivers/STM32F4xx_HAL_Driver/Src/stm32f4xx_hal_dma.cpp ****     switch (CallbackID)
1039:Drivers/STM32F4xx_HAL_Driver/Src/stm32f4xx_hal_dma.cpp ****     {
1040:Drivers/STM32F4xx_HAL_Driver/Src/stm32f4xx_hal_dma.cpp ****     case  HAL_DMA_XFER_CPLT_CB_ID:
1041:Drivers/STM32F4xx_HAL_Driver/Src/stm32f4xx_hal_dma.cpp ****       hdma->XferCpltCallback = NULL;
1042:Drivers/STM32F4xx_HAL_Driver/Src/stm32f4xx_hal_dma.cpp ****       break;
1043:Drivers/STM32F4xx_HAL_Driver/Src/stm32f4xx_hal_dma.cpp ****       
1044:Drivers/STM32F4xx_HAL_Driver/Src/stm32f4xx_hal_dma.cpp ****     case  HAL_DMA_XFER_HALFCPLT_CB_ID:
1045:Drivers/STM32F4xx_HAL_Driver/Src/stm32f4xx_hal_dma.cpp ****       hdma->XferHalfCpltCallback = NULL;
1046:Drivers/STM32F4xx_HAL_Driver/Src/stm32f4xx_hal_dma.cpp ****       break;
1047:Drivers/STM32F4xx_HAL_Driver/Src/stm32f4xx_hal_dma.cpp ****       
1048:Drivers/STM32F4xx_HAL_Driver/Src/stm32f4xx_hal_dma.cpp ****     case  HAL_DMA_XFER_M1CPLT_CB_ID:
1049:Drivers/STM32F4xx_HAL_Driver/Src/stm32f4xx_hal_dma.cpp ****       hdma->XferM1CpltCallback = NULL;
1050:Drivers/STM32F4xx_HAL_Driver/Src/stm32f4xx_hal_dma.cpp ****       break;
1051:Drivers/STM32F4xx_HAL_Driver/Src/stm32f4xx_hal_dma.cpp ****       
1052:Drivers/STM32F4xx_HAL_Driver/Src/stm32f4xx_hal_dma.cpp ****     case  HAL_DMA_XFER_M1HALFCPLT_CB_ID:
1053:Drivers/STM32F4xx_HAL_Driver/Src/stm32f4xx_hal_dma.cpp ****       hdma->XferM1HalfCpltCallback = NULL;
1054:Drivers/STM32F4xx_HAL_Driver/Src/stm32f4xx_hal_dma.cpp ****       break;
1055:Drivers/STM32F4xx_HAL_Driver/Src/stm32f4xx_hal_dma.cpp ****       
ARM GAS  C:\Users\huawei\AppData\Local\Temp\ccXalwLh.s 			page 20


1056:Drivers/STM32F4xx_HAL_Driver/Src/stm32f4xx_hal_dma.cpp ****     case  HAL_DMA_XFER_ERROR_CB_ID:
1057:Drivers/STM32F4xx_HAL_Driver/Src/stm32f4xx_hal_dma.cpp ****       hdma->XferErrorCallback = NULL;
1058:Drivers/STM32F4xx_HAL_Driver/Src/stm32f4xx_hal_dma.cpp ****       break;
1059:Drivers/STM32F4xx_HAL_Driver/Src/stm32f4xx_hal_dma.cpp ****       
1060:Drivers/STM32F4xx_HAL_Driver/Src/stm32f4xx_hal_dma.cpp ****     case  HAL_DMA_XFER_ABORT_CB_ID:
1061:Drivers/STM32F4xx_HAL_Driver/Src/stm32f4xx_hal_dma.cpp ****       hdma->XferAbortCallback = NULL;
1062:Drivers/STM32F4xx_HAL_Driver/Src/stm32f4xx_hal_dma.cpp ****       break; 
1063:Drivers/STM32F4xx_HAL_Driver/Src/stm32f4xx_hal_dma.cpp ****       
1064:Drivers/STM32F4xx_HAL_Driver/Src/stm32f4xx_hal_dma.cpp ****     case   HAL_DMA_XFER_ALL_CB_ID:
1065:Drivers/STM32F4xx_HAL_Driver/Src/stm32f4xx_hal_dma.cpp ****       hdma->XferCpltCallback = NULL;
1066:Drivers/STM32F4xx_HAL_Driver/Src/stm32f4xx_hal_dma.cpp ****       hdma->XferHalfCpltCallback = NULL;
1067:Drivers/STM32F4xx_HAL_Driver/Src/stm32f4xx_hal_dma.cpp ****       hdma->XferM1CpltCallback = NULL;
1068:Drivers/STM32F4xx_HAL_Driver/Src/stm32f4xx_hal_dma.cpp ****       hdma->XferM1HalfCpltCallback = NULL;
1069:Drivers/STM32F4xx_HAL_Driver/Src/stm32f4xx_hal_dma.cpp ****       hdma->XferErrorCallback = NULL;
1070:Drivers/STM32F4xx_HAL_Driver/Src/stm32f4xx_hal_dma.cpp ****       hdma->XferAbortCallback = NULL;
1071:Drivers/STM32F4xx_HAL_Driver/Src/stm32f4xx_hal_dma.cpp ****       break; 
1072:Drivers/STM32F4xx_HAL_Driver/Src/stm32f4xx_hal_dma.cpp ****       
1073:Drivers/STM32F4xx_HAL_Driver/Src/stm32f4xx_hal_dma.cpp ****     default:
1074:Drivers/STM32F4xx_HAL_Driver/Src/stm32f4xx_hal_dma.cpp ****       status = HAL_ERROR;
1075:Drivers/STM32F4xx_HAL_Driver/Src/stm32f4xx_hal_dma.cpp ****       break;
1076:Drivers/STM32F4xx_HAL_Driver/Src/stm32f4xx_hal_dma.cpp ****     }
1077:Drivers/STM32F4xx_HAL_Driver/Src/stm32f4xx_hal_dma.cpp ****   }
1078:Drivers/STM32F4xx_HAL_Driver/Src/stm32f4xx_hal_dma.cpp ****   else
1079:Drivers/STM32F4xx_HAL_Driver/Src/stm32f4xx_hal_dma.cpp ****   {
1080:Drivers/STM32F4xx_HAL_Driver/Src/stm32f4xx_hal_dma.cpp ****     status = HAL_ERROR;
1081:Drivers/STM32F4xx_HAL_Driver/Src/stm32f4xx_hal_dma.cpp ****   }
1082:Drivers/STM32F4xx_HAL_Driver/Src/stm32f4xx_hal_dma.cpp ****   
1083:Drivers/STM32F4xx_HAL_Driver/Src/stm32f4xx_hal_dma.cpp ****   /* Release Lock */
1084:Drivers/STM32F4xx_HAL_Driver/Src/stm32f4xx_hal_dma.cpp ****   __HAL_UNLOCK(hdma);
1085:Drivers/STM32F4xx_HAL_Driver/Src/stm32f4xx_hal_dma.cpp ****   
1086:Drivers/STM32F4xx_HAL_Driver/Src/stm32f4xx_hal_dma.cpp ****   return status;
1087:Drivers/STM32F4xx_HAL_Driver/Src/stm32f4xx_hal_dma.cpp **** }
1088:Drivers/STM32F4xx_HAL_Driver/Src/stm32f4xx_hal_dma.cpp **** 
1089:Drivers/STM32F4xx_HAL_Driver/Src/stm32f4xx_hal_dma.cpp **** /**
1090:Drivers/STM32F4xx_HAL_Driver/Src/stm32f4xx_hal_dma.cpp ****   * @}
1091:Drivers/STM32F4xx_HAL_Driver/Src/stm32f4xx_hal_dma.cpp ****   */
1092:Drivers/STM32F4xx_HAL_Driver/Src/stm32f4xx_hal_dma.cpp **** 
1093:Drivers/STM32F4xx_HAL_Driver/Src/stm32f4xx_hal_dma.cpp **** /** @addtogroup DMA_Exported_Functions_Group3
1094:Drivers/STM32F4xx_HAL_Driver/Src/stm32f4xx_hal_dma.cpp ****   *
1095:Drivers/STM32F4xx_HAL_Driver/Src/stm32f4xx_hal_dma.cpp **** @verbatim
1096:Drivers/STM32F4xx_HAL_Driver/Src/stm32f4xx_hal_dma.cpp ****  ===============================================================================
1097:Drivers/STM32F4xx_HAL_Driver/Src/stm32f4xx_hal_dma.cpp ****                     ##### State and Errors functions #####
1098:Drivers/STM32F4xx_HAL_Driver/Src/stm32f4xx_hal_dma.cpp ****  ===============================================================================
1099:Drivers/STM32F4xx_HAL_Driver/Src/stm32f4xx_hal_dma.cpp ****     [..]
1100:Drivers/STM32F4xx_HAL_Driver/Src/stm32f4xx_hal_dma.cpp ****     This subsection provides functions allowing to
1101:Drivers/STM32F4xx_HAL_Driver/Src/stm32f4xx_hal_dma.cpp ****       (+) Check the DMA state
1102:Drivers/STM32F4xx_HAL_Driver/Src/stm32f4xx_hal_dma.cpp ****       (+) Get error code
1103:Drivers/STM32F4xx_HAL_Driver/Src/stm32f4xx_hal_dma.cpp **** 
1104:Drivers/STM32F4xx_HAL_Driver/Src/stm32f4xx_hal_dma.cpp **** @endverbatim
1105:Drivers/STM32F4xx_HAL_Driver/Src/stm32f4xx_hal_dma.cpp ****   * @{
1106:Drivers/STM32F4xx_HAL_Driver/Src/stm32f4xx_hal_dma.cpp ****   */
1107:Drivers/STM32F4xx_HAL_Driver/Src/stm32f4xx_hal_dma.cpp **** 
1108:Drivers/STM32F4xx_HAL_Driver/Src/stm32f4xx_hal_dma.cpp **** /**
1109:Drivers/STM32F4xx_HAL_Driver/Src/stm32f4xx_hal_dma.cpp ****   * @brief  Returns the DMA state.
1110:Drivers/STM32F4xx_HAL_Driver/Src/stm32f4xx_hal_dma.cpp ****   * @param  hdma pointer to a DMA_HandleTypeDef structure that contains
1111:Drivers/STM32F4xx_HAL_Driver/Src/stm32f4xx_hal_dma.cpp ****   *               the configuration information for the specified DMA Stream.
1112:Drivers/STM32F4xx_HAL_Driver/Src/stm32f4xx_hal_dma.cpp ****   * @retval HAL state
ARM GAS  C:\Users\huawei\AppData\Local\Temp\ccXalwLh.s 			page 21


1113:Drivers/STM32F4xx_HAL_Driver/Src/stm32f4xx_hal_dma.cpp ****   */
1114:Drivers/STM32F4xx_HAL_Driver/Src/stm32f4xx_hal_dma.cpp **** HAL_DMA_StateTypeDef HAL_DMA_GetState(DMA_HandleTypeDef *hdma)
1115:Drivers/STM32F4xx_HAL_Driver/Src/stm32f4xx_hal_dma.cpp **** {
1116:Drivers/STM32F4xx_HAL_Driver/Src/stm32f4xx_hal_dma.cpp ****   return hdma->State;
1117:Drivers/STM32F4xx_HAL_Driver/Src/stm32f4xx_hal_dma.cpp **** }
1118:Drivers/STM32F4xx_HAL_Driver/Src/stm32f4xx_hal_dma.cpp **** 
1119:Drivers/STM32F4xx_HAL_Driver/Src/stm32f4xx_hal_dma.cpp **** /**
1120:Drivers/STM32F4xx_HAL_Driver/Src/stm32f4xx_hal_dma.cpp ****   * @brief  Return the DMA error code
1121:Drivers/STM32F4xx_HAL_Driver/Src/stm32f4xx_hal_dma.cpp ****   * @param  hdma  pointer to a DMA_HandleTypeDef structure that contains
1122:Drivers/STM32F4xx_HAL_Driver/Src/stm32f4xx_hal_dma.cpp ****   *              the configuration information for the specified DMA Stream.
1123:Drivers/STM32F4xx_HAL_Driver/Src/stm32f4xx_hal_dma.cpp ****   * @retval DMA Error Code
1124:Drivers/STM32F4xx_HAL_Driver/Src/stm32f4xx_hal_dma.cpp ****   */
1125:Drivers/STM32F4xx_HAL_Driver/Src/stm32f4xx_hal_dma.cpp **** uint32_t HAL_DMA_GetError(DMA_HandleTypeDef *hdma)
1126:Drivers/STM32F4xx_HAL_Driver/Src/stm32f4xx_hal_dma.cpp **** {
1127:Drivers/STM32F4xx_HAL_Driver/Src/stm32f4xx_hal_dma.cpp ****   return hdma->ErrorCode;
1128:Drivers/STM32F4xx_HAL_Driver/Src/stm32f4xx_hal_dma.cpp **** }
1129:Drivers/STM32F4xx_HAL_Driver/Src/stm32f4xx_hal_dma.cpp **** 
1130:Drivers/STM32F4xx_HAL_Driver/Src/stm32f4xx_hal_dma.cpp **** /**
1131:Drivers/STM32F4xx_HAL_Driver/Src/stm32f4xx_hal_dma.cpp ****   * @}
1132:Drivers/STM32F4xx_HAL_Driver/Src/stm32f4xx_hal_dma.cpp ****   */
1133:Drivers/STM32F4xx_HAL_Driver/Src/stm32f4xx_hal_dma.cpp **** 
1134:Drivers/STM32F4xx_HAL_Driver/Src/stm32f4xx_hal_dma.cpp **** /**
1135:Drivers/STM32F4xx_HAL_Driver/Src/stm32f4xx_hal_dma.cpp ****   * @}
1136:Drivers/STM32F4xx_HAL_Driver/Src/stm32f4xx_hal_dma.cpp ****   */
1137:Drivers/STM32F4xx_HAL_Driver/Src/stm32f4xx_hal_dma.cpp **** 
1138:Drivers/STM32F4xx_HAL_Driver/Src/stm32f4xx_hal_dma.cpp **** /** @addtogroup DMA_Private_Functions
1139:Drivers/STM32F4xx_HAL_Driver/Src/stm32f4xx_hal_dma.cpp ****   * @{
1140:Drivers/STM32F4xx_HAL_Driver/Src/stm32f4xx_hal_dma.cpp ****   */
1141:Drivers/STM32F4xx_HAL_Driver/Src/stm32f4xx_hal_dma.cpp **** 
1142:Drivers/STM32F4xx_HAL_Driver/Src/stm32f4xx_hal_dma.cpp **** /**
1143:Drivers/STM32F4xx_HAL_Driver/Src/stm32f4xx_hal_dma.cpp ****   * @brief  Sets the DMA Transfer parameter.
1144:Drivers/STM32F4xx_HAL_Driver/Src/stm32f4xx_hal_dma.cpp ****   * @param  hdma       pointer to a DMA_HandleTypeDef structure that contains
1145:Drivers/STM32F4xx_HAL_Driver/Src/stm32f4xx_hal_dma.cpp ****   *                     the configuration information for the specified DMA Stream.
1146:Drivers/STM32F4xx_HAL_Driver/Src/stm32f4xx_hal_dma.cpp ****   * @param  SrcAddress The source memory Buffer address
1147:Drivers/STM32F4xx_HAL_Driver/Src/stm32f4xx_hal_dma.cpp ****   * @param  DstAddress The destination memory Buffer address
1148:Drivers/STM32F4xx_HAL_Driver/Src/stm32f4xx_hal_dma.cpp ****   * @param  DataLength The length of data to be transferred from source to destination
1149:Drivers/STM32F4xx_HAL_Driver/Src/stm32f4xx_hal_dma.cpp ****   * @retval HAL status
1150:Drivers/STM32F4xx_HAL_Driver/Src/stm32f4xx_hal_dma.cpp ****   */
1151:Drivers/STM32F4xx_HAL_Driver/Src/stm32f4xx_hal_dma.cpp **** static void DMA_SetConfig(DMA_HandleTypeDef *hdma, uint32_t SrcAddress, uint32_t DstAddress, uint32
1152:Drivers/STM32F4xx_HAL_Driver/Src/stm32f4xx_hal_dma.cpp **** {
  30              		.loc 1 1152 1 view -0
  31              		.cfi_startproc
  32              		@ args = 0, pretend = 0, frame = 0
  33              		@ frame_needed = 0, uses_anonymous_args = 0
  34              		@ link register save eliminated.
  35              		.loc 1 1152 1 is_stmt 0 view .LVU1
  36 0000 30B4     		push	{r4, r5}
  37              	.LCFI0:
  38              		.cfi_def_cfa_offset 8
  39              		.cfi_offset 4, -8
  40              		.cfi_offset 5, -4
1153:Drivers/STM32F4xx_HAL_Driver/Src/stm32f4xx_hal_dma.cpp ****   /* Clear DBM bit */
1154:Drivers/STM32F4xx_HAL_Driver/Src/stm32f4xx_hal_dma.cpp ****   hdma->Instance->CR &= (uint32_t)(~DMA_SxCR_DBM);
  41              		.loc 1 1154 3 is_stmt 1 view .LVU2
  42              		.loc 1 1154 9 is_stmt 0 view .LVU3
  43 0002 0568     		ldr	r5, [r0]
  44              		.loc 1 1154 19 view .LVU4
ARM GAS  C:\Users\huawei\AppData\Local\Temp\ccXalwLh.s 			page 22


  45 0004 2C68     		ldr	r4, [r5]
  46              		.loc 1 1154 22 view .LVU5
  47 0006 24F48024 		bic	r4, r4, #262144
  48 000a 2C60     		str	r4, [r5]
1155:Drivers/STM32F4xx_HAL_Driver/Src/stm32f4xx_hal_dma.cpp **** 
1156:Drivers/STM32F4xx_HAL_Driver/Src/stm32f4xx_hal_dma.cpp ****   /* Configure DMA Stream data length */
1157:Drivers/STM32F4xx_HAL_Driver/Src/stm32f4xx_hal_dma.cpp ****   hdma->Instance->NDTR = DataLength;
  49              		.loc 1 1157 3 is_stmt 1 view .LVU6
  50              		.loc 1 1157 9 is_stmt 0 view .LVU7
  51 000c 0468     		ldr	r4, [r0]
  52              		.loc 1 1157 24 view .LVU8
  53 000e 6360     		str	r3, [r4, #4]
1158:Drivers/STM32F4xx_HAL_Driver/Src/stm32f4xx_hal_dma.cpp **** 
1159:Drivers/STM32F4xx_HAL_Driver/Src/stm32f4xx_hal_dma.cpp ****   /* Memory to Peripheral */
1160:Drivers/STM32F4xx_HAL_Driver/Src/stm32f4xx_hal_dma.cpp ****   if((hdma->Init.Direction) == DMA_MEMORY_TO_PERIPH)
  54              		.loc 1 1160 3 is_stmt 1 view .LVU9
  55              		.loc 1 1160 18 is_stmt 0 view .LVU10
  56 0010 8368     		ldr	r3, [r0, #8]
  57              	.LVL1:
  58              		.loc 1 1160 3 view .LVU11
  59 0012 402B     		cmp	r3, #64
  60 0014 05D0     		beq	.L5
1161:Drivers/STM32F4xx_HAL_Driver/Src/stm32f4xx_hal_dma.cpp ****   {
1162:Drivers/STM32F4xx_HAL_Driver/Src/stm32f4xx_hal_dma.cpp ****     /* Configure DMA Stream destination address */
1163:Drivers/STM32F4xx_HAL_Driver/Src/stm32f4xx_hal_dma.cpp ****     hdma->Instance->PAR = DstAddress;
1164:Drivers/STM32F4xx_HAL_Driver/Src/stm32f4xx_hal_dma.cpp **** 
1165:Drivers/STM32F4xx_HAL_Driver/Src/stm32f4xx_hal_dma.cpp ****     /* Configure DMA Stream source address */
1166:Drivers/STM32F4xx_HAL_Driver/Src/stm32f4xx_hal_dma.cpp ****     hdma->Instance->M0AR = SrcAddress;
1167:Drivers/STM32F4xx_HAL_Driver/Src/stm32f4xx_hal_dma.cpp ****   }
1168:Drivers/STM32F4xx_HAL_Driver/Src/stm32f4xx_hal_dma.cpp ****   /* Peripheral to Memory */
1169:Drivers/STM32F4xx_HAL_Driver/Src/stm32f4xx_hal_dma.cpp ****   else
1170:Drivers/STM32F4xx_HAL_Driver/Src/stm32f4xx_hal_dma.cpp ****   {
1171:Drivers/STM32F4xx_HAL_Driver/Src/stm32f4xx_hal_dma.cpp ****     /* Configure DMA Stream source address */
1172:Drivers/STM32F4xx_HAL_Driver/Src/stm32f4xx_hal_dma.cpp ****     hdma->Instance->PAR = SrcAddress;
  61              		.loc 1 1172 5 is_stmt 1 view .LVU12
  62              		.loc 1 1172 11 is_stmt 0 view .LVU13
  63 0016 0368     		ldr	r3, [r0]
  64              		.loc 1 1172 25 view .LVU14
  65 0018 9960     		str	r1, [r3, #8]
  66              	.LVL2:
1173:Drivers/STM32F4xx_HAL_Driver/Src/stm32f4xx_hal_dma.cpp **** 
1174:Drivers/STM32F4xx_HAL_Driver/Src/stm32f4xx_hal_dma.cpp ****     /* Configure DMA Stream destination address */
1175:Drivers/STM32F4xx_HAL_Driver/Src/stm32f4xx_hal_dma.cpp ****     hdma->Instance->M0AR = DstAddress;
  67              		.loc 1 1175 5 is_stmt 1 view .LVU15
  68              		.loc 1 1175 11 is_stmt 0 view .LVU16
  69 001a 0368     		ldr	r3, [r0]
  70              		.loc 1 1175 26 view .LVU17
  71 001c DA60     		str	r2, [r3, #12]
  72              	.L1:
1176:Drivers/STM32F4xx_HAL_Driver/Src/stm32f4xx_hal_dma.cpp ****   }
1177:Drivers/STM32F4xx_HAL_Driver/Src/stm32f4xx_hal_dma.cpp **** }
  73              		.loc 1 1177 1 view .LVU18
  74 001e 30BC     		pop	{r4, r5}
  75              	.LCFI1:
  76              		.cfi_remember_state
  77              		.cfi_restore 5
  78              		.cfi_restore 4
ARM GAS  C:\Users\huawei\AppData\Local\Temp\ccXalwLh.s 			page 23


  79              		.cfi_def_cfa_offset 0
  80 0020 7047     		bx	lr
  81              	.LVL3:
  82              	.L5:
  83              	.LCFI2:
  84              		.cfi_restore_state
1163:Drivers/STM32F4xx_HAL_Driver/Src/stm32f4xx_hal_dma.cpp **** 
  85              		.loc 1 1163 5 is_stmt 1 view .LVU19
1163:Drivers/STM32F4xx_HAL_Driver/Src/stm32f4xx_hal_dma.cpp **** 
  86              		.loc 1 1163 11 is_stmt 0 view .LVU20
  87 0022 0368     		ldr	r3, [r0]
1163:Drivers/STM32F4xx_HAL_Driver/Src/stm32f4xx_hal_dma.cpp **** 
  88              		.loc 1 1163 25 view .LVU21
  89 0024 9A60     		str	r2, [r3, #8]
  90              	.LVL4:
1166:Drivers/STM32F4xx_HAL_Driver/Src/stm32f4xx_hal_dma.cpp ****   }
  91              		.loc 1 1166 5 is_stmt 1 view .LVU22
1166:Drivers/STM32F4xx_HAL_Driver/Src/stm32f4xx_hal_dma.cpp ****   }
  92              		.loc 1 1166 11 is_stmt 0 view .LVU23
  93 0026 0368     		ldr	r3, [r0]
1166:Drivers/STM32F4xx_HAL_Driver/Src/stm32f4xx_hal_dma.cpp ****   }
  94              		.loc 1 1166 26 view .LVU24
  95 0028 D960     		str	r1, [r3, #12]
  96 002a F8E7     		b	.L1
  97              		.cfi_endproc
  98              	.LFE247:
  99              		.cantunwind
 100              		.fnend
 102              		.section	.text._ZL23DMA_CalcBaseAndBitshiftP19__DMA_HandleTypeDef,"ax",%progbits
 103              		.align	1
 104              		.syntax unified
 105              		.thumb
 106              		.thumb_func
 108              	_ZL23DMA_CalcBaseAndBitshiftP19__DMA_HandleTypeDef:
 109              		.fnstart
 110              	.LVL5:
 111              	.LFB248:
1178:Drivers/STM32F4xx_HAL_Driver/Src/stm32f4xx_hal_dma.cpp **** 
1179:Drivers/STM32F4xx_HAL_Driver/Src/stm32f4xx_hal_dma.cpp **** /**
1180:Drivers/STM32F4xx_HAL_Driver/Src/stm32f4xx_hal_dma.cpp ****   * @brief  Returns the DMA Stream base address depending on stream number
1181:Drivers/STM32F4xx_HAL_Driver/Src/stm32f4xx_hal_dma.cpp ****   * @param  hdma       pointer to a DMA_HandleTypeDef structure that contains
1182:Drivers/STM32F4xx_HAL_Driver/Src/stm32f4xx_hal_dma.cpp ****   *                     the configuration information for the specified DMA Stream. 
1183:Drivers/STM32F4xx_HAL_Driver/Src/stm32f4xx_hal_dma.cpp ****   * @retval Stream base address
1184:Drivers/STM32F4xx_HAL_Driver/Src/stm32f4xx_hal_dma.cpp ****   */
1185:Drivers/STM32F4xx_HAL_Driver/Src/stm32f4xx_hal_dma.cpp **** static uint32_t DMA_CalcBaseAndBitshift(DMA_HandleTypeDef *hdma)
1186:Drivers/STM32F4xx_HAL_Driver/Src/stm32f4xx_hal_dma.cpp **** {
 112              		.loc 1 1186 1 is_stmt 1 view -0
 113              		.cfi_startproc
 114              		@ args = 0, pretend = 0, frame = 0
 115              		@ frame_needed = 0, uses_anonymous_args = 0
 116              		@ link register save eliminated.
 117              		.loc 1 1186 1 is_stmt 0 view .LVU26
 118 0000 10B4     		push	{r4}
 119              	.LCFI3:
 120              		.cfi_def_cfa_offset 4
 121              		.cfi_offset 4, -4
1187:Drivers/STM32F4xx_HAL_Driver/Src/stm32f4xx_hal_dma.cpp ****   uint32_t stream_number = (((uint32_t)hdma->Instance & 0xFFU) - 16U) / 24U;
ARM GAS  C:\Users\huawei\AppData\Local\Temp\ccXalwLh.s 			page 24


 122              		.loc 1 1187 3 is_stmt 1 view .LVU27
 123              		.loc 1 1187 46 is_stmt 0 view .LVU28
 124 0002 0368     		ldr	r3, [r0]
 125              		.loc 1 1187 55 view .LVU29
 126 0004 D9B2     		uxtb	r1, r3
 127              		.loc 1 1187 64 view .LVU30
 128 0006 1039     		subs	r1, r1, #16
 129              		.loc 1 1187 12 view .LVU31
 130 0008 0C4A     		ldr	r2, .L10
 131 000a A2FB0142 		umull	r4, r2, r2, r1
 132 000e 1209     		lsrs	r2, r2, #4
 133              	.LVL6:
1188:Drivers/STM32F4xx_HAL_Driver/Src/stm32f4xx_hal_dma.cpp ****   
1189:Drivers/STM32F4xx_HAL_Driver/Src/stm32f4xx_hal_dma.cpp ****   /* lookup table for necessary bitshift of flags within status registers */
1190:Drivers/STM32F4xx_HAL_Driver/Src/stm32f4xx_hal_dma.cpp ****   static const uint8_t flagBitshiftOffset[8U] = {0U, 6U, 16U, 22U, 0U, 6U, 16U, 22U};
 134              		.loc 1 1190 3 is_stmt 1 view .LVU32
1191:Drivers/STM32F4xx_HAL_Driver/Src/stm32f4xx_hal_dma.cpp ****   hdma->StreamIndex = flagBitshiftOffset[stream_number];
 135              		.loc 1 1191 3 view .LVU33
 136              		.loc 1 1191 55 is_stmt 0 view .LVU34
 137 0010 0B4C     		ldr	r4, .L10+4
 138 0012 A25C     		ldrb	r2, [r4, r2]	@ zero_extendqisi2
 139              	.LVL7:
 140              		.loc 1 1191 21 view .LVU35
 141 0014 C265     		str	r2, [r0, #92]
1192:Drivers/STM32F4xx_HAL_Driver/Src/stm32f4xx_hal_dma.cpp ****   
1193:Drivers/STM32F4xx_HAL_Driver/Src/stm32f4xx_hal_dma.cpp ****   if (stream_number > 3U)
 142              		.loc 1 1193 3 is_stmt 1 view .LVU36
 143 0016 5F29     		cmp	r1, #95
 144 0018 09D9     		bls	.L7
1194:Drivers/STM32F4xx_HAL_Driver/Src/stm32f4xx_hal_dma.cpp ****   {
1195:Drivers/STM32F4xx_HAL_Driver/Src/stm32f4xx_hal_dma.cpp ****     /* return pointer to HISR and HIFCR */
1196:Drivers/STM32F4xx_HAL_Driver/Src/stm32f4xx_hal_dma.cpp ****     hdma->StreamBaseAddress = (((uint32_t)hdma->Instance & (uint32_t)(~0x3FFU)) + 4U);
 145              		.loc 1 1196 5 view .LVU37
 146              		.loc 1 1196 58 is_stmt 0 view .LVU38
 147 001a 23F47F73 		bic	r3, r3, #1020
 148 001e 23F00303 		bic	r3, r3, #3
 149              		.loc 1 1196 81 view .LVU39
 150 0022 0433     		adds	r3, r3, #4
 151              		.loc 1 1196 29 view .LVU40
 152 0024 8365     		str	r3, [r0, #88]
 153              	.L8:
1197:Drivers/STM32F4xx_HAL_Driver/Src/stm32f4xx_hal_dma.cpp ****   }
1198:Drivers/STM32F4xx_HAL_Driver/Src/stm32f4xx_hal_dma.cpp ****   else
1199:Drivers/STM32F4xx_HAL_Driver/Src/stm32f4xx_hal_dma.cpp ****   {
1200:Drivers/STM32F4xx_HAL_Driver/Src/stm32f4xx_hal_dma.cpp ****     /* return pointer to LISR and LIFCR */
1201:Drivers/STM32F4xx_HAL_Driver/Src/stm32f4xx_hal_dma.cpp ****     hdma->StreamBaseAddress = ((uint32_t)hdma->Instance & (uint32_t)(~0x3FFU));
1202:Drivers/STM32F4xx_HAL_Driver/Src/stm32f4xx_hal_dma.cpp ****   }
1203:Drivers/STM32F4xx_HAL_Driver/Src/stm32f4xx_hal_dma.cpp ****   
1204:Drivers/STM32F4xx_HAL_Driver/Src/stm32f4xx_hal_dma.cpp ****   return hdma->StreamBaseAddress;
 154              		.loc 1 1204 3 is_stmt 1 view .LVU41
1205:Drivers/STM32F4xx_HAL_Driver/Src/stm32f4xx_hal_dma.cpp **** }
 155              		.loc 1 1205 1 is_stmt 0 view .LVU42
 156 0026 806D     		ldr	r0, [r0, #88]
 157              	.LVL8:
 158              		.loc 1 1205 1 view .LVU43
 159 0028 5DF8044B 		ldr	r4, [sp], #4
 160              	.LCFI4:
ARM GAS  C:\Users\huawei\AppData\Local\Temp\ccXalwLh.s 			page 25


 161              		.cfi_remember_state
 162              		.cfi_restore 4
 163              		.cfi_def_cfa_offset 0
 164 002c 7047     		bx	lr
 165              	.LVL9:
 166              	.L7:
 167              	.LCFI5:
 168              		.cfi_restore_state
1201:Drivers/STM32F4xx_HAL_Driver/Src/stm32f4xx_hal_dma.cpp ****   }
 169              		.loc 1 1201 5 is_stmt 1 view .LVU44
1201:Drivers/STM32F4xx_HAL_Driver/Src/stm32f4xx_hal_dma.cpp ****   }
 170              		.loc 1 1201 57 is_stmt 0 view .LVU45
 171 002e 23F47F73 		bic	r3, r3, #1020
 172 0032 23F00303 		bic	r3, r3, #3
1201:Drivers/STM32F4xx_HAL_Driver/Src/stm32f4xx_hal_dma.cpp ****   }
 173              		.loc 1 1201 29 view .LVU46
 174 0036 8365     		str	r3, [r0, #88]
 175 0038 F5E7     		b	.L8
 176              	.L11:
 177 003a 00BF     		.align	2
 178              	.L10:
 179 003c ABAAAAAA 		.word	-1431655765
 180 0040 00000000 		.word	_ZZL23DMA_CalcBaseAndBitshiftP19__DMA_HandleTypeDefE18flagBitshiftOffset
 181              		.cfi_endproc
 182              	.LFE248:
 183              		.cantunwind
 184              		.fnend
 186              		.section	.text._ZL18DMA_CheckFifoParamP19__DMA_HandleTypeDef,"ax",%progbits
 187              		.align	1
 188              		.syntax unified
 189              		.thumb
 190              		.thumb_func
 192              	_ZL18DMA_CheckFifoParamP19__DMA_HandleTypeDef:
 193              		.fnstart
 194              	.LVL10:
 195              	.LFB249:
1206:Drivers/STM32F4xx_HAL_Driver/Src/stm32f4xx_hal_dma.cpp **** 
1207:Drivers/STM32F4xx_HAL_Driver/Src/stm32f4xx_hal_dma.cpp **** /**
1208:Drivers/STM32F4xx_HAL_Driver/Src/stm32f4xx_hal_dma.cpp ****   * @brief  Check compatibility between FIFO threshold level and size of the memory burst
1209:Drivers/STM32F4xx_HAL_Driver/Src/stm32f4xx_hal_dma.cpp ****   * @param  hdma       pointer to a DMA_HandleTypeDef structure that contains
1210:Drivers/STM32F4xx_HAL_Driver/Src/stm32f4xx_hal_dma.cpp ****   *                     the configuration information for the specified DMA Stream. 
1211:Drivers/STM32F4xx_HAL_Driver/Src/stm32f4xx_hal_dma.cpp ****   * @retval HAL status
1212:Drivers/STM32F4xx_HAL_Driver/Src/stm32f4xx_hal_dma.cpp ****   */
1213:Drivers/STM32F4xx_HAL_Driver/Src/stm32f4xx_hal_dma.cpp **** static HAL_StatusTypeDef DMA_CheckFifoParam(DMA_HandleTypeDef *hdma)
1214:Drivers/STM32F4xx_HAL_Driver/Src/stm32f4xx_hal_dma.cpp **** {
 196              		.loc 1 1214 1 is_stmt 1 view -0
 197              		.cfi_startproc
 198              		@ args = 0, pretend = 0, frame = 0
 199              		@ frame_needed = 0, uses_anonymous_args = 0
 200              		@ link register save eliminated.
1215:Drivers/STM32F4xx_HAL_Driver/Src/stm32f4xx_hal_dma.cpp ****   HAL_StatusTypeDef status = HAL_OK;
 201              		.loc 1 1215 3 view .LVU48
1216:Drivers/STM32F4xx_HAL_Driver/Src/stm32f4xx_hal_dma.cpp ****   uint32_t tmp = hdma->Init.FIFOThreshold;
 202              		.loc 1 1216 3 view .LVU49
 203              		.loc 1 1216 12 is_stmt 0 view .LVU50
 204 0000 836A     		ldr	r3, [r0, #40]
 205              	.LVL11:
ARM GAS  C:\Users\huawei\AppData\Local\Temp\ccXalwLh.s 			page 26


1217:Drivers/STM32F4xx_HAL_Driver/Src/stm32f4xx_hal_dma.cpp ****   
1218:Drivers/STM32F4xx_HAL_Driver/Src/stm32f4xx_hal_dma.cpp ****   /* Memory Data size equal to Byte */
1219:Drivers/STM32F4xx_HAL_Driver/Src/stm32f4xx_hal_dma.cpp ****   if(hdma->Init.MemDataAlignment == DMA_MDATAALIGN_BYTE)
 206              		.loc 1 1219 3 is_stmt 1 view .LVU51
 207              		.loc 1 1219 17 is_stmt 0 view .LVU52
 208 0002 8269     		ldr	r2, [r0, #24]
 209              		.loc 1 1219 3 view .LVU53
 210 0004 92B9     		cbnz	r2, .L13
1220:Drivers/STM32F4xx_HAL_Driver/Src/stm32f4xx_hal_dma.cpp ****   {
1221:Drivers/STM32F4xx_HAL_Driver/Src/stm32f4xx_hal_dma.cpp ****     switch (tmp)
 211              		.loc 1 1221 5 is_stmt 1 view .LVU54
 212 0006 012B     		cmp	r3, #1
 213 0008 0AD0     		beq	.L14
 214 000a 022B     		cmp	r3, #2
 215 000c 02D0     		beq	.L15
 216 000e 0BB1     		cbz	r3, .L15
 217 0010 0020     		movs	r0, #0
 218              	.LVL12:
 219              		.loc 1 1221 5 is_stmt 0 view .LVU55
 220 0012 7047     		bx	lr
 221              	.LVL13:
 222              	.L15:
1222:Drivers/STM32F4xx_HAL_Driver/Src/stm32f4xx_hal_dma.cpp ****     {
1223:Drivers/STM32F4xx_HAL_Driver/Src/stm32f4xx_hal_dma.cpp ****     case DMA_FIFO_THRESHOLD_1QUARTERFULL:
 223              		.loc 1 1223 5 is_stmt 1 view .LVU56
1224:Drivers/STM32F4xx_HAL_Driver/Src/stm32f4xx_hal_dma.cpp ****     case DMA_FIFO_THRESHOLD_3QUARTERSFULL:
 224              		.loc 1 1224 5 view .LVU57
1225:Drivers/STM32F4xx_HAL_Driver/Src/stm32f4xx_hal_dma.cpp ****       if ((hdma->Init.MemBurst & DMA_SxCR_MBURST_1) == DMA_SxCR_MBURST_1)
 225              		.loc 1 1225 7 view .LVU58
 226              		.loc 1 1225 23 is_stmt 0 view .LVU59
 227 0014 C36A     		ldr	r3, [r0, #44]
 228              	.LVL14:
 229              		.loc 1 1225 7 view .LVU60
 230 0016 13F0807F 		tst	r3, #16777216
 231 001a 28D1     		bne	.L23
1215:Drivers/STM32F4xx_HAL_Driver/Src/stm32f4xx_hal_dma.cpp ****   uint32_t tmp = hdma->Init.FIFOThreshold;
 232              		.loc 1 1215 21 view .LVU61
 233 001c 0020     		movs	r0, #0
 234              	.LVL15:
1215:Drivers/STM32F4xx_HAL_Driver/Src/stm32f4xx_hal_dma.cpp ****   uint32_t tmp = hdma->Init.FIFOThreshold;
 235              		.loc 1 1215 21 view .LVU62
 236 001e 7047     		bx	lr
 237              	.LVL16:
 238              	.L14:
1226:Drivers/STM32F4xx_HAL_Driver/Src/stm32f4xx_hal_dma.cpp ****       {
1227:Drivers/STM32F4xx_HAL_Driver/Src/stm32f4xx_hal_dma.cpp ****         status = HAL_ERROR;
1228:Drivers/STM32F4xx_HAL_Driver/Src/stm32f4xx_hal_dma.cpp ****       }
1229:Drivers/STM32F4xx_HAL_Driver/Src/stm32f4xx_hal_dma.cpp ****       break;
1230:Drivers/STM32F4xx_HAL_Driver/Src/stm32f4xx_hal_dma.cpp ****     case DMA_FIFO_THRESHOLD_HALFFULL:
 239              		.loc 1 1230 5 is_stmt 1 view .LVU63
1231:Drivers/STM32F4xx_HAL_Driver/Src/stm32f4xx_hal_dma.cpp ****       if (hdma->Init.MemBurst == DMA_MBURST_INC16)
 240              		.loc 1 1231 7 view .LVU64
 241              		.loc 1 1231 22 is_stmt 0 view .LVU65
 242 0020 C36A     		ldr	r3, [r0, #44]
 243              	.LVL17:
 244              		.loc 1 1231 7 view .LVU66
 245 0022 B3F1C07F 		cmp	r3, #25165824
ARM GAS  C:\Users\huawei\AppData\Local\Temp\ccXalwLh.s 			page 27


 246 0026 24D0     		beq	.L24
1215:Drivers/STM32F4xx_HAL_Driver/Src/stm32f4xx_hal_dma.cpp ****   uint32_t tmp = hdma->Init.FIFOThreshold;
 247              		.loc 1 1215 21 view .LVU67
 248 0028 0020     		movs	r0, #0
 249              	.LVL18:
1215:Drivers/STM32F4xx_HAL_Driver/Src/stm32f4xx_hal_dma.cpp ****   uint32_t tmp = hdma->Init.FIFOThreshold;
 250              		.loc 1 1215 21 view .LVU68
 251 002a 7047     		bx	lr
 252              	.LVL19:
 253              	.L13:
1232:Drivers/STM32F4xx_HAL_Driver/Src/stm32f4xx_hal_dma.cpp ****       {
1233:Drivers/STM32F4xx_HAL_Driver/Src/stm32f4xx_hal_dma.cpp ****         status = HAL_ERROR;
1234:Drivers/STM32F4xx_HAL_Driver/Src/stm32f4xx_hal_dma.cpp ****       }
1235:Drivers/STM32F4xx_HAL_Driver/Src/stm32f4xx_hal_dma.cpp ****       break;
1236:Drivers/STM32F4xx_HAL_Driver/Src/stm32f4xx_hal_dma.cpp ****     case DMA_FIFO_THRESHOLD_FULL:
1237:Drivers/STM32F4xx_HAL_Driver/Src/stm32f4xx_hal_dma.cpp ****       break;
1238:Drivers/STM32F4xx_HAL_Driver/Src/stm32f4xx_hal_dma.cpp ****     default:
1239:Drivers/STM32F4xx_HAL_Driver/Src/stm32f4xx_hal_dma.cpp ****       break;
1240:Drivers/STM32F4xx_HAL_Driver/Src/stm32f4xx_hal_dma.cpp ****     }
1241:Drivers/STM32F4xx_HAL_Driver/Src/stm32f4xx_hal_dma.cpp ****   }
1242:Drivers/STM32F4xx_HAL_Driver/Src/stm32f4xx_hal_dma.cpp ****   
1243:Drivers/STM32F4xx_HAL_Driver/Src/stm32f4xx_hal_dma.cpp ****   /* Memory Data size equal to Half-Word */
1244:Drivers/STM32F4xx_HAL_Driver/Src/stm32f4xx_hal_dma.cpp ****   else if (hdma->Init.MemDataAlignment == DMA_MDATAALIGN_HALFWORD)
 254              		.loc 1 1244 8 is_stmt 1 view .LVU69
 255 002c B2F5005F 		cmp	r2, #8192
 256 0030 09D0     		beq	.L31
1245:Drivers/STM32F4xx_HAL_Driver/Src/stm32f4xx_hal_dma.cpp ****   {
1246:Drivers/STM32F4xx_HAL_Driver/Src/stm32f4xx_hal_dma.cpp ****     switch (tmp)
1247:Drivers/STM32F4xx_HAL_Driver/Src/stm32f4xx_hal_dma.cpp ****     {
1248:Drivers/STM32F4xx_HAL_Driver/Src/stm32f4xx_hal_dma.cpp ****     case DMA_FIFO_THRESHOLD_1QUARTERFULL:
1249:Drivers/STM32F4xx_HAL_Driver/Src/stm32f4xx_hal_dma.cpp ****     case DMA_FIFO_THRESHOLD_3QUARTERSFULL:
1250:Drivers/STM32F4xx_HAL_Driver/Src/stm32f4xx_hal_dma.cpp ****       status = HAL_ERROR;
1251:Drivers/STM32F4xx_HAL_Driver/Src/stm32f4xx_hal_dma.cpp ****       break;
1252:Drivers/STM32F4xx_HAL_Driver/Src/stm32f4xx_hal_dma.cpp ****     case DMA_FIFO_THRESHOLD_HALFFULL:
1253:Drivers/STM32F4xx_HAL_Driver/Src/stm32f4xx_hal_dma.cpp ****       if ((hdma->Init.MemBurst & DMA_SxCR_MBURST_1) == DMA_SxCR_MBURST_1)
1254:Drivers/STM32F4xx_HAL_Driver/Src/stm32f4xx_hal_dma.cpp ****       {
1255:Drivers/STM32F4xx_HAL_Driver/Src/stm32f4xx_hal_dma.cpp ****         status = HAL_ERROR;
1256:Drivers/STM32F4xx_HAL_Driver/Src/stm32f4xx_hal_dma.cpp ****       }
1257:Drivers/STM32F4xx_HAL_Driver/Src/stm32f4xx_hal_dma.cpp ****       break;
1258:Drivers/STM32F4xx_HAL_Driver/Src/stm32f4xx_hal_dma.cpp ****     case DMA_FIFO_THRESHOLD_FULL:
1259:Drivers/STM32F4xx_HAL_Driver/Src/stm32f4xx_hal_dma.cpp ****       if (hdma->Init.MemBurst == DMA_MBURST_INC16)
1260:Drivers/STM32F4xx_HAL_Driver/Src/stm32f4xx_hal_dma.cpp ****       {
1261:Drivers/STM32F4xx_HAL_Driver/Src/stm32f4xx_hal_dma.cpp ****         status = HAL_ERROR;
1262:Drivers/STM32F4xx_HAL_Driver/Src/stm32f4xx_hal_dma.cpp ****       }
1263:Drivers/STM32F4xx_HAL_Driver/Src/stm32f4xx_hal_dma.cpp ****       break;   
1264:Drivers/STM32F4xx_HAL_Driver/Src/stm32f4xx_hal_dma.cpp ****     default:
1265:Drivers/STM32F4xx_HAL_Driver/Src/stm32f4xx_hal_dma.cpp ****       break;
1266:Drivers/STM32F4xx_HAL_Driver/Src/stm32f4xx_hal_dma.cpp ****     }
1267:Drivers/STM32F4xx_HAL_Driver/Src/stm32f4xx_hal_dma.cpp ****   }
1268:Drivers/STM32F4xx_HAL_Driver/Src/stm32f4xx_hal_dma.cpp ****   
1269:Drivers/STM32F4xx_HAL_Driver/Src/stm32f4xx_hal_dma.cpp ****   /* Memory Data size equal to Word */
1270:Drivers/STM32F4xx_HAL_Driver/Src/stm32f4xx_hal_dma.cpp ****   else
1271:Drivers/STM32F4xx_HAL_Driver/Src/stm32f4xx_hal_dma.cpp ****   {
1272:Drivers/STM32F4xx_HAL_Driver/Src/stm32f4xx_hal_dma.cpp ****     switch (tmp)
 257              		.loc 1 1272 5 view .LVU70
 258 0032 022B     		cmp	r3, #2
 259 0034 25D9     		bls	.L28
ARM GAS  C:\Users\huawei\AppData\Local\Temp\ccXalwLh.s 			page 28


 260 0036 032B     		cmp	r3, #3
 261 0038 25D1     		bne	.L29
1273:Drivers/STM32F4xx_HAL_Driver/Src/stm32f4xx_hal_dma.cpp ****     {
1274:Drivers/STM32F4xx_HAL_Driver/Src/stm32f4xx_hal_dma.cpp ****     case DMA_FIFO_THRESHOLD_1QUARTERFULL:
1275:Drivers/STM32F4xx_HAL_Driver/Src/stm32f4xx_hal_dma.cpp ****     case DMA_FIFO_THRESHOLD_HALFFULL:
1276:Drivers/STM32F4xx_HAL_Driver/Src/stm32f4xx_hal_dma.cpp ****     case DMA_FIFO_THRESHOLD_3QUARTERSFULL:
1277:Drivers/STM32F4xx_HAL_Driver/Src/stm32f4xx_hal_dma.cpp ****       status = HAL_ERROR;
1278:Drivers/STM32F4xx_HAL_Driver/Src/stm32f4xx_hal_dma.cpp ****       break;
1279:Drivers/STM32F4xx_HAL_Driver/Src/stm32f4xx_hal_dma.cpp ****     case DMA_FIFO_THRESHOLD_FULL:
 262              		.loc 1 1279 5 view .LVU71
1280:Drivers/STM32F4xx_HAL_Driver/Src/stm32f4xx_hal_dma.cpp ****       if ((hdma->Init.MemBurst & DMA_SxCR_MBURST_1) == DMA_SxCR_MBURST_1)
 263              		.loc 1 1280 7 view .LVU72
 264              		.loc 1 1280 23 is_stmt 0 view .LVU73
 265 003a C36A     		ldr	r3, [r0, #44]
 266              	.LVL20:
 267              		.loc 1 1280 7 view .LVU74
 268 003c 13F0807F 		tst	r3, #16777216
 269 0040 23D1     		bne	.L30
1215:Drivers/STM32F4xx_HAL_Driver/Src/stm32f4xx_hal_dma.cpp ****   uint32_t tmp = hdma->Init.FIFOThreshold;
 270              		.loc 1 1215 21 view .LVU75
 271 0042 0020     		movs	r0, #0
 272              	.LVL21:
1215:Drivers/STM32F4xx_HAL_Driver/Src/stm32f4xx_hal_dma.cpp ****   uint32_t tmp = hdma->Init.FIFOThreshold;
 273              		.loc 1 1215 21 view .LVU76
 274 0044 7047     		bx	lr
 275              	.LVL22:
 276              	.L31:
1246:Drivers/STM32F4xx_HAL_Driver/Src/stm32f4xx_hal_dma.cpp ****     {
 277              		.loc 1 1246 5 is_stmt 1 view .LVU77
 278 0046 032B     		cmp	r3, #3
 279 0048 03D8     		bhi	.L18
 280 004a DFE803F0 		tbb	[pc, r3]
 281              	.L20:
 282 004e 14       		.byte	(.L25-.L20)/2
 283 004f 04       		.byte	(.L21-.L20)/2
 284 0050 14       		.byte	(.L25-.L20)/2
 285 0051 0A       		.byte	(.L19-.L20)/2
 286              		.p2align 1
 287              	.L18:
 288 0052 0020     		movs	r0, #0
 289              	.LVL23:
1246:Drivers/STM32F4xx_HAL_Driver/Src/stm32f4xx_hal_dma.cpp ****     {
 290              		.loc 1 1246 5 is_stmt 0 view .LVU78
 291 0054 7047     		bx	lr
 292              	.LVL24:
 293              	.L21:
1252:Drivers/STM32F4xx_HAL_Driver/Src/stm32f4xx_hal_dma.cpp ****       if ((hdma->Init.MemBurst & DMA_SxCR_MBURST_1) == DMA_SxCR_MBURST_1)
 294              		.loc 1 1252 5 is_stmt 1 view .LVU79
1253:Drivers/STM32F4xx_HAL_Driver/Src/stm32f4xx_hal_dma.cpp ****       {
 295              		.loc 1 1253 7 view .LVU80
1253:Drivers/STM32F4xx_HAL_Driver/Src/stm32f4xx_hal_dma.cpp ****       {
 296              		.loc 1 1253 23 is_stmt 0 view .LVU81
 297 0056 C36A     		ldr	r3, [r0, #44]
 298              	.LVL25:
1253:Drivers/STM32F4xx_HAL_Driver/Src/stm32f4xx_hal_dma.cpp ****       {
 299              		.loc 1 1253 7 view .LVU82
 300 0058 13F0807F 		tst	r3, #16777216
ARM GAS  C:\Users\huawei\AppData\Local\Temp\ccXalwLh.s 			page 29


 301 005c 0DD1     		bne	.L26
1215:Drivers/STM32F4xx_HAL_Driver/Src/stm32f4xx_hal_dma.cpp ****   uint32_t tmp = hdma->Init.FIFOThreshold;
 302              		.loc 1 1215 21 view .LVU83
 303 005e 0020     		movs	r0, #0
 304              	.LVL26:
1215:Drivers/STM32F4xx_HAL_Driver/Src/stm32f4xx_hal_dma.cpp ****   uint32_t tmp = hdma->Init.FIFOThreshold;
 305              		.loc 1 1215 21 view .LVU84
 306 0060 7047     		bx	lr
 307              	.LVL27:
 308              	.L19:
1258:Drivers/STM32F4xx_HAL_Driver/Src/stm32f4xx_hal_dma.cpp ****       if (hdma->Init.MemBurst == DMA_MBURST_INC16)
 309              		.loc 1 1258 5 is_stmt 1 view .LVU85
1259:Drivers/STM32F4xx_HAL_Driver/Src/stm32f4xx_hal_dma.cpp ****       {
 310              		.loc 1 1259 7 view .LVU86
1259:Drivers/STM32F4xx_HAL_Driver/Src/stm32f4xx_hal_dma.cpp ****       {
 311              		.loc 1 1259 22 is_stmt 0 view .LVU87
 312 0062 C36A     		ldr	r3, [r0, #44]
 313              	.LVL28:
1259:Drivers/STM32F4xx_HAL_Driver/Src/stm32f4xx_hal_dma.cpp ****       {
 314              		.loc 1 1259 7 view .LVU88
 315 0064 B3F1C07F 		cmp	r3, #25165824
 316 0068 09D0     		beq	.L27
1215:Drivers/STM32F4xx_HAL_Driver/Src/stm32f4xx_hal_dma.cpp ****   uint32_t tmp = hdma->Init.FIFOThreshold;
 317              		.loc 1 1215 21 view .LVU89
 318 006a 0020     		movs	r0, #0
 319              	.LVL29:
1215:Drivers/STM32F4xx_HAL_Driver/Src/stm32f4xx_hal_dma.cpp ****   uint32_t tmp = hdma->Init.FIFOThreshold;
 320              		.loc 1 1215 21 view .LVU90
 321 006c 7047     		bx	lr
 322              	.LVL30:
 323              	.L23:
1227:Drivers/STM32F4xx_HAL_Driver/Src/stm32f4xx_hal_dma.cpp ****       }
 324              		.loc 1 1227 16 view .LVU91
 325 006e 0120     		movs	r0, #1
 326              	.LVL31:
1227:Drivers/STM32F4xx_HAL_Driver/Src/stm32f4xx_hal_dma.cpp ****       }
 327              		.loc 1 1227 16 view .LVU92
 328 0070 7047     		bx	lr
 329              	.LVL32:
 330              	.L24:
1233:Drivers/STM32F4xx_HAL_Driver/Src/stm32f4xx_hal_dma.cpp ****       }
 331              		.loc 1 1233 16 view .LVU93
 332 0072 0120     		movs	r0, #1
 333              	.LVL33:
1233:Drivers/STM32F4xx_HAL_Driver/Src/stm32f4xx_hal_dma.cpp ****       }
 334              		.loc 1 1233 16 view .LVU94
 335 0074 7047     		bx	lr
 336              	.LVL34:
 337              	.L25:
1250:Drivers/STM32F4xx_HAL_Driver/Src/stm32f4xx_hal_dma.cpp ****       break;
 338              		.loc 1 1250 14 view .LVU95
 339 0076 0120     		movs	r0, #1
 340              	.LVL35:
1250:Drivers/STM32F4xx_HAL_Driver/Src/stm32f4xx_hal_dma.cpp ****       break;
 341              		.loc 1 1250 14 view .LVU96
 342 0078 7047     		bx	lr
 343              	.LVL36:
ARM GAS  C:\Users\huawei\AppData\Local\Temp\ccXalwLh.s 			page 30


 344              	.L26:
1255:Drivers/STM32F4xx_HAL_Driver/Src/stm32f4xx_hal_dma.cpp ****       }
 345              		.loc 1 1255 16 view .LVU97
 346 007a 0120     		movs	r0, #1
 347              	.LVL37:
1255:Drivers/STM32F4xx_HAL_Driver/Src/stm32f4xx_hal_dma.cpp ****       }
 348              		.loc 1 1255 16 view .LVU98
 349 007c 7047     		bx	lr
 350              	.LVL38:
 351              	.L27:
1261:Drivers/STM32F4xx_HAL_Driver/Src/stm32f4xx_hal_dma.cpp ****       }
 352              		.loc 1 1261 16 view .LVU99
 353 007e 0120     		movs	r0, #1
 354              	.LVL39:
1261:Drivers/STM32F4xx_HAL_Driver/Src/stm32f4xx_hal_dma.cpp ****       }
 355              		.loc 1 1261 16 view .LVU100
 356 0080 7047     		bx	lr
 357              	.LVL40:
 358              	.L28:
1277:Drivers/STM32F4xx_HAL_Driver/Src/stm32f4xx_hal_dma.cpp ****       break;
 359              		.loc 1 1277 14 view .LVU101
 360 0082 0120     		movs	r0, #1
 361              	.LVL41:
1277:Drivers/STM32F4xx_HAL_Driver/Src/stm32f4xx_hal_dma.cpp ****       break;
 362              		.loc 1 1277 14 view .LVU102
 363 0084 7047     		bx	lr
 364              	.LVL42:
 365              	.L29:
1272:Drivers/STM32F4xx_HAL_Driver/Src/stm32f4xx_hal_dma.cpp ****     {
 366              		.loc 1 1272 5 view .LVU103
 367 0086 0020     		movs	r0, #0
 368              	.LVL43:
1272:Drivers/STM32F4xx_HAL_Driver/Src/stm32f4xx_hal_dma.cpp ****     {
 369              		.loc 1 1272 5 view .LVU104
 370 0088 7047     		bx	lr
 371              	.LVL44:
 372              	.L30:
1281:Drivers/STM32F4xx_HAL_Driver/Src/stm32f4xx_hal_dma.cpp ****       {
1282:Drivers/STM32F4xx_HAL_Driver/Src/stm32f4xx_hal_dma.cpp ****         status = HAL_ERROR;
 373              		.loc 1 1282 16 view .LVU105
 374 008a 0120     		movs	r0, #1
 375              	.LVL45:
1283:Drivers/STM32F4xx_HAL_Driver/Src/stm32f4xx_hal_dma.cpp ****       }
1284:Drivers/STM32F4xx_HAL_Driver/Src/stm32f4xx_hal_dma.cpp ****       break;
1285:Drivers/STM32F4xx_HAL_Driver/Src/stm32f4xx_hal_dma.cpp ****     default:
1286:Drivers/STM32F4xx_HAL_Driver/Src/stm32f4xx_hal_dma.cpp ****       break;
1287:Drivers/STM32F4xx_HAL_Driver/Src/stm32f4xx_hal_dma.cpp ****     }
1288:Drivers/STM32F4xx_HAL_Driver/Src/stm32f4xx_hal_dma.cpp ****   } 
1289:Drivers/STM32F4xx_HAL_Driver/Src/stm32f4xx_hal_dma.cpp ****   
1290:Drivers/STM32F4xx_HAL_Driver/Src/stm32f4xx_hal_dma.cpp ****   return status; 
 376              		.loc 1 1290 3 is_stmt 1 view .LVU106
1291:Drivers/STM32F4xx_HAL_Driver/Src/stm32f4xx_hal_dma.cpp **** }
 377              		.loc 1 1291 1 is_stmt 0 view .LVU107
 378 008c 7047     		bx	lr
 379              		.cfi_endproc
 380              	.LFE249:
 381              		.cantunwind
ARM GAS  C:\Users\huawei\AppData\Local\Temp\ccXalwLh.s 			page 31


 382              		.fnend
 384              		.section	.text.HAL_DMA_Init,"ax",%progbits
 385              		.align	1
 386              		.global	HAL_DMA_Init
 387              		.syntax unified
 388              		.thumb
 389              		.thumb_func
 391              	HAL_DMA_Init:
 392              		.fnstart
 393              	.LVL46:
 394              	.LFB235:
 171:Drivers/STM32F4xx_HAL_Driver/Src/stm32f4xx_hal_dma.cpp ****   uint32_t tmp = 0U;
 395              		.loc 1 171 1 is_stmt 1 view -0
 396              		.cfi_startproc
 397              		@ args = 0, pretend = 0, frame = 0
 398              		@ frame_needed = 0, uses_anonymous_args = 0
 171:Drivers/STM32F4xx_HAL_Driver/Src/stm32f4xx_hal_dma.cpp ****   uint32_t tmp = 0U;
 399              		.loc 1 171 1 is_stmt 0 view .LVU109
 400 0000 70B5     		push	{r4, r5, r6, lr}
 401              		.save {r4, r5, r6, lr}
 402              	.LCFI6:
 403              		.cfi_def_cfa_offset 16
 404              		.cfi_offset 4, -16
 405              		.cfi_offset 5, -12
 406              		.cfi_offset 6, -8
 407              		.cfi_offset 14, -4
 408 0002 0446     		mov	r4, r0
 172:Drivers/STM32F4xx_HAL_Driver/Src/stm32f4xx_hal_dma.cpp ****   uint32_t tickstart = HAL_GetTick();
 409              		.loc 1 172 3 is_stmt 1 view .LVU110
 410              	.LVL47:
 173:Drivers/STM32F4xx_HAL_Driver/Src/stm32f4xx_hal_dma.cpp ****   DMA_Base_Registers *regs;
 411              		.loc 1 173 3 view .LVU111
 173:Drivers/STM32F4xx_HAL_Driver/Src/stm32f4xx_hal_dma.cpp ****   DMA_Base_Registers *regs;
 412              		.loc 1 173 35 is_stmt 0 view .LVU112
 413 0004 FFF7FEFF 		bl	HAL_GetTick
 414              	.LVL48:
 174:Drivers/STM32F4xx_HAL_Driver/Src/stm32f4xx_hal_dma.cpp **** 
 415              		.loc 1 174 3 is_stmt 1 view .LVU113
 177:Drivers/STM32F4xx_HAL_Driver/Src/stm32f4xx_hal_dma.cpp ****   {
 416              		.loc 1 177 3 view .LVU114
 417 0008 002C     		cmp	r4, #0
 418 000a 5BD0     		beq	.L38
 419 000c 0546     		mov	r5, r0
 183:Drivers/STM32F4xx_HAL_Driver/Src/stm32f4xx_hal_dma.cpp ****   assert_param(IS_DMA_CHANNEL(hdma->Init.Channel));
 420              		.loc 1 183 3 view .LVU115
 184:Drivers/STM32F4xx_HAL_Driver/Src/stm32f4xx_hal_dma.cpp ****   assert_param(IS_DMA_DIRECTION(hdma->Init.Direction));
 421              		.loc 1 184 3 view .LVU116
 185:Drivers/STM32F4xx_HAL_Driver/Src/stm32f4xx_hal_dma.cpp ****   assert_param(IS_DMA_PERIPHERAL_INC_STATE(hdma->Init.PeriphInc));
 422              		.loc 1 185 3 view .LVU117
 186:Drivers/STM32F4xx_HAL_Driver/Src/stm32f4xx_hal_dma.cpp ****   assert_param(IS_DMA_MEMORY_INC_STATE(hdma->Init.MemInc));
 423              		.loc 1 186 3 view .LVU118
 187:Drivers/STM32F4xx_HAL_Driver/Src/stm32f4xx_hal_dma.cpp ****   assert_param(IS_DMA_PERIPHERAL_DATA_SIZE(hdma->Init.PeriphDataAlignment));
 424              		.loc 1 187 3 view .LVU119
 188:Drivers/STM32F4xx_HAL_Driver/Src/stm32f4xx_hal_dma.cpp ****   assert_param(IS_DMA_MEMORY_DATA_SIZE(hdma->Init.MemDataAlignment));
 425              		.loc 1 188 3 view .LVU120
 189:Drivers/STM32F4xx_HAL_Driver/Src/stm32f4xx_hal_dma.cpp ****   assert_param(IS_DMA_MODE(hdma->Init.Mode));
 426              		.loc 1 189 3 view .LVU121
ARM GAS  C:\Users\huawei\AppData\Local\Temp\ccXalwLh.s 			page 32


 190:Drivers/STM32F4xx_HAL_Driver/Src/stm32f4xx_hal_dma.cpp ****   assert_param(IS_DMA_PRIORITY(hdma->Init.Priority));
 427              		.loc 1 190 3 view .LVU122
 191:Drivers/STM32F4xx_HAL_Driver/Src/stm32f4xx_hal_dma.cpp ****   assert_param(IS_DMA_FIFO_MODE_STATE(hdma->Init.FIFOMode));
 428              		.loc 1 191 3 view .LVU123
 192:Drivers/STM32F4xx_HAL_Driver/Src/stm32f4xx_hal_dma.cpp ****   /* Check the memory burst, peripheral burst and FIFO threshold parameters only
 429              		.loc 1 192 3 view .LVU124
 195:Drivers/STM32F4xx_HAL_Driver/Src/stm32f4xx_hal_dma.cpp ****   {
 430              		.loc 1 195 3 view .LVU125
 203:Drivers/STM32F4xx_HAL_Driver/Src/stm32f4xx_hal_dma.cpp **** 
 431              		.loc 1 203 3 view .LVU126
 203:Drivers/STM32F4xx_HAL_Driver/Src/stm32f4xx_hal_dma.cpp **** 
 432              		.loc 1 203 15 is_stmt 0 view .LVU127
 433 000e 0223     		movs	r3, #2
 434 0010 84F83530 		strb	r3, [r4, #53]
 206:Drivers/STM32F4xx_HAL_Driver/Src/stm32f4xx_hal_dma.cpp ****   
 435              		.loc 1 206 3 is_stmt 1 view .LVU128
 206:Drivers/STM32F4xx_HAL_Driver/Src/stm32f4xx_hal_dma.cpp ****   
 436              		.loc 1 206 3 view .LVU129
 437 0014 0023     		movs	r3, #0
 438 0016 84F83430 		strb	r3, [r4, #52]
 206:Drivers/STM32F4xx_HAL_Driver/Src/stm32f4xx_hal_dma.cpp ****   
 439              		.loc 1 206 3 view .LVU130
 209:Drivers/STM32F4xx_HAL_Driver/Src/stm32f4xx_hal_dma.cpp ****   
 440              		.loc 1 209 3 view .LVU131
 441 001a 2268     		ldr	r2, [r4]
 442 001c 1368     		ldr	r3, [r2]
 443 001e 23F00103 		bic	r3, r3, #1
 444 0022 1360     		str	r3, [r2]
 212:Drivers/STM32F4xx_HAL_Driver/Src/stm32f4xx_hal_dma.cpp ****   {
 445              		.loc 1 212 3 view .LVU132
 446              	.LVL49:
 447              	.L34:
 212:Drivers/STM32F4xx_HAL_Driver/Src/stm32f4xx_hal_dma.cpp ****   {
 448              		.loc 1 212 44 view .LVU133
 212:Drivers/STM32F4xx_HAL_Driver/Src/stm32f4xx_hal_dma.cpp ****   {
 449              		.loc 1 212 16 is_stmt 0 view .LVU134
 450 0024 2368     		ldr	r3, [r4]
 212:Drivers/STM32F4xx_HAL_Driver/Src/stm32f4xx_hal_dma.cpp ****   {
 451              		.loc 1 212 26 view .LVU135
 452 0026 1A68     		ldr	r2, [r3]
 212:Drivers/STM32F4xx_HAL_Driver/Src/stm32f4xx_hal_dma.cpp ****   {
 453              		.loc 1 212 44 view .LVU136
 454 0028 12F0010F 		tst	r2, #1
 455 002c 0AD0     		beq	.L40
 215:Drivers/STM32F4xx_HAL_Driver/Src/stm32f4xx_hal_dma.cpp ****     {
 456              		.loc 1 215 5 is_stmt 1 view .LVU137
 215:Drivers/STM32F4xx_HAL_Driver/Src/stm32f4xx_hal_dma.cpp ****     {
 457              		.loc 1 215 20 is_stmt 0 view .LVU138
 458 002e FFF7FEFF 		bl	HAL_GetTick
 459              	.LVL50:
 215:Drivers/STM32F4xx_HAL_Driver/Src/stm32f4xx_hal_dma.cpp ****     {
 460              		.loc 1 215 23 view .LVU139
 461 0032 431B     		subs	r3, r0, r5
 215:Drivers/STM32F4xx_HAL_Driver/Src/stm32f4xx_hal_dma.cpp ****     {
 462              		.loc 1 215 5 view .LVU140
 463 0034 052B     		cmp	r3, #5
 464 0036 F5D9     		bls	.L34
ARM GAS  C:\Users\huawei\AppData\Local\Temp\ccXalwLh.s 			page 33


 218:Drivers/STM32F4xx_HAL_Driver/Src/stm32f4xx_hal_dma.cpp ****       
 465              		.loc 1 218 7 is_stmt 1 view .LVU141
 218:Drivers/STM32F4xx_HAL_Driver/Src/stm32f4xx_hal_dma.cpp ****       
 466              		.loc 1 218 23 is_stmt 0 view .LVU142
 467 0038 2023     		movs	r3, #32
 468 003a 6365     		str	r3, [r4, #84]
 221:Drivers/STM32F4xx_HAL_Driver/Src/stm32f4xx_hal_dma.cpp ****       
 469              		.loc 1 221 7 is_stmt 1 view .LVU143
 221:Drivers/STM32F4xx_HAL_Driver/Src/stm32f4xx_hal_dma.cpp ****       
 470              		.loc 1 221 19 is_stmt 0 view .LVU144
 471 003c 0320     		movs	r0, #3
 472 003e 84F83500 		strb	r0, [r4, #53]
 223:Drivers/STM32F4xx_HAL_Driver/Src/stm32f4xx_hal_dma.cpp ****     }
 473              		.loc 1 223 7 is_stmt 1 view .LVU145
 474              	.LVL51:
 475              	.L33:
 301:Drivers/STM32F4xx_HAL_Driver/Src/stm32f4xx_hal_dma.cpp **** 
 476              		.loc 1 301 1 is_stmt 0 view .LVU146
 477 0042 70BD     		pop	{r4, r5, r6, pc}
 478              	.LVL52:
 479              	.L40:
 228:Drivers/STM32F4xx_HAL_Driver/Src/stm32f4xx_hal_dma.cpp **** 
 480              		.loc 1 228 3 is_stmt 1 view .LVU147
 228:Drivers/STM32F4xx_HAL_Driver/Src/stm32f4xx_hal_dma.cpp **** 
 481              		.loc 1 228 7 is_stmt 0 view .LVU148
 482 0044 1A68     		ldr	r2, [r3]
 483              	.LVL53:
 231:Drivers/STM32F4xx_HAL_Driver/Src/stm32f4xx_hal_dma.cpp ****                       DMA_SxCR_PL    | DMA_SxCR_MSIZE  | DMA_SxCR_PSIZE  | \
 484              		.loc 1 231 3 is_stmt 1 view .LVU149
 231:Drivers/STM32F4xx_HAL_Driver/Src/stm32f4xx_hal_dma.cpp ****                       DMA_SxCR_PL    | DMA_SxCR_MSIZE  | DMA_SxCR_PSIZE  | \
 485              		.loc 1 231 7 is_stmt 0 view .LVU150
 486 0046 2049     		ldr	r1, .L43
 487 0048 1140     		ands	r1, r1, r2
 488              	.LVL54:
 237:Drivers/STM32F4xx_HAL_Driver/Src/stm32f4xx_hal_dma.cpp ****           hdma->Init.PeriphInc           | hdma->Init.MemInc           |
 489              		.loc 1 237 3 is_stmt 1 view .LVU151
 237:Drivers/STM32F4xx_HAL_Driver/Src/stm32f4xx_hal_dma.cpp ****           hdma->Init.PeriphInc           | hdma->Init.MemInc           |
 490              		.loc 1 237 22 is_stmt 0 view .LVU152
 491 004a 6268     		ldr	r2, [r4, #4]
 237:Drivers/STM32F4xx_HAL_Driver/Src/stm32f4xx_hal_dma.cpp ****           hdma->Init.PeriphInc           | hdma->Init.MemInc           |
 492              		.loc 1 237 55 view .LVU153
 493 004c A068     		ldr	r0, [r4, #8]
 237:Drivers/STM32F4xx_HAL_Driver/Src/stm32f4xx_hal_dma.cpp ****           hdma->Init.PeriphInc           | hdma->Init.MemInc           |
 494              		.loc 1 237 42 view .LVU154
 495 004e 0243     		orrs	r2, r2, r0
 238:Drivers/STM32F4xx_HAL_Driver/Src/stm32f4xx_hal_dma.cpp ****           hdma->Init.PeriphDataAlignment | hdma->Init.MemDataAlignment |
 496              		.loc 1 238 22 view .LVU155
 497 0050 E068     		ldr	r0, [r4, #12]
 237:Drivers/STM32F4xx_HAL_Driver/Src/stm32f4xx_hal_dma.cpp ****           hdma->Init.PeriphInc           | hdma->Init.MemInc           |
 498              		.loc 1 237 72 view .LVU156
 499 0052 0243     		orrs	r2, r2, r0
 238:Drivers/STM32F4xx_HAL_Driver/Src/stm32f4xx_hal_dma.cpp ****           hdma->Init.PeriphDataAlignment | hdma->Init.MemDataAlignment |
 500              		.loc 1 238 55 view .LVU157
 501 0054 2069     		ldr	r0, [r4, #16]
 238:Drivers/STM32F4xx_HAL_Driver/Src/stm32f4xx_hal_dma.cpp ****           hdma->Init.PeriphDataAlignment | hdma->Init.MemDataAlignment |
 502              		.loc 1 238 42 view .LVU158
 503 0056 0243     		orrs	r2, r2, r0
ARM GAS  C:\Users\huawei\AppData\Local\Temp\ccXalwLh.s 			page 34


 239:Drivers/STM32F4xx_HAL_Driver/Src/stm32f4xx_hal_dma.cpp ****           hdma->Init.Mode                | hdma->Init.Priority;
 504              		.loc 1 239 22 view .LVU159
 505 0058 6069     		ldr	r0, [r4, #20]
 238:Drivers/STM32F4xx_HAL_Driver/Src/stm32f4xx_hal_dma.cpp ****           hdma->Init.PeriphDataAlignment | hdma->Init.MemDataAlignment |
 506              		.loc 1 238 72 view .LVU160
 507 005a 0243     		orrs	r2, r2, r0
 239:Drivers/STM32F4xx_HAL_Driver/Src/stm32f4xx_hal_dma.cpp ****           hdma->Init.Mode                | hdma->Init.Priority;
 508              		.loc 1 239 55 view .LVU161
 509 005c A069     		ldr	r0, [r4, #24]
 239:Drivers/STM32F4xx_HAL_Driver/Src/stm32f4xx_hal_dma.cpp ****           hdma->Init.Mode                | hdma->Init.Priority;
 510              		.loc 1 239 42 view .LVU162
 511 005e 0243     		orrs	r2, r2, r0
 240:Drivers/STM32F4xx_HAL_Driver/Src/stm32f4xx_hal_dma.cpp **** 
 512              		.loc 1 240 22 view .LVU163
 513 0060 E069     		ldr	r0, [r4, #28]
 239:Drivers/STM32F4xx_HAL_Driver/Src/stm32f4xx_hal_dma.cpp ****           hdma->Init.Mode                | hdma->Init.Priority;
 514              		.loc 1 239 72 view .LVU164
 515 0062 0243     		orrs	r2, r2, r0
 240:Drivers/STM32F4xx_HAL_Driver/Src/stm32f4xx_hal_dma.cpp **** 
 516              		.loc 1 240 55 view .LVU165
 517 0064 206A     		ldr	r0, [r4, #32]
 240:Drivers/STM32F4xx_HAL_Driver/Src/stm32f4xx_hal_dma.cpp **** 
 518              		.loc 1 240 42 view .LVU166
 519 0066 0243     		orrs	r2, r2, r0
 237:Drivers/STM32F4xx_HAL_Driver/Src/stm32f4xx_hal_dma.cpp ****           hdma->Init.PeriphInc           | hdma->Init.MemInc           |
 520              		.loc 1 237 7 view .LVU167
 521 0068 0A43     		orrs	r2, r2, r1
 522              	.LVL55:
 243:Drivers/STM32F4xx_HAL_Driver/Src/stm32f4xx_hal_dma.cpp ****   {
 523              		.loc 1 243 3 is_stmt 1 view .LVU168
 243:Drivers/STM32F4xx_HAL_Driver/Src/stm32f4xx_hal_dma.cpp ****   {
 524              		.loc 1 243 17 is_stmt 0 view .LVU169
 525 006a 616A     		ldr	r1, [r4, #36]
 243:Drivers/STM32F4xx_HAL_Driver/Src/stm32f4xx_hal_dma.cpp ****   {
 526              		.loc 1 243 3 view .LVU170
 527 006c 0429     		cmp	r1, #4
 528 006e 1ED0     		beq	.L41
 529              	.L36:
 250:Drivers/STM32F4xx_HAL_Driver/Src/stm32f4xx_hal_dma.cpp **** 
 530              		.loc 1 250 3 is_stmt 1 view .LVU171
 250:Drivers/STM32F4xx_HAL_Driver/Src/stm32f4xx_hal_dma.cpp **** 
 531              		.loc 1 250 22 is_stmt 0 view .LVU172
 532 0070 1A60     		str	r2, [r3]
 253:Drivers/STM32F4xx_HAL_Driver/Src/stm32f4xx_hal_dma.cpp **** 
 533              		.loc 1 253 3 is_stmt 1 view .LVU173
 253:Drivers/STM32F4xx_HAL_Driver/Src/stm32f4xx_hal_dma.cpp **** 
 534              		.loc 1 253 15 is_stmt 0 view .LVU174
 535 0072 2668     		ldr	r6, [r4]
 253:Drivers/STM32F4xx_HAL_Driver/Src/stm32f4xx_hal_dma.cpp **** 
 536              		.loc 1 253 7 view .LVU175
 537 0074 7569     		ldr	r5, [r6, #20]
 538              	.LVL56:
 256:Drivers/STM32F4xx_HAL_Driver/Src/stm32f4xx_hal_dma.cpp **** 
 539              		.loc 1 256 3 is_stmt 1 view .LVU176
 256:Drivers/STM32F4xx_HAL_Driver/Src/stm32f4xx_hal_dma.cpp **** 
 540              		.loc 1 256 7 is_stmt 0 view .LVU177
 541 0076 25F00705 		bic	r5, r5, #7
ARM GAS  C:\Users\huawei\AppData\Local\Temp\ccXalwLh.s 			page 35


 542              	.LVL57:
 259:Drivers/STM32F4xx_HAL_Driver/Src/stm32f4xx_hal_dma.cpp **** 
 543              		.loc 1 259 3 is_stmt 1 view .LVU178
 259:Drivers/STM32F4xx_HAL_Driver/Src/stm32f4xx_hal_dma.cpp **** 
 544              		.loc 1 259 21 is_stmt 0 view .LVU179
 545 007a 636A     		ldr	r3, [r4, #36]
 259:Drivers/STM32F4xx_HAL_Driver/Src/stm32f4xx_hal_dma.cpp **** 
 546              		.loc 1 259 7 view .LVU180
 547 007c 1D43     		orrs	r5, r5, r3
 548              	.LVL58:
 262:Drivers/STM32F4xx_HAL_Driver/Src/stm32f4xx_hal_dma.cpp ****   {
 549              		.loc 1 262 3 is_stmt 1 view .LVU181
 550 007e 042B     		cmp	r3, #4
 551 0080 07D1     		bne	.L37
 265:Drivers/STM32F4xx_HAL_Driver/Src/stm32f4xx_hal_dma.cpp ****     
 552              		.loc 1 265 5 view .LVU182
 265:Drivers/STM32F4xx_HAL_Driver/Src/stm32f4xx_hal_dma.cpp ****     
 553              		.loc 1 265 23 is_stmt 0 view .LVU183
 554 0082 A36A     		ldr	r3, [r4, #40]
 265:Drivers/STM32F4xx_HAL_Driver/Src/stm32f4xx_hal_dma.cpp ****     
 555              		.loc 1 265 9 view .LVU184
 556 0084 1D43     		orrs	r5, r5, r3
 557              	.LVL59:
 269:Drivers/STM32F4xx_HAL_Driver/Src/stm32f4xx_hal_dma.cpp ****     {
 558              		.loc 1 269 5 is_stmt 1 view .LVU185
 269:Drivers/STM32F4xx_HAL_Driver/Src/stm32f4xx_hal_dma.cpp ****     {
 559              		.loc 1 269 20 is_stmt 0 view .LVU186
 560 0086 E36A     		ldr	r3, [r4, #44]
 269:Drivers/STM32F4xx_HAL_Driver/Src/stm32f4xx_hal_dma.cpp ****     {
 561              		.loc 1 269 5 view .LVU187
 562 0088 1BB1     		cbz	r3, .L37
 271:Drivers/STM32F4xx_HAL_Driver/Src/stm32f4xx_hal_dma.cpp ****       {
 563              		.loc 1 271 7 is_stmt 1 view .LVU188
 271:Drivers/STM32F4xx_HAL_Driver/Src/stm32f4xx_hal_dma.cpp ****       {
 564              		.loc 1 271 29 is_stmt 0 view .LVU189
 565 008a 2046     		mov	r0, r4
 566 008c FFF7FEFF 		bl	_ZL18DMA_CheckFifoParamP19__DMA_HandleTypeDef
 567              	.LVL60:
 271:Drivers/STM32F4xx_HAL_Driver/Src/stm32f4xx_hal_dma.cpp ****       {
 568              		.loc 1 271 7 view .LVU190
 569 0090 90B9     		cbnz	r0, .L42
 570              	.L37:
 285:Drivers/STM32F4xx_HAL_Driver/Src/stm32f4xx_hal_dma.cpp **** 
 571              		.loc 1 285 3 is_stmt 1 view .LVU191
 285:Drivers/STM32F4xx_HAL_Driver/Src/stm32f4xx_hal_dma.cpp **** 
 572              		.loc 1 285 23 is_stmt 0 view .LVU192
 573 0092 7561     		str	r5, [r6, #20]
 289:Drivers/STM32F4xx_HAL_Driver/Src/stm32f4xx_hal_dma.cpp ****   
 574              		.loc 1 289 3 is_stmt 1 view .LVU193
 289:Drivers/STM32F4xx_HAL_Driver/Src/stm32f4xx_hal_dma.cpp ****   
 575              		.loc 1 289 55 is_stmt 0 view .LVU194
 576 0094 2046     		mov	r0, r4
 577 0096 FFF7FEFF 		bl	_ZL23DMA_CalcBaseAndBitshiftP19__DMA_HandleTypeDef
 578              	.LVL61:
 292:Drivers/STM32F4xx_HAL_Driver/Src/stm32f4xx_hal_dma.cpp **** 
 579              		.loc 1 292 3 is_stmt 1 view .LVU195
 292:Drivers/STM32F4xx_HAL_Driver/Src/stm32f4xx_hal_dma.cpp **** 
ARM GAS  C:\Users\huawei\AppData\Local\Temp\ccXalwLh.s 			page 36


 580              		.loc 1 292 31 is_stmt 0 view .LVU196
 581 009a E26D     		ldr	r2, [r4, #92]
 292:Drivers/STM32F4xx_HAL_Driver/Src/stm32f4xx_hal_dma.cpp **** 
 582              		.loc 1 292 22 view .LVU197
 583 009c 3F23     		movs	r3, #63
 584 009e 9340     		lsls	r3, r3, r2
 292:Drivers/STM32F4xx_HAL_Driver/Src/stm32f4xx_hal_dma.cpp **** 
 585              		.loc 1 292 14 view .LVU198
 586 00a0 8360     		str	r3, [r0, #8]
 295:Drivers/STM32F4xx_HAL_Driver/Src/stm32f4xx_hal_dma.cpp ****                                                                                      
 587              		.loc 1 295 3 is_stmt 1 view .LVU199
 295:Drivers/STM32F4xx_HAL_Driver/Src/stm32f4xx_hal_dma.cpp ****                                                                                      
 588              		.loc 1 295 19 is_stmt 0 view .LVU200
 589 00a2 0020     		movs	r0, #0
 590              	.LVL62:
 295:Drivers/STM32F4xx_HAL_Driver/Src/stm32f4xx_hal_dma.cpp ****                                                                                      
 591              		.loc 1 295 19 view .LVU201
 592 00a4 6065     		str	r0, [r4, #84]
 298:Drivers/STM32F4xx_HAL_Driver/Src/stm32f4xx_hal_dma.cpp **** 
 593              		.loc 1 298 3 is_stmt 1 view .LVU202
 298:Drivers/STM32F4xx_HAL_Driver/Src/stm32f4xx_hal_dma.cpp **** 
 594              		.loc 1 298 15 is_stmt 0 view .LVU203
 595 00a6 0123     		movs	r3, #1
 596 00a8 84F83530 		strb	r3, [r4, #53]
 300:Drivers/STM32F4xx_HAL_Driver/Src/stm32f4xx_hal_dma.cpp **** }
 597              		.loc 1 300 3 is_stmt 1 view .LVU204
 300:Drivers/STM32F4xx_HAL_Driver/Src/stm32f4xx_hal_dma.cpp **** }
 598              		.loc 1 300 10 is_stmt 0 view .LVU205
 599 00ac C9E7     		b	.L33
 600              	.LVL63:
 601              	.L41:
 246:Drivers/STM32F4xx_HAL_Driver/Src/stm32f4xx_hal_dma.cpp ****   }
 602              		.loc 1 246 5 is_stmt 1 view .LVU206
 246:Drivers/STM32F4xx_HAL_Driver/Src/stm32f4xx_hal_dma.cpp ****   }
 603              		.loc 1 246 24 is_stmt 0 view .LVU207
 604 00ae E16A     		ldr	r1, [r4, #44]
 246:Drivers/STM32F4xx_HAL_Driver/Src/stm32f4xx_hal_dma.cpp ****   }
 605              		.loc 1 246 46 view .LVU208
 606 00b0 206B     		ldr	r0, [r4, #48]
 246:Drivers/STM32F4xx_HAL_Driver/Src/stm32f4xx_hal_dma.cpp ****   }
 607              		.loc 1 246 33 view .LVU209
 608 00b2 0143     		orrs	r1, r1, r0
 246:Drivers/STM32F4xx_HAL_Driver/Src/stm32f4xx_hal_dma.cpp ****   }
 609              		.loc 1 246 9 view .LVU210
 610 00b4 0A43     		orrs	r2, r2, r1
 611              	.LVL64:
 246:Drivers/STM32F4xx_HAL_Driver/Src/stm32f4xx_hal_dma.cpp ****   }
 612              		.loc 1 246 9 view .LVU211
 613 00b6 DBE7     		b	.L36
 614              	.LVL65:
 615              	.L42:
 274:Drivers/STM32F4xx_HAL_Driver/Src/stm32f4xx_hal_dma.cpp ****         
 616              		.loc 1 274 9 is_stmt 1 view .LVU212
 274:Drivers/STM32F4xx_HAL_Driver/Src/stm32f4xx_hal_dma.cpp ****         
 617              		.loc 1 274 25 is_stmt 0 view .LVU213
 618 00b8 4023     		movs	r3, #64
 619 00ba 6365     		str	r3, [r4, #84]
ARM GAS  C:\Users\huawei\AppData\Local\Temp\ccXalwLh.s 			page 37


 277:Drivers/STM32F4xx_HAL_Driver/Src/stm32f4xx_hal_dma.cpp ****         
 620              		.loc 1 277 9 is_stmt 1 view .LVU214
 277:Drivers/STM32F4xx_HAL_Driver/Src/stm32f4xx_hal_dma.cpp ****         
 621              		.loc 1 277 21 is_stmt 0 view .LVU215
 622 00bc 0120     		movs	r0, #1
 623 00be 84F83500 		strb	r0, [r4, #53]
 279:Drivers/STM32F4xx_HAL_Driver/Src/stm32f4xx_hal_dma.cpp ****       }
 624              		.loc 1 279 9 is_stmt 1 view .LVU216
 279:Drivers/STM32F4xx_HAL_Driver/Src/stm32f4xx_hal_dma.cpp ****       }
 625              		.loc 1 279 16 is_stmt 0 view .LVU217
 626 00c2 BEE7     		b	.L33
 627              	.LVL66:
 628              	.L38:
 179:Drivers/STM32F4xx_HAL_Driver/Src/stm32f4xx_hal_dma.cpp ****   }
 629              		.loc 1 179 12 view .LVU218
 630 00c4 0120     		movs	r0, #1
 631              	.LVL67:
 179:Drivers/STM32F4xx_HAL_Driver/Src/stm32f4xx_hal_dma.cpp ****   }
 632              		.loc 1 179 12 view .LVU219
 633 00c6 BCE7     		b	.L33
 634              	.L44:
 635              		.align	2
 636              	.L43:
 637 00c8 3F8010F0 		.word	-267354049
 638              		.cfi_endproc
 639              	.LFE235:
 640              		.fnend
 642              		.section	.text.HAL_DMA_DeInit,"ax",%progbits
 643              		.align	1
 644              		.global	HAL_DMA_DeInit
 645              		.syntax unified
 646              		.thumb
 647              		.thumb_func
 649              	HAL_DMA_DeInit:
 650              		.fnstart
 651              	.LVL68:
 652              	.LFB236:
 310:Drivers/STM32F4xx_HAL_Driver/Src/stm32f4xx_hal_dma.cpp ****   DMA_Base_Registers *regs;
 653              		.loc 1 310 1 is_stmt 1 view -0
 654              		.cfi_startproc
 655              		@ args = 0, pretend = 0, frame = 0
 656              		@ frame_needed = 0, uses_anonymous_args = 0
 311:Drivers/STM32F4xx_HAL_Driver/Src/stm32f4xx_hal_dma.cpp **** 
 657              		.loc 1 311 3 view .LVU221
 314:Drivers/STM32F4xx_HAL_Driver/Src/stm32f4xx_hal_dma.cpp ****   {
 658              		.loc 1 314 3 view .LVU222
 659 0000 0028     		cmp	r0, #0
 660 0002 2DD0     		beq	.L47
 310:Drivers/STM32F4xx_HAL_Driver/Src/stm32f4xx_hal_dma.cpp ****   DMA_Base_Registers *regs;
 661              		.loc 1 310 1 is_stmt 0 view .LVU223
 662 0004 38B5     		push	{r3, r4, r5, lr}
 663              	.LCFI7:
 664              		.cfi_def_cfa_offset 16
 665              		.cfi_offset 3, -16
 666              		.cfi_offset 4, -12
 667              		.cfi_offset 5, -8
 668              		.cfi_offset 14, -4
ARM GAS  C:\Users\huawei\AppData\Local\Temp\ccXalwLh.s 			page 38


 669 0006 0546     		mov	r5, r0
 320:Drivers/STM32F4xx_HAL_Driver/Src/stm32f4xx_hal_dma.cpp ****   {
 670              		.loc 1 320 3 is_stmt 1 view .LVU224
 320:Drivers/STM32F4xx_HAL_Driver/Src/stm32f4xx_hal_dma.cpp ****   {
 671              		.loc 1 320 12 is_stmt 0 view .LVU225
 672 0008 90F83500 		ldrb	r0, [r0, #53]	@ zero_extendqisi2
 673              	.LVL69:
 320:Drivers/STM32F4xx_HAL_Driver/Src/stm32f4xx_hal_dma.cpp ****   {
 674              		.loc 1 320 12 view .LVU226
 675 000c C0B2     		uxtb	r0, r0
 320:Drivers/STM32F4xx_HAL_Driver/Src/stm32f4xx_hal_dma.cpp ****   {
 676              		.loc 1 320 3 view .LVU227
 677 000e 0228     		cmp	r0, #2
 678 0010 25D0     		beq	.L46
 327:Drivers/STM32F4xx_HAL_Driver/Src/stm32f4xx_hal_dma.cpp **** 
 679              		.loc 1 327 3 is_stmt 1 view .LVU228
 330:Drivers/STM32F4xx_HAL_Driver/Src/stm32f4xx_hal_dma.cpp **** 
 680              		.loc 1 330 3 view .LVU229
 681 0012 2A68     		ldr	r2, [r5]
 682 0014 1368     		ldr	r3, [r2]
 683 0016 23F00103 		bic	r3, r3, #1
 684 001a 1360     		str	r3, [r2]
 333:Drivers/STM32F4xx_HAL_Driver/Src/stm32f4xx_hal_dma.cpp **** 
 685              		.loc 1 333 3 view .LVU230
 333:Drivers/STM32F4xx_HAL_Driver/Src/stm32f4xx_hal_dma.cpp **** 
 686              		.loc 1 333 9 is_stmt 0 view .LVU231
 687 001c 2B68     		ldr	r3, [r5]
 333:Drivers/STM32F4xx_HAL_Driver/Src/stm32f4xx_hal_dma.cpp **** 
 688              		.loc 1 333 24 view .LVU232
 689 001e 0024     		movs	r4, #0
 690 0020 1C60     		str	r4, [r3]
 336:Drivers/STM32F4xx_HAL_Driver/Src/stm32f4xx_hal_dma.cpp **** 
 691              		.loc 1 336 3 is_stmt 1 view .LVU233
 336:Drivers/STM32F4xx_HAL_Driver/Src/stm32f4xx_hal_dma.cpp **** 
 692              		.loc 1 336 9 is_stmt 0 view .LVU234
 693 0022 2B68     		ldr	r3, [r5]
 336:Drivers/STM32F4xx_HAL_Driver/Src/stm32f4xx_hal_dma.cpp **** 
 694              		.loc 1 336 24 view .LVU235
 695 0024 5C60     		str	r4, [r3, #4]
 339:Drivers/STM32F4xx_HAL_Driver/Src/stm32f4xx_hal_dma.cpp **** 
 696              		.loc 1 339 3 is_stmt 1 view .LVU236
 339:Drivers/STM32F4xx_HAL_Driver/Src/stm32f4xx_hal_dma.cpp **** 
 697              		.loc 1 339 9 is_stmt 0 view .LVU237
 698 0026 2B68     		ldr	r3, [r5]
 339:Drivers/STM32F4xx_HAL_Driver/Src/stm32f4xx_hal_dma.cpp **** 
 699              		.loc 1 339 24 view .LVU238
 700 0028 9C60     		str	r4, [r3, #8]
 342:Drivers/STM32F4xx_HAL_Driver/Src/stm32f4xx_hal_dma.cpp ****   
 701              		.loc 1 342 3 is_stmt 1 view .LVU239
 342:Drivers/STM32F4xx_HAL_Driver/Src/stm32f4xx_hal_dma.cpp ****   
 702              		.loc 1 342 9 is_stmt 0 view .LVU240
 703 002a 2B68     		ldr	r3, [r5]
 342:Drivers/STM32F4xx_HAL_Driver/Src/stm32f4xx_hal_dma.cpp ****   
 704              		.loc 1 342 24 view .LVU241
 705 002c DC60     		str	r4, [r3, #12]
 345:Drivers/STM32F4xx_HAL_Driver/Src/stm32f4xx_hal_dma.cpp ****   
 706              		.loc 1 345 3 is_stmt 1 view .LVU242
ARM GAS  C:\Users\huawei\AppData\Local\Temp\ccXalwLh.s 			page 39


 345:Drivers/STM32F4xx_HAL_Driver/Src/stm32f4xx_hal_dma.cpp ****   
 707              		.loc 1 345 9 is_stmt 0 view .LVU243
 708 002e 2B68     		ldr	r3, [r5]
 345:Drivers/STM32F4xx_HAL_Driver/Src/stm32f4xx_hal_dma.cpp ****   
 709              		.loc 1 345 24 view .LVU244
 710 0030 1C61     		str	r4, [r3, #16]
 348:Drivers/STM32F4xx_HAL_Driver/Src/stm32f4xx_hal_dma.cpp ****   
 711              		.loc 1 348 3 is_stmt 1 view .LVU245
 348:Drivers/STM32F4xx_HAL_Driver/Src/stm32f4xx_hal_dma.cpp ****   
 712              		.loc 1 348 9 is_stmt 0 view .LVU246
 713 0032 2B68     		ldr	r3, [r5]
 348:Drivers/STM32F4xx_HAL_Driver/Src/stm32f4xx_hal_dma.cpp ****   
 714              		.loc 1 348 24 view .LVU247
 715 0034 2122     		movs	r2, #33
 716 0036 5A61     		str	r2, [r3, #20]
 351:Drivers/STM32F4xx_HAL_Driver/Src/stm32f4xx_hal_dma.cpp ****   
 717              		.loc 1 351 3 is_stmt 1 view .LVU248
 351:Drivers/STM32F4xx_HAL_Driver/Src/stm32f4xx_hal_dma.cpp ****   
 718              		.loc 1 351 55 is_stmt 0 view .LVU249
 719 0038 2846     		mov	r0, r5
 720 003a FFF7FEFF 		bl	_ZL23DMA_CalcBaseAndBitshiftP19__DMA_HandleTypeDef
 721              	.LVL70:
 354:Drivers/STM32F4xx_HAL_Driver/Src/stm32f4xx_hal_dma.cpp ****   hdma->XferHalfCpltCallback = NULL;
 722              		.loc 1 354 3 is_stmt 1 view .LVU250
 354:Drivers/STM32F4xx_HAL_Driver/Src/stm32f4xx_hal_dma.cpp ****   hdma->XferHalfCpltCallback = NULL;
 723              		.loc 1 354 26 is_stmt 0 view .LVU251
 724 003e EC63     		str	r4, [r5, #60]
 355:Drivers/STM32F4xx_HAL_Driver/Src/stm32f4xx_hal_dma.cpp ****   hdma->XferM1CpltCallback = NULL;
 725              		.loc 1 355 3 is_stmt 1 view .LVU252
 355:Drivers/STM32F4xx_HAL_Driver/Src/stm32f4xx_hal_dma.cpp ****   hdma->XferM1CpltCallback = NULL;
 726              		.loc 1 355 30 is_stmt 0 view .LVU253
 727 0040 2C64     		str	r4, [r5, #64]
 356:Drivers/STM32F4xx_HAL_Driver/Src/stm32f4xx_hal_dma.cpp ****   hdma->XferM1HalfCpltCallback = NULL;
 728              		.loc 1 356 3 is_stmt 1 view .LVU254
 356:Drivers/STM32F4xx_HAL_Driver/Src/stm32f4xx_hal_dma.cpp ****   hdma->XferM1HalfCpltCallback = NULL;
 729              		.loc 1 356 28 is_stmt 0 view .LVU255
 730 0042 6C64     		str	r4, [r5, #68]
 357:Drivers/STM32F4xx_HAL_Driver/Src/stm32f4xx_hal_dma.cpp ****   hdma->XferErrorCallback = NULL;
 731              		.loc 1 357 3 is_stmt 1 view .LVU256
 357:Drivers/STM32F4xx_HAL_Driver/Src/stm32f4xx_hal_dma.cpp ****   hdma->XferErrorCallback = NULL;
 732              		.loc 1 357 32 is_stmt 0 view .LVU257
 733 0044 AC64     		str	r4, [r5, #72]
 358:Drivers/STM32F4xx_HAL_Driver/Src/stm32f4xx_hal_dma.cpp ****   hdma->XferAbortCallback = NULL;
 734              		.loc 1 358 3 is_stmt 1 view .LVU258
 358:Drivers/STM32F4xx_HAL_Driver/Src/stm32f4xx_hal_dma.cpp ****   hdma->XferAbortCallback = NULL;
 735              		.loc 1 358 27 is_stmt 0 view .LVU259
 736 0046 EC64     		str	r4, [r5, #76]
 359:Drivers/STM32F4xx_HAL_Driver/Src/stm32f4xx_hal_dma.cpp **** 
 737              		.loc 1 359 3 is_stmt 1 view .LVU260
 359:Drivers/STM32F4xx_HAL_Driver/Src/stm32f4xx_hal_dma.cpp **** 
 738              		.loc 1 359 27 is_stmt 0 view .LVU261
 739 0048 2C65     		str	r4, [r5, #80]
 362:Drivers/STM32F4xx_HAL_Driver/Src/stm32f4xx_hal_dma.cpp **** 
 740              		.loc 1 362 3 is_stmt 1 view .LVU262
 362:Drivers/STM32F4xx_HAL_Driver/Src/stm32f4xx_hal_dma.cpp **** 
 741              		.loc 1 362 31 is_stmt 0 view .LVU263
 742 004a EA6D     		ldr	r2, [r5, #92]
ARM GAS  C:\Users\huawei\AppData\Local\Temp\ccXalwLh.s 			page 40


 362:Drivers/STM32F4xx_HAL_Driver/Src/stm32f4xx_hal_dma.cpp **** 
 743              		.loc 1 362 22 view .LVU264
 744 004c 3F23     		movs	r3, #63
 745 004e 9340     		lsls	r3, r3, r2
 362:Drivers/STM32F4xx_HAL_Driver/Src/stm32f4xx_hal_dma.cpp **** 
 746              		.loc 1 362 14 view .LVU265
 747 0050 8360     		str	r3, [r0, #8]
 365:Drivers/STM32F4xx_HAL_Driver/Src/stm32f4xx_hal_dma.cpp **** 
 748              		.loc 1 365 3 is_stmt 1 view .LVU266
 365:Drivers/STM32F4xx_HAL_Driver/Src/stm32f4xx_hal_dma.cpp **** 
 749              		.loc 1 365 19 is_stmt 0 view .LVU267
 750 0052 6C65     		str	r4, [r5, #84]
 368:Drivers/STM32F4xx_HAL_Driver/Src/stm32f4xx_hal_dma.cpp **** 
 751              		.loc 1 368 3 is_stmt 1 view .LVU268
 368:Drivers/STM32F4xx_HAL_Driver/Src/stm32f4xx_hal_dma.cpp **** 
 752              		.loc 1 368 15 is_stmt 0 view .LVU269
 753 0054 85F83540 		strb	r4, [r5, #53]
 371:Drivers/STM32F4xx_HAL_Driver/Src/stm32f4xx_hal_dma.cpp **** 
 754              		.loc 1 371 3 is_stmt 1 view .LVU270
 371:Drivers/STM32F4xx_HAL_Driver/Src/stm32f4xx_hal_dma.cpp **** 
 755              		.loc 1 371 3 view .LVU271
 756 0058 85F83440 		strb	r4, [r5, #52]
 371:Drivers/STM32F4xx_HAL_Driver/Src/stm32f4xx_hal_dma.cpp **** 
 757              		.loc 1 371 3 view .LVU272
 373:Drivers/STM32F4xx_HAL_Driver/Src/stm32f4xx_hal_dma.cpp **** }
 758              		.loc 1 373 3 view .LVU273
 373:Drivers/STM32F4xx_HAL_Driver/Src/stm32f4xx_hal_dma.cpp **** }
 759              		.loc 1 373 10 is_stmt 0 view .LVU274
 760 005c 2046     		mov	r0, r4
 761              	.LVL71:
 762              	.L46:
 374:Drivers/STM32F4xx_HAL_Driver/Src/stm32f4xx_hal_dma.cpp **** 
 763              		.loc 1 374 1 view .LVU275
 764 005e 38BD     		pop	{r3, r4, r5, pc}
 765              	.LVL72:
 766              	.L47:
 767              	.LCFI8:
 768              		.cfi_def_cfa_offset 0
 769              		.cfi_restore 3
 770              		.cfi_restore 4
 771              		.cfi_restore 5
 772              		.cfi_restore 14
 316:Drivers/STM32F4xx_HAL_Driver/Src/stm32f4xx_hal_dma.cpp ****   }
 773              		.loc 1 316 12 view .LVU276
 774 0060 0120     		movs	r0, #1
 775              	.LVL73:
 374:Drivers/STM32F4xx_HAL_Driver/Src/stm32f4xx_hal_dma.cpp **** 
 776              		.loc 1 374 1 view .LVU277
 777 0062 7047     		bx	lr
 778              		.cfi_endproc
 779              	.LFE236:
 780              		.cantunwind
 781              		.fnend
 783              		.section	.text.HAL_DMA_Start,"ax",%progbits
 784              		.align	1
 785              		.global	HAL_DMA_Start
 786              		.syntax unified
ARM GAS  C:\Users\huawei\AppData\Local\Temp\ccXalwLh.s 			page 41


 787              		.thumb
 788              		.thumb_func
 790              	HAL_DMA_Start:
 791              		.fnstart
 792              	.LVL74:
 793              	.LFB237:
 408:Drivers/STM32F4xx_HAL_Driver/Src/stm32f4xx_hal_dma.cpp ****   HAL_StatusTypeDef status = HAL_OK;
 794              		.loc 1 408 1 is_stmt 1 view -0
 795              		.cfi_startproc
 796              		@ args = 0, pretend = 0, frame = 0
 797              		@ frame_needed = 0, uses_anonymous_args = 0
 408:Drivers/STM32F4xx_HAL_Driver/Src/stm32f4xx_hal_dma.cpp ****   HAL_StatusTypeDef status = HAL_OK;
 798              		.loc 1 408 1 is_stmt 0 view .LVU279
 799 0000 38B5     		push	{r3, r4, r5, lr}
 800              	.LCFI9:
 801              		.cfi_def_cfa_offset 16
 802              		.cfi_offset 3, -16
 803              		.cfi_offset 4, -12
 804              		.cfi_offset 5, -8
 805              		.cfi_offset 14, -4
 806 0002 0446     		mov	r4, r0
 409:Drivers/STM32F4xx_HAL_Driver/Src/stm32f4xx_hal_dma.cpp ****   
 807              		.loc 1 409 3 is_stmt 1 view .LVU280
 808              	.LVL75:
 412:Drivers/STM32F4xx_HAL_Driver/Src/stm32f4xx_hal_dma.cpp **** 
 809              		.loc 1 412 3 view .LVU281
 415:Drivers/STM32F4xx_HAL_Driver/Src/stm32f4xx_hal_dma.cpp **** 
 810              		.loc 1 415 3 view .LVU282
 415:Drivers/STM32F4xx_HAL_Driver/Src/stm32f4xx_hal_dma.cpp **** 
 811              		.loc 1 415 3 view .LVU283
 812 0004 90F83400 		ldrb	r0, [r0, #52]	@ zero_extendqisi2
 813              	.LVL76:
 415:Drivers/STM32F4xx_HAL_Driver/Src/stm32f4xx_hal_dma.cpp **** 
 814              		.loc 1 415 3 is_stmt 0 view .LVU284
 815 0008 0128     		cmp	r0, #1
 816 000a 1BD0     		beq	.L55
 415:Drivers/STM32F4xx_HAL_Driver/Src/stm32f4xx_hal_dma.cpp **** 
 817              		.loc 1 415 3 is_stmt 1 discriminator 2 view .LVU285
 818 000c 0120     		movs	r0, #1
 819 000e 84F83400 		strb	r0, [r4, #52]
 415:Drivers/STM32F4xx_HAL_Driver/Src/stm32f4xx_hal_dma.cpp **** 
 820              		.loc 1 415 3 discriminator 2 view .LVU286
 417:Drivers/STM32F4xx_HAL_Driver/Src/stm32f4xx_hal_dma.cpp ****   {
 821              		.loc 1 417 3 discriminator 2 view .LVU287
 417:Drivers/STM32F4xx_HAL_Driver/Src/stm32f4xx_hal_dma.cpp ****   {
 822              		.loc 1 417 35 is_stmt 0 discriminator 2 view .LVU288
 823 0012 94F83500 		ldrb	r0, [r4, #53]	@ zero_extendqisi2
 824 0016 C0B2     		uxtb	r0, r0
 417:Drivers/STM32F4xx_HAL_Driver/Src/stm32f4xx_hal_dma.cpp ****   {
 825              		.loc 1 417 3 discriminator 2 view .LVU289
 826 0018 0128     		cmp	r0, #1
 827 001a 04D0     		beq	.L57
 434:Drivers/STM32F4xx_HAL_Driver/Src/stm32f4xx_hal_dma.cpp ****     
 828              		.loc 1 434 5 is_stmt 1 view .LVU290
 434:Drivers/STM32F4xx_HAL_Driver/Src/stm32f4xx_hal_dma.cpp ****     
 829              		.loc 1 434 5 view .LVU291
 830 001c 0023     		movs	r3, #0
ARM GAS  C:\Users\huawei\AppData\Local\Temp\ccXalwLh.s 			page 42


 831              	.LVL77:
 434:Drivers/STM32F4xx_HAL_Driver/Src/stm32f4xx_hal_dma.cpp ****     
 832              		.loc 1 434 5 is_stmt 0 view .LVU292
 833 001e 84F83430 		strb	r3, [r4, #52]
 434:Drivers/STM32F4xx_HAL_Driver/Src/stm32f4xx_hal_dma.cpp ****     
 834              		.loc 1 434 5 is_stmt 1 view .LVU293
 437:Drivers/STM32F4xx_HAL_Driver/Src/stm32f4xx_hal_dma.cpp ****   } 
 835              		.loc 1 437 5 view .LVU294
 836              	.LVL78:
 437:Drivers/STM32F4xx_HAL_Driver/Src/stm32f4xx_hal_dma.cpp ****   } 
 837              		.loc 1 437 12 is_stmt 0 view .LVU295
 838 0022 0220     		movs	r0, #2
 839              	.LVL79:
 840              	.L53:
 440:Drivers/STM32F4xx_HAL_Driver/Src/stm32f4xx_hal_dma.cpp **** 
 841              		.loc 1 440 1 view .LVU296
 842 0024 38BD     		pop	{r3, r4, r5, pc}
 843              	.LVL80:
 844              	.L57:
 420:Drivers/STM32F4xx_HAL_Driver/Src/stm32f4xx_hal_dma.cpp ****     
 845              		.loc 1 420 5 is_stmt 1 view .LVU297
 420:Drivers/STM32F4xx_HAL_Driver/Src/stm32f4xx_hal_dma.cpp ****     
 846              		.loc 1 420 17 is_stmt 0 view .LVU298
 847 0026 0220     		movs	r0, #2
 848 0028 84F83500 		strb	r0, [r4, #53]
 423:Drivers/STM32F4xx_HAL_Driver/Src/stm32f4xx_hal_dma.cpp ****     
 849              		.loc 1 423 5 is_stmt 1 view .LVU299
 423:Drivers/STM32F4xx_HAL_Driver/Src/stm32f4xx_hal_dma.cpp ****     
 850              		.loc 1 423 21 is_stmt 0 view .LVU300
 851 002c 0025     		movs	r5, #0
 852 002e 6565     		str	r5, [r4, #84]
 426:Drivers/STM32F4xx_HAL_Driver/Src/stm32f4xx_hal_dma.cpp **** 
 853              		.loc 1 426 5 is_stmt 1 view .LVU301
 426:Drivers/STM32F4xx_HAL_Driver/Src/stm32f4xx_hal_dma.cpp **** 
 854              		.loc 1 426 18 is_stmt 0 view .LVU302
 855 0030 2046     		mov	r0, r4
 856 0032 FFF7FEFF 		bl	_ZL13DMA_SetConfigP19__DMA_HandleTypeDefmmm
 857              	.LVL81:
 429:Drivers/STM32F4xx_HAL_Driver/Src/stm32f4xx_hal_dma.cpp ****   }
 858              		.loc 1 429 5 is_stmt 1 view .LVU303
 859 0036 2268     		ldr	r2, [r4]
 860 0038 1368     		ldr	r3, [r2]
 861 003a 43F00103 		orr	r3, r3, #1
 862 003e 1360     		str	r3, [r2]
 409:Drivers/STM32F4xx_HAL_Driver/Src/stm32f4xx_hal_dma.cpp ****   
 863              		.loc 1 409 21 is_stmt 0 view .LVU304
 864 0040 2846     		mov	r0, r5
 865 0042 EFE7     		b	.L53
 866              	.LVL82:
 867              	.L55:
 415:Drivers/STM32F4xx_HAL_Driver/Src/stm32f4xx_hal_dma.cpp **** 
 868              		.loc 1 415 3 view .LVU305
 869 0044 0220     		movs	r0, #2
 870 0046 EDE7     		b	.L53
 871              		.cfi_endproc
 872              	.LFE237:
 873              		.cantunwind
ARM GAS  C:\Users\huawei\AppData\Local\Temp\ccXalwLh.s 			page 43


 874              		.fnend
 876              		.section	.text.HAL_DMA_Start_IT,"ax",%progbits
 877              		.align	1
 878              		.global	HAL_DMA_Start_IT
 879              		.syntax unified
 880              		.thumb
 881              		.thumb_func
 883              	HAL_DMA_Start_IT:
 884              		.fnstart
 885              	.LVL83:
 886              	.LFB238:
 452:Drivers/STM32F4xx_HAL_Driver/Src/stm32f4xx_hal_dma.cpp ****   HAL_StatusTypeDef status = HAL_OK;
 887              		.loc 1 452 1 is_stmt 1 view -0
 888              		.cfi_startproc
 889              		@ args = 0, pretend = 0, frame = 0
 890              		@ frame_needed = 0, uses_anonymous_args = 0
 452:Drivers/STM32F4xx_HAL_Driver/Src/stm32f4xx_hal_dma.cpp ****   HAL_StatusTypeDef status = HAL_OK;
 891              		.loc 1 452 1 is_stmt 0 view .LVU307
 892 0000 38B5     		push	{r3, r4, r5, lr}
 893              	.LCFI10:
 894              		.cfi_def_cfa_offset 16
 895              		.cfi_offset 3, -16
 896              		.cfi_offset 4, -12
 897              		.cfi_offset 5, -8
 898              		.cfi_offset 14, -4
 899 0002 0446     		mov	r4, r0
 453:Drivers/STM32F4xx_HAL_Driver/Src/stm32f4xx_hal_dma.cpp **** 
 900              		.loc 1 453 3 is_stmt 1 view .LVU308
 901              	.LVL84:
 456:Drivers/STM32F4xx_HAL_Driver/Src/stm32f4xx_hal_dma.cpp ****   
 902              		.loc 1 456 3 view .LVU309
 456:Drivers/STM32F4xx_HAL_Driver/Src/stm32f4xx_hal_dma.cpp ****   
 903              		.loc 1 456 58 is_stmt 0 view .LVU310
 904 0004 856D     		ldr	r5, [r0, #88]
 905              	.LVL85:
 459:Drivers/STM32F4xx_HAL_Driver/Src/stm32f4xx_hal_dma.cpp ****  
 906              		.loc 1 459 3 is_stmt 1 view .LVU311
 462:Drivers/STM32F4xx_HAL_Driver/Src/stm32f4xx_hal_dma.cpp ****   
 907              		.loc 1 462 3 view .LVU312
 462:Drivers/STM32F4xx_HAL_Driver/Src/stm32f4xx_hal_dma.cpp ****   
 908              		.loc 1 462 3 view .LVU313
 909 0006 90F83400 		ldrb	r0, [r0, #52]	@ zero_extendqisi2
 910              	.LVL86:
 462:Drivers/STM32F4xx_HAL_Driver/Src/stm32f4xx_hal_dma.cpp ****   
 911              		.loc 1 462 3 is_stmt 0 view .LVU314
 912 000a 0128     		cmp	r0, #1
 913 000c 2BD0     		beq	.L62
 462:Drivers/STM32F4xx_HAL_Driver/Src/stm32f4xx_hal_dma.cpp ****   
 914              		.loc 1 462 3 is_stmt 1 discriminator 2 view .LVU315
 915 000e 0120     		movs	r0, #1
 916 0010 84F83400 		strb	r0, [r4, #52]
 462:Drivers/STM32F4xx_HAL_Driver/Src/stm32f4xx_hal_dma.cpp ****   
 917              		.loc 1 462 3 discriminator 2 view .LVU316
 464:Drivers/STM32F4xx_HAL_Driver/Src/stm32f4xx_hal_dma.cpp ****   {
 918              		.loc 1 464 3 discriminator 2 view .LVU317
 464:Drivers/STM32F4xx_HAL_Driver/Src/stm32f4xx_hal_dma.cpp ****   {
 919              		.loc 1 464 35 is_stmt 0 discriminator 2 view .LVU318
ARM GAS  C:\Users\huawei\AppData\Local\Temp\ccXalwLh.s 			page 44


 920 0014 94F83500 		ldrb	r0, [r4, #53]	@ zero_extendqisi2
 921 0018 C0B2     		uxtb	r0, r0
 464:Drivers/STM32F4xx_HAL_Driver/Src/stm32f4xx_hal_dma.cpp ****   {
 922              		.loc 1 464 3 discriminator 2 view .LVU319
 923 001a 0128     		cmp	r0, #1
 924 001c 04D0     		beq	.L64
 492:Drivers/STM32F4xx_HAL_Driver/Src/stm32f4xx_hal_dma.cpp ****     
 925              		.loc 1 492 5 is_stmt 1 view .LVU320
 492:Drivers/STM32F4xx_HAL_Driver/Src/stm32f4xx_hal_dma.cpp ****     
 926              		.loc 1 492 5 view .LVU321
 927 001e 0023     		movs	r3, #0
 928              	.LVL87:
 492:Drivers/STM32F4xx_HAL_Driver/Src/stm32f4xx_hal_dma.cpp ****     
 929              		.loc 1 492 5 is_stmt 0 view .LVU322
 930 0020 84F83430 		strb	r3, [r4, #52]
 492:Drivers/STM32F4xx_HAL_Driver/Src/stm32f4xx_hal_dma.cpp ****     
 931              		.loc 1 492 5 is_stmt 1 view .LVU323
 495:Drivers/STM32F4xx_HAL_Driver/Src/stm32f4xx_hal_dma.cpp ****   }
 932              		.loc 1 495 5 view .LVU324
 933              	.LVL88:
 495:Drivers/STM32F4xx_HAL_Driver/Src/stm32f4xx_hal_dma.cpp ****   }
 934              		.loc 1 495 12 is_stmt 0 view .LVU325
 935 0024 0220     		movs	r0, #2
 936              	.LVL89:
 937              	.L59:
 499:Drivers/STM32F4xx_HAL_Driver/Src/stm32f4xx_hal_dma.cpp **** 
 938              		.loc 1 499 1 view .LVU326
 939 0026 38BD     		pop	{r3, r4, r5, pc}
 940              	.LVL90:
 941              	.L64:
 467:Drivers/STM32F4xx_HAL_Driver/Src/stm32f4xx_hal_dma.cpp ****     
 942              		.loc 1 467 5 is_stmt 1 view .LVU327
 467:Drivers/STM32F4xx_HAL_Driver/Src/stm32f4xx_hal_dma.cpp ****     
 943              		.loc 1 467 17 is_stmt 0 view .LVU328
 944 0028 0220     		movs	r0, #2
 945 002a 84F83500 		strb	r0, [r4, #53]
 470:Drivers/STM32F4xx_HAL_Driver/Src/stm32f4xx_hal_dma.cpp ****     
 946              		.loc 1 470 5 is_stmt 1 view .LVU329
 470:Drivers/STM32F4xx_HAL_Driver/Src/stm32f4xx_hal_dma.cpp ****     
 947              		.loc 1 470 21 is_stmt 0 view .LVU330
 948 002e 0020     		movs	r0, #0
 949 0030 6065     		str	r0, [r4, #84]
 473:Drivers/STM32F4xx_HAL_Driver/Src/stm32f4xx_hal_dma.cpp ****     
 950              		.loc 1 473 5 is_stmt 1 view .LVU331
 473:Drivers/STM32F4xx_HAL_Driver/Src/stm32f4xx_hal_dma.cpp ****     
 951              		.loc 1 473 18 is_stmt 0 view .LVU332
 952 0032 2046     		mov	r0, r4
 953 0034 FFF7FEFF 		bl	_ZL13DMA_SetConfigP19__DMA_HandleTypeDefmmm
 954              	.LVL91:
 476:Drivers/STM32F4xx_HAL_Driver/Src/stm32f4xx_hal_dma.cpp ****     
 955              		.loc 1 476 5 is_stmt 1 view .LVU333
 476:Drivers/STM32F4xx_HAL_Driver/Src/stm32f4xx_hal_dma.cpp ****     
 956              		.loc 1 476 33 is_stmt 0 view .LVU334
 957 0038 E26D     		ldr	r2, [r4, #92]
 476:Drivers/STM32F4xx_HAL_Driver/Src/stm32f4xx_hal_dma.cpp ****     
 958              		.loc 1 476 24 view .LVU335
 959 003a 3F23     		movs	r3, #63
ARM GAS  C:\Users\huawei\AppData\Local\Temp\ccXalwLh.s 			page 45


 960 003c 9340     		lsls	r3, r3, r2
 476:Drivers/STM32F4xx_HAL_Driver/Src/stm32f4xx_hal_dma.cpp ****     
 961              		.loc 1 476 16 view .LVU336
 962 003e AB60     		str	r3, [r5, #8]
 479:Drivers/STM32F4xx_HAL_Driver/Src/stm32f4xx_hal_dma.cpp ****     
 963              		.loc 1 479 5 is_stmt 1 view .LVU337
 479:Drivers/STM32F4xx_HAL_Driver/Src/stm32f4xx_hal_dma.cpp ****     
 964              		.loc 1 479 11 is_stmt 0 view .LVU338
 965 0040 2268     		ldr	r2, [r4]
 479:Drivers/STM32F4xx_HAL_Driver/Src/stm32f4xx_hal_dma.cpp ****     
 966              		.loc 1 479 21 view .LVU339
 967 0042 1368     		ldr	r3, [r2]
 479:Drivers/STM32F4xx_HAL_Driver/Src/stm32f4xx_hal_dma.cpp ****     
 968              		.loc 1 479 25 view .LVU340
 969 0044 43F01603 		orr	r3, r3, #22
 970 0048 1360     		str	r3, [r2]
 481:Drivers/STM32F4xx_HAL_Driver/Src/stm32f4xx_hal_dma.cpp ****     {
 971              		.loc 1 481 5 is_stmt 1 view .LVU341
 481:Drivers/STM32F4xx_HAL_Driver/Src/stm32f4xx_hal_dma.cpp ****     {
 972              		.loc 1 481 14 is_stmt 0 view .LVU342
 973 004a 236C     		ldr	r3, [r4, #64]
 481:Drivers/STM32F4xx_HAL_Driver/Src/stm32f4xx_hal_dma.cpp ****     {
 974              		.loc 1 481 5 view .LVU343
 975 004c 23B1     		cbz	r3, .L61
 483:Drivers/STM32F4xx_HAL_Driver/Src/stm32f4xx_hal_dma.cpp ****     }
 976              		.loc 1 483 7 is_stmt 1 view .LVU344
 483:Drivers/STM32F4xx_HAL_Driver/Src/stm32f4xx_hal_dma.cpp ****     }
 977              		.loc 1 483 13 is_stmt 0 view .LVU345
 978 004e 2268     		ldr	r2, [r4]
 483:Drivers/STM32F4xx_HAL_Driver/Src/stm32f4xx_hal_dma.cpp ****     }
 979              		.loc 1 483 23 view .LVU346
 980 0050 1368     		ldr	r3, [r2]
 483:Drivers/STM32F4xx_HAL_Driver/Src/stm32f4xx_hal_dma.cpp ****     }
 981              		.loc 1 483 27 view .LVU347
 982 0052 43F00803 		orr	r3, r3, #8
 983 0056 1360     		str	r3, [r2]
 984              	.L61:
 487:Drivers/STM32F4xx_HAL_Driver/Src/stm32f4xx_hal_dma.cpp ****   }
 985              		.loc 1 487 5 is_stmt 1 view .LVU348
 986 0058 2268     		ldr	r2, [r4]
 987 005a 1368     		ldr	r3, [r2]
 988 005c 43F00103 		orr	r3, r3, #1
 989 0060 1360     		str	r3, [r2]
 453:Drivers/STM32F4xx_HAL_Driver/Src/stm32f4xx_hal_dma.cpp **** 
 990              		.loc 1 453 21 is_stmt 0 view .LVU349
 991 0062 0020     		movs	r0, #0
 992 0064 DFE7     		b	.L59
 993              	.LVL92:
 994              	.L62:
 462:Drivers/STM32F4xx_HAL_Driver/Src/stm32f4xx_hal_dma.cpp ****   
 995              		.loc 1 462 3 view .LVU350
 996 0066 0220     		movs	r0, #2
 997 0068 DDE7     		b	.L59
 998              		.cfi_endproc
 999              	.LFE238:
 1000              		.cantunwind
 1001              		.fnend
ARM GAS  C:\Users\huawei\AppData\Local\Temp\ccXalwLh.s 			page 46


 1003              		.section	.text.HAL_DMA_Abort,"ax",%progbits
 1004              		.align	1
 1005              		.global	HAL_DMA_Abort
 1006              		.syntax unified
 1007              		.thumb
 1008              		.thumb_func
 1010              	HAL_DMA_Abort:
 1011              		.fnstart
 1012              	.LVL93:
 1013              	.LFB239:
 514:Drivers/STM32F4xx_HAL_Driver/Src/stm32f4xx_hal_dma.cpp ****   /* calculate DMA base and stream number */
 1014              		.loc 1 514 1 is_stmt 1 view -0
 1015              		.cfi_startproc
 1016              		@ args = 0, pretend = 0, frame = 0
 1017              		@ frame_needed = 0, uses_anonymous_args = 0
 514:Drivers/STM32F4xx_HAL_Driver/Src/stm32f4xx_hal_dma.cpp ****   /* calculate DMA base and stream number */
 1018              		.loc 1 514 1 is_stmt 0 view .LVU352
 1019 0000 70B5     		push	{r4, r5, r6, lr}
 1020              		.save {r4, r5, r6, lr}
 1021              	.LCFI11:
 1022              		.cfi_def_cfa_offset 16
 1023              		.cfi_offset 4, -16
 1024              		.cfi_offset 5, -12
 1025              		.cfi_offset 6, -8
 1026              		.cfi_offset 14, -4
 1027 0002 0446     		mov	r4, r0
 516:Drivers/STM32F4xx_HAL_Driver/Src/stm32f4xx_hal_dma.cpp ****   
 1028              		.loc 1 516 3 is_stmt 1 view .LVU353
 516:Drivers/STM32F4xx_HAL_Driver/Src/stm32f4xx_hal_dma.cpp ****   
 1029              		.loc 1 516 58 is_stmt 0 view .LVU354
 1030 0004 866D     		ldr	r6, [r0, #88]
 1031              	.LVL94:
 518:Drivers/STM32F4xx_HAL_Driver/Src/stm32f4xx_hal_dma.cpp ****   
 1032              		.loc 1 518 3 is_stmt 1 view .LVU355
 518:Drivers/STM32F4xx_HAL_Driver/Src/stm32f4xx_hal_dma.cpp ****   
 1033              		.loc 1 518 35 is_stmt 0 view .LVU356
 1034 0006 FFF7FEFF 		bl	HAL_GetTick
 1035              	.LVL95:
 520:Drivers/STM32F4xx_HAL_Driver/Src/stm32f4xx_hal_dma.cpp ****   {
 1036              		.loc 1 520 3 is_stmt 1 view .LVU357
 520:Drivers/STM32F4xx_HAL_Driver/Src/stm32f4xx_hal_dma.cpp ****   {
 1037              		.loc 1 520 12 is_stmt 0 view .LVU358
 1038 000a 94F83530 		ldrb	r3, [r4, #53]	@ zero_extendqisi2
 1039 000e DBB2     		uxtb	r3, r3
 520:Drivers/STM32F4xx_HAL_Driver/Src/stm32f4xx_hal_dma.cpp ****   {
 1040              		.loc 1 520 3 view .LVU359
 1041 0010 022B     		cmp	r3, #2
 1042 0012 06D0     		beq	.L66
 522:Drivers/STM32F4xx_HAL_Driver/Src/stm32f4xx_hal_dma.cpp ****     
 1043              		.loc 1 522 5 is_stmt 1 view .LVU360
 522:Drivers/STM32F4xx_HAL_Driver/Src/stm32f4xx_hal_dma.cpp ****     
 1044              		.loc 1 522 21 is_stmt 0 view .LVU361
 1045 0014 8023     		movs	r3, #128
 1046 0016 6365     		str	r3, [r4, #84]
 525:Drivers/STM32F4xx_HAL_Driver/Src/stm32f4xx_hal_dma.cpp ****     
 1047              		.loc 1 525 5 is_stmt 1 view .LVU362
 525:Drivers/STM32F4xx_HAL_Driver/Src/stm32f4xx_hal_dma.cpp ****     
ARM GAS  C:\Users\huawei\AppData\Local\Temp\ccXalwLh.s 			page 47


 1048              		.loc 1 525 5 view .LVU363
 1049 0018 0023     		movs	r3, #0
 1050 001a 84F83430 		strb	r3, [r4, #52]
 525:Drivers/STM32F4xx_HAL_Driver/Src/stm32f4xx_hal_dma.cpp ****     
 1051              		.loc 1 525 5 view .LVU364
 527:Drivers/STM32F4xx_HAL_Driver/Src/stm32f4xx_hal_dma.cpp ****   }
 1052              		.loc 1 527 5 view .LVU365
 527:Drivers/STM32F4xx_HAL_Driver/Src/stm32f4xx_hal_dma.cpp ****   }
 1053              		.loc 1 527 12 is_stmt 0 view .LVU366
 1054 001e 0120     		movs	r0, #1
 1055              	.LVL96:
 1056              	.L67:
 572:Drivers/STM32F4xx_HAL_Driver/Src/stm32f4xx_hal_dma.cpp **** 
 1057              		.loc 1 572 1 view .LVU367
 1058 0020 70BD     		pop	{r4, r5, r6, pc}
 1059              	.LVL97:
 1060              	.L66:
 572:Drivers/STM32F4xx_HAL_Driver/Src/stm32f4xx_hal_dma.cpp **** 
 1061              		.loc 1 572 1 view .LVU368
 1062 0022 0546     		mov	r5, r0
 532:Drivers/STM32F4xx_HAL_Driver/Src/stm32f4xx_hal_dma.cpp ****     hdma->Instance->FCR &= ~(DMA_IT_FE);
 1063              		.loc 1 532 5 is_stmt 1 view .LVU369
 532:Drivers/STM32F4xx_HAL_Driver/Src/stm32f4xx_hal_dma.cpp ****     hdma->Instance->FCR &= ~(DMA_IT_FE);
 1064              		.loc 1 532 11 is_stmt 0 view .LVU370
 1065 0024 2268     		ldr	r2, [r4]
 532:Drivers/STM32F4xx_HAL_Driver/Src/stm32f4xx_hal_dma.cpp ****     hdma->Instance->FCR &= ~(DMA_IT_FE);
 1066              		.loc 1 532 21 view .LVU371
 1067 0026 1368     		ldr	r3, [r2]
 532:Drivers/STM32F4xx_HAL_Driver/Src/stm32f4xx_hal_dma.cpp ****     hdma->Instance->FCR &= ~(DMA_IT_FE);
 1068              		.loc 1 532 25 view .LVU372
 1069 0028 23F01603 		bic	r3, r3, #22
 1070 002c 1360     		str	r3, [r2]
 533:Drivers/STM32F4xx_HAL_Driver/Src/stm32f4xx_hal_dma.cpp ****     
 1071              		.loc 1 533 5 is_stmt 1 view .LVU373
 533:Drivers/STM32F4xx_HAL_Driver/Src/stm32f4xx_hal_dma.cpp ****     
 1072              		.loc 1 533 11 is_stmt 0 view .LVU374
 1073 002e 2268     		ldr	r2, [r4]
 533:Drivers/STM32F4xx_HAL_Driver/Src/stm32f4xx_hal_dma.cpp ****     
 1074              		.loc 1 533 21 view .LVU375
 1075 0030 5369     		ldr	r3, [r2, #20]
 533:Drivers/STM32F4xx_HAL_Driver/Src/stm32f4xx_hal_dma.cpp ****     
 1076              		.loc 1 533 25 view .LVU376
 1077 0032 23F08003 		bic	r3, r3, #128
 1078 0036 5361     		str	r3, [r2, #20]
 535:Drivers/STM32F4xx_HAL_Driver/Src/stm32f4xx_hal_dma.cpp ****     {
 1079              		.loc 1 535 5 is_stmt 1 view .LVU377
 535:Drivers/STM32F4xx_HAL_Driver/Src/stm32f4xx_hal_dma.cpp ****     {
 1080              		.loc 1 535 15 is_stmt 0 view .LVU378
 1081 0038 236C     		ldr	r3, [r4, #64]
 535:Drivers/STM32F4xx_HAL_Driver/Src/stm32f4xx_hal_dma.cpp ****     {
 1082              		.loc 1 535 5 view .LVU379
 1083 003a E3B1     		cbz	r3, .L73
 1084              	.L68:
 537:Drivers/STM32F4xx_HAL_Driver/Src/stm32f4xx_hal_dma.cpp ****     }
 1085              		.loc 1 537 7 is_stmt 1 view .LVU380
 537:Drivers/STM32F4xx_HAL_Driver/Src/stm32f4xx_hal_dma.cpp ****     }
 1086              		.loc 1 537 13 is_stmt 0 view .LVU381
ARM GAS  C:\Users\huawei\AppData\Local\Temp\ccXalwLh.s 			page 48


 1087 003c 2268     		ldr	r2, [r4]
 537:Drivers/STM32F4xx_HAL_Driver/Src/stm32f4xx_hal_dma.cpp ****     }
 1088              		.loc 1 537 23 view .LVU382
 1089 003e 1368     		ldr	r3, [r2]
 537:Drivers/STM32F4xx_HAL_Driver/Src/stm32f4xx_hal_dma.cpp ****     }
 1090              		.loc 1 537 27 view .LVU383
 1091 0040 23F00803 		bic	r3, r3, #8
 1092 0044 1360     		str	r3, [r2]
 1093              	.L69:
 541:Drivers/STM32F4xx_HAL_Driver/Src/stm32f4xx_hal_dma.cpp ****     
 1094              		.loc 1 541 5 is_stmt 1 view .LVU384
 1095 0046 2268     		ldr	r2, [r4]
 1096 0048 1368     		ldr	r3, [r2]
 1097 004a 23F00103 		bic	r3, r3, #1
 1098 004e 1360     		str	r3, [r2]
 544:Drivers/STM32F4xx_HAL_Driver/Src/stm32f4xx_hal_dma.cpp ****     {
 1099              		.loc 1 544 5 view .LVU385
 1100              	.LVL98:
 1101              	.L70:
 544:Drivers/STM32F4xx_HAL_Driver/Src/stm32f4xx_hal_dma.cpp ****     {
 1102              		.loc 1 544 46 view .LVU386
 544:Drivers/STM32F4xx_HAL_Driver/Src/stm32f4xx_hal_dma.cpp ****     {
 1103              		.loc 1 544 18 is_stmt 0 view .LVU387
 1104 0050 2368     		ldr	r3, [r4]
 544:Drivers/STM32F4xx_HAL_Driver/Src/stm32f4xx_hal_dma.cpp ****     {
 1105              		.loc 1 544 28 view .LVU388
 1106 0052 1B68     		ldr	r3, [r3]
 544:Drivers/STM32F4xx_HAL_Driver/Src/stm32f4xx_hal_dma.cpp ****     {
 1107              		.loc 1 544 46 view .LVU389
 1108 0054 13F0010F 		tst	r3, #1
 1109 0058 11D0     		beq	.L74
 547:Drivers/STM32F4xx_HAL_Driver/Src/stm32f4xx_hal_dma.cpp ****       {
 1110              		.loc 1 547 7 is_stmt 1 view .LVU390
 547:Drivers/STM32F4xx_HAL_Driver/Src/stm32f4xx_hal_dma.cpp ****       {
 1111              		.loc 1 547 22 is_stmt 0 view .LVU391
 1112 005a FFF7FEFF 		bl	HAL_GetTick
 1113              	.LVL99:
 547:Drivers/STM32F4xx_HAL_Driver/Src/stm32f4xx_hal_dma.cpp ****       {
 1114              		.loc 1 547 25 view .LVU392
 1115 005e 431B     		subs	r3, r0, r5
 547:Drivers/STM32F4xx_HAL_Driver/Src/stm32f4xx_hal_dma.cpp ****       {
 1116              		.loc 1 547 7 view .LVU393
 1117 0060 052B     		cmp	r3, #5
 1118 0062 F5D9     		bls	.L70
 550:Drivers/STM32F4xx_HAL_Driver/Src/stm32f4xx_hal_dma.cpp ****         
 1119              		.loc 1 550 9 is_stmt 1 view .LVU394
 550:Drivers/STM32F4xx_HAL_Driver/Src/stm32f4xx_hal_dma.cpp ****         
 1120              		.loc 1 550 25 is_stmt 0 view .LVU395
 1121 0064 2023     		movs	r3, #32
 1122 0066 6365     		str	r3, [r4, #84]
 553:Drivers/STM32F4xx_HAL_Driver/Src/stm32f4xx_hal_dma.cpp ****         
 1123              		.loc 1 553 9 is_stmt 1 view .LVU396
 553:Drivers/STM32F4xx_HAL_Driver/Src/stm32f4xx_hal_dma.cpp ****         
 1124              		.loc 1 553 21 is_stmt 0 view .LVU397
 1125 0068 0320     		movs	r0, #3
 1126 006a 84F83500 		strb	r0, [r4, #53]
 556:Drivers/STM32F4xx_HAL_Driver/Src/stm32f4xx_hal_dma.cpp ****         
ARM GAS  C:\Users\huawei\AppData\Local\Temp\ccXalwLh.s 			page 49


 1127              		.loc 1 556 9 is_stmt 1 view .LVU398
 556:Drivers/STM32F4xx_HAL_Driver/Src/stm32f4xx_hal_dma.cpp ****         
 1128              		.loc 1 556 9 view .LVU399
 1129 006e 0023     		movs	r3, #0
 1130 0070 84F83430 		strb	r3, [r4, #52]
 556:Drivers/STM32F4xx_HAL_Driver/Src/stm32f4xx_hal_dma.cpp ****         
 1131              		.loc 1 556 9 view .LVU400
 558:Drivers/STM32F4xx_HAL_Driver/Src/stm32f4xx_hal_dma.cpp ****       }
 1132              		.loc 1 558 9 view .LVU401
 558:Drivers/STM32F4xx_HAL_Driver/Src/stm32f4xx_hal_dma.cpp ****       }
 1133              		.loc 1 558 16 is_stmt 0 view .LVU402
 1134 0074 D4E7     		b	.L67
 1135              	.LVL100:
 1136              	.L73:
 535:Drivers/STM32F4xx_HAL_Driver/Src/stm32f4xx_hal_dma.cpp ****     {
 1137              		.loc 1 535 55 discriminator 1 view .LVU403
 1138 0076 A36C     		ldr	r3, [r4, #72]
 535:Drivers/STM32F4xx_HAL_Driver/Src/stm32f4xx_hal_dma.cpp ****     {
 1139              		.loc 1 535 45 discriminator 1 view .LVU404
 1140 0078 002B     		cmp	r3, #0
 1141 007a DFD1     		bne	.L68
 1142 007c E3E7     		b	.L69
 1143              	.LVL101:
 1144              	.L74:
 563:Drivers/STM32F4xx_HAL_Driver/Src/stm32f4xx_hal_dma.cpp ****     
 1145              		.loc 1 563 5 is_stmt 1 view .LVU405
 563:Drivers/STM32F4xx_HAL_Driver/Src/stm32f4xx_hal_dma.cpp ****     
 1146              		.loc 1 563 33 is_stmt 0 view .LVU406
 1147 007e E26D     		ldr	r2, [r4, #92]
 563:Drivers/STM32F4xx_HAL_Driver/Src/stm32f4xx_hal_dma.cpp ****     
 1148              		.loc 1 563 24 view .LVU407
 1149 0080 3F23     		movs	r3, #63
 1150 0082 9340     		lsls	r3, r3, r2
 563:Drivers/STM32F4xx_HAL_Driver/Src/stm32f4xx_hal_dma.cpp ****     
 1151              		.loc 1 563 16 view .LVU408
 1152 0084 B360     		str	r3, [r6, #8]
 566:Drivers/STM32F4xx_HAL_Driver/Src/stm32f4xx_hal_dma.cpp ****     
 1153              		.loc 1 566 5 is_stmt 1 view .LVU409
 566:Drivers/STM32F4xx_HAL_Driver/Src/stm32f4xx_hal_dma.cpp ****     
 1154              		.loc 1 566 17 is_stmt 0 view .LVU410
 1155 0086 0123     		movs	r3, #1
 1156 0088 84F83530 		strb	r3, [r4, #53]
 569:Drivers/STM32F4xx_HAL_Driver/Src/stm32f4xx_hal_dma.cpp ****   }
 1157              		.loc 1 569 5 is_stmt 1 view .LVU411
 569:Drivers/STM32F4xx_HAL_Driver/Src/stm32f4xx_hal_dma.cpp ****   }
 1158              		.loc 1 569 5 view .LVU412
 1159 008c 0020     		movs	r0, #0
 1160 008e 84F83400 		strb	r0, [r4, #52]
 569:Drivers/STM32F4xx_HAL_Driver/Src/stm32f4xx_hal_dma.cpp ****   }
 1161              		.loc 1 569 5 view .LVU413
 571:Drivers/STM32F4xx_HAL_Driver/Src/stm32f4xx_hal_dma.cpp **** }
 1162              		.loc 1 571 3 view .LVU414
 571:Drivers/STM32F4xx_HAL_Driver/Src/stm32f4xx_hal_dma.cpp **** }
 1163              		.loc 1 571 10 is_stmt 0 view .LVU415
 1164 0092 C5E7     		b	.L67
 1165              		.cfi_endproc
 1166              	.LFE239:
ARM GAS  C:\Users\huawei\AppData\Local\Temp\ccXalwLh.s 			page 50


 1167              		.fnend
 1169              		.section	.text.HAL_DMA_Abort_IT,"ax",%progbits
 1170              		.align	1
 1171              		.global	HAL_DMA_Abort_IT
 1172              		.syntax unified
 1173              		.thumb
 1174              		.thumb_func
 1176              	HAL_DMA_Abort_IT:
 1177              		.fnstart
 1178              	.LVL102:
 1179              	.LFB240:
 581:Drivers/STM32F4xx_HAL_Driver/Src/stm32f4xx_hal_dma.cpp ****   if(hdma->State != HAL_DMA_STATE_BUSY)
 1180              		.loc 1 581 1 is_stmt 1 view -0
 1181              		.cfi_startproc
 1182              		@ args = 0, pretend = 0, frame = 0
 1183              		@ frame_needed = 0, uses_anonymous_args = 0
 1184              		@ link register save eliminated.
 582:Drivers/STM32F4xx_HAL_Driver/Src/stm32f4xx_hal_dma.cpp ****   {
 1185              		.loc 1 582 3 view .LVU417
 582:Drivers/STM32F4xx_HAL_Driver/Src/stm32f4xx_hal_dma.cpp ****   {
 1186              		.loc 1 582 12 is_stmt 0 view .LVU418
 1187 0000 90F83530 		ldrb	r3, [r0, #53]	@ zero_extendqisi2
 1188 0004 DBB2     		uxtb	r3, r3
 582:Drivers/STM32F4xx_HAL_Driver/Src/stm32f4xx_hal_dma.cpp ****   {
 1189              		.loc 1 582 3 view .LVU419
 1190 0006 022B     		cmp	r3, #2
 1191 0008 03D0     		beq	.L76
 584:Drivers/STM32F4xx_HAL_Driver/Src/stm32f4xx_hal_dma.cpp ****     return HAL_ERROR;
 1192              		.loc 1 584 5 is_stmt 1 view .LVU420
 584:Drivers/STM32F4xx_HAL_Driver/Src/stm32f4xx_hal_dma.cpp ****     return HAL_ERROR;
 1193              		.loc 1 584 21 is_stmt 0 view .LVU421
 1194 000a 8023     		movs	r3, #128
 1195 000c 4365     		str	r3, [r0, #84]
 585:Drivers/STM32F4xx_HAL_Driver/Src/stm32f4xx_hal_dma.cpp ****   }
 1196              		.loc 1 585 5 is_stmt 1 view .LVU422
 585:Drivers/STM32F4xx_HAL_Driver/Src/stm32f4xx_hal_dma.cpp ****   }
 1197              		.loc 1 585 12 is_stmt 0 view .LVU423
 1198 000e 0120     		movs	r0, #1
 1199              	.LVL103:
 585:Drivers/STM32F4xx_HAL_Driver/Src/stm32f4xx_hal_dma.cpp ****   }
 1200              		.loc 1 585 12 view .LVU424
 1201 0010 7047     		bx	lr
 1202              	.LVL104:
 1203              	.L76:
 590:Drivers/STM32F4xx_HAL_Driver/Src/stm32f4xx_hal_dma.cpp ****     
 1204              		.loc 1 590 5 is_stmt 1 view .LVU425
 590:Drivers/STM32F4xx_HAL_Driver/Src/stm32f4xx_hal_dma.cpp ****     
 1205              		.loc 1 590 17 is_stmt 0 view .LVU426
 1206 0012 0523     		movs	r3, #5
 1207 0014 80F83530 		strb	r3, [r0, #53]
 593:Drivers/STM32F4xx_HAL_Driver/Src/stm32f4xx_hal_dma.cpp ****   }
 1208              		.loc 1 593 5 is_stmt 1 view .LVU427
 1209 0018 0268     		ldr	r2, [r0]
 1210 001a 1368     		ldr	r3, [r2]
 1211 001c 23F00103 		bic	r3, r3, #1
 1212 0020 1360     		str	r3, [r2]
 596:Drivers/STM32F4xx_HAL_Driver/Src/stm32f4xx_hal_dma.cpp **** }
ARM GAS  C:\Users\huawei\AppData\Local\Temp\ccXalwLh.s 			page 51


 1213              		.loc 1 596 3 view .LVU428
 596:Drivers/STM32F4xx_HAL_Driver/Src/stm32f4xx_hal_dma.cpp **** }
 1214              		.loc 1 596 10 is_stmt 0 view .LVU429
 1215 0022 0020     		movs	r0, #0
 1216              	.LVL105:
 597:Drivers/STM32F4xx_HAL_Driver/Src/stm32f4xx_hal_dma.cpp **** 
 1217              		.loc 1 597 1 view .LVU430
 1218 0024 7047     		bx	lr
 1219              		.cfi_endproc
 1220              	.LFE240:
 1221              		.cantunwind
 1222              		.fnend
 1224              		.section	.text.HAL_DMA_PollForTransfer,"ax",%progbits
 1225              		.align	1
 1226              		.global	HAL_DMA_PollForTransfer
 1227              		.syntax unified
 1228              		.thumb
 1229              		.thumb_func
 1231              	HAL_DMA_PollForTransfer:
 1232              		.fnstart
 1233              	.LVL106:
 1234              	.LFB241:
 611:Drivers/STM32F4xx_HAL_Driver/Src/stm32f4xx_hal_dma.cpp ****   HAL_StatusTypeDef status = HAL_OK; 
 1235              		.loc 1 611 1 is_stmt 1 view -0
 1236              		.cfi_startproc
 1237              		@ args = 0, pretend = 0, frame = 0
 1238              		@ frame_needed = 0, uses_anonymous_args = 0
 611:Drivers/STM32F4xx_HAL_Driver/Src/stm32f4xx_hal_dma.cpp ****   HAL_StatusTypeDef status = HAL_OK; 
 1239              		.loc 1 611 1 is_stmt 0 view .LVU432
 1240 0000 2DE9F047 		push	{r4, r5, r6, r7, r8, r9, r10, lr}
 1241              		.save {r4, r5, r6, r7, r8, r9, r10, lr}
 1242              	.LCFI12:
 1243              		.cfi_def_cfa_offset 32
 1244              		.cfi_offset 4, -32
 1245              		.cfi_offset 5, -28
 1246              		.cfi_offset 6, -24
 1247              		.cfi_offset 7, -20
 1248              		.cfi_offset 8, -16
 1249              		.cfi_offset 9, -12
 1250              		.cfi_offset 10, -8
 1251              		.cfi_offset 14, -4
 1252 0004 0446     		mov	r4, r0
 1253 0006 8846     		mov	r8, r1
 1254 0008 1646     		mov	r6, r2
 612:Drivers/STM32F4xx_HAL_Driver/Src/stm32f4xx_hal_dma.cpp ****   uint32_t mask_cpltlevel;
 1255              		.loc 1 612 3 is_stmt 1 view .LVU433
 1256              	.LVL107:
 613:Drivers/STM32F4xx_HAL_Driver/Src/stm32f4xx_hal_dma.cpp ****   uint32_t tickstart = HAL_GetTick(); 
 1257              		.loc 1 613 3 view .LVU434
 614:Drivers/STM32F4xx_HAL_Driver/Src/stm32f4xx_hal_dma.cpp ****   uint32_t tmpisr;
 1258              		.loc 1 614 3 view .LVU435
 614:Drivers/STM32F4xx_HAL_Driver/Src/stm32f4xx_hal_dma.cpp ****   uint32_t tmpisr;
 1259              		.loc 1 614 35 is_stmt 0 view .LVU436
 1260 000a FFF7FEFF 		bl	HAL_GetTick
 1261              	.LVL108:
 615:Drivers/STM32F4xx_HAL_Driver/Src/stm32f4xx_hal_dma.cpp ****   
 1262              		.loc 1 615 3 is_stmt 1 view .LVU437
ARM GAS  C:\Users\huawei\AppData\Local\Temp\ccXalwLh.s 			page 52


 618:Drivers/STM32F4xx_HAL_Driver/Src/stm32f4xx_hal_dma.cpp **** 
 1263              		.loc 1 618 3 view .LVU438
 620:Drivers/STM32F4xx_HAL_Driver/Src/stm32f4xx_hal_dma.cpp ****   {
 1264              		.loc 1 620 3 view .LVU439
 620:Drivers/STM32F4xx_HAL_Driver/Src/stm32f4xx_hal_dma.cpp ****   {
 1265              		.loc 1 620 34 is_stmt 0 view .LVU440
 1266 000e 94F83530 		ldrb	r3, [r4, #53]	@ zero_extendqisi2
 1267 0012 DBB2     		uxtb	r3, r3
 620:Drivers/STM32F4xx_HAL_Driver/Src/stm32f4xx_hal_dma.cpp ****   {
 1268              		.loc 1 620 3 view .LVU441
 1269 0014 022B     		cmp	r3, #2
 1270 0016 07D0     		beq	.L79
 623:Drivers/STM32F4xx_HAL_Driver/Src/stm32f4xx_hal_dma.cpp ****     __HAL_UNLOCK(hdma);
 1271              		.loc 1 623 5 is_stmt 1 view .LVU442
 623:Drivers/STM32F4xx_HAL_Driver/Src/stm32f4xx_hal_dma.cpp ****     __HAL_UNLOCK(hdma);
 1272              		.loc 1 623 21 is_stmt 0 view .LVU443
 1273 0018 8023     		movs	r3, #128
 1274 001a 6365     		str	r3, [r4, #84]
 624:Drivers/STM32F4xx_HAL_Driver/Src/stm32f4xx_hal_dma.cpp ****     return HAL_ERROR;
 1275              		.loc 1 624 5 is_stmt 1 view .LVU444
 624:Drivers/STM32F4xx_HAL_Driver/Src/stm32f4xx_hal_dma.cpp ****     return HAL_ERROR;
 1276              		.loc 1 624 5 view .LVU445
 1277 001c 0023     		movs	r3, #0
 1278 001e 84F83430 		strb	r3, [r4, #52]
 624:Drivers/STM32F4xx_HAL_Driver/Src/stm32f4xx_hal_dma.cpp ****     return HAL_ERROR;
 1279              		.loc 1 624 5 view .LVU446
 625:Drivers/STM32F4xx_HAL_Driver/Src/stm32f4xx_hal_dma.cpp ****   }
 1280              		.loc 1 625 5 view .LVU447
 625:Drivers/STM32F4xx_HAL_Driver/Src/stm32f4xx_hal_dma.cpp ****   }
 1281              		.loc 1 625 12 is_stmt 0 view .LVU448
 1282 0022 0120     		movs	r0, #1
 1283              	.LVL109:
 1284              	.L80:
 738:Drivers/STM32F4xx_HAL_Driver/Src/stm32f4xx_hal_dma.cpp **** 
 1285              		.loc 1 738 1 view .LVU449
 1286 0024 BDE8F087 		pop	{r4, r5, r6, r7, r8, r9, r10, pc}
 1287              	.LVL110:
 1288              	.L79:
 738:Drivers/STM32F4xx_HAL_Driver/Src/stm32f4xx_hal_dma.cpp **** 
 1289              		.loc 1 738 1 view .LVU450
 1290 0028 8146     		mov	r9, r0
 629:Drivers/STM32F4xx_HAL_Driver/Src/stm32f4xx_hal_dma.cpp ****   {
 1291              		.loc 1 629 3 is_stmt 1 view .LVU451
 629:Drivers/STM32F4xx_HAL_Driver/Src/stm32f4xx_hal_dma.cpp ****   {
 1292              		.loc 1 629 14 is_stmt 0 view .LVU452
 1293 002a 2368     		ldr	r3, [r4]
 629:Drivers/STM32F4xx_HAL_Driver/Src/stm32f4xx_hal_dma.cpp ****   {
 1294              		.loc 1 629 24 view .LVU453
 1295 002c 1B68     		ldr	r3, [r3]
 629:Drivers/STM32F4xx_HAL_Driver/Src/stm32f4xx_hal_dma.cpp ****   {
 1296              		.loc 1 629 3 view .LVU454
 1297 002e 13F4807F 		tst	r3, #256
 1298 0032 3BD1     		bne	.L97
 636:Drivers/STM32F4xx_HAL_Driver/Src/stm32f4xx_hal_dma.cpp ****   {
 1299              		.loc 1 636 3 is_stmt 1 view .LVU455
 1300 0034 B8F1000F 		cmp	r8, #0
 1301 0038 3DD1     		bne	.L82
ARM GAS  C:\Users\huawei\AppData\Local\Temp\ccXalwLh.s 			page 53


 639:Drivers/STM32F4xx_HAL_Driver/Src/stm32f4xx_hal_dma.cpp ****   }
 1302              		.loc 1 639 5 view .LVU456
 639:Drivers/STM32F4xx_HAL_Driver/Src/stm32f4xx_hal_dma.cpp ****   }
 1303              		.loc 1 639 48 is_stmt 0 view .LVU457
 1304 003a E36D     		ldr	r3, [r4, #92]
 639:Drivers/STM32F4xx_HAL_Driver/Src/stm32f4xx_hal_dma.cpp ****   }
 1305              		.loc 1 639 20 view .LVU458
 1306 003c 4FF0200A 		mov	r10, #32
 1307 0040 0AFA03FA 		lsl	r10, r10, r3
 1308              	.LVL111:
 1309              	.L83:
 647:Drivers/STM32F4xx_HAL_Driver/Src/stm32f4xx_hal_dma.cpp ****   tmpisr = regs->ISR;
 1310              		.loc 1 647 3 is_stmt 1 view .LVU459
 647:Drivers/STM32F4xx_HAL_Driver/Src/stm32f4xx_hal_dma.cpp ****   tmpisr = regs->ISR;
 1311              		.loc 1 647 38 is_stmt 0 view .LVU460
 1312 0044 A76D     		ldr	r7, [r4, #88]
 1313              	.LVL112:
 648:Drivers/STM32F4xx_HAL_Driver/Src/stm32f4xx_hal_dma.cpp ****   
 1314              		.loc 1 648 3 is_stmt 1 view .LVU461
 648:Drivers/STM32F4xx_HAL_Driver/Src/stm32f4xx_hal_dma.cpp ****   
 1315              		.loc 1 648 10 is_stmt 0 view .LVU462
 1316 0046 3B68     		ldr	r3, [r7]
 1317              	.LVL113:
 650:Drivers/STM32F4xx_HAL_Driver/Src/stm32f4xx_hal_dma.cpp ****   {
 1318              		.loc 1 650 3 is_stmt 1 view .LVU463
 1319              	.L84:
 650:Drivers/STM32F4xx_HAL_Driver/Src/stm32f4xx_hal_dma.cpp ****   {
 1320              		.loc 1 650 46 view .LVU464
 1321 0048 1AEA030F 		tst	r10, r3
 1322 004c 43D1     		bne	.L90
 650:Drivers/STM32F4xx_HAL_Driver/Src/stm32f4xx_hal_dma.cpp ****   {
 1323              		.loc 1 650 57 is_stmt 0 discriminator 1 view .LVU465
 1324 004e 636D     		ldr	r3, [r4, #84]
 1325              	.LVL114:
 650:Drivers/STM32F4xx_HAL_Driver/Src/stm32f4xx_hal_dma.cpp ****   {
 1326              		.loc 1 650 46 discriminator 1 view .LVU466
 1327 0050 13F0010F 		tst	r3, #1
 1328 0054 3FD1     		bne	.L90
 653:Drivers/STM32F4xx_HAL_Driver/Src/stm32f4xx_hal_dma.cpp ****     {
 1329              		.loc 1 653 5 is_stmt 1 view .LVU467
 1330 0056 B6F1FF3F 		cmp	r6, #-1
 1331 005a 07D0     		beq	.L86
 655:Drivers/STM32F4xx_HAL_Driver/Src/stm32f4xx_hal_dma.cpp ****       {
 1332              		.loc 1 655 7 view .LVU468
 655:Drivers/STM32F4xx_HAL_Driver/Src/stm32f4xx_hal_dma.cpp ****       {
 1333              		.loc 1 655 25 is_stmt 0 view .LVU469
 1334 005c 002E     		cmp	r6, #0
 1335 005e 30D0     		beq	.L85
 655:Drivers/STM32F4xx_HAL_Driver/Src/stm32f4xx_hal_dma.cpp ****       {
 1336              		.loc 1 655 40 discriminator 2 view .LVU470
 1337 0060 FFF7FEFF 		bl	HAL_GetTick
 1338              	.LVL115:
 655:Drivers/STM32F4xx_HAL_Driver/Src/stm32f4xx_hal_dma.cpp ****       {
 1339              		.loc 1 655 43 discriminator 2 view .LVU471
 1340 0064 A0EB0900 		sub	r0, r0, r9
 655:Drivers/STM32F4xx_HAL_Driver/Src/stm32f4xx_hal_dma.cpp ****       {
 1341              		.loc 1 655 25 discriminator 2 view .LVU472
ARM GAS  C:\Users\huawei\AppData\Local\Temp\ccXalwLh.s 			page 54


 1342 0068 B042     		cmp	r0, r6
 1343 006a 2AD8     		bhi	.L85
 1344              	.L86:
 671:Drivers/STM32F4xx_HAL_Driver/Src/stm32f4xx_hal_dma.cpp **** 
 1345              		.loc 1 671 5 is_stmt 1 view .LVU473
 671:Drivers/STM32F4xx_HAL_Driver/Src/stm32f4xx_hal_dma.cpp **** 
 1346              		.loc 1 671 12 is_stmt 0 view .LVU474
 1347 006c 3B68     		ldr	r3, [r7]
 1348              	.LVL116:
 673:Drivers/STM32F4xx_HAL_Driver/Src/stm32f4xx_hal_dma.cpp ****     {
 1349              		.loc 1 673 5 is_stmt 1 view .LVU475
 673:Drivers/STM32F4xx_HAL_Driver/Src/stm32f4xx_hal_dma.cpp ****     {
 1350              		.loc 1 673 45 is_stmt 0 view .LVU476
 1351 006e E16D     		ldr	r1, [r4, #92]
 673:Drivers/STM32F4xx_HAL_Driver/Src/stm32f4xx_hal_dma.cpp ****     {
 1352              		.loc 1 673 36 view .LVU477
 1353 0070 0822     		movs	r2, #8
 1354 0072 8A40     		lsls	r2, r2, r1
 673:Drivers/STM32F4xx_HAL_Driver/Src/stm32f4xx_hal_dma.cpp ****     {
 1355              		.loc 1 673 5 view .LVU478
 1356 0074 1A42     		tst	r2, r3
 1357 0076 04D0     		beq	.L87
 676:Drivers/STM32F4xx_HAL_Driver/Src/stm32f4xx_hal_dma.cpp ****       
 1358              		.loc 1 676 7 is_stmt 1 view .LVU479
 676:Drivers/STM32F4xx_HAL_Driver/Src/stm32f4xx_hal_dma.cpp ****       
 1359              		.loc 1 676 13 is_stmt 0 view .LVU480
 1360 0078 616D     		ldr	r1, [r4, #84]
 676:Drivers/STM32F4xx_HAL_Driver/Src/stm32f4xx_hal_dma.cpp ****       
 1361              		.loc 1 676 23 view .LVU481
 1362 007a 41F00101 		orr	r1, r1, #1
 1363 007e 6165     		str	r1, [r4, #84]
 679:Drivers/STM32F4xx_HAL_Driver/Src/stm32f4xx_hal_dma.cpp ****     }
 1364              		.loc 1 679 7 is_stmt 1 view .LVU482
 679:Drivers/STM32F4xx_HAL_Driver/Src/stm32f4xx_hal_dma.cpp ****     }
 1365              		.loc 1 679 18 is_stmt 0 view .LVU483
 1366 0080 BA60     		str	r2, [r7, #8]
 1367              	.L87:
 682:Drivers/STM32F4xx_HAL_Driver/Src/stm32f4xx_hal_dma.cpp ****     {
 1368              		.loc 1 682 5 is_stmt 1 view .LVU484
 682:Drivers/STM32F4xx_HAL_Driver/Src/stm32f4xx_hal_dma.cpp ****     {
 1369              		.loc 1 682 45 is_stmt 0 view .LVU485
 1370 0082 E16D     		ldr	r1, [r4, #92]
 682:Drivers/STM32F4xx_HAL_Driver/Src/stm32f4xx_hal_dma.cpp ****     {
 1371              		.loc 1 682 36 view .LVU486
 1372 0084 0122     		movs	r2, #1
 1373 0086 8A40     		lsls	r2, r2, r1
 682:Drivers/STM32F4xx_HAL_Driver/Src/stm32f4xx_hal_dma.cpp ****     {
 1374              		.loc 1 682 5 view .LVU487
 1375 0088 1A42     		tst	r2, r3
 1376 008a 04D0     		beq	.L88
 685:Drivers/STM32F4xx_HAL_Driver/Src/stm32f4xx_hal_dma.cpp ****       
 1377              		.loc 1 685 7 is_stmt 1 view .LVU488
 685:Drivers/STM32F4xx_HAL_Driver/Src/stm32f4xx_hal_dma.cpp ****       
 1378              		.loc 1 685 13 is_stmt 0 view .LVU489
 1379 008c 616D     		ldr	r1, [r4, #84]
 685:Drivers/STM32F4xx_HAL_Driver/Src/stm32f4xx_hal_dma.cpp ****       
 1380              		.loc 1 685 23 view .LVU490
ARM GAS  C:\Users\huawei\AppData\Local\Temp\ccXalwLh.s 			page 55


 1381 008e 41F00201 		orr	r1, r1, #2
 1382 0092 6165     		str	r1, [r4, #84]
 688:Drivers/STM32F4xx_HAL_Driver/Src/stm32f4xx_hal_dma.cpp ****     }
 1383              		.loc 1 688 7 is_stmt 1 view .LVU491
 688:Drivers/STM32F4xx_HAL_Driver/Src/stm32f4xx_hal_dma.cpp ****     }
 1384              		.loc 1 688 18 is_stmt 0 view .LVU492
 1385 0094 BA60     		str	r2, [r7, #8]
 1386              	.L88:
 691:Drivers/STM32F4xx_HAL_Driver/Src/stm32f4xx_hal_dma.cpp ****     {
 1387              		.loc 1 691 5 is_stmt 1 view .LVU493
 691:Drivers/STM32F4xx_HAL_Driver/Src/stm32f4xx_hal_dma.cpp ****     {
 1388              		.loc 1 691 46 is_stmt 0 view .LVU494
 1389 0096 E26D     		ldr	r2, [r4, #92]
 691:Drivers/STM32F4xx_HAL_Driver/Src/stm32f4xx_hal_dma.cpp ****     {
 1390              		.loc 1 691 37 view .LVU495
 1391 0098 0425     		movs	r5, #4
 1392 009a 9540     		lsls	r5, r5, r2
 691:Drivers/STM32F4xx_HAL_Driver/Src/stm32f4xx_hal_dma.cpp ****     {
 1393              		.loc 1 691 5 view .LVU496
 1394 009c 1D42     		tst	r5, r3
 1395 009e D3D0     		beq	.L84
 694:Drivers/STM32F4xx_HAL_Driver/Src/stm32f4xx_hal_dma.cpp ****       
 1396              		.loc 1 694 7 is_stmt 1 view .LVU497
 694:Drivers/STM32F4xx_HAL_Driver/Src/stm32f4xx_hal_dma.cpp ****       
 1397              		.loc 1 694 13 is_stmt 0 view .LVU498
 1398 00a0 626D     		ldr	r2, [r4, #84]
 694:Drivers/STM32F4xx_HAL_Driver/Src/stm32f4xx_hal_dma.cpp ****       
 1399              		.loc 1 694 23 view .LVU499
 1400 00a2 42F00402 		orr	r2, r2, #4
 1401 00a6 6265     		str	r2, [r4, #84]
 697:Drivers/STM32F4xx_HAL_Driver/Src/stm32f4xx_hal_dma.cpp ****     }
 1402              		.loc 1 697 7 is_stmt 1 view .LVU500
 697:Drivers/STM32F4xx_HAL_Driver/Src/stm32f4xx_hal_dma.cpp ****     }
 1403              		.loc 1 697 18 is_stmt 0 view .LVU501
 1404 00a8 BD60     		str	r5, [r7, #8]
 1405 00aa CDE7     		b	.L84
 1406              	.LVL117:
 1407              	.L97:
 631:Drivers/STM32F4xx_HAL_Driver/Src/stm32f4xx_hal_dma.cpp ****     return HAL_ERROR;
 1408              		.loc 1 631 5 is_stmt 1 view .LVU502
 631:Drivers/STM32F4xx_HAL_Driver/Src/stm32f4xx_hal_dma.cpp ****     return HAL_ERROR;
 1409              		.loc 1 631 21 is_stmt 0 view .LVU503
 1410 00ac 4FF48073 		mov	r3, #256
 1411 00b0 6365     		str	r3, [r4, #84]
 632:Drivers/STM32F4xx_HAL_Driver/Src/stm32f4xx_hal_dma.cpp ****   }
 1412              		.loc 1 632 5 is_stmt 1 view .LVU504
 632:Drivers/STM32F4xx_HAL_Driver/Src/stm32f4xx_hal_dma.cpp ****   }
 1413              		.loc 1 632 12 is_stmt 0 view .LVU505
 1414 00b2 0120     		movs	r0, #1
 1415              	.LVL118:
 632:Drivers/STM32F4xx_HAL_Driver/Src/stm32f4xx_hal_dma.cpp ****   }
 1416              		.loc 1 632 12 view .LVU506
 1417 00b4 B6E7     		b	.L80
 1418              	.LVL119:
 1419              	.L82:
 644:Drivers/STM32F4xx_HAL_Driver/Src/stm32f4xx_hal_dma.cpp ****   }
 1420              		.loc 1 644 5 is_stmt 1 view .LVU507
ARM GAS  C:\Users\huawei\AppData\Local\Temp\ccXalwLh.s 			page 56


 644:Drivers/STM32F4xx_HAL_Driver/Src/stm32f4xx_hal_dma.cpp ****   }
 1421              		.loc 1 644 48 is_stmt 0 view .LVU508
 1422 00b6 E36D     		ldr	r3, [r4, #92]
 644:Drivers/STM32F4xx_HAL_Driver/Src/stm32f4xx_hal_dma.cpp ****   }
 1423              		.loc 1 644 20 view .LVU509
 1424 00b8 4FF0100A 		mov	r10, #16
 1425 00bc 0AFA03FA 		lsl	r10, r10, r3
 1426              	.LVL120:
 644:Drivers/STM32F4xx_HAL_Driver/Src/stm32f4xx_hal_dma.cpp ****   }
 1427              		.loc 1 644 20 view .LVU510
 1428 00c0 C0E7     		b	.L83
 1429              	.LVL121:
 1430              	.L85:
 658:Drivers/STM32F4xx_HAL_Driver/Src/stm32f4xx_hal_dma.cpp ****         
 1431              		.loc 1 658 9 is_stmt 1 discriminator 3 view .LVU511
 658:Drivers/STM32F4xx_HAL_Driver/Src/stm32f4xx_hal_dma.cpp ****         
 1432              		.loc 1 658 25 is_stmt 0 discriminator 3 view .LVU512
 1433 00c2 2023     		movs	r3, #32
 1434 00c4 6365     		str	r3, [r4, #84]
 661:Drivers/STM32F4xx_HAL_Driver/Src/stm32f4xx_hal_dma.cpp ****         
 1435              		.loc 1 661 9 is_stmt 1 discriminator 3 view .LVU513
 661:Drivers/STM32F4xx_HAL_Driver/Src/stm32f4xx_hal_dma.cpp ****         
 1436              		.loc 1 661 21 is_stmt 0 discriminator 3 view .LVU514
 1437 00c6 0123     		movs	r3, #1
 1438 00c8 84F83530 		strb	r3, [r4, #53]
 664:Drivers/STM32F4xx_HAL_Driver/Src/stm32f4xx_hal_dma.cpp ****         
 1439              		.loc 1 664 9 is_stmt 1 discriminator 3 view .LVU515
 664:Drivers/STM32F4xx_HAL_Driver/Src/stm32f4xx_hal_dma.cpp ****         
 1440              		.loc 1 664 9 discriminator 3 view .LVU516
 1441 00cc 0023     		movs	r3, #0
 1442 00ce 84F83430 		strb	r3, [r4, #52]
 664:Drivers/STM32F4xx_HAL_Driver/Src/stm32f4xx_hal_dma.cpp ****         
 1443              		.loc 1 664 9 discriminator 3 view .LVU517
 666:Drivers/STM32F4xx_HAL_Driver/Src/stm32f4xx_hal_dma.cpp ****       }
 1444              		.loc 1 666 9 discriminator 3 view .LVU518
 666:Drivers/STM32F4xx_HAL_Driver/Src/stm32f4xx_hal_dma.cpp ****       }
 1445              		.loc 1 666 16 is_stmt 0 discriminator 3 view .LVU519
 1446 00d2 0320     		movs	r0, #3
 1447 00d4 A6E7     		b	.L80
 1448              	.L90:
 701:Drivers/STM32F4xx_HAL_Driver/Src/stm32f4xx_hal_dma.cpp ****   {
 1449              		.loc 1 701 3 is_stmt 1 view .LVU520
 701:Drivers/STM32F4xx_HAL_Driver/Src/stm32f4xx_hal_dma.cpp ****   {
 1450              		.loc 1 701 12 is_stmt 0 view .LVU521
 1451 00d6 636D     		ldr	r3, [r4, #84]
 701:Drivers/STM32F4xx_HAL_Driver/Src/stm32f4xx_hal_dma.cpp ****   {
 1452              		.loc 1 701 3 view .LVU522
 1453 00d8 73B9     		cbnz	r3, .L92
 1454              	.L93:
 721:Drivers/STM32F4xx_HAL_Driver/Src/stm32f4xx_hal_dma.cpp ****   {
 1455              		.loc 1 721 3 is_stmt 1 view .LVU523
 1456 00da B8F1000F 		cmp	r8, #0
 1457 00de 1DD1     		bne	.L95
 724:Drivers/STM32F4xx_HAL_Driver/Src/stm32f4xx_hal_dma.cpp ****     
 1458              		.loc 1 724 5 view .LVU524
 724:Drivers/STM32F4xx_HAL_Driver/Src/stm32f4xx_hal_dma.cpp ****     
 1459              		.loc 1 724 65 is_stmt 0 view .LVU525
ARM GAS  C:\Users\huawei\AppData\Local\Temp\ccXalwLh.s 			page 57


 1460 00e0 E26D     		ldr	r2, [r4, #92]
 724:Drivers/STM32F4xx_HAL_Driver/Src/stm32f4xx_hal_dma.cpp ****     
 1461              		.loc 1 724 56 view .LVU526
 1462 00e2 3023     		movs	r3, #48
 1463 00e4 9340     		lsls	r3, r3, r2
 724:Drivers/STM32F4xx_HAL_Driver/Src/stm32f4xx_hal_dma.cpp ****     
 1464              		.loc 1 724 16 view .LVU527
 1465 00e6 BB60     		str	r3, [r7, #8]
 726:Drivers/STM32F4xx_HAL_Driver/Src/stm32f4xx_hal_dma.cpp ****     
 1466              		.loc 1 726 5 is_stmt 1 view .LVU528
 726:Drivers/STM32F4xx_HAL_Driver/Src/stm32f4xx_hal_dma.cpp ****     
 1467              		.loc 1 726 17 is_stmt 0 view .LVU529
 1468 00e8 0123     		movs	r3, #1
 1469 00ea 84F83530 		strb	r3, [r4, #53]
 729:Drivers/STM32F4xx_HAL_Driver/Src/stm32f4xx_hal_dma.cpp ****   }
 1470              		.loc 1 729 5 is_stmt 1 view .LVU530
 729:Drivers/STM32F4xx_HAL_Driver/Src/stm32f4xx_hal_dma.cpp ****   }
 1471              		.loc 1 729 5 view .LVU531
 1472 00ee 0023     		movs	r3, #0
 1473 00f0 84F83430 		strb	r3, [r4, #52]
 729:Drivers/STM32F4xx_HAL_Driver/Src/stm32f4xx_hal_dma.cpp ****   }
 1474              		.loc 1 729 5 view .LVU532
 737:Drivers/STM32F4xx_HAL_Driver/Src/stm32f4xx_hal_dma.cpp **** }
 1475              		.loc 1 737 10 is_stmt 0 view .LVU533
 1476 00f4 4046     		mov	r0, r8
 1477 00f6 95E7     		b	.L80
 1478              	.L92:
 703:Drivers/STM32F4xx_HAL_Driver/Src/stm32f4xx_hal_dma.cpp ****     {
 1479              		.loc 1 703 5 is_stmt 1 view .LVU534
 703:Drivers/STM32F4xx_HAL_Driver/Src/stm32f4xx_hal_dma.cpp ****     {
 1480              		.loc 1 703 15 is_stmt 0 view .LVU535
 1481 00f8 636D     		ldr	r3, [r4, #84]
 703:Drivers/STM32F4xx_HAL_Driver/Src/stm32f4xx_hal_dma.cpp ****     {
 1482              		.loc 1 703 5 view .LVU536
 1483 00fa 13F0010F 		tst	r3, #1
 1484 00fe ECD0     		beq	.L93
 705:Drivers/STM32F4xx_HAL_Driver/Src/stm32f4xx_hal_dma.cpp ****     
 1485              		.loc 1 705 7 is_stmt 1 view .LVU537
 705:Drivers/STM32F4xx_HAL_Driver/Src/stm32f4xx_hal_dma.cpp ****     
 1486              		.loc 1 705 20 is_stmt 0 view .LVU538
 1487 0100 2046     		mov	r0, r4
 1488 0102 FFF7FEFF 		bl	HAL_DMA_Abort
 1489              	.LVL122:
 708:Drivers/STM32F4xx_HAL_Driver/Src/stm32f4xx_hal_dma.cpp ****     
 1490              		.loc 1 708 7 is_stmt 1 view .LVU539
 708:Drivers/STM32F4xx_HAL_Driver/Src/stm32f4xx_hal_dma.cpp ****     
 1491              		.loc 1 708 67 is_stmt 0 view .LVU540
 1492 0106 E26D     		ldr	r2, [r4, #92]
 708:Drivers/STM32F4xx_HAL_Driver/Src/stm32f4xx_hal_dma.cpp ****     
 1493              		.loc 1 708 58 view .LVU541
 1494 0108 3023     		movs	r3, #48
 1495 010a 9340     		lsls	r3, r3, r2
 708:Drivers/STM32F4xx_HAL_Driver/Src/stm32f4xx_hal_dma.cpp ****     
 1496              		.loc 1 708 18 view .LVU542
 1497 010c BB60     		str	r3, [r7, #8]
 711:Drivers/STM32F4xx_HAL_Driver/Src/stm32f4xx_hal_dma.cpp **** 
 1498              		.loc 1 711 7 is_stmt 1 view .LVU543
ARM GAS  C:\Users\huawei\AppData\Local\Temp\ccXalwLh.s 			page 58


 711:Drivers/STM32F4xx_HAL_Driver/Src/stm32f4xx_hal_dma.cpp **** 
 1499              		.loc 1 711 18 is_stmt 0 view .LVU544
 1500 010e 0120     		movs	r0, #1
 1501 0110 84F83500 		strb	r0, [r4, #53]
 714:Drivers/STM32F4xx_HAL_Driver/Src/stm32f4xx_hal_dma.cpp **** 
 1502              		.loc 1 714 7 is_stmt 1 view .LVU545
 714:Drivers/STM32F4xx_HAL_Driver/Src/stm32f4xx_hal_dma.cpp **** 
 1503              		.loc 1 714 7 view .LVU546
 1504 0114 0023     		movs	r3, #0
 1505 0116 84F83430 		strb	r3, [r4, #52]
 714:Drivers/STM32F4xx_HAL_Driver/Src/stm32f4xx_hal_dma.cpp **** 
 1506              		.loc 1 714 7 view .LVU547
 716:Drivers/STM32F4xx_HAL_Driver/Src/stm32f4xx_hal_dma.cpp ****    }
 1507              		.loc 1 716 7 view .LVU548
 716:Drivers/STM32F4xx_HAL_Driver/Src/stm32f4xx_hal_dma.cpp ****    }
 1508              		.loc 1 716 14 is_stmt 0 view .LVU549
 1509 011a 83E7     		b	.L80
 1510              	.L95:
 734:Drivers/STM32F4xx_HAL_Driver/Src/stm32f4xx_hal_dma.cpp ****   }
 1511              		.loc 1 734 5 is_stmt 1 view .LVU550
 734:Drivers/STM32F4xx_HAL_Driver/Src/stm32f4xx_hal_dma.cpp ****   }
 1512              		.loc 1 734 46 is_stmt 0 view .LVU551
 1513 011c E26D     		ldr	r2, [r4, #92]
 734:Drivers/STM32F4xx_HAL_Driver/Src/stm32f4xx_hal_dma.cpp ****   }
 1514              		.loc 1 734 37 view .LVU552
 1515 011e 1023     		movs	r3, #16
 1516 0120 9340     		lsls	r3, r3, r2
 734:Drivers/STM32F4xx_HAL_Driver/Src/stm32f4xx_hal_dma.cpp ****   }
 1517              		.loc 1 734 16 view .LVU553
 1518 0122 BB60     		str	r3, [r7, #8]
 737:Drivers/STM32F4xx_HAL_Driver/Src/stm32f4xx_hal_dma.cpp **** }
 1519              		.loc 1 737 10 view .LVU554
 1520 0124 0020     		movs	r0, #0
 1521 0126 7DE7     		b	.L80
 1522              		.cfi_endproc
 1523              	.LFE241:
 1524              		.fnend
 1526              		.section	.text.HAL_DMA_IRQHandler,"ax",%progbits
 1527              		.align	1
 1528              		.global	HAL_DMA_IRQHandler
 1529              		.syntax unified
 1530              		.thumb
 1531              		.thumb_func
 1533              	HAL_DMA_IRQHandler:
 1534              		.fnstart
 1535              	.LVL123:
 1536              	.LFB242:
 747:Drivers/STM32F4xx_HAL_Driver/Src/stm32f4xx_hal_dma.cpp ****   uint32_t tmpisr;
 1537              		.loc 1 747 1 is_stmt 1 view -0
 1538              		.cfi_startproc
 1539              		@ args = 0, pretend = 0, frame = 8
 1540              		@ frame_needed = 0, uses_anonymous_args = 0
 747:Drivers/STM32F4xx_HAL_Driver/Src/stm32f4xx_hal_dma.cpp ****   uint32_t tmpisr;
 1541              		.loc 1 747 1 is_stmt 0 view .LVU556
 1542 0000 F0B5     		push	{r4, r5, r6, r7, lr}
 1543              		.save {r4, r5, r6, r7, lr}
 1544              	.LCFI13:
ARM GAS  C:\Users\huawei\AppData\Local\Temp\ccXalwLh.s 			page 59


 1545              		.cfi_def_cfa_offset 20
 1546              		.cfi_offset 4, -20
 1547              		.cfi_offset 5, -16
 1548              		.cfi_offset 6, -12
 1549              		.cfi_offset 7, -8
 1550              		.cfi_offset 14, -4
 1551              		.pad #12
 1552 0002 83B0     		sub	sp, sp, #12
 1553              	.LCFI14:
 1554              		.cfi_def_cfa_offset 32
 1555 0004 0446     		mov	r4, r0
 748:Drivers/STM32F4xx_HAL_Driver/Src/stm32f4xx_hal_dma.cpp ****   __IO uint32_t count = 0U;
 1556              		.loc 1 748 3 is_stmt 1 view .LVU557
 749:Drivers/STM32F4xx_HAL_Driver/Src/stm32f4xx_hal_dma.cpp ****   uint32_t timeout = SystemCoreClock / 9600U;
 1557              		.loc 1 749 3 view .LVU558
 749:Drivers/STM32F4xx_HAL_Driver/Src/stm32f4xx_hal_dma.cpp ****   uint32_t timeout = SystemCoreClock / 9600U;
 1558              		.loc 1 749 17 is_stmt 0 view .LVU559
 1559 0006 0023     		movs	r3, #0
 1560 0008 0193     		str	r3, [sp, #4]
 750:Drivers/STM32F4xx_HAL_Driver/Src/stm32f4xx_hal_dma.cpp **** 
 1561              		.loc 1 750 3 is_stmt 1 view .LVU560
 750:Drivers/STM32F4xx_HAL_Driver/Src/stm32f4xx_hal_dma.cpp **** 
 1562              		.loc 1 750 38 is_stmt 0 view .LVU561
 1563 000a 724B     		ldr	r3, .L121
 1564 000c 1D68     		ldr	r5, [r3]
 750:Drivers/STM32F4xx_HAL_Driver/Src/stm32f4xx_hal_dma.cpp **** 
 1565              		.loc 1 750 12 view .LVU562
 1566 000e 724B     		ldr	r3, .L121+4
 1567 0010 A3FB0535 		umull	r3, r5, r3, r5
 1568 0014 AD0A     		lsrs	r5, r5, #10
 1569              	.LVL124:
 753:Drivers/STM32F4xx_HAL_Driver/Src/stm32f4xx_hal_dma.cpp **** 
 1570              		.loc 1 753 3 is_stmt 1 view .LVU563
 753:Drivers/STM32F4xx_HAL_Driver/Src/stm32f4xx_hal_dma.cpp **** 
 1571              		.loc 1 753 58 is_stmt 0 view .LVU564
 1572 0016 876D     		ldr	r7, [r0, #88]
 1573              	.LVL125:
 755:Drivers/STM32F4xx_HAL_Driver/Src/stm32f4xx_hal_dma.cpp **** 
 1574              		.loc 1 755 3 is_stmt 1 view .LVU565
 755:Drivers/STM32F4xx_HAL_Driver/Src/stm32f4xx_hal_dma.cpp **** 
 1575              		.loc 1 755 10 is_stmt 0 view .LVU566
 1576 0018 3E68     		ldr	r6, [r7]
 1577              	.LVL126:
 758:Drivers/STM32F4xx_HAL_Driver/Src/stm32f4xx_hal_dma.cpp ****   {
 1578              		.loc 1 758 3 is_stmt 1 view .LVU567
 758:Drivers/STM32F4xx_HAL_Driver/Src/stm32f4xx_hal_dma.cpp ****   {
 1579              		.loc 1 758 44 is_stmt 0 view .LVU568
 1580 001a C26D     		ldr	r2, [r0, #92]
 758:Drivers/STM32F4xx_HAL_Driver/Src/stm32f4xx_hal_dma.cpp ****   {
 1581              		.loc 1 758 35 view .LVU569
 1582 001c 0823     		movs	r3, #8
 1583 001e 9340     		lsls	r3, r3, r2
 758:Drivers/STM32F4xx_HAL_Driver/Src/stm32f4xx_hal_dma.cpp ****   {
 1584              		.loc 1 758 3 view .LVU570
 1585 0020 3342     		tst	r3, r6
 1586 0022 10D0     		beq	.L99
 760:Drivers/STM32F4xx_HAL_Driver/Src/stm32f4xx_hal_dma.cpp ****     {
ARM GAS  C:\Users\huawei\AppData\Local\Temp\ccXalwLh.s 			page 60


 1587              		.loc 1 760 5 is_stmt 1 view .LVU571
 760:Drivers/STM32F4xx_HAL_Driver/Src/stm32f4xx_hal_dma.cpp ****     {
 1588              		.loc 1 760 8 is_stmt 0 view .LVU572
 1589 0024 0368     		ldr	r3, [r0]
 1590 0026 1A68     		ldr	r2, [r3]
 760:Drivers/STM32F4xx_HAL_Driver/Src/stm32f4xx_hal_dma.cpp ****     {
 1591              		.loc 1 760 5 view .LVU573
 1592 0028 12F0040F 		tst	r2, #4
 1593 002c 0BD0     		beq	.L99
 763:Drivers/STM32F4xx_HAL_Driver/Src/stm32f4xx_hal_dma.cpp ****       
 1594              		.loc 1 763 7 is_stmt 1 view .LVU574
 763:Drivers/STM32F4xx_HAL_Driver/Src/stm32f4xx_hal_dma.cpp ****       
 1595              		.loc 1 763 23 is_stmt 0 view .LVU575
 1596 002e 1A68     		ldr	r2, [r3]
 763:Drivers/STM32F4xx_HAL_Driver/Src/stm32f4xx_hal_dma.cpp ****       
 1597              		.loc 1 763 27 view .LVU576
 1598 0030 22F00402 		bic	r2, r2, #4
 1599 0034 1A60     		str	r2, [r3]
 766:Drivers/STM32F4xx_HAL_Driver/Src/stm32f4xx_hal_dma.cpp ****       
 1600              		.loc 1 766 7 is_stmt 1 view .LVU577
 766:Drivers/STM32F4xx_HAL_Driver/Src/stm32f4xx_hal_dma.cpp ****       
 1601              		.loc 1 766 46 is_stmt 0 view .LVU578
 1602 0036 C26D     		ldr	r2, [r0, #92]
 766:Drivers/STM32F4xx_HAL_Driver/Src/stm32f4xx_hal_dma.cpp ****       
 1603              		.loc 1 766 37 view .LVU579
 1604 0038 0823     		movs	r3, #8
 1605 003a 9340     		lsls	r3, r3, r2
 766:Drivers/STM32F4xx_HAL_Driver/Src/stm32f4xx_hal_dma.cpp ****       
 1606              		.loc 1 766 18 view .LVU580
 1607 003c BB60     		str	r3, [r7, #8]
 769:Drivers/STM32F4xx_HAL_Driver/Src/stm32f4xx_hal_dma.cpp ****     }
 1608              		.loc 1 769 7 is_stmt 1 view .LVU581
 769:Drivers/STM32F4xx_HAL_Driver/Src/stm32f4xx_hal_dma.cpp ****     }
 1609              		.loc 1 769 13 is_stmt 0 view .LVU582
 1610 003e 436D     		ldr	r3, [r0, #84]
 769:Drivers/STM32F4xx_HAL_Driver/Src/stm32f4xx_hal_dma.cpp ****     }
 1611              		.loc 1 769 23 view .LVU583
 1612 0040 43F00103 		orr	r3, r3, #1
 1613 0044 4365     		str	r3, [r0, #84]
 1614              	.L99:
 773:Drivers/STM32F4xx_HAL_Driver/Src/stm32f4xx_hal_dma.cpp ****   {
 1615              		.loc 1 773 3 is_stmt 1 view .LVU584
 773:Drivers/STM32F4xx_HAL_Driver/Src/stm32f4xx_hal_dma.cpp ****   {
 1616              		.loc 1 773 44 is_stmt 0 view .LVU585
 1617 0046 E26D     		ldr	r2, [r4, #92]
 773:Drivers/STM32F4xx_HAL_Driver/Src/stm32f4xx_hal_dma.cpp ****   {
 1618              		.loc 1 773 35 view .LVU586
 1619 0048 0123     		movs	r3, #1
 1620 004a 9340     		lsls	r3, r3, r2
 773:Drivers/STM32F4xx_HAL_Driver/Src/stm32f4xx_hal_dma.cpp ****   {
 1621              		.loc 1 773 3 view .LVU587
 1622 004c 3342     		tst	r3, r6
 1623 004e 09D0     		beq	.L100
 775:Drivers/STM32F4xx_HAL_Driver/Src/stm32f4xx_hal_dma.cpp ****     {
 1624              		.loc 1 775 5 is_stmt 1 view .LVU588
 775:Drivers/STM32F4xx_HAL_Driver/Src/stm32f4xx_hal_dma.cpp ****     {
 1625              		.loc 1 775 8 is_stmt 0 view .LVU589
ARM GAS  C:\Users\huawei\AppData\Local\Temp\ccXalwLh.s 			page 61


 1626 0050 2268     		ldr	r2, [r4]
 1627 0052 5269     		ldr	r2, [r2, #20]
 775:Drivers/STM32F4xx_HAL_Driver/Src/stm32f4xx_hal_dma.cpp ****     {
 1628              		.loc 1 775 5 view .LVU590
 1629 0054 12F0800F 		tst	r2, #128
 1630 0058 04D0     		beq	.L100
 778:Drivers/STM32F4xx_HAL_Driver/Src/stm32f4xx_hal_dma.cpp **** 
 1631              		.loc 1 778 7 is_stmt 1 view .LVU591
 778:Drivers/STM32F4xx_HAL_Driver/Src/stm32f4xx_hal_dma.cpp **** 
 1632              		.loc 1 778 18 is_stmt 0 view .LVU592
 1633 005a BB60     		str	r3, [r7, #8]
 781:Drivers/STM32F4xx_HAL_Driver/Src/stm32f4xx_hal_dma.cpp ****     }
 1634              		.loc 1 781 7 is_stmt 1 view .LVU593
 781:Drivers/STM32F4xx_HAL_Driver/Src/stm32f4xx_hal_dma.cpp ****     }
 1635              		.loc 1 781 13 is_stmt 0 view .LVU594
 1636 005c 636D     		ldr	r3, [r4, #84]
 781:Drivers/STM32F4xx_HAL_Driver/Src/stm32f4xx_hal_dma.cpp ****     }
 1637              		.loc 1 781 23 view .LVU595
 1638 005e 43F00203 		orr	r3, r3, #2
 1639 0062 6365     		str	r3, [r4, #84]
 1640              	.L100:
 785:Drivers/STM32F4xx_HAL_Driver/Src/stm32f4xx_hal_dma.cpp ****   {
 1641              		.loc 1 785 3 is_stmt 1 view .LVU596
 785:Drivers/STM32F4xx_HAL_Driver/Src/stm32f4xx_hal_dma.cpp ****   {
 1642              		.loc 1 785 45 is_stmt 0 view .LVU597
 1643 0064 E26D     		ldr	r2, [r4, #92]
 785:Drivers/STM32F4xx_HAL_Driver/Src/stm32f4xx_hal_dma.cpp ****   {
 1644              		.loc 1 785 36 view .LVU598
 1645 0066 0423     		movs	r3, #4
 1646 0068 9340     		lsls	r3, r3, r2
 785:Drivers/STM32F4xx_HAL_Driver/Src/stm32f4xx_hal_dma.cpp ****   {
 1647              		.loc 1 785 3 view .LVU599
 1648 006a 3342     		tst	r3, r6
 1649 006c 09D0     		beq	.L101
 787:Drivers/STM32F4xx_HAL_Driver/Src/stm32f4xx_hal_dma.cpp ****     {
 1650              		.loc 1 787 5 is_stmt 1 view .LVU600
 787:Drivers/STM32F4xx_HAL_Driver/Src/stm32f4xx_hal_dma.cpp ****     {
 1651              		.loc 1 787 8 is_stmt 0 view .LVU601
 1652 006e 2268     		ldr	r2, [r4]
 1653 0070 1268     		ldr	r2, [r2]
 787:Drivers/STM32F4xx_HAL_Driver/Src/stm32f4xx_hal_dma.cpp ****     {
 1654              		.loc 1 787 5 view .LVU602
 1655 0072 12F0020F 		tst	r2, #2
 1656 0076 04D0     		beq	.L101
 790:Drivers/STM32F4xx_HAL_Driver/Src/stm32f4xx_hal_dma.cpp **** 
 1657              		.loc 1 790 7 is_stmt 1 view .LVU603
 790:Drivers/STM32F4xx_HAL_Driver/Src/stm32f4xx_hal_dma.cpp **** 
 1658              		.loc 1 790 18 is_stmt 0 view .LVU604
 1659 0078 BB60     		str	r3, [r7, #8]
 793:Drivers/STM32F4xx_HAL_Driver/Src/stm32f4xx_hal_dma.cpp ****     }
 1660              		.loc 1 793 7 is_stmt 1 view .LVU605
 793:Drivers/STM32F4xx_HAL_Driver/Src/stm32f4xx_hal_dma.cpp ****     }
 1661              		.loc 1 793 13 is_stmt 0 view .LVU606
 1662 007a 636D     		ldr	r3, [r4, #84]
 793:Drivers/STM32F4xx_HAL_Driver/Src/stm32f4xx_hal_dma.cpp ****     }
 1663              		.loc 1 793 23 view .LVU607
 1664 007c 43F00403 		orr	r3, r3, #4
ARM GAS  C:\Users\huawei\AppData\Local\Temp\ccXalwLh.s 			page 62


 1665 0080 6365     		str	r3, [r4, #84]
 1666              	.L101:
 797:Drivers/STM32F4xx_HAL_Driver/Src/stm32f4xx_hal_dma.cpp ****   {
 1667              		.loc 1 797 3 is_stmt 1 view .LVU608
 797:Drivers/STM32F4xx_HAL_Driver/Src/stm32f4xx_hal_dma.cpp ****   {
 1668              		.loc 1 797 44 is_stmt 0 view .LVU609
 1669 0082 E26D     		ldr	r2, [r4, #92]
 797:Drivers/STM32F4xx_HAL_Driver/Src/stm32f4xx_hal_dma.cpp ****   {
 1670              		.loc 1 797 35 view .LVU610
 1671 0084 1023     		movs	r3, #16
 1672 0086 9340     		lsls	r3, r3, r2
 797:Drivers/STM32F4xx_HAL_Driver/Src/stm32f4xx_hal_dma.cpp ****   {
 1673              		.loc 1 797 3 view .LVU611
 1674 0088 3342     		tst	r3, r6
 1675 008a 24D0     		beq	.L102
 799:Drivers/STM32F4xx_HAL_Driver/Src/stm32f4xx_hal_dma.cpp ****     {
 1676              		.loc 1 799 5 is_stmt 1 view .LVU612
 799:Drivers/STM32F4xx_HAL_Driver/Src/stm32f4xx_hal_dma.cpp ****     {
 1677              		.loc 1 799 8 is_stmt 0 view .LVU613
 1678 008c 2268     		ldr	r2, [r4]
 1679 008e 1268     		ldr	r2, [r2]
 799:Drivers/STM32F4xx_HAL_Driver/Src/stm32f4xx_hal_dma.cpp ****     {
 1680              		.loc 1 799 5 view .LVU614
 1681 0090 12F0080F 		tst	r2, #8
 1682 0094 1FD0     		beq	.L102
 802:Drivers/STM32F4xx_HAL_Driver/Src/stm32f4xx_hal_dma.cpp ****       
 1683              		.loc 1 802 7 is_stmt 1 view .LVU615
 802:Drivers/STM32F4xx_HAL_Driver/Src/stm32f4xx_hal_dma.cpp ****       
 1684              		.loc 1 802 18 is_stmt 0 view .LVU616
 1685 0096 BB60     		str	r3, [r7, #8]
 805:Drivers/STM32F4xx_HAL_Driver/Src/stm32f4xx_hal_dma.cpp ****       {
 1686              		.loc 1 805 7 is_stmt 1 view .LVU617
 805:Drivers/STM32F4xx_HAL_Driver/Src/stm32f4xx_hal_dma.cpp ****       {
 1687              		.loc 1 805 18 is_stmt 0 view .LVU618
 1688 0098 2368     		ldr	r3, [r4]
 805:Drivers/STM32F4xx_HAL_Driver/Src/stm32f4xx_hal_dma.cpp ****       {
 1689              		.loc 1 805 28 view .LVU619
 1690 009a 1A68     		ldr	r2, [r3]
 805:Drivers/STM32F4xx_HAL_Driver/Src/stm32f4xx_hal_dma.cpp ****       {
 1691              		.loc 1 805 7 view .LVU620
 1692 009c 12F4802F 		tst	r2, #262144
 1693 00a0 0DD0     		beq	.L103
 808:Drivers/STM32F4xx_HAL_Driver/Src/stm32f4xx_hal_dma.cpp ****         {
 1694              		.loc 1 808 9 is_stmt 1 view .LVU621
 808:Drivers/STM32F4xx_HAL_Driver/Src/stm32f4xx_hal_dma.cpp ****         {
 1695              		.loc 1 808 29 is_stmt 0 view .LVU622
 1696 00a2 1B68     		ldr	r3, [r3]
 808:Drivers/STM32F4xx_HAL_Driver/Src/stm32f4xx_hal_dma.cpp ****         {
 1697              		.loc 1 808 9 view .LVU623
 1698 00a4 13F4002F 		tst	r3, #524288
 1699 00a8 04D1     		bne	.L104
 810:Drivers/STM32F4xx_HAL_Driver/Src/stm32f4xx_hal_dma.cpp ****           {
 1700              		.loc 1 810 11 is_stmt 1 view .LVU624
 810:Drivers/STM32F4xx_HAL_Driver/Src/stm32f4xx_hal_dma.cpp ****           {
 1701              		.loc 1 810 20 is_stmt 0 view .LVU625
 1702 00aa 236C     		ldr	r3, [r4, #64]
 810:Drivers/STM32F4xx_HAL_Driver/Src/stm32f4xx_hal_dma.cpp ****           {
ARM GAS  C:\Users\huawei\AppData\Local\Temp\ccXalwLh.s 			page 63


 1703              		.loc 1 810 11 view .LVU626
 1704 00ac 9BB1     		cbz	r3, .L102
 813:Drivers/STM32F4xx_HAL_Driver/Src/stm32f4xx_hal_dma.cpp ****           }
 1705              		.loc 1 813 13 is_stmt 1 view .LVU627
 813:Drivers/STM32F4xx_HAL_Driver/Src/stm32f4xx_hal_dma.cpp ****           }
 1706              		.loc 1 813 39 is_stmt 0 view .LVU628
 1707 00ae 2046     		mov	r0, r4
 1708              	.LVL127:
 813:Drivers/STM32F4xx_HAL_Driver/Src/stm32f4xx_hal_dma.cpp ****           }
 1709              		.loc 1 813 39 view .LVU629
 1710 00b0 9847     		blx	r3
 1711              	.LVL128:
 1712 00b2 10E0     		b	.L102
 1713              	.LVL129:
 1714              	.L104:
 819:Drivers/STM32F4xx_HAL_Driver/Src/stm32f4xx_hal_dma.cpp ****           {
 1715              		.loc 1 819 11 is_stmt 1 view .LVU630
 819:Drivers/STM32F4xx_HAL_Driver/Src/stm32f4xx_hal_dma.cpp ****           {
 1716              		.loc 1 819 20 is_stmt 0 view .LVU631
 1717 00b4 A36C     		ldr	r3, [r4, #72]
 819:Drivers/STM32F4xx_HAL_Driver/Src/stm32f4xx_hal_dma.cpp ****           {
 1718              		.loc 1 819 11 view .LVU632
 1719 00b6 73B1     		cbz	r3, .L102
 822:Drivers/STM32F4xx_HAL_Driver/Src/stm32f4xx_hal_dma.cpp ****           }
 1720              		.loc 1 822 13 is_stmt 1 view .LVU633
 822:Drivers/STM32F4xx_HAL_Driver/Src/stm32f4xx_hal_dma.cpp ****           }
 1721              		.loc 1 822 41 is_stmt 0 view .LVU634
 1722 00b8 2046     		mov	r0, r4
 1723              	.LVL130:
 822:Drivers/STM32F4xx_HAL_Driver/Src/stm32f4xx_hal_dma.cpp ****           }
 1724              		.loc 1 822 41 view .LVU635
 1725 00ba 9847     		blx	r3
 1726              	.LVL131:
 1727 00bc 0BE0     		b	.L102
 1728              	.LVL132:
 1729              	.L103:
 829:Drivers/STM32F4xx_HAL_Driver/Src/stm32f4xx_hal_dma.cpp ****         {
 1730              		.loc 1 829 9 is_stmt 1 view .LVU636
 829:Drivers/STM32F4xx_HAL_Driver/Src/stm32f4xx_hal_dma.cpp ****         {
 1731              		.loc 1 829 29 is_stmt 0 view .LVU637
 1732 00be 1A68     		ldr	r2, [r3]
 829:Drivers/STM32F4xx_HAL_Driver/Src/stm32f4xx_hal_dma.cpp ****         {
 1733              		.loc 1 829 9 view .LVU638
 1734 00c0 12F4807F 		tst	r2, #256
 1735 00c4 03D1     		bne	.L105
 832:Drivers/STM32F4xx_HAL_Driver/Src/stm32f4xx_hal_dma.cpp ****         }
 1736              		.loc 1 832 11 is_stmt 1 view .LVU639
 832:Drivers/STM32F4xx_HAL_Driver/Src/stm32f4xx_hal_dma.cpp ****         }
 1737              		.loc 1 832 27 is_stmt 0 view .LVU640
 1738 00c6 1A68     		ldr	r2, [r3]
 832:Drivers/STM32F4xx_HAL_Driver/Src/stm32f4xx_hal_dma.cpp ****         }
 1739              		.loc 1 832 31 view .LVU641
 1740 00c8 22F00802 		bic	r2, r2, #8
 1741 00cc 1A60     		str	r2, [r3]
 1742              	.L105:
 835:Drivers/STM32F4xx_HAL_Driver/Src/stm32f4xx_hal_dma.cpp ****         {
 1743              		.loc 1 835 9 is_stmt 1 view .LVU642
ARM GAS  C:\Users\huawei\AppData\Local\Temp\ccXalwLh.s 			page 64


 835:Drivers/STM32F4xx_HAL_Driver/Src/stm32f4xx_hal_dma.cpp ****         {
 1744              		.loc 1 835 18 is_stmt 0 view .LVU643
 1745 00ce 236C     		ldr	r3, [r4, #64]
 835:Drivers/STM32F4xx_HAL_Driver/Src/stm32f4xx_hal_dma.cpp ****         {
 1746              		.loc 1 835 9 view .LVU644
 1747 00d0 0BB1     		cbz	r3, .L102
 838:Drivers/STM32F4xx_HAL_Driver/Src/stm32f4xx_hal_dma.cpp ****         }
 1748              		.loc 1 838 11 is_stmt 1 view .LVU645
 838:Drivers/STM32F4xx_HAL_Driver/Src/stm32f4xx_hal_dma.cpp ****         }
 1749              		.loc 1 838 37 is_stmt 0 view .LVU646
 1750 00d2 2046     		mov	r0, r4
 1751              	.LVL133:
 838:Drivers/STM32F4xx_HAL_Driver/Src/stm32f4xx_hal_dma.cpp ****         }
 1752              		.loc 1 838 37 view .LVU647
 1753 00d4 9847     		blx	r3
 1754              	.LVL134:
 1755              	.L102:
 844:Drivers/STM32F4xx_HAL_Driver/Src/stm32f4xx_hal_dma.cpp ****   {
 1756              		.loc 1 844 3 is_stmt 1 view .LVU648
 844:Drivers/STM32F4xx_HAL_Driver/Src/stm32f4xx_hal_dma.cpp ****   {
 1757              		.loc 1 844 44 is_stmt 0 view .LVU649
 1758 00d6 E26D     		ldr	r2, [r4, #92]
 844:Drivers/STM32F4xx_HAL_Driver/Src/stm32f4xx_hal_dma.cpp ****   {
 1759              		.loc 1 844 35 view .LVU650
 1760 00d8 2023     		movs	r3, #32
 1761 00da 9340     		lsls	r3, r3, r2
 844:Drivers/STM32F4xx_HAL_Driver/Src/stm32f4xx_hal_dma.cpp ****   {
 1762              		.loc 1 844 3 view .LVU651
 1763 00dc 3342     		tst	r3, r6
 1764 00de 55D0     		beq	.L106
 846:Drivers/STM32F4xx_HAL_Driver/Src/stm32f4xx_hal_dma.cpp ****     {
 1765              		.loc 1 846 5 is_stmt 1 view .LVU652
 846:Drivers/STM32F4xx_HAL_Driver/Src/stm32f4xx_hal_dma.cpp ****     {
 1766              		.loc 1 846 8 is_stmt 0 view .LVU653
 1767 00e0 2268     		ldr	r2, [r4]
 1768 00e2 1268     		ldr	r2, [r2]
 846:Drivers/STM32F4xx_HAL_Driver/Src/stm32f4xx_hal_dma.cpp ****     {
 1769              		.loc 1 846 5 view .LVU654
 1770 00e4 12F0100F 		tst	r2, #16
 1771 00e8 50D0     		beq	.L106
 849:Drivers/STM32F4xx_HAL_Driver/Src/stm32f4xx_hal_dma.cpp ****       
 1772              		.loc 1 849 7 is_stmt 1 view .LVU655
 849:Drivers/STM32F4xx_HAL_Driver/Src/stm32f4xx_hal_dma.cpp ****       
 1773              		.loc 1 849 18 is_stmt 0 view .LVU656
 1774 00ea BB60     		str	r3, [r7, #8]
 851:Drivers/STM32F4xx_HAL_Driver/Src/stm32f4xx_hal_dma.cpp ****       {
 1775              		.loc 1 851 7 is_stmt 1 view .LVU657
 851:Drivers/STM32F4xx_HAL_Driver/Src/stm32f4xx_hal_dma.cpp ****       {
 1776              		.loc 1 851 39 is_stmt 0 view .LVU658
 1777 00ec 94F83530 		ldrb	r3, [r4, #53]	@ zero_extendqisi2
 1778 00f0 DBB2     		uxtb	r3, r3
 851:Drivers/STM32F4xx_HAL_Driver/Src/stm32f4xx_hal_dma.cpp ****       {
 1779              		.loc 1 851 7 view .LVU659
 1780 00f2 052B     		cmp	r3, #5
 1781 00f4 0ED0     		beq	.L119
 878:Drivers/STM32F4xx_HAL_Driver/Src/stm32f4xx_hal_dma.cpp ****       {
 1782              		.loc 1 878 7 is_stmt 1 view .LVU660
ARM GAS  C:\Users\huawei\AppData\Local\Temp\ccXalwLh.s 			page 65


 878:Drivers/STM32F4xx_HAL_Driver/Src/stm32f4xx_hal_dma.cpp ****       {
 1783              		.loc 1 878 18 is_stmt 0 view .LVU661
 1784 00f6 2368     		ldr	r3, [r4]
 878:Drivers/STM32F4xx_HAL_Driver/Src/stm32f4xx_hal_dma.cpp ****       {
 1785              		.loc 1 878 28 view .LVU662
 1786 00f8 1A68     		ldr	r2, [r3]
 878:Drivers/STM32F4xx_HAL_Driver/Src/stm32f4xx_hal_dma.cpp ****       {
 1787              		.loc 1 878 7 view .LVU663
 1788 00fa 12F4802F 		tst	r2, #262144
 1789 00fe 33D0     		beq	.L112
 881:Drivers/STM32F4xx_HAL_Driver/Src/stm32f4xx_hal_dma.cpp ****         {
 1790              		.loc 1 881 9 is_stmt 1 view .LVU664
 881:Drivers/STM32F4xx_HAL_Driver/Src/stm32f4xx_hal_dma.cpp ****         {
 1791              		.loc 1 881 29 is_stmt 0 view .LVU665
 1792 0100 1B68     		ldr	r3, [r3]
 881:Drivers/STM32F4xx_HAL_Driver/Src/stm32f4xx_hal_dma.cpp ****         {
 1793              		.loc 1 881 9 view .LVU666
 1794 0102 13F4002F 		tst	r3, #524288
 1795 0106 2AD1     		bne	.L113
 883:Drivers/STM32F4xx_HAL_Driver/Src/stm32f4xx_hal_dma.cpp ****           {
 1796              		.loc 1 883 11 is_stmt 1 view .LVU667
 883:Drivers/STM32F4xx_HAL_Driver/Src/stm32f4xx_hal_dma.cpp ****           {
 1797              		.loc 1 883 20 is_stmt 0 view .LVU668
 1798 0108 636C     		ldr	r3, [r4, #68]
 883:Drivers/STM32F4xx_HAL_Driver/Src/stm32f4xx_hal_dma.cpp ****           {
 1799              		.loc 1 883 11 view .LVU669
 1800 010a 002B     		cmp	r3, #0
 1801 010c 3ED0     		beq	.L106
 886:Drivers/STM32F4xx_HAL_Driver/Src/stm32f4xx_hal_dma.cpp ****           }
 1802              		.loc 1 886 13 is_stmt 1 view .LVU670
 886:Drivers/STM32F4xx_HAL_Driver/Src/stm32f4xx_hal_dma.cpp ****           }
 1803              		.loc 1 886 37 is_stmt 0 view .LVU671
 1804 010e 2046     		mov	r0, r4
 1805 0110 9847     		blx	r3
 1806              	.LVL135:
 1807 0112 3BE0     		b	.L106
 1808              	.L119:
 854:Drivers/STM32F4xx_HAL_Driver/Src/stm32f4xx_hal_dma.cpp ****         hdma->Instance->FCR &= ~(DMA_IT_FE);
 1809              		.loc 1 854 9 is_stmt 1 view .LVU672
 854:Drivers/STM32F4xx_HAL_Driver/Src/stm32f4xx_hal_dma.cpp ****         hdma->Instance->FCR &= ~(DMA_IT_FE);
 1810              		.loc 1 854 15 is_stmt 0 view .LVU673
 1811 0114 2268     		ldr	r2, [r4]
 854:Drivers/STM32F4xx_HAL_Driver/Src/stm32f4xx_hal_dma.cpp ****         hdma->Instance->FCR &= ~(DMA_IT_FE);
 1812              		.loc 1 854 25 view .LVU674
 1813 0116 1368     		ldr	r3, [r2]
 854:Drivers/STM32F4xx_HAL_Driver/Src/stm32f4xx_hal_dma.cpp ****         hdma->Instance->FCR &= ~(DMA_IT_FE);
 1814              		.loc 1 854 29 view .LVU675
 1815 0118 23F01603 		bic	r3, r3, #22
 1816 011c 1360     		str	r3, [r2]
 855:Drivers/STM32F4xx_HAL_Driver/Src/stm32f4xx_hal_dma.cpp ****         
 1817              		.loc 1 855 9 is_stmt 1 view .LVU676
 855:Drivers/STM32F4xx_HAL_Driver/Src/stm32f4xx_hal_dma.cpp ****         
 1818              		.loc 1 855 15 is_stmt 0 view .LVU677
 1819 011e 2268     		ldr	r2, [r4]
 855:Drivers/STM32F4xx_HAL_Driver/Src/stm32f4xx_hal_dma.cpp ****         
 1820              		.loc 1 855 25 view .LVU678
 1821 0120 5369     		ldr	r3, [r2, #20]
ARM GAS  C:\Users\huawei\AppData\Local\Temp\ccXalwLh.s 			page 66


 855:Drivers/STM32F4xx_HAL_Driver/Src/stm32f4xx_hal_dma.cpp ****         
 1822              		.loc 1 855 29 view .LVU679
 1823 0122 23F08003 		bic	r3, r3, #128
 1824 0126 5361     		str	r3, [r2, #20]
 857:Drivers/STM32F4xx_HAL_Driver/Src/stm32f4xx_hal_dma.cpp ****         {
 1825              		.loc 1 857 9 is_stmt 1 view .LVU680
 857:Drivers/STM32F4xx_HAL_Driver/Src/stm32f4xx_hal_dma.cpp ****         {
 1826              		.loc 1 857 19 is_stmt 0 view .LVU681
 1827 0128 236C     		ldr	r3, [r4, #64]
 857:Drivers/STM32F4xx_HAL_Driver/Src/stm32f4xx_hal_dma.cpp ****         {
 1828              		.loc 1 857 9 view .LVU682
 1829 012a A3B1     		cbz	r3, .L120
 1830              	.L108:
 859:Drivers/STM32F4xx_HAL_Driver/Src/stm32f4xx_hal_dma.cpp ****         }
 1831              		.loc 1 859 11 is_stmt 1 view .LVU683
 859:Drivers/STM32F4xx_HAL_Driver/Src/stm32f4xx_hal_dma.cpp ****         }
 1832              		.loc 1 859 17 is_stmt 0 view .LVU684
 1833 012c 2268     		ldr	r2, [r4]
 859:Drivers/STM32F4xx_HAL_Driver/Src/stm32f4xx_hal_dma.cpp ****         }
 1834              		.loc 1 859 27 view .LVU685
 1835 012e 1368     		ldr	r3, [r2]
 859:Drivers/STM32F4xx_HAL_Driver/Src/stm32f4xx_hal_dma.cpp ****         }
 1836              		.loc 1 859 31 view .LVU686
 1837 0130 23F00803 		bic	r3, r3, #8
 1838 0134 1360     		str	r3, [r2]
 1839              	.L109:
 863:Drivers/STM32F4xx_HAL_Driver/Src/stm32f4xx_hal_dma.cpp **** 
 1840              		.loc 1 863 9 is_stmt 1 view .LVU687
 863:Drivers/STM32F4xx_HAL_Driver/Src/stm32f4xx_hal_dma.cpp **** 
 1841              		.loc 1 863 37 is_stmt 0 view .LVU688
 1842 0136 E26D     		ldr	r2, [r4, #92]
 863:Drivers/STM32F4xx_HAL_Driver/Src/stm32f4xx_hal_dma.cpp **** 
 1843              		.loc 1 863 28 view .LVU689
 1844 0138 3F23     		movs	r3, #63
 1845 013a 9340     		lsls	r3, r3, r2
 863:Drivers/STM32F4xx_HAL_Driver/Src/stm32f4xx_hal_dma.cpp **** 
 1846              		.loc 1 863 20 view .LVU690
 1847 013c BB60     		str	r3, [r7, #8]
 866:Drivers/STM32F4xx_HAL_Driver/Src/stm32f4xx_hal_dma.cpp **** 
 1848              		.loc 1 866 9 is_stmt 1 view .LVU691
 866:Drivers/STM32F4xx_HAL_Driver/Src/stm32f4xx_hal_dma.cpp **** 
 1849              		.loc 1 866 21 is_stmt 0 view .LVU692
 1850 013e 0123     		movs	r3, #1
 1851 0140 84F83530 		strb	r3, [r4, #53]
 869:Drivers/STM32F4xx_HAL_Driver/Src/stm32f4xx_hal_dma.cpp **** 
 1852              		.loc 1 869 9 is_stmt 1 view .LVU693
 869:Drivers/STM32F4xx_HAL_Driver/Src/stm32f4xx_hal_dma.cpp **** 
 1853              		.loc 1 869 9 view .LVU694
 1854 0144 0023     		movs	r3, #0
 1855 0146 84F83430 		strb	r3, [r4, #52]
 869:Drivers/STM32F4xx_HAL_Driver/Src/stm32f4xx_hal_dma.cpp **** 
 1856              		.loc 1 869 9 view .LVU695
 871:Drivers/STM32F4xx_HAL_Driver/Src/stm32f4xx_hal_dma.cpp ****         {
 1857              		.loc 1 871 9 view .LVU696
 871:Drivers/STM32F4xx_HAL_Driver/Src/stm32f4xx_hal_dma.cpp ****         {
 1858              		.loc 1 871 18 is_stmt 0 view .LVU697
 1859 014a 236D     		ldr	r3, [r4, #80]
ARM GAS  C:\Users\huawei\AppData\Local\Temp\ccXalwLh.s 			page 67


 871:Drivers/STM32F4xx_HAL_Driver/Src/stm32f4xx_hal_dma.cpp ****         {
 1860              		.loc 1 871 9 view .LVU698
 1861 014c 002B     		cmp	r3, #0
 1862 014e 3FD0     		beq	.L98
 873:Drivers/STM32F4xx_HAL_Driver/Src/stm32f4xx_hal_dma.cpp ****         }
 1863              		.loc 1 873 11 is_stmt 1 view .LVU699
 873:Drivers/STM32F4xx_HAL_Driver/Src/stm32f4xx_hal_dma.cpp ****         }
 1864              		.loc 1 873 34 is_stmt 0 view .LVU700
 1865 0150 2046     		mov	r0, r4
 1866 0152 9847     		blx	r3
 1867              	.LVL136:
 875:Drivers/STM32F4xx_HAL_Driver/Src/stm32f4xx_hal_dma.cpp ****       }
 1868              		.loc 1 875 9 is_stmt 1 view .LVU701
 1869 0154 3CE0     		b	.L98
 1870              	.L120:
 857:Drivers/STM32F4xx_HAL_Driver/Src/stm32f4xx_hal_dma.cpp ****         {
 1871              		.loc 1 857 59 is_stmt 0 discriminator 1 view .LVU702
 1872 0156 A36C     		ldr	r3, [r4, #72]
 857:Drivers/STM32F4xx_HAL_Driver/Src/stm32f4xx_hal_dma.cpp ****         {
 1873              		.loc 1 857 49 discriminator 1 view .LVU703
 1874 0158 002B     		cmp	r3, #0
 1875 015a E7D1     		bne	.L108
 1876 015c EBE7     		b	.L109
 1877              	.L113:
 892:Drivers/STM32F4xx_HAL_Driver/Src/stm32f4xx_hal_dma.cpp ****           {
 1878              		.loc 1 892 11 is_stmt 1 view .LVU704
 892:Drivers/STM32F4xx_HAL_Driver/Src/stm32f4xx_hal_dma.cpp ****           {
 1879              		.loc 1 892 20 is_stmt 0 view .LVU705
 1880 015e E36B     		ldr	r3, [r4, #60]
 892:Drivers/STM32F4xx_HAL_Driver/Src/stm32f4xx_hal_dma.cpp ****           {
 1881              		.loc 1 892 11 view .LVU706
 1882 0160 A3B1     		cbz	r3, .L106
 895:Drivers/STM32F4xx_HAL_Driver/Src/stm32f4xx_hal_dma.cpp ****           }
 1883              		.loc 1 895 13 is_stmt 1 view .LVU707
 895:Drivers/STM32F4xx_HAL_Driver/Src/stm32f4xx_hal_dma.cpp ****           }
 1884              		.loc 1 895 35 is_stmt 0 view .LVU708
 1885 0162 2046     		mov	r0, r4
 1886 0164 9847     		blx	r3
 1887              	.LVL137:
 1888 0166 11E0     		b	.L106
 1889              	.L112:
 902:Drivers/STM32F4xx_HAL_Driver/Src/stm32f4xx_hal_dma.cpp ****         {
 1890              		.loc 1 902 9 is_stmt 1 view .LVU709
 902:Drivers/STM32F4xx_HAL_Driver/Src/stm32f4xx_hal_dma.cpp ****         {
 1891              		.loc 1 902 29 is_stmt 0 view .LVU710
 1892 0168 1A68     		ldr	r2, [r3]
 902:Drivers/STM32F4xx_HAL_Driver/Src/stm32f4xx_hal_dma.cpp ****         {
 1893              		.loc 1 902 9 view .LVU711
 1894 016a 12F4807F 		tst	r2, #256
 1895 016e 09D1     		bne	.L114
 905:Drivers/STM32F4xx_HAL_Driver/Src/stm32f4xx_hal_dma.cpp **** 
 1896              		.loc 1 905 11 is_stmt 1 view .LVU712
 905:Drivers/STM32F4xx_HAL_Driver/Src/stm32f4xx_hal_dma.cpp **** 
 1897              		.loc 1 905 27 is_stmt 0 view .LVU713
 1898 0170 1A68     		ldr	r2, [r3]
 905:Drivers/STM32F4xx_HAL_Driver/Src/stm32f4xx_hal_dma.cpp **** 
 1899              		.loc 1 905 31 view .LVU714
ARM GAS  C:\Users\huawei\AppData\Local\Temp\ccXalwLh.s 			page 68


 1900 0172 22F01002 		bic	r2, r2, #16
 1901 0176 1A60     		str	r2, [r3]
 908:Drivers/STM32F4xx_HAL_Driver/Src/stm32f4xx_hal_dma.cpp **** 
 1902              		.loc 1 908 11 is_stmt 1 view .LVU715
 908:Drivers/STM32F4xx_HAL_Driver/Src/stm32f4xx_hal_dma.cpp **** 
 1903              		.loc 1 908 23 is_stmt 0 view .LVU716
 1904 0178 0123     		movs	r3, #1
 1905 017a 84F83530 		strb	r3, [r4, #53]
 911:Drivers/STM32F4xx_HAL_Driver/Src/stm32f4xx_hal_dma.cpp ****         }
 1906              		.loc 1 911 11 is_stmt 1 view .LVU717
 911:Drivers/STM32F4xx_HAL_Driver/Src/stm32f4xx_hal_dma.cpp ****         }
 1907              		.loc 1 911 11 view .LVU718
 1908 017e 0023     		movs	r3, #0
 1909 0180 84F83430 		strb	r3, [r4, #52]
 911:Drivers/STM32F4xx_HAL_Driver/Src/stm32f4xx_hal_dma.cpp ****         }
 1910              		.loc 1 911 11 view .LVU719
 1911              	.L114:
 914:Drivers/STM32F4xx_HAL_Driver/Src/stm32f4xx_hal_dma.cpp ****         {
 1912              		.loc 1 914 9 view .LVU720
 914:Drivers/STM32F4xx_HAL_Driver/Src/stm32f4xx_hal_dma.cpp ****         {
 1913              		.loc 1 914 18 is_stmt 0 view .LVU721
 1914 0184 E36B     		ldr	r3, [r4, #60]
 914:Drivers/STM32F4xx_HAL_Driver/Src/stm32f4xx_hal_dma.cpp ****         {
 1915              		.loc 1 914 9 view .LVU722
 1916 0186 0BB1     		cbz	r3, .L106
 917:Drivers/STM32F4xx_HAL_Driver/Src/stm32f4xx_hal_dma.cpp ****         }
 1917              		.loc 1 917 11 is_stmt 1 view .LVU723
 917:Drivers/STM32F4xx_HAL_Driver/Src/stm32f4xx_hal_dma.cpp ****         }
 1918              		.loc 1 917 33 is_stmt 0 view .LVU724
 1919 0188 2046     		mov	r0, r4
 1920 018a 9847     		blx	r3
 1921              	.LVL138:
 1922              	.L106:
 924:Drivers/STM32F4xx_HAL_Driver/Src/stm32f4xx_hal_dma.cpp ****   {
 1923              		.loc 1 924 3 is_stmt 1 view .LVU725
 924:Drivers/STM32F4xx_HAL_Driver/Src/stm32f4xx_hal_dma.cpp ****   {
 1924              		.loc 1 924 12 is_stmt 0 view .LVU726
 1925 018c 636D     		ldr	r3, [r4, #84]
 924:Drivers/STM32F4xx_HAL_Driver/Src/stm32f4xx_hal_dma.cpp ****   {
 1926              		.loc 1 924 3 view .LVU727
 1927 018e FBB1     		cbz	r3, .L98
 926:Drivers/STM32F4xx_HAL_Driver/Src/stm32f4xx_hal_dma.cpp ****     {
 1928              		.loc 1 926 5 is_stmt 1 view .LVU728
 926:Drivers/STM32F4xx_HAL_Driver/Src/stm32f4xx_hal_dma.cpp ****     {
 1929              		.loc 1 926 15 is_stmt 0 view .LVU729
 1930 0190 636D     		ldr	r3, [r4, #84]
 926:Drivers/STM32F4xx_HAL_Driver/Src/stm32f4xx_hal_dma.cpp ****     {
 1931              		.loc 1 926 5 view .LVU730
 1932 0192 13F0010F 		tst	r3, #1
 1933 0196 17D0     		beq	.L115
 928:Drivers/STM32F4xx_HAL_Driver/Src/stm32f4xx_hal_dma.cpp **** 
 1934              		.loc 1 928 7 is_stmt 1 view .LVU731
 928:Drivers/STM32F4xx_HAL_Driver/Src/stm32f4xx_hal_dma.cpp **** 
 1935              		.loc 1 928 19 is_stmt 0 view .LVU732
 1936 0198 0523     		movs	r3, #5
 1937 019a 84F83530 		strb	r3, [r4, #53]
 931:Drivers/STM32F4xx_HAL_Driver/Src/stm32f4xx_hal_dma.cpp **** 
ARM GAS  C:\Users\huawei\AppData\Local\Temp\ccXalwLh.s 			page 69


 1938              		.loc 1 931 7 is_stmt 1 view .LVU733
 1939 019e 2268     		ldr	r2, [r4]
 1940 01a0 1368     		ldr	r3, [r2]
 1941 01a2 23F00103 		bic	r3, r3, #1
 1942 01a6 1360     		str	r3, [r2]
 1943              	.L117:
 933:Drivers/STM32F4xx_HAL_Driver/Src/stm32f4xx_hal_dma.cpp ****       {
 1944              		.loc 1 933 7 view .LVU734
 935:Drivers/STM32F4xx_HAL_Driver/Src/stm32f4xx_hal_dma.cpp ****         {
 1945              		.loc 1 935 9 view .LVU735
 935:Drivers/STM32F4xx_HAL_Driver/Src/stm32f4xx_hal_dma.cpp ****         {
 1946              		.loc 1 935 13 is_stmt 0 view .LVU736
 1947 01a8 019B     		ldr	r3, [sp, #4]
 1948 01aa 0133     		adds	r3, r3, #1
 935:Drivers/STM32F4xx_HAL_Driver/Src/stm32f4xx_hal_dma.cpp ****         {
 1949              		.loc 1 935 21 view .LVU737
 1950 01ac 0193     		str	r3, [sp, #4]
 935:Drivers/STM32F4xx_HAL_Driver/Src/stm32f4xx_hal_dma.cpp ****         {
 1951              		.loc 1 935 9 view .LVU738
 1952 01ae AB42     		cmp	r3, r5
 1953 01b0 04D8     		bhi	.L116
 940:Drivers/STM32F4xx_HAL_Driver/Src/stm32f4xx_hal_dma.cpp **** 
 1954              		.loc 1 940 48 is_stmt 1 view .LVU739
 940:Drivers/STM32F4xx_HAL_Driver/Src/stm32f4xx_hal_dma.cpp **** 
 1955              		.loc 1 940 20 is_stmt 0 view .LVU740
 1956 01b2 2368     		ldr	r3, [r4]
 940:Drivers/STM32F4xx_HAL_Driver/Src/stm32f4xx_hal_dma.cpp **** 
 1957              		.loc 1 940 30 view .LVU741
 1958 01b4 1B68     		ldr	r3, [r3]
 940:Drivers/STM32F4xx_HAL_Driver/Src/stm32f4xx_hal_dma.cpp **** 
 1959              		.loc 1 940 48 view .LVU742
 1960 01b6 13F0010F 		tst	r3, #1
 1961 01ba F5D1     		bne	.L117
 1962              	.L116:
 943:Drivers/STM32F4xx_HAL_Driver/Src/stm32f4xx_hal_dma.cpp **** 
 1963              		.loc 1 943 7 is_stmt 1 view .LVU743
 943:Drivers/STM32F4xx_HAL_Driver/Src/stm32f4xx_hal_dma.cpp **** 
 1964              		.loc 1 943 19 is_stmt 0 view .LVU744
 1965 01bc 0123     		movs	r3, #1
 1966 01be 84F83530 		strb	r3, [r4, #53]
 946:Drivers/STM32F4xx_HAL_Driver/Src/stm32f4xx_hal_dma.cpp ****     }
 1967              		.loc 1 946 7 is_stmt 1 view .LVU745
 946:Drivers/STM32F4xx_HAL_Driver/Src/stm32f4xx_hal_dma.cpp ****     }
 1968              		.loc 1 946 7 view .LVU746
 1969 01c2 0023     		movs	r3, #0
 1970 01c4 84F83430 		strb	r3, [r4, #52]
 946:Drivers/STM32F4xx_HAL_Driver/Src/stm32f4xx_hal_dma.cpp ****     }
 1971              		.loc 1 946 7 view .LVU747
 1972              	.L115:
 949:Drivers/STM32F4xx_HAL_Driver/Src/stm32f4xx_hal_dma.cpp ****     {
 1973              		.loc 1 949 5 view .LVU748
 949:Drivers/STM32F4xx_HAL_Driver/Src/stm32f4xx_hal_dma.cpp ****     {
 1974              		.loc 1 949 14 is_stmt 0 view .LVU749
 1975 01c8 E36C     		ldr	r3, [r4, #76]
 949:Drivers/STM32F4xx_HAL_Driver/Src/stm32f4xx_hal_dma.cpp ****     {
 1976              		.loc 1 949 5 view .LVU750
 1977 01ca 0BB1     		cbz	r3, .L98
ARM GAS  C:\Users\huawei\AppData\Local\Temp\ccXalwLh.s 			page 70


 952:Drivers/STM32F4xx_HAL_Driver/Src/stm32f4xx_hal_dma.cpp ****     }
 1978              		.loc 1 952 7 is_stmt 1 view .LVU751
 952:Drivers/STM32F4xx_HAL_Driver/Src/stm32f4xx_hal_dma.cpp ****     }
 1979              		.loc 1 952 30 is_stmt 0 view .LVU752
 1980 01cc 2046     		mov	r0, r4
 1981 01ce 9847     		blx	r3
 1982              	.LVL139:
 1983              	.L98:
 955:Drivers/STM32F4xx_HAL_Driver/Src/stm32f4xx_hal_dma.cpp **** 
 1984              		.loc 1 955 1 view .LVU753
 1985 01d0 03B0     		add	sp, sp, #12
 1986              	.LCFI15:
 1987              		.cfi_def_cfa_offset 20
 1988              		@ sp needed
 1989 01d2 F0BD     		pop	{r4, r5, r6, r7, pc}
 1990              	.LVL140:
 1991              	.L122:
 955:Drivers/STM32F4xx_HAL_Driver/Src/stm32f4xx_hal_dma.cpp **** 
 1992              		.loc 1 955 1 view .LVU754
 1993              		.align	2
 1994              	.L121:
 1995 01d4 00000000 		.word	SystemCoreClock
 1996 01d8 B5814E1B 		.word	458129845
 1997              		.cfi_endproc
 1998              	.LFE242:
 1999              		.fnend
 2001              		.section	.text.HAL_DMA_RegisterCallback,"ax",%progbits
 2002              		.align	1
 2003              		.global	HAL_DMA_RegisterCallback
 2004              		.syntax unified
 2005              		.thumb
 2006              		.thumb_func
 2008              	HAL_DMA_RegisterCallback:
 2009              		.fnstart
 2010              	.LVL141:
 2011              	.LFB243:
 968:Drivers/STM32F4xx_HAL_Driver/Src/stm32f4xx_hal_dma.cpp **** 
 2012              		.loc 1 968 1 is_stmt 1 view -0
 2013              		.cfi_startproc
 2014              		@ args = 0, pretend = 0, frame = 0
 2015              		@ frame_needed = 0, uses_anonymous_args = 0
 2016              		@ link register save eliminated.
 968:Drivers/STM32F4xx_HAL_Driver/Src/stm32f4xx_hal_dma.cpp **** 
 2017              		.loc 1 968 1 is_stmt 0 view .LVU756
 2018 0000 0346     		mov	r3, r0
 970:Drivers/STM32F4xx_HAL_Driver/Src/stm32f4xx_hal_dma.cpp **** 
 2019              		.loc 1 970 3 is_stmt 1 view .LVU757
 2020              	.LVL142:
 973:Drivers/STM32F4xx_HAL_Driver/Src/stm32f4xx_hal_dma.cpp **** 
 2021              		.loc 1 973 3 view .LVU758
 973:Drivers/STM32F4xx_HAL_Driver/Src/stm32f4xx_hal_dma.cpp **** 
 2022              		.loc 1 973 3 view .LVU759
 2023 0002 90F83400 		ldrb	r0, [r0, #52]	@ zero_extendqisi2
 2024              	.LVL143:
 973:Drivers/STM32F4xx_HAL_Driver/Src/stm32f4xx_hal_dma.cpp **** 
 2025              		.loc 1 973 3 is_stmt 0 view .LVU760
 2026 0006 0128     		cmp	r0, #1
ARM GAS  C:\Users\huawei\AppData\Local\Temp\ccXalwLh.s 			page 71


 2027 0008 25D0     		beq	.L133
 973:Drivers/STM32F4xx_HAL_Driver/Src/stm32f4xx_hal_dma.cpp **** 
 2028              		.loc 1 973 3 is_stmt 1 discriminator 2 view .LVU761
 2029 000a 0120     		movs	r0, #1
 2030 000c 83F83400 		strb	r0, [r3, #52]
 973:Drivers/STM32F4xx_HAL_Driver/Src/stm32f4xx_hal_dma.cpp **** 
 2031              		.loc 1 973 3 discriminator 2 view .LVU762
 975:Drivers/STM32F4xx_HAL_Driver/Src/stm32f4xx_hal_dma.cpp ****   {
 2032              		.loc 1 975 3 discriminator 2 view .LVU763
 975:Drivers/STM32F4xx_HAL_Driver/Src/stm32f4xx_hal_dma.cpp ****   {
 2033              		.loc 1 975 35 is_stmt 0 discriminator 2 view .LVU764
 2034 0010 93F83500 		ldrb	r0, [r3, #53]	@ zero_extendqisi2
 2035 0014 C0B2     		uxtb	r0, r0
 975:Drivers/STM32F4xx_HAL_Driver/Src/stm32f4xx_hal_dma.cpp ****   {
 2036              		.loc 1 975 3 discriminator 2 view .LVU765
 2037 0016 0128     		cmp	r0, #1
 2038 0018 04D0     		beq	.L136
1012:Drivers/STM32F4xx_HAL_Driver/Src/stm32f4xx_hal_dma.cpp ****   }
 2039              		.loc 1 1012 12 view .LVU766
 2040 001a 0120     		movs	r0, #1
 2041              	.L125:
 2042              	.LVL144:
1016:Drivers/STM32F4xx_HAL_Driver/Src/stm32f4xx_hal_dma.cpp ****   
 2043              		.loc 1 1016 3 is_stmt 1 view .LVU767
1016:Drivers/STM32F4xx_HAL_Driver/Src/stm32f4xx_hal_dma.cpp ****   
 2044              		.loc 1 1016 3 view .LVU768
 2045 001c 0022     		movs	r2, #0
 2046              	.LVL145:
1016:Drivers/STM32F4xx_HAL_Driver/Src/stm32f4xx_hal_dma.cpp ****   
 2047              		.loc 1 1016 3 is_stmt 0 view .LVU769
 2048 001e 83F83420 		strb	r2, [r3, #52]
1016:Drivers/STM32F4xx_HAL_Driver/Src/stm32f4xx_hal_dma.cpp ****   
 2049              		.loc 1 1016 3 is_stmt 1 view .LVU770
1018:Drivers/STM32F4xx_HAL_Driver/Src/stm32f4xx_hal_dma.cpp **** }
 2050              		.loc 1 1018 3 view .LVU771
1018:Drivers/STM32F4xx_HAL_Driver/Src/stm32f4xx_hal_dma.cpp **** }
 2051              		.loc 1 1018 10 is_stmt 0 view .LVU772
 2052 0022 7047     		bx	lr
 2053              	.LVL146:
 2054              	.L136:
 977:Drivers/STM32F4xx_HAL_Driver/Src/stm32f4xx_hal_dma.cpp ****     {
 2055              		.loc 1 977 5 is_stmt 1 view .LVU773
 2056 0024 0529     		cmp	r1, #5
 2057 0026 F9D8     		bhi	.L125
 2058 0028 DFE801F0 		tbb	[pc, r1]
 2059              	.L127:
 2060 002c 03       		.byte	(.L132-.L127)/2
 2061 002d 06       		.byte	(.L131-.L127)/2
 2062 002e 09       		.byte	(.L130-.L127)/2
 2063 002f 0C       		.byte	(.L129-.L127)/2
 2064 0030 0F       		.byte	(.L128-.L127)/2
 2065 0031 12       		.byte	(.L126-.L127)/2
 2066              		.p2align 1
 2067              	.L132:
 979:Drivers/STM32F4xx_HAL_Driver/Src/stm32f4xx_hal_dma.cpp ****       hdma->XferCpltCallback = pCallback;
 2068              		.loc 1 979 5 view .LVU774
 980:Drivers/STM32F4xx_HAL_Driver/Src/stm32f4xx_hal_dma.cpp ****       break;
ARM GAS  C:\Users\huawei\AppData\Local\Temp\ccXalwLh.s 			page 72


 2069              		.loc 1 980 7 view .LVU775
 980:Drivers/STM32F4xx_HAL_Driver/Src/stm32f4xx_hal_dma.cpp ****       break;
 2070              		.loc 1 980 30 is_stmt 0 view .LVU776
 2071 0032 DA63     		str	r2, [r3, #60]
 981:Drivers/STM32F4xx_HAL_Driver/Src/stm32f4xx_hal_dma.cpp **** 
 2072              		.loc 1 981 7 is_stmt 1 view .LVU777
 970:Drivers/STM32F4xx_HAL_Driver/Src/stm32f4xx_hal_dma.cpp **** 
 2073              		.loc 1 970 21 is_stmt 0 view .LVU778
 2074 0034 0846     		mov	r0, r1
 981:Drivers/STM32F4xx_HAL_Driver/Src/stm32f4xx_hal_dma.cpp **** 
 2075              		.loc 1 981 7 view .LVU779
 2076 0036 F1E7     		b	.L125
 2077              	.L131:
 983:Drivers/STM32F4xx_HAL_Driver/Src/stm32f4xx_hal_dma.cpp ****       hdma->XferHalfCpltCallback = pCallback;
 2078              		.loc 1 983 5 is_stmt 1 view .LVU780
 984:Drivers/STM32F4xx_HAL_Driver/Src/stm32f4xx_hal_dma.cpp ****       break;
 2079              		.loc 1 984 7 view .LVU781
 984:Drivers/STM32F4xx_HAL_Driver/Src/stm32f4xx_hal_dma.cpp ****       break;
 2080              		.loc 1 984 34 is_stmt 0 view .LVU782
 2081 0038 1A64     		str	r2, [r3, #64]
 985:Drivers/STM32F4xx_HAL_Driver/Src/stm32f4xx_hal_dma.cpp **** 
 2082              		.loc 1 985 7 is_stmt 1 view .LVU783
 970:Drivers/STM32F4xx_HAL_Driver/Src/stm32f4xx_hal_dma.cpp **** 
 2083              		.loc 1 970 21 is_stmt 0 view .LVU784
 2084 003a 0020     		movs	r0, #0
 985:Drivers/STM32F4xx_HAL_Driver/Src/stm32f4xx_hal_dma.cpp **** 
 2085              		.loc 1 985 7 view .LVU785
 2086 003c EEE7     		b	.L125
 2087              	.L130:
 987:Drivers/STM32F4xx_HAL_Driver/Src/stm32f4xx_hal_dma.cpp ****       hdma->XferM1CpltCallback = pCallback;
 2088              		.loc 1 987 5 is_stmt 1 view .LVU786
 988:Drivers/STM32F4xx_HAL_Driver/Src/stm32f4xx_hal_dma.cpp ****       break;
 2089              		.loc 1 988 7 view .LVU787
 988:Drivers/STM32F4xx_HAL_Driver/Src/stm32f4xx_hal_dma.cpp ****       break;
 2090              		.loc 1 988 32 is_stmt 0 view .LVU788
 2091 003e 5A64     		str	r2, [r3, #68]
 989:Drivers/STM32F4xx_HAL_Driver/Src/stm32f4xx_hal_dma.cpp **** 
 2092              		.loc 1 989 7 is_stmt 1 view .LVU789
 970:Drivers/STM32F4xx_HAL_Driver/Src/stm32f4xx_hal_dma.cpp **** 
 2093              		.loc 1 970 21 is_stmt 0 view .LVU790
 2094 0040 0020     		movs	r0, #0
 989:Drivers/STM32F4xx_HAL_Driver/Src/stm32f4xx_hal_dma.cpp **** 
 2095              		.loc 1 989 7 view .LVU791
 2096 0042 EBE7     		b	.L125
 2097              	.L129:
 991:Drivers/STM32F4xx_HAL_Driver/Src/stm32f4xx_hal_dma.cpp ****       hdma->XferM1HalfCpltCallback = pCallback;
 2098              		.loc 1 991 5 is_stmt 1 view .LVU792
 992:Drivers/STM32F4xx_HAL_Driver/Src/stm32f4xx_hal_dma.cpp ****       break;
 2099              		.loc 1 992 7 view .LVU793
 992:Drivers/STM32F4xx_HAL_Driver/Src/stm32f4xx_hal_dma.cpp ****       break;
 2100              		.loc 1 992 36 is_stmt 0 view .LVU794
 2101 0044 9A64     		str	r2, [r3, #72]
 993:Drivers/STM32F4xx_HAL_Driver/Src/stm32f4xx_hal_dma.cpp **** 
 2102              		.loc 1 993 7 is_stmt 1 view .LVU795
 970:Drivers/STM32F4xx_HAL_Driver/Src/stm32f4xx_hal_dma.cpp **** 
 2103              		.loc 1 970 21 is_stmt 0 view .LVU796
 2104 0046 0020     		movs	r0, #0
ARM GAS  C:\Users\huawei\AppData\Local\Temp\ccXalwLh.s 			page 73


 993:Drivers/STM32F4xx_HAL_Driver/Src/stm32f4xx_hal_dma.cpp **** 
 2105              		.loc 1 993 7 view .LVU797
 2106 0048 E8E7     		b	.L125
 2107              	.L128:
 995:Drivers/STM32F4xx_HAL_Driver/Src/stm32f4xx_hal_dma.cpp ****       hdma->XferErrorCallback = pCallback;
 2108              		.loc 1 995 5 is_stmt 1 view .LVU798
 996:Drivers/STM32F4xx_HAL_Driver/Src/stm32f4xx_hal_dma.cpp ****       break;
 2109              		.loc 1 996 7 view .LVU799
 996:Drivers/STM32F4xx_HAL_Driver/Src/stm32f4xx_hal_dma.cpp ****       break;
 2110              		.loc 1 996 31 is_stmt 0 view .LVU800
 2111 004a DA64     		str	r2, [r3, #76]
 997:Drivers/STM32F4xx_HAL_Driver/Src/stm32f4xx_hal_dma.cpp **** 
 2112              		.loc 1 997 7 is_stmt 1 view .LVU801
 970:Drivers/STM32F4xx_HAL_Driver/Src/stm32f4xx_hal_dma.cpp **** 
 2113              		.loc 1 970 21 is_stmt 0 view .LVU802
 2114 004c 0020     		movs	r0, #0
 997:Drivers/STM32F4xx_HAL_Driver/Src/stm32f4xx_hal_dma.cpp **** 
 2115              		.loc 1 997 7 view .LVU803
 2116 004e E5E7     		b	.L125
 2117              	.L126:
 999:Drivers/STM32F4xx_HAL_Driver/Src/stm32f4xx_hal_dma.cpp ****       hdma->XferAbortCallback = pCallback;
 2118              		.loc 1 999 5 is_stmt 1 view .LVU804
1000:Drivers/STM32F4xx_HAL_Driver/Src/stm32f4xx_hal_dma.cpp ****       break;
 2119              		.loc 1 1000 7 view .LVU805
1000:Drivers/STM32F4xx_HAL_Driver/Src/stm32f4xx_hal_dma.cpp ****       break;
 2120              		.loc 1 1000 31 is_stmt 0 view .LVU806
 2121 0050 1A65     		str	r2, [r3, #80]
1001:Drivers/STM32F4xx_HAL_Driver/Src/stm32f4xx_hal_dma.cpp **** 
 2122              		.loc 1 1001 7 is_stmt 1 view .LVU807
 970:Drivers/STM32F4xx_HAL_Driver/Src/stm32f4xx_hal_dma.cpp **** 
 2123              		.loc 1 970 21 is_stmt 0 view .LVU808
 2124 0052 0020     		movs	r0, #0
1001:Drivers/STM32F4xx_HAL_Driver/Src/stm32f4xx_hal_dma.cpp **** 
 2125              		.loc 1 1001 7 view .LVU809
 2126 0054 E2E7     		b	.L125
 2127              	.L133:
 973:Drivers/STM32F4xx_HAL_Driver/Src/stm32f4xx_hal_dma.cpp **** 
 2128              		.loc 1 973 3 view .LVU810
 2129 0056 0220     		movs	r0, #2
1019:Drivers/STM32F4xx_HAL_Driver/Src/stm32f4xx_hal_dma.cpp **** 
 2130              		.loc 1 1019 1 view .LVU811
 2131 0058 7047     		bx	lr
 2132              		.cfi_endproc
 2133              	.LFE243:
 2134              		.cantunwind
 2135              		.fnend
 2137              		.section	.text.HAL_DMA_UnRegisterCallback,"ax",%progbits
 2138              		.align	1
 2139              		.global	HAL_DMA_UnRegisterCallback
 2140              		.syntax unified
 2141              		.thumb
 2142              		.thumb_func
 2144              	HAL_DMA_UnRegisterCallback:
 2145              		.fnstart
 2146              	.LVL147:
 2147              	.LFB244:
1030:Drivers/STM32F4xx_HAL_Driver/Src/stm32f4xx_hal_dma.cpp ****   HAL_StatusTypeDef status = HAL_OK;
ARM GAS  C:\Users\huawei\AppData\Local\Temp\ccXalwLh.s 			page 74


 2148              		.loc 1 1030 1 is_stmt 1 view -0
 2149              		.cfi_startproc
 2150              		@ args = 0, pretend = 0, frame = 0
 2151              		@ frame_needed = 0, uses_anonymous_args = 0
 2152              		@ link register save eliminated.
1030:Drivers/STM32F4xx_HAL_Driver/Src/stm32f4xx_hal_dma.cpp ****   HAL_StatusTypeDef status = HAL_OK;
 2153              		.loc 1 1030 1 is_stmt 0 view .LVU813
 2154 0000 0346     		mov	r3, r0
1031:Drivers/STM32F4xx_HAL_Driver/Src/stm32f4xx_hal_dma.cpp ****   
 2155              		.loc 1 1031 3 is_stmt 1 view .LVU814
 2156              	.LVL148:
1034:Drivers/STM32F4xx_HAL_Driver/Src/stm32f4xx_hal_dma.cpp ****   
 2157              		.loc 1 1034 3 view .LVU815
1034:Drivers/STM32F4xx_HAL_Driver/Src/stm32f4xx_hal_dma.cpp ****   
 2158              		.loc 1 1034 3 view .LVU816
 2159 0002 90F83420 		ldrb	r2, [r0, #52]	@ zero_extendqisi2
 2160 0006 012A     		cmp	r2, #1
 2161 0008 2FD0     		beq	.L148
1034:Drivers/STM32F4xx_HAL_Driver/Src/stm32f4xx_hal_dma.cpp ****   
 2162              		.loc 1 1034 3 discriminator 2 view .LVU817
 2163 000a 0122     		movs	r2, #1
 2164 000c 80F83420 		strb	r2, [r0, #52]
1034:Drivers/STM32F4xx_HAL_Driver/Src/stm32f4xx_hal_dma.cpp ****   
 2165              		.loc 1 1034 3 discriminator 2 view .LVU818
1036:Drivers/STM32F4xx_HAL_Driver/Src/stm32f4xx_hal_dma.cpp ****   {
 2166              		.loc 1 1036 3 discriminator 2 view .LVU819
1036:Drivers/STM32F4xx_HAL_Driver/Src/stm32f4xx_hal_dma.cpp ****   {
 2167              		.loc 1 1036 35 is_stmt 0 discriminator 2 view .LVU820
 2168 0010 90F83500 		ldrb	r0, [r0, #53]	@ zero_extendqisi2
 2169              	.LVL149:
1036:Drivers/STM32F4xx_HAL_Driver/Src/stm32f4xx_hal_dma.cpp ****   {
 2170              		.loc 1 1036 35 discriminator 2 view .LVU821
 2171 0014 C0B2     		uxtb	r0, r0
1036:Drivers/STM32F4xx_HAL_Driver/Src/stm32f4xx_hal_dma.cpp ****   {
 2172              		.loc 1 1036 3 discriminator 2 view .LVU822
 2173 0016 9042     		cmp	r0, r2
 2174 0018 04D0     		beq	.L151
1080:Drivers/STM32F4xx_HAL_Driver/Src/stm32f4xx_hal_dma.cpp ****   }
 2175              		.loc 1 1080 12 view .LVU823
 2176 001a 0120     		movs	r0, #1
 2177              	.L139:
 2178              	.LVL150:
1084:Drivers/STM32F4xx_HAL_Driver/Src/stm32f4xx_hal_dma.cpp ****   
 2179              		.loc 1 1084 3 is_stmt 1 view .LVU824
1084:Drivers/STM32F4xx_HAL_Driver/Src/stm32f4xx_hal_dma.cpp ****   
 2180              		.loc 1 1084 3 view .LVU825
 2181 001c 0022     		movs	r2, #0
 2182 001e 83F83420 		strb	r2, [r3, #52]
1084:Drivers/STM32F4xx_HAL_Driver/Src/stm32f4xx_hal_dma.cpp ****   
 2183              		.loc 1 1084 3 view .LVU826
1086:Drivers/STM32F4xx_HAL_Driver/Src/stm32f4xx_hal_dma.cpp **** }
 2184              		.loc 1 1086 3 view .LVU827
1086:Drivers/STM32F4xx_HAL_Driver/Src/stm32f4xx_hal_dma.cpp **** }
 2185              		.loc 1 1086 10 is_stmt 0 view .LVU828
 2186 0022 7047     		bx	lr
 2187              	.LVL151:
 2188              	.L151:
ARM GAS  C:\Users\huawei\AppData\Local\Temp\ccXalwLh.s 			page 75


1038:Drivers/STM32F4xx_HAL_Driver/Src/stm32f4xx_hal_dma.cpp ****     {
 2189              		.loc 1 1038 5 is_stmt 1 view .LVU829
 2190 0024 0629     		cmp	r1, #6
 2191 0026 F9D8     		bhi	.L139
 2192 0028 DFE801F0 		tbb	[pc, r1]
 2193              	.L141:
 2194 002c 04       		.byte	(.L147-.L141)/2
 2195 002d 08       		.byte	(.L146-.L141)/2
 2196 002e 0B       		.byte	(.L145-.L141)/2
 2197 002f 0E       		.byte	(.L144-.L141)/2
 2198 0030 11       		.byte	(.L143-.L141)/2
 2199 0031 14       		.byte	(.L142-.L141)/2
 2200 0032 17       		.byte	(.L140-.L141)/2
 2201 0033 00       		.p2align 1
 2202              	.L147:
1040:Drivers/STM32F4xx_HAL_Driver/Src/stm32f4xx_hal_dma.cpp ****       hdma->XferCpltCallback = NULL;
 2203              		.loc 1 1040 5 view .LVU830
1041:Drivers/STM32F4xx_HAL_Driver/Src/stm32f4xx_hal_dma.cpp ****       break;
 2204              		.loc 1 1041 7 view .LVU831
1041:Drivers/STM32F4xx_HAL_Driver/Src/stm32f4xx_hal_dma.cpp ****       break;
 2205              		.loc 1 1041 30 is_stmt 0 view .LVU832
 2206 0034 0022     		movs	r2, #0
 2207 0036 DA63     		str	r2, [r3, #60]
1042:Drivers/STM32F4xx_HAL_Driver/Src/stm32f4xx_hal_dma.cpp ****       
 2208              		.loc 1 1042 7 is_stmt 1 view .LVU833
1031:Drivers/STM32F4xx_HAL_Driver/Src/stm32f4xx_hal_dma.cpp ****   
 2209              		.loc 1 1031 21 is_stmt 0 view .LVU834
 2210 0038 0846     		mov	r0, r1
1042:Drivers/STM32F4xx_HAL_Driver/Src/stm32f4xx_hal_dma.cpp ****       
 2211              		.loc 1 1042 7 view .LVU835
 2212 003a EFE7     		b	.L139
 2213              	.L146:
1044:Drivers/STM32F4xx_HAL_Driver/Src/stm32f4xx_hal_dma.cpp ****       hdma->XferHalfCpltCallback = NULL;
 2214              		.loc 1 1044 5 is_stmt 1 view .LVU836
1045:Drivers/STM32F4xx_HAL_Driver/Src/stm32f4xx_hal_dma.cpp ****       break;
 2215              		.loc 1 1045 7 view .LVU837
1045:Drivers/STM32F4xx_HAL_Driver/Src/stm32f4xx_hal_dma.cpp ****       break;
 2216              		.loc 1 1045 34 is_stmt 0 view .LVU838
 2217 003c 0020     		movs	r0, #0
 2218 003e 1864     		str	r0, [r3, #64]
1046:Drivers/STM32F4xx_HAL_Driver/Src/stm32f4xx_hal_dma.cpp ****       
 2219              		.loc 1 1046 7 is_stmt 1 view .LVU839
 2220 0040 ECE7     		b	.L139
 2221              	.L145:
1048:Drivers/STM32F4xx_HAL_Driver/Src/stm32f4xx_hal_dma.cpp ****       hdma->XferM1CpltCallback = NULL;
 2222              		.loc 1 1048 5 view .LVU840
1049:Drivers/STM32F4xx_HAL_Driver/Src/stm32f4xx_hal_dma.cpp ****       break;
 2223              		.loc 1 1049 7 view .LVU841
1049:Drivers/STM32F4xx_HAL_Driver/Src/stm32f4xx_hal_dma.cpp ****       break;
 2224              		.loc 1 1049 32 is_stmt 0 view .LVU842
 2225 0042 0020     		movs	r0, #0
 2226 0044 5864     		str	r0, [r3, #68]
1050:Drivers/STM32F4xx_HAL_Driver/Src/stm32f4xx_hal_dma.cpp ****       
 2227              		.loc 1 1050 7 is_stmt 1 view .LVU843
 2228 0046 E9E7     		b	.L139
 2229              	.L144:
1052:Drivers/STM32F4xx_HAL_Driver/Src/stm32f4xx_hal_dma.cpp ****       hdma->XferM1HalfCpltCallback = NULL;
ARM GAS  C:\Users\huawei\AppData\Local\Temp\ccXalwLh.s 			page 76


 2230              		.loc 1 1052 5 view .LVU844
1053:Drivers/STM32F4xx_HAL_Driver/Src/stm32f4xx_hal_dma.cpp ****       break;
 2231              		.loc 1 1053 7 view .LVU845
1053:Drivers/STM32F4xx_HAL_Driver/Src/stm32f4xx_hal_dma.cpp ****       break;
 2232              		.loc 1 1053 36 is_stmt 0 view .LVU846
 2233 0048 0020     		movs	r0, #0
 2234 004a 9864     		str	r0, [r3, #72]
1054:Drivers/STM32F4xx_HAL_Driver/Src/stm32f4xx_hal_dma.cpp ****       
 2235              		.loc 1 1054 7 is_stmt 1 view .LVU847
 2236 004c E6E7     		b	.L139
 2237              	.L143:
1056:Drivers/STM32F4xx_HAL_Driver/Src/stm32f4xx_hal_dma.cpp ****       hdma->XferErrorCallback = NULL;
 2238              		.loc 1 1056 5 view .LVU848
1057:Drivers/STM32F4xx_HAL_Driver/Src/stm32f4xx_hal_dma.cpp ****       break;
 2239              		.loc 1 1057 7 view .LVU849
1057:Drivers/STM32F4xx_HAL_Driver/Src/stm32f4xx_hal_dma.cpp ****       break;
 2240              		.loc 1 1057 31 is_stmt 0 view .LVU850
 2241 004e 0020     		movs	r0, #0
 2242 0050 D864     		str	r0, [r3, #76]
1058:Drivers/STM32F4xx_HAL_Driver/Src/stm32f4xx_hal_dma.cpp ****       
 2243              		.loc 1 1058 7 is_stmt 1 view .LVU851
 2244 0052 E3E7     		b	.L139
 2245              	.L142:
1060:Drivers/STM32F4xx_HAL_Driver/Src/stm32f4xx_hal_dma.cpp ****       hdma->XferAbortCallback = NULL;
 2246              		.loc 1 1060 5 view .LVU852
1061:Drivers/STM32F4xx_HAL_Driver/Src/stm32f4xx_hal_dma.cpp ****       break; 
 2247              		.loc 1 1061 7 view .LVU853
1061:Drivers/STM32F4xx_HAL_Driver/Src/stm32f4xx_hal_dma.cpp ****       break; 
 2248              		.loc 1 1061 31 is_stmt 0 view .LVU854
 2249 0054 0020     		movs	r0, #0
 2250 0056 1865     		str	r0, [r3, #80]
1062:Drivers/STM32F4xx_HAL_Driver/Src/stm32f4xx_hal_dma.cpp ****       
 2251              		.loc 1 1062 7 is_stmt 1 view .LVU855
 2252 0058 E0E7     		b	.L139
 2253              	.L140:
1064:Drivers/STM32F4xx_HAL_Driver/Src/stm32f4xx_hal_dma.cpp ****       hdma->XferCpltCallback = NULL;
 2254              		.loc 1 1064 5 view .LVU856
1065:Drivers/STM32F4xx_HAL_Driver/Src/stm32f4xx_hal_dma.cpp ****       hdma->XferHalfCpltCallback = NULL;
 2255              		.loc 1 1065 7 view .LVU857
1065:Drivers/STM32F4xx_HAL_Driver/Src/stm32f4xx_hal_dma.cpp ****       hdma->XferHalfCpltCallback = NULL;
 2256              		.loc 1 1065 30 is_stmt 0 view .LVU858
 2257 005a 0020     		movs	r0, #0
 2258 005c D863     		str	r0, [r3, #60]
1066:Drivers/STM32F4xx_HAL_Driver/Src/stm32f4xx_hal_dma.cpp ****       hdma->XferM1CpltCallback = NULL;
 2259              		.loc 1 1066 7 is_stmt 1 view .LVU859
1066:Drivers/STM32F4xx_HAL_Driver/Src/stm32f4xx_hal_dma.cpp ****       hdma->XferM1CpltCallback = NULL;
 2260              		.loc 1 1066 34 is_stmt 0 view .LVU860
 2261 005e 1864     		str	r0, [r3, #64]
1067:Drivers/STM32F4xx_HAL_Driver/Src/stm32f4xx_hal_dma.cpp ****       hdma->XferM1HalfCpltCallback = NULL;
 2262              		.loc 1 1067 7 is_stmt 1 view .LVU861
1067:Drivers/STM32F4xx_HAL_Driver/Src/stm32f4xx_hal_dma.cpp ****       hdma->XferM1HalfCpltCallback = NULL;
 2263              		.loc 1 1067 32 is_stmt 0 view .LVU862
 2264 0060 5864     		str	r0, [r3, #68]
1068:Drivers/STM32F4xx_HAL_Driver/Src/stm32f4xx_hal_dma.cpp ****       hdma->XferErrorCallback = NULL;
 2265              		.loc 1 1068 7 is_stmt 1 view .LVU863
1068:Drivers/STM32F4xx_HAL_Driver/Src/stm32f4xx_hal_dma.cpp ****       hdma->XferErrorCallback = NULL;
 2266              		.loc 1 1068 36 is_stmt 0 view .LVU864
ARM GAS  C:\Users\huawei\AppData\Local\Temp\ccXalwLh.s 			page 77


 2267 0062 9864     		str	r0, [r3, #72]
1069:Drivers/STM32F4xx_HAL_Driver/Src/stm32f4xx_hal_dma.cpp ****       hdma->XferAbortCallback = NULL;
 2268              		.loc 1 1069 7 is_stmt 1 view .LVU865
1069:Drivers/STM32F4xx_HAL_Driver/Src/stm32f4xx_hal_dma.cpp ****       hdma->XferAbortCallback = NULL;
 2269              		.loc 1 1069 31 is_stmt 0 view .LVU866
 2270 0064 D864     		str	r0, [r3, #76]
1070:Drivers/STM32F4xx_HAL_Driver/Src/stm32f4xx_hal_dma.cpp ****       break; 
 2271              		.loc 1 1070 7 is_stmt 1 view .LVU867
1070:Drivers/STM32F4xx_HAL_Driver/Src/stm32f4xx_hal_dma.cpp ****       break; 
 2272              		.loc 1 1070 31 is_stmt 0 view .LVU868
 2273 0066 1865     		str	r0, [r3, #80]
1071:Drivers/STM32F4xx_HAL_Driver/Src/stm32f4xx_hal_dma.cpp ****       
 2274              		.loc 1 1071 7 is_stmt 1 view .LVU869
 2275 0068 D8E7     		b	.L139
 2276              	.LVL152:
 2277              	.L148:
1034:Drivers/STM32F4xx_HAL_Driver/Src/stm32f4xx_hal_dma.cpp ****   
 2278              		.loc 1 1034 3 is_stmt 0 view .LVU870
 2279 006a 0220     		movs	r0, #2
 2280              	.LVL153:
1087:Drivers/STM32F4xx_HAL_Driver/Src/stm32f4xx_hal_dma.cpp **** 
 2281              		.loc 1 1087 1 view .LVU871
 2282 006c 7047     		bx	lr
 2283              		.cfi_endproc
 2284              	.LFE244:
 2285              		.cantunwind
 2286              		.fnend
 2288              		.section	.text.HAL_DMA_GetState,"ax",%progbits
 2289              		.align	1
 2290              		.global	HAL_DMA_GetState
 2291              		.syntax unified
 2292              		.thumb
 2293              		.thumb_func
 2295              	HAL_DMA_GetState:
 2296              		.fnstart
 2297              	.LVL154:
 2298              	.LFB245:
1115:Drivers/STM32F4xx_HAL_Driver/Src/stm32f4xx_hal_dma.cpp ****   return hdma->State;
 2299              		.loc 1 1115 1 is_stmt 1 view -0
 2300              		.cfi_startproc
 2301              		@ args = 0, pretend = 0, frame = 0
 2302              		@ frame_needed = 0, uses_anonymous_args = 0
 2303              		@ link register save eliminated.
1116:Drivers/STM32F4xx_HAL_Driver/Src/stm32f4xx_hal_dma.cpp **** }
 2304              		.loc 1 1116 3 view .LVU873
1116:Drivers/STM32F4xx_HAL_Driver/Src/stm32f4xx_hal_dma.cpp **** }
 2305              		.loc 1 1116 16 is_stmt 0 view .LVU874
 2306 0000 90F83500 		ldrb	r0, [r0, #53]	@ zero_extendqisi2
 2307              	.LVL155:
1117:Drivers/STM32F4xx_HAL_Driver/Src/stm32f4xx_hal_dma.cpp **** 
 2308              		.loc 1 1117 1 view .LVU875
 2309 0004 7047     		bx	lr
 2310              		.cfi_endproc
 2311              	.LFE245:
 2312              		.cantunwind
 2313              		.fnend
 2315              		.section	.text.HAL_DMA_GetError,"ax",%progbits
ARM GAS  C:\Users\huawei\AppData\Local\Temp\ccXalwLh.s 			page 78


 2316              		.align	1
 2317              		.global	HAL_DMA_GetError
 2318              		.syntax unified
 2319              		.thumb
 2320              		.thumb_func
 2322              	HAL_DMA_GetError:
 2323              		.fnstart
 2324              	.LVL156:
 2325              	.LFB246:
1126:Drivers/STM32F4xx_HAL_Driver/Src/stm32f4xx_hal_dma.cpp ****   return hdma->ErrorCode;
 2326              		.loc 1 1126 1 is_stmt 1 view -0
 2327              		.cfi_startproc
 2328              		@ args = 0, pretend = 0, frame = 0
 2329              		@ frame_needed = 0, uses_anonymous_args = 0
 2330              		@ link register save eliminated.
1127:Drivers/STM32F4xx_HAL_Driver/Src/stm32f4xx_hal_dma.cpp **** }
 2331              		.loc 1 1127 3 view .LVU877
1127:Drivers/STM32F4xx_HAL_Driver/Src/stm32f4xx_hal_dma.cpp **** }
 2332              		.loc 1 1127 16 is_stmt 0 view .LVU878
 2333 0000 406D     		ldr	r0, [r0, #84]
 2334              	.LVL157:
1128:Drivers/STM32F4xx_HAL_Driver/Src/stm32f4xx_hal_dma.cpp **** 
 2335              		.loc 1 1128 1 view .LVU879
 2336 0002 7047     		bx	lr
 2337              		.cfi_endproc
 2338              	.LFE246:
 2339              		.cantunwind
 2340              		.fnend
 2342              		.section	.rodata._ZZL23DMA_CalcBaseAndBitshiftP19__DMA_HandleTypeDefE18flagBitshiftOffset,"a"
 2343              		.align	2
 2346              	_ZZL23DMA_CalcBaseAndBitshiftP19__DMA_HandleTypeDefE18flagBitshiftOffset:
 2347 0000 00061016 		.ascii	"\000\006\020\026\000\006\020\026"
 2347      00061016 
 2348              		.text
 2349              	.Letext0:
 2350              		.file 2 "c:\\users\\huawei\\desktop\\workspace\\stm32\\vs code tools\\arm-gnu-toolchain-12.2.rel1-
 2351              		.file 3 "c:\\users\\huawei\\desktop\\workspace\\stm32\\vs code tools\\arm-gnu-toolchain-12.2.rel1-
 2352              		.file 4 "Drivers/CMSIS/Device/ST/STM32F4xx/Include/stm32f446xx.h"
 2353              		.file 5 "Drivers/CMSIS/Device/ST/STM32F4xx/Include/stm32f4xx.h"
 2354              		.file 6 "Drivers/STM32F4xx_HAL_Driver/Inc/stm32f4xx_hal_def.h"
 2355              		.file 7 "Drivers/STM32F4xx_HAL_Driver/Inc/stm32f4xx_hal_dma.h"
 2356              		.file 8 "Drivers/CMSIS/Device/ST/STM32F4xx/Include/system_stm32f4xx.h"
 2357              		.file 9 "Drivers/STM32F4xx_HAL_Driver/Inc/stm32f4xx_hal.h"
ARM GAS  C:\Users\huawei\AppData\Local\Temp\ccXalwLh.s 			page 79


DEFINED SYMBOLS
                            *ABS*:00000000 stm32f4xx_hal_dma.cpp
C:\Users\huawei\AppData\Local\Temp\ccXalwLh.s:21     .text._ZL13DMA_SetConfigP19__DMA_HandleTypeDefmmm:00000000 $t
C:\Users\huawei\AppData\Local\Temp\ccXalwLh.s:26     .text._ZL13DMA_SetConfigP19__DMA_HandleTypeDefmmm:00000000 _ZL13DMA_SetConfigP19__DMA_HandleTypeDefmmm
.ARM.exidx.text._ZL13DMA_SetConfigP19__DMA_HandleTypeDefmmm:00000000 $d
C:\Users\huawei\AppData\Local\Temp\ccXalwLh.s:103    .text._ZL23DMA_CalcBaseAndBitshiftP19__DMA_HandleTypeDef:00000000 $t
C:\Users\huawei\AppData\Local\Temp\ccXalwLh.s:108    .text._ZL23DMA_CalcBaseAndBitshiftP19__DMA_HandleTypeDef:00000000 _ZL23DMA_CalcBaseAndBitshiftP19__DMA_HandleTypeDef
C:\Users\huawei\AppData\Local\Temp\ccXalwLh.s:179    .text._ZL23DMA_CalcBaseAndBitshiftP19__DMA_HandleTypeDef:0000003c $d
C:\Users\huawei\AppData\Local\Temp\ccXalwLh.s:2346   .rodata._ZZL23DMA_CalcBaseAndBitshiftP19__DMA_HandleTypeDefE18flagBitshiftOffset:00000000 _ZZL23DMA_CalcBaseAndBitshiftP19__DMA_HandleTypeDefE18flagBitshiftOffset
.ARM.exidx.text._ZL23DMA_CalcBaseAndBitshiftP19__DMA_HandleTypeDef:00000000 $d
C:\Users\huawei\AppData\Local\Temp\ccXalwLh.s:187    .text._ZL18DMA_CheckFifoParamP19__DMA_HandleTypeDef:00000000 $t
C:\Users\huawei\AppData\Local\Temp\ccXalwLh.s:192    .text._ZL18DMA_CheckFifoParamP19__DMA_HandleTypeDef:00000000 _ZL18DMA_CheckFifoParamP19__DMA_HandleTypeDef
C:\Users\huawei\AppData\Local\Temp\ccXalwLh.s:282    .text._ZL18DMA_CheckFifoParamP19__DMA_HandleTypeDef:0000004e $d
C:\Users\huawei\AppData\Local\Temp\ccXalwLh.s:286    .text._ZL18DMA_CheckFifoParamP19__DMA_HandleTypeDef:00000052 $t
.ARM.exidx.text._ZL18DMA_CheckFifoParamP19__DMA_HandleTypeDef:00000000 $d
C:\Users\huawei\AppData\Local\Temp\ccXalwLh.s:385    .text.HAL_DMA_Init:00000000 $t
C:\Users\huawei\AppData\Local\Temp\ccXalwLh.s:391    .text.HAL_DMA_Init:00000000 HAL_DMA_Init
C:\Users\huawei\AppData\Local\Temp\ccXalwLh.s:637    .text.HAL_DMA_Init:000000c8 $d
     .ARM.exidx.text.HAL_DMA_Init:00000000 $d
C:\Users\huawei\AppData\Local\Temp\ccXalwLh.s:643    .text.HAL_DMA_DeInit:00000000 $t
C:\Users\huawei\AppData\Local\Temp\ccXalwLh.s:649    .text.HAL_DMA_DeInit:00000000 HAL_DMA_DeInit
   .ARM.exidx.text.HAL_DMA_DeInit:00000000 $d
C:\Users\huawei\AppData\Local\Temp\ccXalwLh.s:784    .text.HAL_DMA_Start:00000000 $t
C:\Users\huawei\AppData\Local\Temp\ccXalwLh.s:790    .text.HAL_DMA_Start:00000000 HAL_DMA_Start
    .ARM.exidx.text.HAL_DMA_Start:00000000 $d
C:\Users\huawei\AppData\Local\Temp\ccXalwLh.s:877    .text.HAL_DMA_Start_IT:00000000 $t
C:\Users\huawei\AppData\Local\Temp\ccXalwLh.s:883    .text.HAL_DMA_Start_IT:00000000 HAL_DMA_Start_IT
 .ARM.exidx.text.HAL_DMA_Start_IT:00000000 $d
C:\Users\huawei\AppData\Local\Temp\ccXalwLh.s:1004   .text.HAL_DMA_Abort:00000000 $t
C:\Users\huawei\AppData\Local\Temp\ccXalwLh.s:1010   .text.HAL_DMA_Abort:00000000 HAL_DMA_Abort
    .ARM.exidx.text.HAL_DMA_Abort:00000000 $d
C:\Users\huawei\AppData\Local\Temp\ccXalwLh.s:1170   .text.HAL_DMA_Abort_IT:00000000 $t
C:\Users\huawei\AppData\Local\Temp\ccXalwLh.s:1176   .text.HAL_DMA_Abort_IT:00000000 HAL_DMA_Abort_IT
 .ARM.exidx.text.HAL_DMA_Abort_IT:00000000 $d
C:\Users\huawei\AppData\Local\Temp\ccXalwLh.s:1225   .text.HAL_DMA_PollForTransfer:00000000 $t
C:\Users\huawei\AppData\Local\Temp\ccXalwLh.s:1231   .text.HAL_DMA_PollForTransfer:00000000 HAL_DMA_PollForTransfer
.ARM.exidx.text.HAL_DMA_PollForTransfer:00000000 $d
C:\Users\huawei\AppData\Local\Temp\ccXalwLh.s:1527   .text.HAL_DMA_IRQHandler:00000000 $t
C:\Users\huawei\AppData\Local\Temp\ccXalwLh.s:1533   .text.HAL_DMA_IRQHandler:00000000 HAL_DMA_IRQHandler
C:\Users\huawei\AppData\Local\Temp\ccXalwLh.s:1995   .text.HAL_DMA_IRQHandler:000001d4 $d
.ARM.exidx.text.HAL_DMA_IRQHandler:00000000 $d
C:\Users\huawei\AppData\Local\Temp\ccXalwLh.s:2002   .text.HAL_DMA_RegisterCallback:00000000 $t
C:\Users\huawei\AppData\Local\Temp\ccXalwLh.s:2008   .text.HAL_DMA_RegisterCallback:00000000 HAL_DMA_RegisterCallback
C:\Users\huawei\AppData\Local\Temp\ccXalwLh.s:2060   .text.HAL_DMA_RegisterCallback:0000002c $d
C:\Users\huawei\AppData\Local\Temp\ccXalwLh.s:2066   .text.HAL_DMA_RegisterCallback:00000032 $t
.ARM.exidx.text.HAL_DMA_RegisterCallback:00000000 $d
C:\Users\huawei\AppData\Local\Temp\ccXalwLh.s:2138   .text.HAL_DMA_UnRegisterCallback:00000000 $t
C:\Users\huawei\AppData\Local\Temp\ccXalwLh.s:2144   .text.HAL_DMA_UnRegisterCallback:00000000 HAL_DMA_UnRegisterCallback
C:\Users\huawei\AppData\Local\Temp\ccXalwLh.s:2194   .text.HAL_DMA_UnRegisterCallback:0000002c $d
.ARM.exidx.text.HAL_DMA_UnRegisterCallback:00000000 $d
C:\Users\huawei\AppData\Local\Temp\ccXalwLh.s:2289   .text.HAL_DMA_GetState:00000000 $t
C:\Users\huawei\AppData\Local\Temp\ccXalwLh.s:2295   .text.HAL_DMA_GetState:00000000 HAL_DMA_GetState
 .ARM.exidx.text.HAL_DMA_GetState:00000000 $d
C:\Users\huawei\AppData\Local\Temp\ccXalwLh.s:2316   .text.HAL_DMA_GetError:00000000 $t
C:\Users\huawei\AppData\Local\Temp\ccXalwLh.s:2322   .text.HAL_DMA_GetError:00000000 HAL_DMA_GetError
 .ARM.exidx.text.HAL_DMA_GetError:00000000 $d
C:\Users\huawei\AppData\Local\Temp\ccXalwLh.s:2343   .rodata._ZZL23DMA_CalcBaseAndBitshiftP19__DMA_HandleTypeDefE18flagBitshiftOffset:00000000 $d
ARM GAS  C:\Users\huawei\AppData\Local\Temp\ccXalwLh.s 			page 80


C:\Users\huawei\AppData\Local\Temp\ccXalwLh.s:2201   .text.HAL_DMA_UnRegisterCallback:00000033 $d
C:\Users\huawei\AppData\Local\Temp\ccXalwLh.s:2201   .text.HAL_DMA_UnRegisterCallback:00000034 $t

UNDEFINED SYMBOLS
HAL_GetTick
__aeabi_unwind_cpp_pr0
SystemCoreClock
